

Microchip MPLAB XC8 Assembler V2.40 build 20220703182018 
                                                                                               Wed Mar 15 22:55:41 2023

Microchip MPLAB XC8 C Compiler v2.40 (Free license) build 20220703182018 Og1 
     1                           	processor	18F46K42
     2                           	fnconf	rparam,??,?,0
     3                           	pagewidth 120
     4                           	opt	flic
     5                           	psect	idataCOMRAM,global,class=CODE,delta=1,noexec
     6                           	psect	idataBANK0,global,class=CODE,delta=1,noexec
     7                           	psect	smallconst,global,reloc=2,class=SMALLCONST,delta=1,noexec
     8                           	psect	nvBANK0,global,class=BANK0,space=1,delta=1,lowdata,noexec
     9                           	psect	cinit,global,reloc=2,class=CODE,delta=1
    10                           	psect	bssCOMRAM,global,class=COMRAM,space=1,delta=1,lowdata,noexec
    11                           	psect	dataCOMRAM,global,class=COMRAM,space=1,delta=1,lowdata,noexec
    12                           	psect	bssBANK0,global,class=BANK0,space=1,delta=1,lowdata,noexec
    13                           	psect	dataBANK0,global,class=BANK0,space=1,delta=1,lowdata,noexec
    14                           	psect	cstackBANK0,global,class=BANK0,space=1,delta=1,lowdata,noexec
    15                           	psect	cstackCOMRAM,global,class=COMRAM,space=1,delta=1,lowdata,noexec
    16                           	psect	text0,global,reloc=2,class=CODE,delta=1
    17                           	psect	text1,global,reloc=2,class=CODE,delta=1
    18                           	psect	text2,global,reloc=2,class=CODE,delta=1
    19                           	psect	text3,global,reloc=2,class=CODE,delta=1
    20                           	psect	text4,global,reloc=2,class=CODE,delta=1
    21                           	psect	text5,global,reloc=2,class=CODE,delta=1
    22                           	psect	text6,global,reloc=2,class=CODE,delta=1
    23                           	psect	text7,global,reloc=2,class=CODE,delta=1
    24                           	psect	text8,global,reloc=2,class=CODE,delta=1
    25                           	psect	text9,global,reloc=2,class=CODE,delta=1
    26                           	psect	text10,global,reloc=2,class=CODE,delta=1
    27                           	psect	text11,global,reloc=2,class=CODE,delta=1
    28                           	psect	text12,global,reloc=2,class=CODE,delta=1
    29                           	psect	text13,global,reloc=2,class=CODE,delta=1
    30                           	psect	text14,global,reloc=2,class=CODE,delta=1
    31                           	psect	text15,global,reloc=2,class=CODE,delta=1
    32                           	psect	text16,global,reloc=2,class=CODE,delta=1
    33                           	psect	text17,global,reloc=2,class=CODE,delta=1
    34                           	psect	text18,global,reloc=2,class=CODE,delta=1
    35                           	psect	text19,global,reloc=2,class=CODE,delta=1
    36                           	psect	text20,global,reloc=2,class=CODE,delta=1,inline
    37                           	psect	text21,global,reloc=2,class=CODE,delta=1
    38                           	psect	text22,global,reloc=2,class=CODE,delta=1
    39                           	psect	text23,global,reloc=2,class=CODE,delta=1
    40                           	psect	text24,global,reloc=2,class=CODE,delta=1
    41                           	psect	text25,global,reloc=2,class=CODE,delta=1
    42                           	psect	text26,global,reloc=2,class=CODE,delta=1
    43                           	psect	text27,global,reloc=2,class=CODE,delta=1
    44                           	psect	text28,global,reloc=4,class=CODE,delta=1
    45                           	psect	text29,global,reloc=2,class=CODE,delta=1
    46                           	psect	text30,global,reloc=2,class=CODE,delta=1
    47                           	psect	text31,global,reloc=2,class=CODE,delta=1
    48                           	psect	text32,global,reloc=2,class=CODE,delta=1
    49                           	psect	text33,global,reloc=2,class=CODE,delta=1
    50                           	psect	text34,global,reloc=2,class=CODE,delta=1
    51                           	psect	text35,global,reloc=4,class=CODE,delta=1
    52                           	psect	text36,global,reloc=2,class=CODE,delta=1
    53                           	psect	text37,global,reloc=2,class=CODE,delta=1,inline
    54                           	psect	text38,global,reloc=2,class=CODE,delta=1
    55                           	psect	text39,global,reloc=2,class=CODE,delta=1
    56                           	psect	text40,global,reloc=2,class=CODE,delta=1
    57                           	psect	text41,global,reloc=2,class=CODE,delta=1
    58                           	psect	text42,global,reloc=2,class=CODE,delta=1
    59                           	psect	text43,global,reloc=2,class=CODE,delta=1
    60                           	psect	text44,global,reloc=2,class=CODE,delta=1
    61                           	psect	text45,global,reloc=2,class=CODE,delta=1,inline
    62                           	psect	text46,global,reloc=2,class=CODE,delta=1,inline
    63                           	psect	text47,global,reloc=2,class=CODE,delta=1,inline
    64                           	psect	text48,global,reloc=4,class=CODE,delta=1
    65                           	psect	text49,global,reloc=2,class=CODE,delta=1
    66                           	psect	text50,global,reloc=2,class=CODE,delta=1
    67                           	psect	text51,global,reloc=2,class=CODE,delta=1
    68                           	psect	text52,global,reloc=2,class=CODE,delta=1
    69                           	psect	text53,global,reloc=2,class=CODE,delta=1
    70                           	psect	text54,global,reloc=2,class=CODE,delta=1
    71                           	psect	text55,global,reloc=2,class=CODE,delta=1,inline
    72                           	psect	text56,global,reloc=2,class=CODE,delta=1,inline
    73                           	psect	text57,global,reloc=2,class=CODE,delta=1,inline
    74                           	psect	text58,global,reloc=4,class=CODE,delta=1
    75                           	psect	text59,global,reloc=2,class=CODE,delta=1
    76                           	psect	text60,global,reloc=4,class=CODE,delta=1
    77                           	psect	text61,global,reloc=4,class=CODE,delta=1
    78                           	psect	text62,global,reloc=2,class=CODE,delta=1
    79                           	psect	text63,global,reloc=4,class=CODE,delta=1
    80                           	psect	text64,global,reloc=2,class=CODE,delta=1
    81                           	psect	text65,global,reloc=2,class=CODE,delta=1
    82                           	psect	text66,global,reloc=4,class=CODE,delta=1
    83                           	psect	text67,global,reloc=2,class=CODE,delta=1
    84                           	psect	text68,global,reloc=2,class=CODE,delta=1
    85                           	psect	text69,global,reloc=4,class=CODE,delta=1
    86                           	psect	text70,global,reloc=2,class=CODE,delta=1
    87                           	psect	text71,global,reloc=2,class=CODE,delta=1
    88                           	psect	text72,global,reloc=4,class=CODE,delta=1
    89                           	psect	text73,global,reloc=4,class=CODE,delta=1
    90                           	psect	text74,global,reloc=4,class=CODE,delta=1
    91                           	psect	text75,global,reloc=2,class=CODE,delta=1
    92                           	psect	text76,global,reloc=2,class=CODE,delta=1
    93                           	psect	text77,global,reloc=2,class=CODE,delta=1
    94                           	psect	text78,global,reloc=2,class=CODE,delta=1
    95                           	psect	text79,global,reloc=2,class=CODE,delta=1
    96                           	psect	text80,global,reloc=4,class=CODE,delta=1
    97                           	psect	text81,global,reloc=2,class=CODE,delta=1
    98                           	psect	text82,global,reloc=4,class=CODE,delta=1
    99                           	psect	text83,global,reloc=2,class=CODE,delta=1
   100                           	psect	text84,global,reloc=4,class=CODE,delta=1
   101                           	psect	text85,global,reloc=4,class=CODE,delta=1
   102                           	psect	text86,global,reloc=2,class=CODE,delta=1
   103                           	psect	ivt0x8,global,reloc=2,class=CODE,delta=1,noexec,keep,optim=
   104                           	psect	intsave_regs,global,class=BIGRAM,space=1,delta=1,noexec
   105                           	psect	text87,global,reloc=2,class=CODE,delta=1
   106                           	psect	rparam,global,class=COMRAM,space=1,delta=1,noexec
   107                           	psect	idloc,global,abs,ovrld,class=IDLOC,space=5,delta=1,noexec
   108                           	psect	config,global,abs,ovrld,class=CONFIG,space=4,delta=1,noexec
   109   000000                     
   110                           ; Generated 06/04/2022 GMT
   111                           ; 
   112                           ; Copyright © 2022, Microchip Technology Inc. and its subsidiaries ("Microchip")
   113                           ; All rights reserved.
   114                           ; 
   115                           ; This software is developed by Microchip Technology Inc. and its subsidiaries ("Microch
      +                          ip").
   116                           ; 
   117                           ; Redistribution and use in source and binary forms, with or without modification, are
   118                           ; permitted provided that the following conditions are met:
   119                           ; 
   120                           ;     1. Redistributions of source code must retain the above copyright notice, this lis
      +                          t of
   121                           ;        conditions and the following disclaimer.
   122                           ; 
   123                           ;     2. Redistributions in binary form must reproduce the above copyright notice, this 
      +                          list
   124                           ;        of conditions and the following disclaimer in the documentation and/or other
   125                           ;        materials provided with the distribution. Publication is not required when
   126                           ;        this file is used in an embedded application.
   127                           ; 
   128                           ;     3. Microchip's name may not be used to endorse or promote products derived from th
      +                          is
   129                           ;        software without specific prior written permission.
   130                           ; 
   131                           ; THIS SOFTWARE IS PROVIDED BY MICROCHIP "AS IS" AND ANY EXPRESS OR IMPLIED WARRANTIES,
   132                           ; INCLUDING, BUT NOT LIMITED TO, THE IMPLIED WARRANTIES OF MERCHANTABILITY AND FITNESS F
      +                          OR
   133                           ; PURPOSE ARE DISCLAIMED.  IN NO EVENT SHALL MICROCHIP BE LIABLE FOR ANY DIRECT, INDIREC
      +                          T,
   134                           ; INCIDENTAL, SPECIAL, EXEMPLARY, OR CONSEQUENTIAL DAMAGES (INCLUDING BUT NOT LIMITED TO
   135                           ; PROCUREMENT OF SUBSTITUTE GOODS OR SERVICES; LOSS OF USE, DATA OR PROFITS; OR BUSINESS
   136                           ; INTERRUPTION) HOWSOEVER CAUSED AND ON ANY THEORY OF LIABILITY, WHETHER IN CONTRACT, ST
      +                          RICT
   137                           ; LIABILITY, OR TORT (INCLUDING NEGLIGENCE OR OTHERWISE) ARISING IN ANY WAY OUT OF THE U
      +                          SE OF
   138                           ; THIS SOFTWARE, EVEN IF ADVISED OF THE POSSIBILITY OF SUCH DAMAGE.
   139                           ; 
   140                           ; 
   141                           ; Code-generator required, PIC18F46K42 Definitions
   142                           ; 
   143                           ; SFR Addresses
   144   000000                     
   145 ;; Function _I2C2_Deinitialize is unused but had its address taken
   146   000000                     
   147 ;; Function _I2C2_Write is unused but had its address taken
   148   000000                     
   149 ;; Function _I2C2_Read is unused but had its address taken
   150   000000                     
   151 ;; Function _I2C2_WriteRead is unused but had its address taken
   152   000000                     
   153 ;; Function _I2C2_ErrorGet is unused but had its address taken
   154   000000                     
   155 ;; Function _I2C2_IsBusy is unused but had its address taken
   156   000000                     
   157 ;; Function _SPI1_Close is unused but had its address taken
   158   000000                     
   159 ;; Function _SPI1_ByteExchange is unused but had its address taken
   160   000000                     
   161 ;; Function _SPI1_BufferExchange is unused but had its address taken
   162   000000                     
   163 ;; Function _SPI1_BufferWrite is unused but had its address taken
   164   000000                     
   165 ;; Function _SPI1_BufferRead is unused but had its address taken
   166   000000                     
   167 ;; Function _SPI1_ByteRead is unused but had its address taken
   168   000000                     
   169 ;; Function _Timer_Start is unused but had its address taken
   170   000000                     
   171 ;; Function _Timer_Stop is unused but had its address taken
   172   000000                     
   173 ;; Function _Timer_PeriodCountSet is unused but had its address taken
   174   000000                     
   175 ;; Function _Timer2_PeriodCountSet is unused but had its address taken
   176   000000                     
   177 ;; Function _Timer1_Start is unused but had its address taken
   178   000000                     
   179 ;; Function _Timer1_Stop is unused but had its address taken
   180   000000                     
   181 ;; Function _Timer1_PeriodCountSet is unused but had its address taken
   182   000000                     
   183 ;; Function _UART1_Deinitialize is unused but had its address taken
   184   000000                     
   185 ;; Function _UART1_TransmitEnable is unused but had its address taken
   186   000000                     
   187 ;; Function _UART1_TransmitDisable is unused but had its address taken
   188   000000                     
   189 ;; Function _UART1_AutoBaudSet is unused but had its address taken
   190   000000                     
   191 ;; Function _UART1_AutoBaudQuery is unused but had its address taken
   192   000000                     
   193 ;; Function _UART1_IsRxReady is unused but had its address taken
   194   000000                     
   195 ;; Function _UART1_IsTxReady is unused but had its address taken
   196   000000                     
   197 ;; Function _UART1_IsTxDone is unused but had its address taken
   198   000000                     
   199 ;; Function _UART1_ErrorGet is unused but had its address taken
   200   000000                     
   201 ;; Function _UART1_Read is unused but had its address taken
   202   000000                     
   203 ;; Function _UART1_ReceiveISR is unused but had its address taken
   204   000000                     
   205 ;; Function _UART1_DefaultFramingErrorCallback is unused but had its address taken
   206   000000                     
   207 ;; Function _UART1_DefaultOverrunErrorCallback is unused but had its address taken
   208   000000                     
   209 ;; Function _UART1_DefaultParityErrorCallback is unused but had its address taken
   210   000000                     
   211 ;; Function _UART1_RxCompleteCallbackRegister is unused but had its address taken
   212   000000                     
   213 ;; Function _UART1_TxCompleteCallbackRegister is unused but had its address taken
   214   000000                     
   215                           	psect	idataCOMRAM
   216   001EFA                     __pidataCOMRAM:
   217                           	callstack 0
   218                           
   219                           ;initializer for UART1_Receive_Vector_ISR@mesage
   220   001EFA  0001               	dw	1
   221                           
   222                           ;initializer for _PERIOD
   223   001EFC  0002               	dw	2
   224                           
   225                           	psect	idataBANK0
   226   001E0A                     __pidataBANK0:
   227                           	callstack 0
   228                           
   229                           ;initializer for _valp
   230   001E0A  30                 	db	48
   231   001E0B  31                 	db	49
   232   001E0C  32                 	db	50
   233   001E0D  33                 	db	51
   234   001E0E  34                 	db	52
   235   001E0F  35                 	db	53
   236   001E10  36                 	db	54
   237   001E11  37                 	db	55
   238   001E12  38                 	db	56
   239   001E13  39                 	db	57
   240   001E14  41                 	db	65
   241   001E15  42                 	db	66
   242   001E16  43                 	db	67
   243   001E17  44                 	db	68
   244   001E18  45                 	db	69
   245   001E19  46                 	db	70
   246                           
   247                           	psect	smallconst
   248   001000                     __psmallconst:
   249                           	callstack 0
   250   001000  00                 	db	0
   251   001001                     _UART:
   252                           	callstack 0
   253   001001  78                 	db	low _UART1_Initialize
   254   001002  12                 	db	high _UART1_Initialize
   255   001003  00                 	db	0
   256   001004  00                 	db	0
   257   001005  00                 	db	0
   258   001006  00                 	db	0
   259   001007  A8                 	db	low _UART1_Write
   260   001008  17                 	db	high _UART1_Write
   261   001009  00                 	db	0
   262   00100A  00                 	db	0
   263   00100B  00                 	db	0
   264   00100C  00                 	db	0
   265   00100D  00                 	db	0
   266   00100E  00                 	db	0
   267   00100F  00                 	db	0
   268   001010  00                 	db	0
   269   001011  00                 	db	0
   270   001012  00                 	db	0
   271   001013  00                 	db	0
   272   001014  00                 	db	0
   273   001015  00                 	db	0
   274   001016  00                 	db	0
   275   001017  00                 	db	0
   276   001018  00                 	db	0
   277   001019  00                 	db	0
   278   00101A  00                 	db	0
   279   00101B  00                 	db	0
   280   00101C  00                 	db	0
   281   00101D  00                 	db	0
   282   00101E  00                 	db	0
   283   00101F  00                 	db	0
   284   001020  00                 	db	0
   285   001021  00                 	db	0
   286   001022  00                 	db	0
   287   001023  00                 	db	0
   288   001024  00                 	db	0
   289   001025  00                 	db	0
   290   001026  00                 	db	0
   291   001027  00                 	db	0
   292   001028  00                 	db	0
   293   001029  EC                 	db	low _UART1_FramingErrorCallbackRegister
   294   00102A  1C                 	db	high _UART1_FramingErrorCallbackRegister
   295   00102B  CE                 	db	low _UART1_OverrunErrorCallbackRegister
   296   00102C  1C                 	db	high _UART1_OverrunErrorCallbackRegister
   297   00102D  B0                 	db	low _UART1_ParityErrorCallbackRegister
   298   00102E  1C                 	db	high _UART1_ParityErrorCallbackRegister
   299   00102F  00                 	db	0
   300   001030  00                 	db	0
   301   001031                     __end_of_UART:
   302                           	callstack 0
   303   001031                     _I2C_Host:
   304                           	callstack 0
   305   001031  42                 	db	low _I2C2_Initialize
   306   001032  16                 	db	high _I2C2_Initialize
   307   001033  00                 	db	0
   308   001034  00                 	db	0
   309   001035  00                 	db	0
   310   001036  00                 	db	0
   311   001037  00                 	db	0
   312   001038  00                 	db	0
   313   001039  00                 	db	0
   314   00103A  00                 	db	0
   315   00103B  00                 	db	0
   316   00103C  00                 	db	0
   317   00103D  00                 	db	0
   318   00103E  00                 	db	0
   319   00103F  00                 	db	0
   320   001040  00                 	db	0
   321   001041  0A                 	db	low _I2C2_CallbackRegister
   322   001042  1D                 	db	high _I2C2_CallbackRegister
   323   001043  00                 	db	0
   324   001044  00                 	db	0
   325   001045                     __end_of_I2C_Host:
   326                           	callstack 0
   327   001045                     _SPI1:
   328                           	callstack 0
   329   001045  28                 	db	low _SPI1_Initialize
   330   001046  1D                 	db	high _SPI1_Initialize
   331   001047  00                 	db	0
   332   001048  00                 	db	0
   333   001049  C8                 	db	low _SPI1_Open
   334   00104A  1B                 	db	high _SPI1_Open
   335   00104B  00                 	db	0
   336   00104C  00                 	db	0
   337   00104D  00                 	db	0
   338   00104E  00                 	db	0
   339   00104F  00                 	db	0
   340   001050  00                 	db	0
   341   001051  00                 	db	0
   342   001052  00                 	db	0
   343   001053  00                 	db	0
   344   001054  00                 	db	0
   345   001055  94                 	db	low _SPI1_ByteWrite
   346   001056  1E                 	db	high _SPI1_ByteWrite
   347   001057                     __end_of_SPI1:
   348                           	callstack 0
   349   001057                     _Timer1:
   350                           	callstack 0
   351   001057  8A                 	db	low _Timer1_Initialize
   352   001058  18                 	db	high _Timer1_Initialize
   353   001059  00                 	db	0
   354   00105A  00                 	db	0
   355   00105B  00                 	db	0
   356   00105C  00                 	db	0
   357   00105D  00                 	db	0
   358   00105E  00                 	db	0
   359   00105F  62                 	db	low _Timer1_OverflowCallbackRegister
   360   001060  1E                 	db	high _Timer1_OverflowCallbackRegister
   361   001061  00                 	db	0
   362   001062  00                 	db	0
   363   001063                     __end_of_Timer1:
   364                           	callstack 0
   365   001063                     _Timer2:
   366                           	callstack 0
   367   001063  58                 	db	low _Timer2_Initialize
   368   001064  1A                 	db	high _Timer2_Initialize
   369   001065  FE                 	db	low _Timer2_Start
   370   001066  1E                 	db	high _Timer2_Start
   371   001067  02                 	db	low _Timer2_Stop
   372   001068  1F                 	db	high _Timer2_Stop
   373   001069  00                 	db	0
   374   00106A  00                 	db	0
   375   00106B  58                 	db	low _Timer2_OverflowCallbackRegister
   376   00106C  1E                 	db	high _Timer2_OverflowCallbackRegister
   377   00106D  00                 	db	0
   378   00106E  00                 	db	0
   379   00106F                     __end_of_Timer2:
   380                           	callstack 0
   381   00106F                     _Timer:
   382                           	callstack 0
   383   00106F  26                 	db	low _Timer_Initialize
   384   001070  1A                 	db	high _Timer_Initialize
   385   001071  00                 	db	0
   386   001072  00                 	db	0
   387   001073  00                 	db	0
   388   001074  00                 	db	0
   389   001075  00                 	db	0
   390   001076  00                 	db	0
   391   001077  4E                 	db	low _Timer_OverflowCallbackRegister
   392   001078  1E                 	db	high _Timer_OverflowCallbackRegister
   393   001079  00                 	db	0
   394   00107A  00                 	db	0
   395   00107B                     __end_of_Timer:
   396                           	callstack 0
   397   00107B  83                 	db	131
   398   00107C  40                 	db	64
   399   00107D  02                 	db	2
   400   00107E  3F                 	db	63
   401   00107F  00                 	db	0
   402   001080                     __end_of_spi1_configuration:
   403                           	callstack 0
   404   000000                     _T1CON	set	16306
   405   000000                     _TMR1L	set	16304
   406   000000                     _TMR1H	set	16305
   407   000000                     _T1CLK	set	16309
   408   000000                     _T1GATE	set	16308
   409   000000                     _T1GCON	set	16307
   410   000000                     _T2CON	set	16300
   411   000000                     _PIE4bits	set	14740
   412   000000                     _PIR4bits	set	14756
   413   000000                     _T2RST	set	16303
   414   000000                     _T0CON0	set	16312
   415   000000                     _PIR3bits	set	14755
   416   000000                     _T0CON1	set	16313
   417   000000                     _PIR5bits	set	14757
   418   000000                     _IVTBASEL	set	16341
   419   000000                     _IVTBASEH	set	16342
   420   000000                     _IVTBASEU	set	16343
   421   000000                     _OSCTUNE	set	14814
   422   000000                     _OSCFRQ	set	14815
   423   000000                     _OSCCON1	set	14809
   424   000000                     _I2C2SDAPPS	set	15076
   425   000000                     _RB1PPS	set	14857
   426   000000                     _RC5PPS	set	14869
   427   000000                     _RC6PPS	set	14870
   428   000000                     _ANSELA	set	14912
   429   000000                     _TRISB	set	16323
   430   000000                     _PIR2bits	set	14754
   431   000000                     _I2C2STAT1	set	15714
   432   000000                     _I2C2STAT0bits	set	15713
   433   000000                     _RC3I2C	set	14954
   434   000000                     _I2C2CNT	set	15702
   435   000000                     _I2C2ERR	set	15712
   436   000000                     _I2C2PIE	set	15716
   437   000000                     _I2C2PIR	set	15715
   438   000000                     _I2C2CLK	set	15717
   439   000000                     _I2C2CON2	set	15711
   440   000000                     _I2C2CON1	set	15710
   441   000000                     _I2C2CON0	set	15709
   442   000000                     _FVRCON	set	16065
   443   000000                     _ADERRL	set	16098
   444   000000                     _ADERRH	set	16099
   445   000000                     _ADPREVL	set	16109
   446   000000                     _ADPREVH	set	16110
   447   000000                     _ADFLTRL	set	16102
   448   000000                     _ADFLTRH	set	16103
   449   000000                     _ADACCL	set	16104
   450   000000                     _ADACCH	set	16105
   451   000000                     _ADCNT	set	16107
   452   000000                     _ADRESL	set	16111
   453   000000                     _ADRESH	set	16112
   454   000000                     _ADCON0	set	16120
   455   000000                     _ADCON1	set	16121
   456   000000                     _ADPREH	set	16119
   457   000000                     _ADPREL	set	16118
   458   000000                     _ADCAP	set	16117
   459   000000                     _ADACQH	set	16116
   460   000000                     _ADPCH	set	16113
   461   000000                     _ADRPT	set	16108
   462   000000                     _ADACCU	set	16106
   463   000000                     _ADSTPTH	set	16101
   464   000000                     _ADSTPTL	set	16100
   465   000000                     _ADUTHH	set	16097
   466   000000                     _ADUTHL	set	16096
   467   000000                     _ADLTHH	set	16095
   468   001080  00                 	db	0	; dummy byte at the end
   469   000000                     
   470                           	psect	nvBANK0
   471   0000C3                     __pnvBANK0:
   472                           	callstack 0
   473   0000C3                     _ADCC_ADI_InterruptHandler:
   474                           	callstack 0
   475   0000C3                     	ds	2
   476   000000                     _U1ERRIRbits	set	15865
   477   000000                     _U1UIRbits	set	15864
   478   000000                     _U1CON0bits	set	15858
   479   000000                     _U1CON1bits	set	15859
   480   000000                     _SPI1CON0bits	set	15636
   481   000000                     _I2C2STAT1bits	set	15714
   482   000000                     _I2C2CON1bits	set	15710
   483   000000                     _I2C2ERRbits	set	15712
   484   000000                     _I2C2PIRbits	set	15715
   485   000000                     _I2C2CON0bits	set	15709
   486   000000                     _I2C2PIEbits	set	15716
   487   000000                     _FVRCONbits	set	16065
   488   000000                     _ADCON1bits	set	16121
   489   000000                     _ADSTATbits	set	16124
   490   000000                     _ADCON2bits	set	16122
   491   000000                     _ADCON3bits	set	16123
   492   000000                     _ADCON0bits	set	16120
   493   000000                     _LATDbits	set	16317
   494   000000                     _T1GCONbits	set	16307
   495   000000                     _T1CONbits	set	16306
   496   000000                     _LATBbits	set	16315
   497   000000                     _LATEbits	set	16318
   498   000000                     _PR2	set	16299
   499   000000                     _TMR2	set	16298
   500   000000                     _T2CONbits	set	16300
   501   000000                     _T2RSTbits	set	16303
   502   000000                     _T2HLTbits	set	16301
   503   000000                     _T0CON0bits	set	16312
   504   000000                     _IVTLOCKbits	set	16340
   505   000000                     _TRISC	set	16324
   506   000000                     _GIE	set	130711
   507   000000                     _IPR0bits	set	14720
   508   000000                     _IPR3bits	set	14723
   509   000000                     _PIE1bits	set	14737
   510   000000                     _PIR1bits	set	14753
   511   000000                     _ADLTHL	set	16094
   512   000000                     _ADACQL	set	16115
   513   000000                     _T2TMR	set	16298
   514   000000                     _T2PR	set	16299
   515   000000                     _T2HLT	set	16301
   516   000000                     _T2CLKCON	set	16302
   517   000000                     _TMR0L	set	16310
   518   000000                     _TMR0H	set	16311
   519   000000                     _LATA	set	16314
   520   000000                     _TRISCbits	set	16324
   521   000000                     _ADCLK	set	16127
   522   000000                     _ADACT	set	16126
   523   000000                     _ADREF	set	16125
   524   000000                     _ADSTAT	set	16124
   525   000000                     _ADCON3	set	16123
   526   000000                     _ADCON2	set	16122
   527   000000                     _PIE3bits	set	14739
   528   000000                     _PIE5bits	set	14741
   529   000000                     _PIE6bits	set	14742
   530   000000                     _I2C1TXB	set	15723
   531   000000                     _I2C2ADB1	set	15704
   532   000000                     _ANSELD	set	14960
   533   000000                     _SPI1RXB	set	15632
   534   000000                     _SPI1TXB	set	15633
   535   000000                     _SPI1TCNTL	set	15634
   536   000000                     _SPI1CON0	set	15636
   537   000000                     _SPI1CON1	set	15637
   538   000000                     _I2C2RXB	set	15700
   539   000000                     _I2C2TXB	set	15701
   540   000000                     _RC4I2C	set	14955
   541   000000                     _I2C1STAT1	set	15736
   542   000000                     _I2C1ERR	set	15734
   543   000000                     _I2C1CON2	set	15733
   544   000000                     _I2C1CON1	set	15732
   545   000000                     _I2C1CON0	set	15731
   546   000000                     _I2C1ADR3	set	15730
   547   000000                     _I2C1ADR2	set	15729
   548   000000                     _I2C1ADR1	set	15728
   549   000000                     _I2C1ADR0	set	15727
   550   000000                     _I2C1ADB1	set	15726
   551   000000                     _I2C1ADB0	set	15725
   552   000000                     _I2C1CNT	set	15724
   553   000000                     _U2TXB	set	15826
   554   000000                     _I2C1BTO	set	15740
   555   000000                     _I2C1CLK	set	15739
   556   000000                     _I2C1PIE	set	15738
   557   000000                     _I2C1PIR	set	15737
   558   000000                     _U2P1L	set	15828
   559   000000                     _U2P2L	set	15830
   560   000000                     _U2P3L	set	15832
   561   000000                     _U2CON0	set	15834
   562   000000                     _U1RXB	set	15848
   563   000000                     _U2ERRIE	set	15842
   564   000000                     _U2ERRIR	set	15841
   565   000000                     _U2UIR	set	15840
   566   000000                     _U2FIFO	set	15839
   567   000000                     _U2BRGH	set	15838
   568   000000                     _U2BRGL	set	15837
   569   000000                     _U2CON2	set	15836
   570   000000                     _U2CON1	set	15835
   571   000000                     _SPI1BAUD	set	15641
   572   000000                     _SPI1CLK	set	15644
   573   000000                     _SPI1CON2	set	15638
   574   000000                     _INTCON0bits	set	16338
   575   000000                     _TRISE	set	16326
   576   000000                     _TRISD	set	16325
   577   000000                     _TRISA	set	16322
   578   000000                     _LATE	set	16318
   579   000000                     _LATD	set	16317
   580   000000                     _LATC	set	16316
   581   000000                     _LATB	set	16315
   582   000000                     _IOCAF	set	14919
   583   000000                     _IOCAN	set	14918
   584   000000                     _IOCAP	set	14917
   585   000000                     _INLVLA	set	14916
   586   000000                     _SLRCONA	set	14915
   587   000000                     _ODCONA	set	14914
   588   000000                     _WPUA	set	14913
   589   000000                     _ANSELB	set	14928
   590   000000                     _IOCBF	set	14935
   591   000000                     _IOCBN	set	14934
   592   000000                     _IOCBP	set	14933
   593   000000                     _INLVLB	set	14932
   594   000000                     _SLRCONB	set	14931
   595   000000                     _ODCONB	set	14930
   596   000000                     _RB1I2C	set	14938
   597   000000                     _WPUB	set	14929
   598   000000                     _ANSELC	set	14944
   599   000000                     _IOCCF	set	14951
   600   000000                     _IOCCN	set	14950
   601   000000                     _IOCCP	set	14949
   602   000000                     _INLVLC	set	14948
   603   000000                     _SLRCONC	set	14947
   604   000000                     _ODCONC	set	14946
   605   000000                     _WPUC	set	14945
   606   000000                     _INLVLD	set	14964
   607   000000                     _SLRCOND	set	14963
   608   000000                     _ODCOND	set	14962
   609   000000                     _RD0I2C	set	14970
   610   000000                     _WPUD	set	14961
   611   000000                     _ANSELE	set	14976
   612   000000                     _IOCEF	set	14983
   613   000000                     _IOCEN	set	14982
   614   000000                     _IOCEP	set	14981
   615   000000                     _SPI1SCKPPS	set	15070
   616   000000                     _SPI1SDIPPS	set	15071
   617   000000                     _U1RXPPS	set	15077
   618   000000                     _INLVLE	set	14980
   619   000000                     _SLRCONE	set	14979
   620   000000                     _ODCONE	set	14978
   621   000000                     _WPUE	set	14977
   622   000000                     _RB2I2C	set	14939
   623   000000                     _RD1I2C	set	14971
   624   000000                     _I2C2SCLPPS	set	15075
   625   000000                     _RC3PPS	set	14867
   626   000000                     _RB2PPS	set	14858
   627   000000                     _OSCCON3	set	14811
   628   000000                     _OSCEN	set	14813
   629   000000                     _IVTLOCK	set	16340
   630   000000                     _IPR6bits	set	14726
   631   000000                     _IPR5bits	set	14725
   632   000000                     _IPR4bits	set	14724
   633   000000                     _IPR1bits	set	14721
   634   000000                     _PIR7bits	set	14759
   635   000000                     _U1ERRIE	set	15866
   636   000000                     _U1ERRIR	set	15865
   637   000000                     _U1UIR	set	15864
   638   000000                     _U1FIFO	set	15863
   639   000000                     _U1BRGH	set	15862
   640   000000                     _U1BRGL	set	15861
   641   000000                     _U1CON2	set	15860
   642   000000                     _U1CON1	set	15859
   643   000000                     _U1CON0	set	15858
   644   000000                     _U1P3H	set	15857
   645   000000                     _U1P3L	set	15856
   646   000000                     _U1P2H	set	15855
   647   000000                     _U1P2L	set	15854
   648   000000                     _U1P1H	set	15853
   649   000000                     _U1P1L	set	15852
   650   000000                     _U1TXCHK	set	15851
   651   000000                     _U1TXB	set	15850
   652   000000                     _U1RXCHK	set	15849
   653                           
   654                           ; #config settings
   655                           
   656                           	psect	cinit
   657   0015D4                     __pcinit:
   658                           	callstack 0
   659   0015D4                     start_initialization:
   660                           	callstack 0
   661   0015D4                     __initialization:
   662                           	callstack 0
   663                           
   664                           ; Initialize objects allocated to BANK0 (16 bytes)
   665                           ; load TBLPTR registers with __pidataBANK0
   666   0015D4  0E0A               	movlw	low __pidataBANK0
   667   0015D6  6EF6               	movwf	tblptrl,c
   668   0015D8  0E1E               	movlw	high __pidataBANK0
   669   0015DA  6EF7               	movwf	tblptrh,c
   670   0015DC  0E00               	movlw	low (__pidataBANK0 shr (0+16))
   671   0015DE  6EF8               	movwf	tblptru,c
   672   0015E0  EE00  F0B3         	lfsr	0,__pdataBANK0
   673   0015E4  EE10 F010          	lfsr	1,16
   674   0015E8                     copy_data0:
   675   0015E8  0009               	tblrd		*+
   676   0015EA  006F FFD7 FFEE     	movff	tablat,postinc0
   677   0015F0  50E5               	movf	postdec1,w,c
   678   0015F2  50E1               	movf	fsr1l,w,c
   679   0015F4  E1F9               	bnz	copy_data0
   680                           
   681                           ; Initialize objects allocated to COMRAM (4 bytes)
   682                           ; load TBLPTR registers with __pidataCOMRAM
   683   0015F6  0EFA               	movlw	low __pidataCOMRAM
   684   0015F8  6EF6               	movwf	tblptrl,c
   685   0015FA  0E1E               	movlw	high __pidataCOMRAM
   686   0015FC  6EF7               	movwf	tblptrh,c
   687   0015FE  0E00               	movlw	low (__pidataCOMRAM shr (0+16))
   688   001600  6EF8               	movwf	tblptru,c
   689   001602  EE00  F044         	lfsr	0,__pdataCOMRAM
   690   001606  EE10 F004          	lfsr	1,4
   691   00160A                     copy_data1:
   692   00160A  0009               	tblrd		*+
   693   00160C  006F FFD7 FFEE     	movff	tablat,postinc0
   694   001612  50E5               	movf	postdec1,w,c
   695   001614  50E1               	movf	fsr1l,w,c
   696   001616  E1F9               	bnz	copy_data1
   697                           
   698                           ; Clear objects allocated to BANK0 (62 bytes)
   699   001618  EE00  F060         	lfsr	0,__pbssBANK0
   700   00161C  0E3E               	movlw	62
   701   00161E                     clear_0:
   702   00161E  6AEE               	clrf	postinc0,c
   703   001620  06E8               	decf	wreg,f,c
   704   001622  E1FD               	bnz	clear_0
   705                           
   706                           ; Clear objects allocated to COMRAM (42 bytes)
   707   001624  EE00  F001         	lfsr	0,__pbssCOMRAM
   708   001628  0E2A               	movlw	42
   709   00162A                     clear_1:
   710   00162A  6AEE               	clrf	postinc0,c
   711   00162C  06E8               	decf	wreg,f,c
   712   00162E  E1FD               	bnz	clear_1
   713                           
   714                           ;
   715                           ; Setup IVTBASE
   716                           ;
   717   001630  0E08               	movlw	(ivt0x8_base shr 0)& (0+255)
   718   001632  6ED5               	movwf	213,c
   719   001634  0E00               	movlw	(ivt0x8_base shr (0+8))& (0+255)
   720   001636  6ED6               	movwf	214,c
   721   001638  0E00               	movlw	(ivt0x8_base shr (0+16))& (0+255)
   722   00163A  6ED7               	movwf	215,c
   723   00163C                     end_of_initialization:
   724                           	callstack 0
   725   00163C                     __end_of__initialization:
   726                           	callstack 0
   727   00163C  0100               	movlb	0
   728   00163E  EFDD  F00C         	goto	_main	;jump to C main() function
   729                           
   730                           	psect	bssCOMRAM
   731   000001                     __pbssCOMRAM:
   732                           	callstack 0
   733   000001                     _i2c2Status:
   734                           	callstack 0
   735   000001                     	ds	13
   736   00000E                     Timer_int@count:
   737                           	callstack 0
   738   00000E                     	ds	2
   739   000010                     UART_RX_int@mesage:
   740                           	callstack 0
   741   000010                     	ds	2
   742   000012                     _UART1_RxCompleteInterruptHandler:
   743                           	callstack 0
   744   000012                     	ds	2
   745   000014                     _UART1_TxCompleteInterruptHandler:
   746                           	callstack 0
   747   000014                     	ds	2
   748   000016                     _UART1_OverrunErrorHandler:
   749                           	callstack 0
   750   000016                     	ds	2
   751   000018                     _UART1_FramingErrorHandler:
   752                           	callstack 0
   753   000018                     	ds	2
   754   00001A                     	ds	2
   755   00001C                     _Timer1_OverflowCallback:
   756                           	callstack 0
   757   00001C                     	ds	2
   758   00001E                     _Timer1_InterruptHandler:
   759                           	callstack 0
   760   00001E                     	ds	2
   761   000020                     _timer1ReloadVal:
   762                           	callstack 0
   763   000020                     	ds	2
   764   000022                     UART_RX_int@opcode:
   765                           	callstack 0
   766   000022                     	ds	1
   767   000023                     UART_RX_int@status:
   768                           	callstack 0
   769   000023                     	ds	1
   770   000024                     UART1_Receive_Vector_ISR@status:
   771                           	callstack 0
   772   000024                     	ds	1
   773   000025                     _uart1RxCount:
   774                           	callstack 0
   775   000025                     	ds	1
   776   000026                     _uart1RxTail:
   777                           	callstack 0
   778   000026                     	ds	1
   779   000027                     _uart1RxHead:
   780                           	callstack 0
   781   000027                     	ds	1
   782   000028                     _uart1TxBufferRemaining:
   783                           	callstack 0
   784   000028                     	ds	1
   785   000029                     _uart1TxTail:
   786                           	callstack 0
   787   000029                     	ds	1
   788   00002A                     _uart1TxHead:
   789                           	callstack 0
   790   00002A                     	ds	1
   791                           
   792                           	psect	dataCOMRAM
   793   000044                     __pdataCOMRAM:
   794                           	callstack 0
   795   000044                     UART1_Receive_Vector_ISR@mesage:
   796                           	callstack 0
   797   000044                     	ds	2
   798   000046                     _PERIOD:
   799                           	callstack 0
   800   000046                     	ds	2
   801                           
   802                           	psect	bssBANK0
   803   000060                     __pbssBANK0:
   804                           	callstack 0
   805   000060                     _uart1RxStatusBuffer:
   806                           	callstack 0
   807   000060                     	ds	16
   808   000070                     _uart1TxBuffer:
   809                           	callstack 0
   810   000070                     	ds	16
   811   000080                     _uart1RxBuffer:
   812                           	callstack 0
   813   000080                     	ds	8
   814   000088                     _UART1_ParityErrorHandler:
   815                           	callstack 0
   816   000088                     	ds	2
   817   00008A                     _uart1RxLastError:
   818                           	callstack 0
   819   00008A                     	ds	2
   820   00008C                     _Timer2_OverflowCallback:
   821                           	callstack 0
   822   00008C                     	ds	2
   823   00008E                     _Timer_OverflowCallback:
   824                           	callstack 0
   825   00008E                     	ds	2
   826   000090                     _timerTMR0ReloadVal16bit:
   827                           	callstack 0
   828   000090                     	ds	2
   829   000092                     _INT2_InterruptHandler:
   830                           	callstack 0
   831   000092                     	ds	2
   832   000094                     _INT1_InterruptHandler:
   833                           	callstack 0
   834   000094                     	ds	2
   835   000096                     _INT0_InterruptHandler:
   836                           	callstack 0
   837   000096                     	ds	2
   838   000098                     _UART1_RxInterruptHandler:
   839                           	callstack 0
   840   000098                     	ds	2
   841   00009A                     _UART1_TxInterruptHandler:
   842                           	callstack 0
   843   00009A                     	ds	2
   844   00009C                     _I2C2_Callback:
   845                           	callstack 0
   846   00009C                     	ds	2
   847                           
   848                           	psect	dataBANK0
   849   0000B3                     __pdataBANK0:
   850                           	callstack 0
   851   0000B3                     _valp:
   852                           	callstack 0
   853   0000B3                     	ds	16
   854                           
   855                           	psect	cstackBANK0
   856   00009E                     __pcstackBANK0:
   857                           	callstack 0
   858   00009E                     	ds	1
   859   00009F                     I2C2_CounterSet@counter:
   860                           	callstack 0
   861                           
   862                           ; 1 bytes @ 0x1
   863   00009F                     	ds	1
   864   0000A0                     ??_I2C2_ERROR_ISR:
   865                           
   866                           ; 1 bytes @ 0x2
   867   0000A0                     	ds	3
   868   0000A3                     ??_I2C2_RX_ISR:
   869                           
   870                           ; 1 bytes @ 0x5
   871   0000A3                     	ds	1
   872   0000A4                     I2C2_DataTransmit@data:
   873                           	callstack 0
   874                           
   875                           ; 1 bytes @ 0x6
   876   0000A4                     	ds	1
   877   0000A5                     ??_I2C2_TX_ISR:
   878                           
   879                           ; 1 bytes @ 0x7
   880   0000A5                     	ds	1
   881   0000A6                     ??_INT0_ISR:
   882                           
   883                           ; 1 bytes @ 0x8
   884   0000A6                     	ds	3
   885   0000A9                     ??_INT1_ISR:
   886                           
   887                           ; 1 bytes @ 0xB
   888   0000A9                     	ds	3
   889   0000AC                     ??_INT2_ISR:
   890                           
   891                           ; 1 bytes @ 0xE
   892   0000AC                     	ds	3
   893   0000AF                     ADCC_SetADIInterruptHandler@InterruptHandler:
   894                           	callstack 0
   895   0000AF                     I2C2_CallbackRegister@callbackHandler:
   896                           	callstack 0
   897   0000AF                     INT0_SetInterruptHandler@InterruptHandler:
   898                           	callstack 0
   899   0000AF                     INT1_SetInterruptHandler@InterruptHandler:
   900                           	callstack 0
   901   0000AF                     INT2_SetInterruptHandler@InterruptHandler:
   902                           	callstack 0
   903   0000AF                     Timer_OverflowCallbackRegister@CallbackHandler:
   904                           	callstack 0
   905   0000AF                     Timer2_OverflowCallbackRegister@InterruptHandler:
   906                           	callstack 0
   907   0000AF                     Timer1_OverflowCallbackRegister@CallbackHandler:
   908                           	callstack 0
   909   0000AF                     UART1_FramingErrorCallbackRegister@callbackHandler:
   910                           	callstack 0
   911   0000AF                     UART1_OverrunErrorCallbackRegister@callbackHandler:
   912                           	callstack 0
   913   0000AF                     UART1_ParityErrorCallbackRegister@callbackHandler:
   914                           	callstack 0
   915                           
   916                           ; 2 bytes @ 0x11
   917   0000AF                     	ds	2
   918   0000B1                     ??_Timer_Initialize:
   919   0000B1                     ??_Timer1_Initialize:
   920   0000B1                     INTERRUPT_Initialize@state:
   921                           	callstack 0
   922                           
   923                           ; 1 bytes @ 0x13
   924   0000B1                     	ds	2
   925   0000B3                     
   926                           ; 1 bytes @ 0x15
   927                           
   928                           	psect	cstackCOMRAM
   929   00002B                     __pcstackCOMRAM:
   930                           	callstack 0
   931   00002B                     
   932                           ; 1 bytes @ 0x0
   933   00002B                     	ds	2
   934   00002D                     ??_Timer_OverflowISR:
   935                           
   936                           ; 1 bytes @ 0x2
   937   00002D                     	ds	2
   938   00002F                     
   939                           ; 1 bytes @ 0x4
   940   00002F                     	ds	2
   941   000031                     ??_Timer2_ISR:
   942                           
   943                           ; 1 bytes @ 0x6
   944   000031                     	ds	2
   945   000033                     i2ADCC_StartConversion@channel:
   946                           	callstack 0
   947   000033                     Timer1_Write@timerVal:
   948                           	callstack 0
   949                           
   950                           ; 2 bytes @ 0x8
   951   000033                     	ds	1
   952   000034                     ??_Timer_int:
   953                           
   954                           ; 1 bytes @ 0x9
   955   000034                     	ds	1
   956   000035                     ??_Timer1_OverflowISR:
   957                           
   958                           ; 1 bytes @ 0xA
   959   000035                     	ds	3
   960   000038                     ??_UART1_Receive_Vector_ISR:
   961                           
   962                           ; 1 bytes @ 0xD
   963   000038                     	ds	2
   964   00003A                     UART1_TransmitISR@tempTxTail:
   965                           	callstack 0
   966                           
   967                           ; 1 bytes @ 0xF
   968   00003A                     	ds	1
   969   00003B                     ADCC_StartConversion@channel:
   970                           	callstack 0
   971   00003B                     SPI1_ByteWrite@byte:
   972                           	callstack 0
   973   00003B                     UART1_Write@tempTxHead:
   974                           	callstack 0
   975                           
   976                           ; 1 bytes @ 0x10
   977   00003B                     	ds	1
   978   00003C                     UART1_Write@txData:
   979                           	callstack 0
   980                           
   981                           ; 1 bytes @ 0x11
   982   00003C                     	ds	1
   983   00003D                     ??_ADC_int:
   984                           
   985                           ; 1 bytes @ 0x12
   986   00003D                     	ds	2
   987   00003F                     ??_ADCC_ISR:
   988                           
   989                           ; 1 bytes @ 0x14
   990   00003F                     	ds	3
   991   000042                     I2C2_AddrTransmit@addr:
   992                           	callstack 0
   993                           
   994                           ; 1 bytes @ 0x17
   995   000042                     	ds	1
   996   000043                     ??_I2C2_ISR:
   997                           
   998                           ; 1 bytes @ 0x18
   999   000043                     	ds	1
  1000                           
  1001 ;;
  1002 ;;Main: autosize = 0, tempsize = 0, incstack = 0, save=0
  1003 ;;
  1004 ;; *************** function _main *****************
  1005 ;; Defined at:
  1006 ;;		line 42 in file "main.c"
  1007 ;; Parameters:    Size  Location     Type
  1008 ;;		None
  1009 ;; Auto vars:     Size  Location     Type
  1010 ;;		None
  1011 ;; Return value:  Size  Location     Type
  1012 ;;                  2  1466[None  ] int 
  1013 ;; Registers used:
  1014 ;;		wreg, status,2, status,0, cstack
  1015 ;; Tracked objects:
  1016 ;;		On entry : 0/0
  1017 ;;		On exit  : 0/0
  1018 ;;		Unchanged: 0/0
  1019 ;; Data sizes:     COMRAM   BANK0   BANK1   BANK2   BANK3   BANK4   BANK5   BANK6   BANK7   BANK8   BANK9  BANK10  BANK1
      +1  BANK12  BANK13  BANK14  BANK15
  1020 ;;      Params:         0       0       0       0       0       0       0       0       0       0       0       0       
      +0       0       0       0       0
  1021 ;;      Locals:         0       0       0       0       0       0       0       0       0       0       0       0       
      +0       0       0       0       0
  1022 ;;      Temps:          0       0       0       0       0       0       0       0       0       0       0       0       
      +0       0       0       0       0
  1023 ;;      Totals:         0       0       0       0       0       0       0       0       0       0       0       0       
      +0       0       0       0       0
  1024 ;;Total ram usage:        0 bytes
  1025 ;; Hardware stack levels required when called: 9
  1026 ;; This function calls:
  1027 ;;		_ADCC_SetADIInterruptHandler
  1028 ;;		_SPI1_Open
  1029 ;;		_SYSTEM_Initialize
  1030 ;;		_Timer_OverflowCallbackRegister
  1031 ;; This function is called by:
  1032 ;;		Startup code after reset
  1033 ;; This function uses a non-reentrant model
  1034 ;;
  1035                           
  1036                           	psect	text0
  1037   0019BA                     __ptext0:
  1038                           	callstack 0
  1039   0019BA                     _main:
  1040                           	callstack 22
  1041   0019BA                     
  1042                           ;main.c: 45:     SYSTEM_Initialize();
  1043   0019BA  ECF8  F00C         	call	_SYSTEM_Initialize	;wreg free
  1044                           
  1045                           ;main.c: 48:     ADCC_SetADIInterruptHandler(ADC_int);
  1046   0019BE  0ED0               	movlw	low _ADC_int
  1047   0019C0  0100               	movlb	0	; () banked
  1048   0019C2  6FAF               	movwf	ADCC_SetADIInterruptHandler@InterruptHandler& (0+255),b
  1049   0019C4  0E13               	movlw	high _ADC_int
  1050   0019C6  6FB0               	movwf	(ADCC_SetADIInterruptHandler@InterruptHandler+1)& (0+255),b
  1051   0019C8  EC45  F00F         	call	_ADCC_SetADIInterruptHandler	;wreg free
  1052                           
  1053                           ;main.c: 49:     Timer_OverflowCallbackRegister(Timer_int);
  1054   0019CC  0EF8               	movlw	low _Timer_int
  1055   0019CE  0100               	movlb	0	; () banked
  1056   0019D0  6FAF               	movwf	Timer_OverflowCallbackRegister@CallbackHandler& (0+255),b
  1057   0019D2  0E17               	movlw	high _Timer_int
  1058   0019D4  6FB0               	movwf	(Timer_OverflowCallbackRegister@CallbackHandler+1)& (0+255),b
  1059   0019D6  EC27  F00F         	call	_Timer_OverflowCallbackRegister	;wreg free
  1060   0019DA                     
  1061                           ;main.c: 50:     SPI1_Open(0);
  1062   0019DA  0E00               	movlw	0
  1063   0019DC  ECE4  F00D         	call	_SPI1_Open
  1064   0019E0                     
  1065                           ;main.c: 51:     LATBbits.LATB4 = 1;
  1066   0019E0  88BB               	bsf	187,4,c	;volatile
  1067   0019E2                     
  1068                           ;main.c: 52:     LATEbits.LATE0 = 1;
  1069   0019E2  80BE               	bsf	190,0,c	;volatile
  1070   0019E4                     
  1071                           ;main.c: 61:     (INTCON0bits.GIE = 1);
  1072   0019E4  8ED2               	bsf	210,7,c	;volatile
  1073   0019E6                     
  1074                           ;main.c: 67:     (INTCON0bits.GIEL = 1);
  1075   0019E6  8CD2               	bsf	210,6,c	;volatile
  1076   0019E8                     l1467:
  1077   0019E8  EFF4  F00C         	goto	l1467
  1078   0019EC  EF57  F000         	goto	start
  1079   0019F0                     __end_of_main:
  1080                           	callstack 0
  1081                           
  1082 ;; *************** function _SYSTEM_Initialize *****************
  1083 ;; Defined at:
  1084 ;;		line 36 in file "mcc_generated_files/system/src/system.c"
  1085 ;; Parameters:    Size  Location     Type
  1086 ;;		None
  1087 ;; Auto vars:     Size  Location     Type
  1088 ;;		None
  1089 ;; Return value:  Size  Location     Type
  1090 ;;                  1    wreg      void 
  1091 ;; Registers used:
  1092 ;;		wreg, status,2, status,0, cstack
  1093 ;; Tracked objects:
  1094 ;;		On entry : 0/0
  1095 ;;		On exit  : 0/0
  1096 ;;		Unchanged: 0/0
  1097 ;; Data sizes:     COMRAM   BANK0   BANK1   BANK2   BANK3   BANK4   BANK5   BANK6   BANK7   BANK8   BANK9  BANK10  BANK1
      +1  BANK12  BANK13  BANK14  BANK15
  1098 ;;      Params:         0       0       0       0       0       0       0       0       0       0       0       0       
      +0       0       0       0       0
  1099 ;;      Locals:         0       0       0       0       0       0       0       0       0       0       0       0       
      +0       0       0       0       0
  1100 ;;      Temps:          0       0       0       0       0       0       0       0       0       0       0       0       
      +0       0       0       0       0
  1101 ;;      Totals:         0       0       0       0       0       0       0       0       0       0       0       0       
      +0       0       0       0       0
  1102 ;;Total ram usage:        0 bytes
  1103 ;; Hardware stack levels used: 1
  1104 ;; Hardware stack levels required when called: 8
  1105 ;; This function calls:
  1106 ;;		_ADCC_Initialize
  1107 ;;		_CLOCK_Initialize
  1108 ;;		_FVR_Initialize
  1109 ;;		_I2C1_Initialize
  1110 ;;		_I2C2_Initialize
  1111 ;;		_INTERRUPT_Initialize
  1112 ;;		_PIN_MANAGER_Initialize
  1113 ;;		_SPI1_Initialize
  1114 ;;		_Timer1_Initialize
  1115 ;;		_Timer2_Initialize
  1116 ;;		_Timer_Initialize
  1117 ;;		_UART1_Initialize
  1118 ;;		_UART2_Initialize
  1119 ;; This function is called by:
  1120 ;;		_main
  1121 ;; This function uses a non-reentrant model
  1122 ;;
  1123                           
  1124                           	psect	text1
  1125   0019F0                     __ptext1:
  1126                           	callstack 0
  1127   0019F0                     _SYSTEM_Initialize:
  1128                           	callstack 22
  1129   0019F0                     
  1130                           ;mcc_generated_files/system/src/system.c: 38:     CLOCK_Initialize();
  1131   0019F0  ECA1  F00E         	call	_CLOCK_Initialize	;wreg free
  1132                           
  1133                           ;mcc_generated_files/system/src/system.c: 39:     PIN_MANAGER_Initialize();
  1134   0019F4  ECC4  F008         	call	_PIN_MANAGER_Initialize	;wreg free
  1135   0019F8                     
  1136                           ;mcc_generated_files/system/src/system.c: 40:     ADCC_Initialize();
  1137   0019F8  EC75  F00A         	call	_ADCC_Initialize	;wreg free
  1138   0019FC                     
  1139                           ;mcc_generated_files/system/src/system.c: 41:     FVR_Initialize();
  1140   0019FC  EC5E  F00F         	call	_FVR_Initialize	;wreg free
  1141                           
  1142                           ;mcc_generated_files/system/src/system.c: 42:     I2C2_Initialize();
  1143   001A00  EC21  F00B         	call	_I2C2_Initialize	;wreg free
  1144   001A04                     
  1145                           ;mcc_generated_files/system/src/system.c: 43:     I2C1_Initialize();
  1146   001A04  EC21  F00C         	call	_I2C1_Initialize	;wreg free
  1147   001A08                     
  1148                           ;mcc_generated_files/system/src/system.c: 44:     SPI1_Initialize();
  1149   001A08  EC94  F00E         	call	_SPI1_Initialize	;wreg free
  1150                           
  1151                           ;mcc_generated_files/system/src/system.c: 45:     Timer_Initialize();
  1152   001A0C  EC13  F00D         	call	_Timer_Initialize	;wreg free
  1153                           
  1154                           ;mcc_generated_files/system/src/system.c: 46:     Timer1_Initialize();
  1155   001A10  EC45  F00C         	call	_Timer1_Initialize	;wreg free
  1156                           
  1157                           ;mcc_generated_files/system/src/system.c: 47:     Timer2_Initialize();
  1158   001A14  EC2C  F00D         	call	_Timer2_Initialize	;wreg free
  1159                           
  1160                           ;mcc_generated_files/system/src/system.c: 48:     UART1_Initialize();
  1161   001A18  EC3C  F009         	call	_UART1_Initialize	;wreg free
  1162   001A1C                     
  1163                           ;mcc_generated_files/system/src/system.c: 49:     UART2_Initialize();
  1164   001A1C  ECA5  F00C         	call	_UART2_Initialize	;wreg free
  1165   001A20                     
  1166                           ;mcc_generated_files/system/src/system.c: 50:     INTERRUPT_Initialize();
  1167   001A20  EC2F  F00A         	call	_INTERRUPT_Initialize	;wreg free
  1168   001A24  0012               	return		;funcret
  1169   001A26                     __end_of_SYSTEM_Initialize:
  1170                           	callstack 0
  1171                           
  1172 ;; *************** function _UART2_Initialize *****************
  1173 ;; Defined at:
  1174 ;;		line 26 in file "mcc_generated_files/peripheral/src/uart2.c"
  1175 ;; Parameters:    Size  Location     Type
  1176 ;;		None
  1177 ;; Auto vars:     Size  Location     Type
  1178 ;;		None
  1179 ;; Return value:  Size  Location     Type
  1180 ;;                  1    wreg      void 
  1181 ;; Registers used:
  1182 ;;		wreg, status,2
  1183 ;; Tracked objects:
  1184 ;;		On entry : 0/0
  1185 ;;		On exit  : 0/0
  1186 ;;		Unchanged: 0/0
  1187 ;; Data sizes:     COMRAM   BANK0   BANK1   BANK2   BANK3   BANK4   BANK5   BANK6   BANK7   BANK8   BANK9  BANK10  BANK1
      +1  BANK12  BANK13  BANK14  BANK15
  1188 ;;      Params:         0       0       0       0       0       0       0       0       0       0       0       0       
      +0       0       0       0       0
  1189 ;;      Locals:         0       0       0       0       0       0       0       0       0       0       0       0       
      +0       0       0       0       0
  1190 ;;      Temps:          0       0       0       0       0       0       0       0       0       0       0       0       
      +0       0       0       0       0
  1191 ;;      Totals:         0       0       0       0       0       0       0       0       0       0       0       0       
      +0       0       0       0       0
  1192 ;;Total ram usage:        0 bytes
  1193 ;; Hardware stack levels used: 1
  1194 ;; Hardware stack levels required when called: 6
  1195 ;; This function calls:
  1196 ;;		Nothing
  1197 ;; This function is called by:
  1198 ;;		_SYSTEM_Initialize
  1199 ;; This function uses a non-reentrant model
  1200 ;;
  1201                           
  1202                           	psect	text2
  1203   00194A                     __ptext2:
  1204                           	callstack 0
  1205   00194A                     _UART2_Initialize:
  1206                           	callstack 23
  1207   00194A                     
  1208                           ;mcc_generated_files/peripheral/src/uart2.c: 28:     U2TXB = 0x0;
  1209   00194A  0E00               	movlw	0
  1210   00194C  013D               	movlb	61	; () banked
  1211   00194E  6FD2               	movwf	210,b	;volatile
  1212                           
  1213                           ;mcc_generated_files/peripheral/src/uart2.c: 30:     U2P1L = 0x0;
  1214   001950  0E00               	movlw	0
  1215   001952  6FD4               	movwf	212,b	;volatile
  1216                           
  1217                           ;mcc_generated_files/peripheral/src/uart2.c: 32:     U2P2L = 0x0;
  1218   001954  0E00               	movlw	0
  1219   001956  6FD6               	movwf	214,b	;volatile
  1220                           
  1221                           ;mcc_generated_files/peripheral/src/uart2.c: 34:     U2P3L = 0x0;
  1222   001958  0E00               	movlw	0
  1223   00195A  6FD8               	movwf	216,b	;volatile
  1224                           
  1225                           ;mcc_generated_files/peripheral/src/uart2.c: 36:     U2CON0 = 0x0;
  1226   00195C  0E00               	movlw	0
  1227   00195E  6FDA               	movwf	218,b	;volatile
  1228                           
  1229                           ;mcc_generated_files/peripheral/src/uart2.c: 38:     U2CON1 = 0x0;
  1230   001960  0E00               	movlw	0
  1231   001962  6FDB               	movwf	219,b	;volatile
  1232                           
  1233                           ;mcc_generated_files/peripheral/src/uart2.c: 40:     U2CON2 = 0x0;
  1234   001964  0E00               	movlw	0
  1235   001966  6FDC               	movwf	220,b	;volatile
  1236                           
  1237                           ;mcc_generated_files/peripheral/src/uart2.c: 42:     U2BRGL = 0x0;
  1238   001968  0E00               	movlw	0
  1239   00196A  6FDD               	movwf	221,b	;volatile
  1240                           
  1241                           ;mcc_generated_files/peripheral/src/uart2.c: 44:     U2BRGH = 0x0;
  1242   00196C  0E00               	movlw	0
  1243   00196E  6FDE               	movwf	222,b	;volatile
  1244                           
  1245                           ;mcc_generated_files/peripheral/src/uart2.c: 46:     U2FIFO = 0x20;
  1246   001970  0E20               	movlw	32
  1247   001972  6FDF               	movwf	223,b	;volatile
  1248                           
  1249                           ;mcc_generated_files/peripheral/src/uart2.c: 48:     U2UIR = 0x0;
  1250   001974  0E00               	movlw	0
  1251   001976  6FE0               	movwf	224,b	;volatile
  1252                           
  1253                           ;mcc_generated_files/peripheral/src/uart2.c: 50:     U2ERRIR = 0x80;
  1254   001978  0E80               	movlw	128
  1255   00197A  6FE1               	movwf	225,b	;volatile
  1256                           
  1257                           ;mcc_generated_files/peripheral/src/uart2.c: 52:     U2ERRIE = 0x0;
  1258   00197C  0E00               	movlw	0
  1259   00197E  6FE2               	movwf	226,b	;volatile
  1260   001980                     
  1261                           ; BSR set to: 61
  1262   001980  0012               	return		;funcret
  1263   001982                     __end_of_UART2_Initialize:
  1264                           	callstack 0
  1265                           
  1266 ;; *************** function _UART1_Initialize *****************
  1267 ;; Defined at:
  1268 ;;		line 118 in file "mcc_generated_files/uart/src/uart1.c"
  1269 ;; Parameters:    Size  Location     Type
  1270 ;;		None
  1271 ;; Auto vars:     Size  Location     Type
  1272 ;;		None
  1273 ;; Return value:  Size  Location     Type
  1274 ;;                  1    wreg      void 
  1275 ;; Registers used:
  1276 ;;		wreg, status,2, status,0, cstack
  1277 ;; Tracked objects:
  1278 ;;		On entry : 0/0
  1279 ;;		On exit  : 0/0
  1280 ;;		Unchanged: 0/0
  1281 ;; Data sizes:     COMRAM   BANK0   BANK1   BANK2   BANK3   BANK4   BANK5   BANK6   BANK7   BANK8   BANK9  BANK10  BANK1
      +1  BANK12  BANK13  BANK14  BANK15
  1282 ;;      Params:         0       0       0       0       0       0       0       0       0       0       0       0       
      +0       0       0       0       0
  1283 ;;      Locals:         0       0       0       0       0       0       0       0       0       0       0       0       
      +0       0       0       0       0
  1284 ;;      Temps:          0       0       0       0       0       0       0       0       0       0       0       0       
      +0       0       0       0       0
  1285 ;;      Totals:         0       0       0       0       0       0       0       0       0       0       0       0       
      +0       0       0       0       0
  1286 ;;Total ram usage:        0 bytes
  1287 ;; Hardware stack levels used: 1
  1288 ;; Hardware stack levels required when called: 7
  1289 ;; This function calls:
  1290 ;;		_UART1_FramingErrorCallbackRegister
  1291 ;;		_UART1_OverrunErrorCallbackRegister
  1292 ;;		_UART1_ParityErrorCallbackRegister
  1293 ;; This function is called by:
  1294 ;;		_SYSTEM_Initialize
  1295 ;; This function uses a non-reentrant model
  1296 ;;
  1297                           
  1298                           	psect	text3
  1299   001278                     __ptext3:
  1300                           	callstack 0
  1301   001278                     _UART1_Initialize:
  1302                           	callstack 22
  1303   001278                     
  1304                           ;mcc_generated_files/uart/src/uart1.c: 120:     PIE3bits.U1RXIE = 0;
  1305   001278  0139               	movlb	57	; () banked
  1306   00127A  9793               	bcf	147,3,b	;volatile
  1307   00127C                     
  1308                           ; BSR set to: 57
  1309                           ;mcc_generated_files/uart/src/uart1.c: 121:     UART1_RxInterruptHandler = UART1_Receive
      +                          ISR;
  1310   00127C  0E00               	movlw	0
  1311   00127E  0100               	movlb	0	; () banked
  1312   001280  6F98               	movwf	_UART1_RxInterruptHandler& (0+255),b
  1313   001282  0E00               	movlw	0
  1314   001284  6F99               	movwf	(_UART1_RxInterruptHandler+1)& (0+255),b
  1315   001286                     
  1316                           ; BSR set to: 0
  1317                           ;mcc_generated_files/uart/src/uart1.c: 122:     PIE3bits.U1TXIE = 0;
  1318   001286  0139               	movlb	57	; () banked
  1319   001288  9993               	bcf	147,4,b	;volatile
  1320                           
  1321                           ;mcc_generated_files/uart/src/uart1.c: 123:     UART1_TxInterruptHandler = UART1_Transmi
      +                          tISR;
  1322   00128A  0E82               	movlw	low _UART1_TransmitISR
  1323   00128C  0100               	movlb	0	; () banked
  1324   00128E  6F9A               	movwf	_UART1_TxInterruptHandler& (0+255),b
  1325   001290  0E19               	movlw	high _UART1_TransmitISR
  1326   001292  6F9B               	movwf	(_UART1_TxInterruptHandler+1)& (0+255),b
  1327   001294                     
  1328                           ; BSR set to: 0
  1329                           ;mcc_generated_files/uart/src/uart1.c: 128:     U1RXB = 0x0;
  1330   001294  0E00               	movlw	0
  1331   001296  013D               	movlb	61	; () banked
  1332   001298  6FE8               	movwf	232,b	;volatile
  1333   00129A                     
  1334                           ; BSR set to: 61
  1335                           ;mcc_generated_files/uart/src/uart1.c: 130:     U1RXCHK = 0x0;
  1336   00129A  0E00               	movlw	0
  1337   00129C  6FE9               	movwf	233,b	;volatile
  1338   00129E                     
  1339                           ; BSR set to: 61
  1340                           ;mcc_generated_files/uart/src/uart1.c: 132:     U1TXB = 0x0;
  1341   00129E  0E00               	movlw	0
  1342   0012A0  6FEA               	movwf	234,b	;volatile
  1343   0012A2                     
  1344                           ; BSR set to: 61
  1345                           ;mcc_generated_files/uart/src/uart1.c: 134:     U1TXCHK = 0x0;
  1346   0012A2  0E00               	movlw	0
  1347   0012A4  6FEB               	movwf	235,b	;volatile
  1348   0012A6                     
  1349                           ; BSR set to: 61
  1350                           ;mcc_generated_files/uart/src/uart1.c: 136:     U1P1L = 0x0;
  1351   0012A6  0E00               	movlw	0
  1352   0012A8  6FEC               	movwf	236,b	;volatile
  1353   0012AA                     
  1354                           ; BSR set to: 61
  1355                           ;mcc_generated_files/uart/src/uart1.c: 138:     U1P1H = 0x0;
  1356   0012AA  0E00               	movlw	0
  1357   0012AC  6FED               	movwf	237,b	;volatile
  1358   0012AE                     
  1359                           ; BSR set to: 61
  1360                           ;mcc_generated_files/uart/src/uart1.c: 140:     U1P2L = 0x0;
  1361   0012AE  0E00               	movlw	0
  1362   0012B0  6FEE               	movwf	238,b	;volatile
  1363   0012B2                     
  1364                           ; BSR set to: 61
  1365                           ;mcc_generated_files/uart/src/uart1.c: 142:     U1P2H = 0x0;
  1366   0012B2  0E00               	movlw	0
  1367   0012B4  6FEF               	movwf	239,b	;volatile
  1368   0012B6                     
  1369                           ; BSR set to: 61
  1370                           ;mcc_generated_files/uart/src/uart1.c: 144:     U1P3L = 0x0;
  1371   0012B6  0E00               	movlw	0
  1372   0012B8  6FF0               	movwf	240,b	;volatile
  1373   0012BA                     
  1374                           ; BSR set to: 61
  1375                           ;mcc_generated_files/uart/src/uart1.c: 146:     U1P3H = 0x0;
  1376   0012BA  0E00               	movlw	0
  1377   0012BC  6FF1               	movwf	241,b	;volatile
  1378   0012BE                     
  1379                           ; BSR set to: 61
  1380                           ;mcc_generated_files/uart/src/uart1.c: 148:     U1CON0 = 0xB0;
  1381   0012BE  0EB0               	movlw	176
  1382   0012C0  6FF2               	movwf	242,b	;volatile
  1383   0012C2                     
  1384                           ; BSR set to: 61
  1385                           ;mcc_generated_files/uart/src/uart1.c: 150:     U1CON1 = 0x80;
  1386   0012C2  0E80               	movlw	128
  1387   0012C4  6FF3               	movwf	243,b	;volatile
  1388   0012C6                     
  1389                           ; BSR set to: 61
  1390                           ;mcc_generated_files/uart/src/uart1.c: 152:     U1CON2 = 0x8;
  1391   0012C6  0E08               	movlw	8
  1392   0012C8  6FF4               	movwf	244,b	;volatile
  1393   0012CA                     
  1394                           ; BSR set to: 61
  1395                           ;mcc_generated_files/uart/src/uart1.c: 154:     U1BRGL = 0x7;
  1396   0012CA  0E07               	movlw	7
  1397   0012CC  6FF5               	movwf	245,b	;volatile
  1398   0012CE                     
  1399                           ; BSR set to: 61
  1400                           ;mcc_generated_files/uart/src/uart1.c: 156:     U1BRGH = 0x0;
  1401   0012CE  0E00               	movlw	0
  1402   0012D0  6FF6               	movwf	246,b	;volatile
  1403   0012D2                     
  1404                           ; BSR set to: 61
  1405                           ;mcc_generated_files/uart/src/uart1.c: 158:     U1FIFO = 0x20;
  1406   0012D2  0E20               	movlw	32
  1407   0012D4  6FF7               	movwf	247,b	;volatile
  1408   0012D6                     
  1409                           ; BSR set to: 61
  1410                           ;mcc_generated_files/uart/src/uart1.c: 160:     U1UIR = 0x0;
  1411   0012D6  0E00               	movlw	0
  1412   0012D8  6FF8               	movwf	248,b	;volatile
  1413   0012DA                     
  1414                           ; BSR set to: 61
  1415                           ;mcc_generated_files/uart/src/uart1.c: 162:     U1ERRIR = 0x80;
  1416   0012DA  0E80               	movlw	128
  1417   0012DC  6FF9               	movwf	249,b	;volatile
  1418   0012DE                     
  1419                           ; BSR set to: 61
  1420                           ;mcc_generated_files/uart/src/uart1.c: 164:     U1ERRIE = 0x0;
  1421   0012DE  0E00               	movlw	0
  1422   0012E0  6FFA               	movwf	250,b	;volatile
  1423   0012E2                     
  1424                           ; BSR set to: 61
  1425                           ;mcc_generated_files/uart/src/uart1.c: 166:     UART1_FramingErrorCallbackRegister(UART1
      +                          _DefaultFramingErrorCallback);
  1426   0012E2  0E00               	movlw	0
  1427   0012E4  0100               	movlb	0	; () banked
  1428   0012E6  6FAF               	movwf	UART1_FramingErrorCallbackRegister@callbackHandler& (0+255),b
  1429   0012E8  0E00               	movlw	0
  1430   0012EA  6FB0               	movwf	(UART1_FramingErrorCallbackRegister@callbackHandler+1)& (0+255),b
  1431   0012EC  EC76  F00E         	call	_UART1_FramingErrorCallbackRegister	;wreg free
  1432   0012F0                     
  1433                           ;mcc_generated_files/uart/src/uart1.c: 167:     UART1_OverrunErrorCallbackRegister(UART1
      +                          _DefaultOverrunErrorCallback);
  1434   0012F0  0E00               	movlw	0
  1435   0012F2  0100               	movlb	0	; () banked
  1436   0012F4  6FAF               	movwf	UART1_OverrunErrorCallbackRegister@callbackHandler& (0+255),b
  1437   0012F6  0E00               	movlw	0
  1438   0012F8  6FB0               	movwf	(UART1_OverrunErrorCallbackRegister@callbackHandler+1)& (0+255),b
  1439   0012FA  EC67  F00E         	call	_UART1_OverrunErrorCallbackRegister	;wreg free
  1440   0012FE                     
  1441                           ;mcc_generated_files/uart/src/uart1.c: 168:     UART1_ParityErrorCallbackRegister(UART1_
      +                          DefaultParityErrorCallback);
  1442   0012FE  0E00               	movlw	0
  1443   001300  0100               	movlb	0	; () banked
  1444   001302  6FAF               	movwf	UART1_ParityErrorCallbackRegister@callbackHandler& (0+255),b
  1445   001304  0E00               	movlw	0
  1446   001306  6FB0               	movwf	(UART1_ParityErrorCallbackRegister@callbackHandler+1)& (0+255),b
  1447   001308  EC58  F00E         	call	_UART1_ParityErrorCallbackRegister	;wreg free
  1448   00130C                     
  1449                           ;mcc_generated_files/uart/src/uart1.c: 170:     uart1RxLastError.status = 0;
  1450   00130C  0E00               	movlw	0
  1451   00130E  0100               	movlb	0	; () banked
  1452   001310  6F8B               	movwf	(_uart1RxLastError+1)& (0+255),b	;volatile
  1453   001312  0E00               	movlw	0
  1454   001314  6F8A               	movwf	_uart1RxLastError& (0+255),b	;volatile
  1455   001316                     
  1456                           ; BSR set to: 0
  1457                           ;mcc_generated_files/uart/src/uart1.c: 171:     uart1TxHead = 0;
  1458   001316  0E00               	movlw	0
  1459   001318  6E2A               	movwf	_uart1TxHead^0,c	;volatile
  1460   00131A                     
  1461                           ; BSR set to: 0
  1462                           ;mcc_generated_files/uart/src/uart1.c: 172:     uart1TxTail = 0;
  1463   00131A  0E00               	movlw	0
  1464   00131C  6E29               	movwf	_uart1TxTail^0,c	;volatile
  1465   00131E                     
  1466                           ; BSR set to: 0
  1467                           ;mcc_generated_files/uart/src/uart1.c: 173:     uart1TxBufferRemaining = sizeof(uart1TxB
      +                          uffer);
  1468   00131E  0E10               	movlw	16
  1469   001320  6E28               	movwf	_uart1TxBufferRemaining^0,c	;volatile
  1470   001322                     
  1471                           ; BSR set to: 0
  1472                           ;mcc_generated_files/uart/src/uart1.c: 174:     uart1RxHead = 0;
  1473   001322  0E00               	movlw	0
  1474   001324  6E27               	movwf	_uart1RxHead^0,c	;volatile
  1475   001326                     
  1476                           ; BSR set to: 0
  1477                           ;mcc_generated_files/uart/src/uart1.c: 175:     uart1RxTail = 0;
  1478   001326  0E00               	movlw	0
  1479   001328  6E26               	movwf	_uart1RxTail^0,c	;volatile
  1480   00132A                     
  1481                           ; BSR set to: 0
  1482                           ;mcc_generated_files/uart/src/uart1.c: 176:     uart1RxCount = 0;
  1483   00132A  0E00               	movlw	0
  1484   00132C  6E25               	movwf	_uart1RxCount^0,c	;volatile
  1485   00132E                     
  1486                           ; BSR set to: 0
  1487                           ;mcc_generated_files/uart/src/uart1.c: 177:     PIE3bits.U1RXIE = 1;
  1488   00132E  0139               	movlb	57	; () banked
  1489   001330  8793               	bsf	147,3,b	;volatile
  1490   001332                     
  1491                           ; BSR set to: 57
  1492   001332  0012               	return		;funcret
  1493   001334                     __end_of_UART1_Initialize:
  1494                           	callstack 0
  1495                           
  1496 ;; *************** function _UART1_ParityErrorCallbackRegister *****************
  1497 ;; Defined at:
  1498 ;;		line 489 in file "mcc_generated_files/uart/src/uart1.c"
  1499 ;; Parameters:    Size  Location     Type
  1500 ;;  callbackHand    2   17[BANK0 ] PTR FTN()void 
  1501 ;;		 -> UART1_DefaultParityErrorCallback(1), 
  1502 ;; Auto vars:     Size  Location     Type
  1503 ;;		None
  1504 ;; Return value:  Size  Location     Type
  1505 ;;                  1    wreg      void 
  1506 ;; Registers used:
  1507 ;;		wreg, status,2, status,0
  1508 ;; Tracked objects:
  1509 ;;		On entry : 0/0
  1510 ;;		On exit  : 0/0
  1511 ;;		Unchanged: 0/0
  1512 ;; Data sizes:     COMRAM   BANK0   BANK1   BANK2   BANK3   BANK4   BANK5   BANK6   BANK7   BANK8   BANK9  BANK10  BANK1
      +1  BANK12  BANK13  BANK14  BANK15
  1513 ;;      Params:         0       2       0       0       0       0       0       0       0       0       0       0       
      +0       0       0       0       0
  1514 ;;      Locals:         0       0       0       0       0       0       0       0       0       0       0       0       
      +0       0       0       0       0
  1515 ;;      Temps:          0       0       0       0       0       0       0       0       0       0       0       0       
      +0       0       0       0       0
  1516 ;;      Totals:         0       2       0       0       0       0       0       0       0       0       0       0       
      +0       0       0       0       0
  1517 ;;Total ram usage:        2 bytes
  1518 ;; Hardware stack levels used: 1
  1519 ;; Hardware stack levels required when called: 6
  1520 ;; This function calls:
  1521 ;;		Nothing
  1522 ;; This function is called by:
  1523 ;;		_UART1_Initialize
  1524 ;; This function uses a non-reentrant model
  1525 ;;
  1526                           
  1527                           	psect	text4
  1528   001CB0                     __ptext4:
  1529                           	callstack 0
  1530   001CB0                     _UART1_ParityErrorCallbackRegister:
  1531                           	callstack 22
  1532   001CB0                     
  1533                           ;mcc_generated_files/uart/src/uart1.c: 489: void UART1_ParityErrorCallbackRegister(void 
      +                          (* callbackHandler)(void));mcc_generated_files/uart/src/uart1.c: 490: {;mcc_generated_fi
      +                          les/uart/src/uart1.c: 491:     if(((void*)0) != callbackHandler)
  1534   001CB0  0100               	movlb	0	; () banked
  1535   001CB2  51AF               	movf	UART1_ParityErrorCallbackRegister@callbackHandler& (0+255),w,b
  1536   001CB4  11B0               	iorwf	(UART1_ParityErrorCallbackRegister@callbackHandler+1)& (0+255),w,b
  1537   001CB6  B4D8               	btfsc	status,2,c
  1538   001CB8  EF60  F00E         	goto	u861
  1539   001CBC  EF62  F00E         	goto	u860
  1540   001CC0                     u861:
  1541   001CC0  EF66  F00E         	goto	l1430
  1542   001CC4                     u860:
  1543   001CC4                     
  1544                           ; BSR set to: 0
  1545                           ;mcc_generated_files/uart/src/uart1.c: 492:     {;mcc_generated_files/uart/src/uart1.c: 
      +                          493:         UART1_ParityErrorHandler = callbackHandler;
  1546   001CC4  C0AF  F088         	movff	UART1_ParityErrorCallbackRegister@callbackHandler,_UART1_ParityErrorHandler
  1547   001CC8  C0B0  F089         	movff	UART1_ParityErrorCallbackRegister@callbackHandler+1,_UART1_ParityErrorHandler+1
  1548   001CCC                     l1430:
  1549                           
  1550                           ; BSR set to: 0
  1551   001CCC  0012               	return		;funcret
  1552   001CCE                     __end_of_UART1_ParityErrorCallbackRegister:
  1553                           	callstack 0
  1554                           
  1555 ;; *************** function _UART1_OverrunErrorCallbackRegister *****************
  1556 ;; Defined at:
  1557 ;;		line 481 in file "mcc_generated_files/uart/src/uart1.c"
  1558 ;; Parameters:    Size  Location     Type
  1559 ;;  callbackHand    2   17[BANK0 ] PTR FTN()void 
  1560 ;;		 -> UART1_DefaultOverrunErrorCallback(1), 
  1561 ;; Auto vars:     Size  Location     Type
  1562 ;;		None
  1563 ;; Return value:  Size  Location     Type
  1564 ;;                  1    wreg      void 
  1565 ;; Registers used:
  1566 ;;		wreg, status,2, status,0
  1567 ;; Tracked objects:
  1568 ;;		On entry : 0/0
  1569 ;;		On exit  : 0/0
  1570 ;;		Unchanged: 0/0
  1571 ;; Data sizes:     COMRAM   BANK0   BANK1   BANK2   BANK3   BANK4   BANK5   BANK6   BANK7   BANK8   BANK9  BANK10  BANK1
      +1  BANK12  BANK13  BANK14  BANK15
  1572 ;;      Params:         0       2       0       0       0       0       0       0       0       0       0       0       
      +0       0       0       0       0
  1573 ;;      Locals:         0       0       0       0       0       0       0       0       0       0       0       0       
      +0       0       0       0       0
  1574 ;;      Temps:          0       0       0       0       0       0       0       0       0       0       0       0       
      +0       0       0       0       0
  1575 ;;      Totals:         0       2       0       0       0       0       0       0       0       0       0       0       
      +0       0       0       0       0
  1576 ;;Total ram usage:        2 bytes
  1577 ;; Hardware stack levels used: 1
  1578 ;; Hardware stack levels required when called: 6
  1579 ;; This function calls:
  1580 ;;		Nothing
  1581 ;; This function is called by:
  1582 ;;		_UART1_Initialize
  1583 ;; This function uses a non-reentrant model
  1584 ;;
  1585                           
  1586                           	psect	text5
  1587   001CCE                     __ptext5:
  1588                           	callstack 0
  1589   001CCE                     _UART1_OverrunErrorCallbackRegister:
  1590                           	callstack 22
  1591   001CCE                     
  1592                           ;mcc_generated_files/uart/src/uart1.c: 481: void UART1_OverrunErrorCallbackRegister(void
      +                           (* callbackHandler)(void));mcc_generated_files/uart/src/uart1.c: 482: {;mcc_generated_f
      +                          iles/uart/src/uart1.c: 483:     if(((void*)0) != callbackHandler)
  1593   001CCE  0100               	movlb	0	; () banked
  1594   001CD0  51AF               	movf	UART1_OverrunErrorCallbackRegister@callbackHandler& (0+255),w,b
  1595   001CD2  11B0               	iorwf	(UART1_OverrunErrorCallbackRegister@callbackHandler+1)& (0+255),w,b
  1596   001CD4  B4D8               	btfsc	status,2,c
  1597   001CD6  EF6F  F00E         	goto	u851
  1598   001CDA  EF71  F00E         	goto	u850
  1599   001CDE                     u851:
  1600   001CDE  EF75  F00E         	goto	l1426
  1601   001CE2                     u850:
  1602   001CE2                     
  1603                           ; BSR set to: 0
  1604                           ;mcc_generated_files/uart/src/uart1.c: 484:     {;mcc_generated_files/uart/src/uart1.c: 
      +                          485:         UART1_OverrunErrorHandler = callbackHandler;
  1605   001CE2  C0AF  F016         	movff	UART1_OverrunErrorCallbackRegister@callbackHandler,_UART1_OverrunErrorHandler
  1606   001CE6  C0B0  F017         	movff	UART1_OverrunErrorCallbackRegister@callbackHandler+1,_UART1_OverrunErrorHandler+1
  1607   001CEA                     l1426:
  1608                           
  1609                           ; BSR set to: 0
  1610   001CEA  0012               	return		;funcret
  1611   001CEC                     __end_of_UART1_OverrunErrorCallbackRegister:
  1612                           	callstack 0
  1613                           
  1614 ;; *************** function _UART1_FramingErrorCallbackRegister *****************
  1615 ;; Defined at:
  1616 ;;		line 473 in file "mcc_generated_files/uart/src/uart1.c"
  1617 ;; Parameters:    Size  Location     Type
  1618 ;;  callbackHand    2   17[BANK0 ] PTR FTN()void 
  1619 ;;		 -> UART1_DefaultFramingErrorCallback(1), 
  1620 ;; Auto vars:     Size  Location     Type
  1621 ;;		None
  1622 ;; Return value:  Size  Location     Type
  1623 ;;                  1    wreg      void 
  1624 ;; Registers used:
  1625 ;;		wreg, status,2, status,0
  1626 ;; Tracked objects:
  1627 ;;		On entry : 0/0
  1628 ;;		On exit  : 0/0
  1629 ;;		Unchanged: 0/0
  1630 ;; Data sizes:     COMRAM   BANK0   BANK1   BANK2   BANK3   BANK4   BANK5   BANK6   BANK7   BANK8   BANK9  BANK10  BANK1
      +1  BANK12  BANK13  BANK14  BANK15
  1631 ;;      Params:         0       2       0       0       0       0       0       0       0       0       0       0       
      +0       0       0       0       0
  1632 ;;      Locals:         0       0       0       0       0       0       0       0       0       0       0       0       
      +0       0       0       0       0
  1633 ;;      Temps:          0       0       0       0       0       0       0       0       0       0       0       0       
      +0       0       0       0       0
  1634 ;;      Totals:         0       2       0       0       0       0       0       0       0       0       0       0       
      +0       0       0       0       0
  1635 ;;Total ram usage:        2 bytes
  1636 ;; Hardware stack levels used: 1
  1637 ;; Hardware stack levels required when called: 6
  1638 ;; This function calls:
  1639 ;;		Nothing
  1640 ;; This function is called by:
  1641 ;;		_UART1_Initialize
  1642 ;; This function uses a non-reentrant model
  1643 ;;
  1644                           
  1645                           	psect	text6
  1646   001CEC                     __ptext6:
  1647                           	callstack 0
  1648   001CEC                     _UART1_FramingErrorCallbackRegister:
  1649                           	callstack 22
  1650   001CEC                     
  1651                           ;mcc_generated_files/uart/src/uart1.c: 473: void UART1_FramingErrorCallbackRegister(void
      +                           (* callbackHandler)(void));mcc_generated_files/uart/src/uart1.c: 474: {;mcc_generated_f
      +                          iles/uart/src/uart1.c: 475:     if(((void*)0) != callbackHandler)
  1652   001CEC  0100               	movlb	0	; () banked
  1653   001CEE  51AF               	movf	UART1_FramingErrorCallbackRegister@callbackHandler& (0+255),w,b
  1654   001CF0  11B0               	iorwf	(UART1_FramingErrorCallbackRegister@callbackHandler+1)& (0+255),w,b
  1655   001CF2  B4D8               	btfsc	status,2,c
  1656   001CF4  EF7E  F00E         	goto	u841
  1657   001CF8  EF80  F00E         	goto	u840
  1658   001CFC                     u841:
  1659   001CFC  EF84  F00E         	goto	l1422
  1660   001D00                     u840:
  1661   001D00                     
  1662                           ; BSR set to: 0
  1663                           ;mcc_generated_files/uart/src/uart1.c: 476:     {;mcc_generated_files/uart/src/uart1.c: 
      +                          477:         UART1_FramingErrorHandler = callbackHandler;
  1664   001D00  C0AF  F018         	movff	UART1_FramingErrorCallbackRegister@callbackHandler,_UART1_FramingErrorHandler
  1665   001D04  C0B0  F019         	movff	UART1_FramingErrorCallbackRegister@callbackHandler+1,_UART1_FramingErrorHandler+1
  1666   001D08                     l1422:
  1667                           
  1668                           ; BSR set to: 0
  1669   001D08  0012               	return		;funcret
  1670   001D0A                     __end_of_UART1_FramingErrorCallbackRegister:
  1671                           	callstack 0
  1672                           
  1673 ;; *************** function _Timer_Initialize *****************
  1674 ;; Defined at:
  1675 ;;		line 51 in file "mcc_generated_files/timer/src/tmr0.c"
  1676 ;; Parameters:    Size  Location     Type
  1677 ;;		None
  1678 ;; Auto vars:     Size  Location     Type
  1679 ;;		None
  1680 ;; Return value:  Size  Location     Type
  1681 ;;                  1    wreg      void 
  1682 ;; Registers used:
  1683 ;;		wreg, status,2, status,0, cstack
  1684 ;; Tracked objects:
  1685 ;;		On entry : 0/0
  1686 ;;		On exit  : 0/0
  1687 ;;		Unchanged: 0/0
  1688 ;; Data sizes:     COMRAM   BANK0   BANK1   BANK2   BANK3   BANK4   BANK5   BANK6   BANK7   BANK8   BANK9  BANK10  BANK1
      +1  BANK12  BANK13  BANK14  BANK15
  1689 ;;      Params:         0       0       0       0       0       0       0       0       0       0       0       0       
      +0       0       0       0       0
  1690 ;;      Locals:         0       0       0       0       0       0       0       0       0       0       0       0       
      +0       0       0       0       0
  1691 ;;      Temps:          0       2       0       0       0       0       0       0       0       0       0       0       
      +0       0       0       0       0
  1692 ;;      Totals:         0       2       0       0       0       0       0       0       0       0       0       0       
      +0       0       0       0       0
  1693 ;;Total ram usage:        2 bytes
  1694 ;; Hardware stack levels used: 1
  1695 ;; Hardware stack levels required when called: 7
  1696 ;; This function calls:
  1697 ;;		_Timer_OverflowCallbackRegister
  1698 ;; This function is called by:
  1699 ;;		_SYSTEM_Initialize
  1700 ;; This function uses a non-reentrant model
  1701 ;;
  1702                           
  1703                           	psect	text7
  1704   001A26                     __ptext7:
  1705                           	callstack 0
  1706   001A26                     _Timer_Initialize:
  1707                           	callstack 22
  1708   001A26                     
  1709                           ;mcc_generated_files/timer/src/tmr0.c: 54:     TMR0H = 0xE7;
  1710   001A26  0EE7               	movlw	231
  1711   001A28  6EB7               	movwf	183,c	;volatile
  1712                           
  1713                           ;mcc_generated_files/timer/src/tmr0.c: 57:     TMR0L = 0x5F;
  1714   001A2A  0E5F               	movlw	95
  1715   001A2C  6EB6               	movwf	182,c	;volatile
  1716                           
  1717                           ;mcc_generated_files/timer/src/tmr0.c: 60:     T0CON1 = 0x70;
  1718   001A2E  0E70               	movlw	112
  1719   001A30  6EB9               	movwf	185,c	;volatile
  1720                           
  1721                           ;mcc_generated_files/timer/src/tmr0.c: 63:     timerTMR0ReloadVal16bit = ((uint16_t)TMR0
      +                          H << 8) | TMR0L;
  1722   001A32  50B7               	movf	183,w,c	;volatile
  1723   001A34  0100               	movlb	0	; () banked
  1724   001A36  6FB1               	movwf	??_Timer_Initialize& (0+255),b
  1725   001A38  50B6               	movf	182,w,c	;volatile
  1726   001A3A  6F90               	movwf	_timerTMR0ReloadVal16bit& (0+255),b	;volatile
  1727   001A3C  C0B1  F091         	movff	??_Timer_Initialize,_timerTMR0ReloadVal16bit+1	;volatile
  1728   001A40                     
  1729                           ; BSR set to: 0
  1730                           ;mcc_generated_files/timer/src/tmr0.c: 66:     Timer_OverflowCallbackRegister(Timer_Defa
      +                          ultOverflowCallback);
  1731   001A40  0E1A               	movlw	low _Timer_DefaultOverflowCallback
  1732   001A42  6FAF               	movwf	Timer_OverflowCallbackRegister@CallbackHandler& (0+255),b
  1733   001A44  0E1F               	movlw	high _Timer_DefaultOverflowCallback
  1734   001A46  6FB0               	movwf	(Timer_OverflowCallbackRegister@CallbackHandler+1)& (0+255),b
  1735   001A48  EC27  F00F         	call	_Timer_OverflowCallbackRegister	;wreg free
  1736   001A4C                     
  1737                           ;mcc_generated_files/timer/src/tmr0.c: 69:     PIR3bits.TMR0IF = 0;
  1738   001A4C  0139               	movlb	57	; () banked
  1739   001A4E  9FA3               	bcf	163,7,b	;volatile
  1740   001A50                     
  1741                           ; BSR set to: 57
  1742                           ;mcc_generated_files/timer/src/tmr0.c: 72:     PIE3bits.TMR0IE = 1;
  1743   001A50  8F93               	bsf	147,7,b	;volatile
  1744   001A52                     
  1745                           ; BSR set to: 57
  1746                           ;mcc_generated_files/timer/src/tmr0.c: 75:     T0CON0 = 0x90;
  1747   001A52  0E90               	movlw	144
  1748   001A54  6EB8               	movwf	184,c	;volatile
  1749   001A56                     
  1750                           ; BSR set to: 57
  1751   001A56  0012               	return		;funcret
  1752   001A58                     __end_of_Timer_Initialize:
  1753                           	callstack 0
  1754                           
  1755 ;; *************** function _Timer_OverflowCallbackRegister *****************
  1756 ;; Defined at:
  1757 ;;		line 134 in file "mcc_generated_files/timer/src/tmr0.c"
  1758 ;; Parameters:    Size  Location     Type
  1759 ;;  CallbackHand    2   17[BANK0 ] PTR FTN()void 
  1760 ;;		 -> Timer_int(1), Timer1_DefaultOverflowCallback(1), Timer2_DefaultOverflowCallback(1), Timer_DefaultOverflowCallbac
      +k(1), 
  1761 ;; Auto vars:     Size  Location     Type
  1762 ;;		None
  1763 ;; Return value:  Size  Location     Type
  1764 ;;                  1    wreg      void 
  1765 ;; Registers used:
  1766 ;;		wreg, status,2, status,0
  1767 ;; Tracked objects:
  1768 ;;		On entry : 0/0
  1769 ;;		On exit  : 0/0
  1770 ;;		Unchanged: 0/0
  1771 ;; Data sizes:     COMRAM   BANK0   BANK1   BANK2   BANK3   BANK4   BANK5   BANK6   BANK7   BANK8   BANK9  BANK10  BANK1
      +1  BANK12  BANK13  BANK14  BANK15
  1772 ;;      Params:         0       2       0       0       0       0       0       0       0       0       0       0       
      +0       0       0       0       0
  1773 ;;      Locals:         0       0       0       0       0       0       0       0       0       0       0       0       
      +0       0       0       0       0
  1774 ;;      Temps:          0       0       0       0       0       0       0       0       0       0       0       0       
      +0       0       0       0       0
  1775 ;;      Totals:         0       2       0       0       0       0       0       0       0       0       0       0       
      +0       0       0       0       0
  1776 ;;Total ram usage:        2 bytes
  1777 ;; Hardware stack levels used: 1
  1778 ;; Hardware stack levels required when called: 6
  1779 ;; This function calls:
  1780 ;;		Nothing
  1781 ;; This function is called by:
  1782 ;;		_Timer_Initialize
  1783 ;;		_main
  1784 ;; This function uses a non-reentrant model
  1785 ;;
  1786                           
  1787                           	psect	text8
  1788   001E4E                     __ptext8:
  1789                           	callstack 0
  1790   001E4E                     _Timer_OverflowCallbackRegister:
  1791                           	callstack 24
  1792   001E4E                     
  1793                           ;mcc_generated_files/timer/src/tmr0.c: 134: void Timer_OverflowCallbackRegister(void (* 
      +                          CallbackHandler)(void));mcc_generated_files/timer/src/tmr0.c: 135: {;mcc_generated_files
      +                          /timer/src/tmr0.c: 136:     Timer_OverflowCallback = CallbackHandler;
  1794   001E4E  C0AF  F08E         	movff	Timer_OverflowCallbackRegister@CallbackHandler,_Timer_OverflowCallback
  1795   001E52  C0B0  F08F         	movff	Timer_OverflowCallbackRegister@CallbackHandler+1,_Timer_OverflowCallback+1
  1796   001E56  0012               	return		;funcret
  1797   001E58                     __end_of_Timer_OverflowCallbackRegister:
  1798                           	callstack 0
  1799                           
  1800 ;; *************** function _Timer2_Initialize *****************
  1801 ;; Defined at:
  1802 ;;		line 58 in file "mcc_generated_files/timer/src/tmr2.c"
  1803 ;; Parameters:    Size  Location     Type
  1804 ;;		None
  1805 ;; Auto vars:     Size  Location     Type
  1806 ;;		None
  1807 ;; Return value:  Size  Location     Type
  1808 ;;                  1    wreg      void 
  1809 ;; Registers used:
  1810 ;;		wreg, status,2, status,0, cstack
  1811 ;; Tracked objects:
  1812 ;;		On entry : 0/0
  1813 ;;		On exit  : 0/0
  1814 ;;		Unchanged: 0/0
  1815 ;; Data sizes:     COMRAM   BANK0   BANK1   BANK2   BANK3   BANK4   BANK5   BANK6   BANK7   BANK8   BANK9  BANK10  BANK1
      +1  BANK12  BANK13  BANK14  BANK15
  1816 ;;      Params:         0       0       0       0       0       0       0       0       0       0       0       0       
      +0       0       0       0       0
  1817 ;;      Locals:         0       0       0       0       0       0       0       0       0       0       0       0       
      +0       0       0       0       0
  1818 ;;      Temps:          0       0       0       0       0       0       0       0       0       0       0       0       
      +0       0       0       0       0
  1819 ;;      Totals:         0       0       0       0       0       0       0       0       0       0       0       0       
      +0       0       0       0       0
  1820 ;;Total ram usage:        0 bytes
  1821 ;; Hardware stack levels used: 1
  1822 ;; Hardware stack levels required when called: 7
  1823 ;; This function calls:
  1824 ;;		_Timer2_OverflowCallbackRegister
  1825 ;; This function is called by:
  1826 ;;		_SYSTEM_Initialize
  1827 ;; This function uses a non-reentrant model
  1828 ;;
  1829                           
  1830                           	psect	text9
  1831   001A58                     __ptext9:
  1832                           	callstack 0
  1833   001A58                     _Timer2_Initialize:
  1834                           	callstack 22
  1835   001A58                     
  1836                           ;mcc_generated_files/timer/src/tmr2.c: 62:     T2CLKCON = 0x1;
  1837   001A58  0E01               	movlw	1
  1838   001A5A  6EAE               	movwf	174,c	;volatile
  1839                           
  1840                           ;mcc_generated_files/timer/src/tmr2.c: 64:     T2HLT = 0x20;
  1841   001A5C  0E20               	movlw	32
  1842   001A5E  6EAD               	movwf	173,c	;volatile
  1843                           
  1844                           ;mcc_generated_files/timer/src/tmr2.c: 66:     T2RST = 0x0;
  1845   001A60  0E00               	movlw	0
  1846   001A62  6EAF               	movwf	175,c	;volatile
  1847                           
  1848                           ;mcc_generated_files/timer/src/tmr2.c: 68:     T2PR = 0x1F;
  1849   001A64  0E1F               	movlw	31
  1850   001A66  6EAB               	movwf	171,c	;volatile
  1851                           
  1852                           ;mcc_generated_files/timer/src/tmr2.c: 70:     T2TMR = 0x0;
  1853   001A68  0E00               	movlw	0
  1854   001A6A  6EAA               	movwf	170,c	;volatile
  1855   001A6C                     
  1856                           ;mcc_generated_files/timer/src/tmr2.c: 73:     Timer2_OverflowCallbackRegister(Timer2_De
      +                          faultOverflowCallback);
  1857   001A6C  0E18               	movlw	low _Timer2_DefaultOverflowCallback
  1858   001A6E  0100               	movlb	0	; () banked
  1859   001A70  6FAF               	movwf	Timer2_OverflowCallbackRegister@InterruptHandler& (0+255),b
  1860   001A72  0E1F               	movlw	high _Timer2_DefaultOverflowCallback
  1861   001A74  6FB0               	movwf	(Timer2_OverflowCallbackRegister@InterruptHandler+1)& (0+255),b
  1862   001A76  EC2C  F00F         	call	_Timer2_OverflowCallbackRegister	;wreg free
  1863   001A7A                     
  1864                           ;mcc_generated_files/timer/src/tmr2.c: 76:      PIR4bits.TMR2IF = 0;
  1865   001A7A  0139               	movlb	57	; () banked
  1866   001A7C  95A4               	bcf	164,2,b	;volatile
  1867   001A7E                     
  1868                           ; BSR set to: 57
  1869                           ;mcc_generated_files/timer/src/tmr2.c: 78:      PIE4bits.TMR2IE = 1;
  1870   001A7E  8594               	bsf	148,2,b	;volatile
  1871   001A80                     
  1872                           ; BSR set to: 57
  1873                           ;mcc_generated_files/timer/src/tmr2.c: 80:     T2CON = 0x30;
  1874   001A80  0E30               	movlw	48
  1875   001A82  6EAC               	movwf	172,c	;volatile
  1876   001A84                     
  1877                           ; BSR set to: 57
  1878   001A84  0012               	return		;funcret
  1879   001A86                     __end_of_Timer2_Initialize:
  1880                           	callstack 0
  1881                           
  1882 ;; *************** function _Timer2_OverflowCallbackRegister *****************
  1883 ;; Defined at:
  1884 ;;		line 141 in file "mcc_generated_files/timer/src/tmr2.c"
  1885 ;; Parameters:    Size  Location     Type
  1886 ;;  InterruptHan    2   17[BANK0 ] PTR FTN()void 
  1887 ;;		 -> Timer_int(1), Timer1_DefaultOverflowCallback(1), Timer2_DefaultOverflowCallback(1), Timer_DefaultOverflowCallbac
      +k(1), 
  1888 ;; Auto vars:     Size  Location     Type
  1889 ;;		None
  1890 ;; Return value:  Size  Location     Type
  1891 ;;                  1    wreg      void 
  1892 ;; Registers used:
  1893 ;;		wreg, status,2, status,0
  1894 ;; Tracked objects:
  1895 ;;		On entry : 0/0
  1896 ;;		On exit  : 0/0
  1897 ;;		Unchanged: 0/0
  1898 ;; Data sizes:     COMRAM   BANK0   BANK1   BANK2   BANK3   BANK4   BANK5   BANK6   BANK7   BANK8   BANK9  BANK10  BANK1
      +1  BANK12  BANK13  BANK14  BANK15
  1899 ;;      Params:         0       2       0       0       0       0       0       0       0       0       0       0       
      +0       0       0       0       0
  1900 ;;      Locals:         0       0       0       0       0       0       0       0       0       0       0       0       
      +0       0       0       0       0
  1901 ;;      Temps:          0       0       0       0       0       0       0       0       0       0       0       0       
      +0       0       0       0       0
  1902 ;;      Totals:         0       2       0       0       0       0       0       0       0       0       0       0       
      +0       0       0       0       0
  1903 ;;Total ram usage:        2 bytes
  1904 ;; Hardware stack levels used: 1
  1905 ;; Hardware stack levels required when called: 6
  1906 ;; This function calls:
  1907 ;;		Nothing
  1908 ;; This function is called by:
  1909 ;;		_Timer2_Initialize
  1910 ;; This function uses a non-reentrant model
  1911 ;;
  1912                           
  1913                           	psect	text10
  1914   001E58                     __ptext10:
  1915                           	callstack 0
  1916   001E58                     _Timer2_OverflowCallbackRegister:
  1917                           	callstack 22
  1918   001E58                     
  1919                           ;mcc_generated_files/timer/src/tmr2.c: 142:     Timer2_OverflowCallback = InterruptHandl
      +                          er;
  1920   001E58  C0AF  F08C         	movff	Timer2_OverflowCallbackRegister@InterruptHandler,_Timer2_OverflowCallback
  1921   001E5C  C0B0  F08D         	movff	Timer2_OverflowCallbackRegister@InterruptHandler+1,_Timer2_OverflowCallback+1
  1922   001E60  0012               	return		;funcret
  1923   001E62                     __end_of_Timer2_OverflowCallbackRegister:
  1924                           	callstack 0
  1925                           
  1926 ;; *************** function _Timer1_Initialize *****************
  1927 ;; Defined at:
  1928 ;;		line 58 in file "mcc_generated_files/timer/src/tmr1.c"
  1929 ;; Parameters:    Size  Location     Type
  1930 ;;		None
  1931 ;; Auto vars:     Size  Location     Type
  1932 ;;		None
  1933 ;; Return value:  Size  Location     Type
  1934 ;;                  1    wreg      void 
  1935 ;; Registers used:
  1936 ;;		wreg, status,2, status,0, cstack
  1937 ;; Tracked objects:
  1938 ;;		On entry : 0/0
  1939 ;;		On exit  : 0/0
  1940 ;;		Unchanged: 0/0
  1941 ;; Data sizes:     COMRAM   BANK0   BANK1   BANK2   BANK3   BANK4   BANK5   BANK6   BANK7   BANK8   BANK9  BANK10  BANK1
      +1  BANK12  BANK13  BANK14  BANK15
  1942 ;;      Params:         0       0       0       0       0       0       0       0       0       0       0       0       
      +0       0       0       0       0
  1943 ;;      Locals:         0       0       0       0       0       0       0       0       0       0       0       0       
      +0       0       0       0       0
  1944 ;;      Temps:          0       2       0       0       0       0       0       0       0       0       0       0       
      +0       0       0       0       0
  1945 ;;      Totals:         0       2       0       0       0       0       0       0       0       0       0       0       
      +0       0       0       0       0
  1946 ;;Total ram usage:        2 bytes
  1947 ;; Hardware stack levels used: 1
  1948 ;; Hardware stack levels required when called: 7
  1949 ;; This function calls:
  1950 ;;		_Timer1_OverflowCallbackRegister
  1951 ;; This function is called by:
  1952 ;;		_SYSTEM_Initialize
  1953 ;; This function uses a non-reentrant model
  1954 ;;
  1955                           
  1956                           	psect	text11
  1957   00188A                     __ptext11:
  1958                           	callstack 0
  1959   00188A                     _Timer1_Initialize:
  1960                           	callstack 22
  1961   00188A                     
  1962                           ;mcc_generated_files/timer/src/tmr1.c: 61:     T1GCON = 0x0;
  1963   00188A  0E00               	movlw	0
  1964   00188C  6EB3               	movwf	179,c	;volatile
  1965                           
  1966                           ;mcc_generated_files/timer/src/tmr1.c: 63:     T1GATE = 0x0;
  1967   00188E  0E00               	movlw	0
  1968   001890  6EB4               	movwf	180,c	;volatile
  1969                           
  1970                           ;mcc_generated_files/timer/src/tmr1.c: 65:     T1CLK = 0x2;
  1971   001892  0E02               	movlw	2
  1972   001894  6EB5               	movwf	181,c	;volatile
  1973                           
  1974                           ;mcc_generated_files/timer/src/tmr1.c: 67:     TMR1H = 0xF3;
  1975   001896  0EF3               	movlw	243
  1976   001898  6EB1               	movwf	177,c	;volatile
  1977                           
  1978                           ;mcc_generated_files/timer/src/tmr1.c: 69:     TMR1L = 0x7F;
  1979   00189A  0E7F               	movlw	127
  1980   00189C  6EB0               	movwf	176,c	;volatile
  1981   00189E                     
  1982                           ;mcc_generated_files/timer/src/tmr1.c: 72:     timer1ReloadVal=(uint16_t)((TMR1H << 8) |
      +                           TMR1L);
  1983   00189E  50B0               	movf	176,w,c	;volatile
  1984   0018A0  006F FEC4  F0B1    	movff	16305,??_Timer1_Initialize	;volatile
  1985   0018A6  0100               	movlb	0	; () banked
  1986   0018A8  6BB2               	clrf	(??_Timer1_Initialize+1)& (0+255),b
  1987   0018AA  C0B1  F0B2         	movff	??_Timer1_Initialize,??_Timer1_Initialize+1
  1988   0018AE  6BB1               	clrf	??_Timer1_Initialize& (0+255),b
  1989   0018B0  11B1               	iorwf	??_Timer1_Initialize& (0+255),w,b
  1990   0018B2  6E20               	movwf	_timer1ReloadVal^0,c	;volatile
  1991   0018B4  51B2               	movf	(??_Timer1_Initialize+1)& (0+255),w,b
  1992   0018B6  6E21               	movwf	(_timer1ReloadVal+1)^0,c	;volatile
  1993   0018B8                     
  1994                           ; BSR set to: 0
  1995                           ;mcc_generated_files/timer/src/tmr1.c: 75:     Timer1_OverflowCallbackRegister(Timer1_De
      +                          faultOverflowCallback);
  1996   0018B8  0E16               	movlw	low _Timer1_DefaultOverflowCallback
  1997   0018BA  6FAF               	movwf	Timer1_OverflowCallbackRegister@CallbackHandler& (0+255),b
  1998   0018BC  0E1F               	movlw	high _Timer1_DefaultOverflowCallback
  1999   0018BE  6FB0               	movwf	(Timer1_OverflowCallbackRegister@CallbackHandler+1)& (0+255),b
  2000   0018C0  EC31  F00F         	call	_Timer1_OverflowCallbackRegister	;wreg free
  2001   0018C4                     
  2002                           ;mcc_generated_files/timer/src/tmr1.c: 78:      PIR4bits.TMR1IF = 0;
  2003   0018C4  0139               	movlb	57	; () banked
  2004   0018C6  91A4               	bcf	164,0,b	;volatile
  2005   0018C8                     
  2006                           ; BSR set to: 57
  2007                           ;mcc_generated_files/timer/src/tmr1.c: 80:      PIE4bits.TMR1IE = 1;
  2008   0018C8  8194               	bsf	148,0,b	;volatile
  2009   0018CA                     
  2010                           ; BSR set to: 57
  2011                           ;mcc_generated_files/timer/src/tmr1.c: 83:     T1CON = 0x3;
  2012   0018CA  0E03               	movlw	3
  2013   0018CC  6EB2               	movwf	178,c	;volatile
  2014   0018CE                     
  2015                           ; BSR set to: 57
  2016   0018CE  0012               	return		;funcret
  2017   0018D0                     __end_of_Timer1_Initialize:
  2018                           	callstack 0
  2019                           
  2020 ;; *************** function _Timer1_OverflowCallbackRegister *****************
  2021 ;; Defined at:
  2022 ;;		line 171 in file "mcc_generated_files/timer/src/tmr1.c"
  2023 ;; Parameters:    Size  Location     Type
  2024 ;;  CallbackHand    2   17[BANK0 ] PTR FTN()void 
  2025 ;;		 -> Timer_int(1), Timer1_DefaultOverflowCallback(1), Timer2_DefaultOverflowCallback(1), Timer_DefaultOverflowCallbac
      +k(1), 
  2026 ;; Auto vars:     Size  Location     Type
  2027 ;;		None
  2028 ;; Return value:  Size  Location     Type
  2029 ;;                  1    wreg      void 
  2030 ;; Registers used:
  2031 ;;		wreg, status,2, status,0
  2032 ;; Tracked objects:
  2033 ;;		On entry : 0/0
  2034 ;;		On exit  : 0/0
  2035 ;;		Unchanged: 0/0
  2036 ;; Data sizes:     COMRAM   BANK0   BANK1   BANK2   BANK3   BANK4   BANK5   BANK6   BANK7   BANK8   BANK9  BANK10  BANK1
      +1  BANK12  BANK13  BANK14  BANK15
  2037 ;;      Params:         0       2       0       0       0       0       0       0       0       0       0       0       
      +0       0       0       0       0
  2038 ;;      Locals:         0       0       0       0       0       0       0       0       0       0       0       0       
      +0       0       0       0       0
  2039 ;;      Temps:          0       0       0       0       0       0       0       0       0       0       0       0       
      +0       0       0       0       0
  2040 ;;      Totals:         0       2       0       0       0       0       0       0       0       0       0       0       
      +0       0       0       0       0
  2041 ;;Total ram usage:        2 bytes
  2042 ;; Hardware stack levels used: 1
  2043 ;; Hardware stack levels required when called: 6
  2044 ;; This function calls:
  2045 ;;		Nothing
  2046 ;; This function is called by:
  2047 ;;		_Timer1_Initialize
  2048 ;; This function uses a non-reentrant model
  2049 ;;
  2050                           
  2051                           	psect	text12
  2052   001E62                     __ptext12:
  2053                           	callstack 0
  2054   001E62                     _Timer1_OverflowCallbackRegister:
  2055                           	callstack 22
  2056   001E62                     
  2057                           ;mcc_generated_files/timer/src/tmr1.c: 171: void Timer1_OverflowCallbackRegister(void (*
      +                           CallbackHandler)(void));mcc_generated_files/timer/src/tmr1.c: 172: {;mcc_generated_file
      +                          s/timer/src/tmr1.c: 173:     Timer1_OverflowCallback = CallbackHandler;
  2058   001E62  C0AF  F01C         	movff	Timer1_OverflowCallbackRegister@CallbackHandler,_Timer1_OverflowCallback
  2059   001E66  C0B0  F01D         	movff	Timer1_OverflowCallbackRegister@CallbackHandler+1,_Timer1_OverflowCallback+1
  2060   001E6A  0012               	return		;funcret
  2061   001E6C                     __end_of_Timer1_OverflowCallbackRegister:
  2062                           	callstack 0
  2063                           
  2064 ;; *************** function _SPI1_Initialize *****************
  2065 ;; Defined at:
  2066 ;;		line 70 in file "mcc_generated_files/spi/src/spi1.c"
  2067 ;; Parameters:    Size  Location     Type
  2068 ;;		None
  2069 ;; Auto vars:     Size  Location     Type
  2070 ;;		None
  2071 ;; Return value:  Size  Location     Type
  2072 ;;                  1    wreg      void 
  2073 ;; Registers used:
  2074 ;;		wreg, status,2
  2075 ;; Tracked objects:
  2076 ;;		On entry : 0/0
  2077 ;;		On exit  : 0/0
  2078 ;;		Unchanged: 0/0
  2079 ;; Data sizes:     COMRAM   BANK0   BANK1   BANK2   BANK3   BANK4   BANK5   BANK6   BANK7   BANK8   BANK9  BANK10  BANK1
      +1  BANK12  BANK13  BANK14  BANK15
  2080 ;;      Params:         0       0       0       0       0       0       0       0       0       0       0       0       
      +0       0       0       0       0
  2081 ;;      Locals:         0       0       0       0       0       0       0       0       0       0       0       0       
      +0       0       0       0       0
  2082 ;;      Temps:          0       0       0       0       0       0       0       0       0       0       0       0       
      +0       0       0       0       0
  2083 ;;      Totals:         0       0       0       0       0       0       0       0       0       0       0       0       
      +0       0       0       0       0
  2084 ;;Total ram usage:        0 bytes
  2085 ;; Hardware stack levels used: 1
  2086 ;; Hardware stack levels required when called: 6
  2087 ;; This function calls:
  2088 ;;		Nothing
  2089 ;; This function is called by:
  2090 ;;		_SYSTEM_Initialize
  2091 ;; This function uses a non-reentrant model
  2092 ;;
  2093                           
  2094                           	psect	text13
  2095   001D28                     __ptext13:
  2096                           	callstack 0
  2097   001D28                     _SPI1_Initialize:
  2098                           	callstack 23
  2099   001D28                     
  2100                           ;mcc_generated_files/spi/src/spi1.c: 73:     SPI1CON1 = 0x40;
  2101   001D28  0E40               	movlw	64
  2102   001D2A  013D               	movlb	61	; () banked
  2103   001D2C  6F15               	movwf	21,b	;volatile
  2104                           
  2105                           ;mcc_generated_files/spi/src/spi1.c: 75:     SPI1CON2 = 0x0;
  2106   001D2E  0E00               	movlw	0
  2107   001D30  6F16               	movwf	22,b	;volatile
  2108                           
  2109                           ;mcc_generated_files/spi/src/spi1.c: 77:     SPI1CLK = 0x0;
  2110   001D32  0E00               	movlw	0
  2111   001D34  6F1C               	movwf	28,b	;volatile
  2112                           
  2113                           ;mcc_generated_files/spi/src/spi1.c: 79:     SPI1BAUD = 0x18;
  2114   001D36  0E18               	movlw	24
  2115   001D38  6F19               	movwf	25,b	;volatile
  2116   001D3A                     
  2117                           ; BSR set to: 61
  2118                           ;mcc_generated_files/spi/src/spi1.c: 80:     TRISCbits.TRISC3 = 0;
  2119   001D3A  96C4               	bcf	196,3,c	;volatile
  2120                           
  2121                           ;mcc_generated_files/spi/src/spi1.c: 82:     SPI1CON0 = 0x2;
  2122   001D3C  0E02               	movlw	2
  2123   001D3E  6F14               	movwf	20,b	;volatile
  2124   001D40                     
  2125                           ; BSR set to: 61
  2126   001D40  0012               	return		;funcret
  2127   001D42                     __end_of_SPI1_Initialize:
  2128                           	callstack 0
  2129                           
  2130 ;; *************** function _PIN_MANAGER_Initialize *****************
  2131 ;; Defined at:
  2132 ;;		line 38 in file "mcc_generated_files/system/src/pins.c"
  2133 ;; Parameters:    Size  Location     Type
  2134 ;;		None
  2135 ;; Auto vars:     Size  Location     Type
  2136 ;;		None
  2137 ;; Return value:  Size  Location     Type
  2138 ;;                  1    wreg      void 
  2139 ;; Registers used:
  2140 ;;		wreg, status,2
  2141 ;; Tracked objects:
  2142 ;;		On entry : 0/0
  2143 ;;		On exit  : 0/0
  2144 ;;		Unchanged: 0/0
  2145 ;; Data sizes:     COMRAM   BANK0   BANK1   BANK2   BANK3   BANK4   BANK5   BANK6   BANK7   BANK8   BANK9  BANK10  BANK1
      +1  BANK12  BANK13  BANK14  BANK15
  2146 ;;      Params:         0       0       0       0       0       0       0       0       0       0       0       0       
      +0       0       0       0       0
  2147 ;;      Locals:         0       0       0       0       0       0       0       0       0       0       0       0       
      +0       0       0       0       0
  2148 ;;      Temps:          0       0       0       0       0       0       0       0       0       0       0       0       
      +0       0       0       0       0
  2149 ;;      Totals:         0       0       0       0       0       0       0       0       0       0       0       0       
      +0       0       0       0       0
  2150 ;;Total ram usage:        0 bytes
  2151 ;; Hardware stack levels used: 1
  2152 ;; Hardware stack levels required when called: 6
  2153 ;; This function calls:
  2154 ;;		Nothing
  2155 ;; This function is called by:
  2156 ;;		_SYSTEM_Initialize
  2157 ;; This function uses a non-reentrant model
  2158 ;;
  2159                           
  2160                           	psect	text14
  2161   001188                     __ptext14:
  2162                           	callstack 0
  2163   001188                     _PIN_MANAGER_Initialize:
  2164                           	callstack 23
  2165   001188                     
  2166                           ;mcc_generated_files/system/src/pins.c: 43:     LATA = 0x0;
  2167   001188  0E00               	movlw	0
  2168   00118A  6EBA               	movwf	186,c	;volatile
  2169                           
  2170                           ;mcc_generated_files/system/src/pins.c: 44:     LATB = 0x6;
  2171   00118C  0E06               	movlw	6
  2172   00118E  6EBB               	movwf	187,c	;volatile
  2173                           
  2174                           ;mcc_generated_files/system/src/pins.c: 45:     LATC = 0x0;
  2175   001190  0E00               	movlw	0
  2176   001192  6EBC               	movwf	188,c	;volatile
  2177                           
  2178                           ;mcc_generated_files/system/src/pins.c: 46:     LATD = 0x0;
  2179   001194  0E00               	movlw	0
  2180   001196  6EBD               	movwf	189,c	;volatile
  2181                           
  2182                           ;mcc_generated_files/system/src/pins.c: 47:     LATE = 0x0;
  2183   001198  0E00               	movlw	0
  2184   00119A  6EBE               	movwf	190,c	;volatile
  2185                           
  2186                           ;mcc_generated_files/system/src/pins.c: 52:     TRISA = 0x3;
  2187   00119C  0E03               	movlw	3
  2188   00119E  6EC2               	movwf	194,c	;volatile
  2189                           
  2190                           ;mcc_generated_files/system/src/pins.c: 53:     TRISB = 0x0;
  2191   0011A0  0E00               	movlw	0
  2192   0011A2  6EC3               	movwf	195,c	;volatile
  2193                           
  2194                           ;mcc_generated_files/system/src/pins.c: 54:     TRISC = 0x98;
  2195   0011A4  0E98               	movlw	152
  2196   0011A6  6EC4               	movwf	196,c	;volatile
  2197                           
  2198                           ;mcc_generated_files/system/src/pins.c: 55:     TRISD = 0x0;
  2199   0011A8  0E00               	movlw	0
  2200   0011AA  6EC5               	movwf	197,c	;volatile
  2201                           
  2202                           ;mcc_generated_files/system/src/pins.c: 56:     TRISE = 0x0;
  2203   0011AC  0E00               	movlw	0
  2204   0011AE  6EC6               	movwf	198,c	;volatile
  2205                           
  2206                           ;mcc_generated_files/system/src/pins.c: 61:     ANSELA = 0x3;
  2207   0011B0  0E03               	movlw	3
  2208   0011B2  013A               	movlb	58	; () banked
  2209   0011B4  6F40               	movwf	64,b	;volatile
  2210                           
  2211                           ;mcc_generated_files/system/src/pins.c: 62:     ANSELB = 0x0;
  2212   0011B6  0E00               	movlw	0
  2213   0011B8  6F50               	movwf	80,b	;volatile
  2214                           
  2215                           ;mcc_generated_files/system/src/pins.c: 63:     ANSELC = 0x0;
  2216   0011BA  0E00               	movlw	0
  2217   0011BC  6F60               	movwf	96,b	;volatile
  2218                           
  2219                           ;mcc_generated_files/system/src/pins.c: 64:     ANSELD = 0x0;
  2220   0011BE  0E00               	movlw	0
  2221   0011C0  6F70               	movwf	112,b	;volatile
  2222                           
  2223                           ;mcc_generated_files/system/src/pins.c: 65:     ANSELE = 0x0;
  2224   0011C2  0E00               	movlw	0
  2225   0011C4  6F80               	movwf	128,b	;volatile
  2226                           
  2227                           ;mcc_generated_files/system/src/pins.c: 70:     WPUA = 0x0;
  2228   0011C6  0E00               	movlw	0
  2229   0011C8  6F41               	movwf	65,b	;volatile
  2230                           
  2231                           ;mcc_generated_files/system/src/pins.c: 71:     WPUB = 0x0;
  2232   0011CA  0E00               	movlw	0
  2233   0011CC  6F51               	movwf	81,b	;volatile
  2234                           
  2235                           ;mcc_generated_files/system/src/pins.c: 72:     WPUC = 0x0;
  2236   0011CE  0E00               	movlw	0
  2237   0011D0  6F61               	movwf	97,b	;volatile
  2238                           
  2239                           ;mcc_generated_files/system/src/pins.c: 73:     WPUD = 0x0;
  2240   0011D2  0E00               	movlw	0
  2241   0011D4  6F71               	movwf	113,b	;volatile
  2242                           
  2243                           ;mcc_generated_files/system/src/pins.c: 74:     WPUE = 0x0;
  2244   0011D6  0E00               	movlw	0
  2245   0011D8  6F81               	movwf	129,b	;volatile
  2246                           
  2247                           ;mcc_generated_files/system/src/pins.c: 79:     RB1I2C = 0x0;
  2248   0011DA  0E00               	movlw	0
  2249   0011DC  6F5A               	movwf	90,b	;volatile
  2250                           
  2251                           ;mcc_generated_files/system/src/pins.c: 80:     RB2I2C = 0x0;
  2252   0011DE  0E00               	movlw	0
  2253   0011E0  6F5B               	movwf	91,b	;volatile
  2254                           
  2255                           ;mcc_generated_files/system/src/pins.c: 81:     RC3I2C = 0x0;
  2256   0011E2  0E00               	movlw	0
  2257   0011E4  6F6A               	movwf	106,b	;volatile
  2258                           
  2259                           ;mcc_generated_files/system/src/pins.c: 82:     RC4I2C = 0x0;
  2260   0011E6  0E00               	movlw	0
  2261   0011E8  6F6B               	movwf	107,b	;volatile
  2262                           
  2263                           ;mcc_generated_files/system/src/pins.c: 83:     RD0I2C = 0x0;
  2264   0011EA  0E00               	movlw	0
  2265   0011EC  6F7A               	movwf	122,b	;volatile
  2266                           
  2267                           ;mcc_generated_files/system/src/pins.c: 84:     RD1I2C = 0x0;
  2268   0011EE  0E00               	movlw	0
  2269   0011F0  6F7B               	movwf	123,b	;volatile
  2270                           
  2271                           ;mcc_generated_files/system/src/pins.c: 89:     ODCONA = 0x0;
  2272   0011F2  0E00               	movlw	0
  2273   0011F4  6F42               	movwf	66,b	;volatile
  2274                           
  2275                           ;mcc_generated_files/system/src/pins.c: 90:     ODCONB = 0x6;
  2276   0011F6  0E06               	movlw	6
  2277   0011F8  6F52               	movwf	82,b	;volatile
  2278                           
  2279                           ;mcc_generated_files/system/src/pins.c: 91:     ODCONC = 0x0;
  2280   0011FA  0E00               	movlw	0
  2281   0011FC  6F62               	movwf	98,b	;volatile
  2282                           
  2283                           ;mcc_generated_files/system/src/pins.c: 92:     ODCOND = 0x0;
  2284   0011FE  0E00               	movlw	0
  2285   001200  6F72               	movwf	114,b	;volatile
  2286                           
  2287                           ;mcc_generated_files/system/src/pins.c: 93:     ODCONE = 0x0;
  2288   001202  0E00               	movlw	0
  2289   001204  6F82               	movwf	130,b	;volatile
  2290   001206                     
  2291                           ; BSR set to: 58
  2292                           ;mcc_generated_files/system/src/pins.c: 98:     SLRCONA = 0xFF;
  2293   001206  6943               	setf	67,b	;volatile
  2294   001208                     
  2295                           ; BSR set to: 58
  2296                           ;mcc_generated_files/system/src/pins.c: 99:     SLRCONB = 0xFF;
  2297   001208  6953               	setf	83,b	;volatile
  2298   00120A                     
  2299                           ; BSR set to: 58
  2300                           ;mcc_generated_files/system/src/pins.c: 100:     SLRCONC = 0xFF;
  2301   00120A  6963               	setf	99,b	;volatile
  2302   00120C                     
  2303                           ; BSR set to: 58
  2304                           ;mcc_generated_files/system/src/pins.c: 101:     SLRCOND = 0xFF;
  2305   00120C  6973               	setf	115,b	;volatile
  2306                           
  2307                           ;mcc_generated_files/system/src/pins.c: 102:     SLRCONE = 0x7;
  2308   00120E  0E07               	movlw	7
  2309   001210  6F83               	movwf	131,b	;volatile
  2310   001212                     
  2311                           ; BSR set to: 58
  2312                           ;mcc_generated_files/system/src/pins.c: 107:     INLVLA = 0xFF;
  2313   001212  6944               	setf	68,b	;volatile
  2314   001214                     
  2315                           ; BSR set to: 58
  2316                           ;mcc_generated_files/system/src/pins.c: 108:     INLVLB = 0xFF;
  2317   001214  6954               	setf	84,b	;volatile
  2318   001216                     
  2319                           ; BSR set to: 58
  2320                           ;mcc_generated_files/system/src/pins.c: 109:     INLVLC = 0xFF;
  2321   001216  6964               	setf	100,b	;volatile
  2322   001218                     
  2323                           ; BSR set to: 58
  2324                           ;mcc_generated_files/system/src/pins.c: 110:     INLVLD = 0xFF;
  2325   001218  6974               	setf	116,b	;volatile
  2326                           
  2327                           ;mcc_generated_files/system/src/pins.c: 111:     INLVLE = 0xF;
  2328   00121A  0E0F               	movlw	15
  2329   00121C  6F84               	movwf	132,b	;volatile
  2330                           
  2331                           ;mcc_generated_files/system/src/pins.c: 115:     U1RXPPS = 0x17;
  2332   00121E  0E17               	movlw	23
  2333   001220  6FE5               	movwf	229,b	;volatile
  2334                           
  2335                           ;mcc_generated_files/system/src/pins.c: 116:     SPI1SDIPPS = 0x14;
  2336   001222  0E14               	movlw	20
  2337   001224  6FDF               	movwf	223,b	;volatile
  2338                           
  2339                           ;mcc_generated_files/system/src/pins.c: 117:     RC6PPS = 0x13;
  2340   001226  0E13               	movlw	19
  2341   001228  6F16               	movwf	22,b	;volatile
  2342                           
  2343                           ;mcc_generated_files/system/src/pins.c: 118:     RC5PPS = 0x1F;
  2344   00122A  0E1F               	movlw	31
  2345   00122C  6F15               	movwf	21,b	;volatile
  2346                           
  2347                           ;mcc_generated_files/system/src/pins.c: 119:     I2C2SCLPPS = 0x9;
  2348   00122E  0E09               	movlw	9
  2349   001230  6FE3               	movwf	227,b	;volatile
  2350                           
  2351                           ;mcc_generated_files/system/src/pins.c: 120:     RB1PPS = 0x23;
  2352   001232  0E23               	movlw	35
  2353   001234  6F09               	movwf	9,b	;volatile
  2354                           
  2355                           ;mcc_generated_files/system/src/pins.c: 121:     I2C2SDAPPS = 0xA;
  2356   001236  0E0A               	movlw	10
  2357   001238  6FE4               	movwf	228,b	;volatile
  2358                           
  2359                           ;mcc_generated_files/system/src/pins.c: 122:     RB2PPS = 0x24;
  2360   00123A  0E24               	movlw	36
  2361   00123C  6F0A               	movwf	10,b	;volatile
  2362                           
  2363                           ;mcc_generated_files/system/src/pins.c: 123:     SPI1SCKPPS = 0x13;
  2364   00123E  0E13               	movlw	19
  2365   001240  6FDE               	movwf	222,b	;volatile
  2366                           
  2367                           ;mcc_generated_files/system/src/pins.c: 124:     RC3PPS = 0x1E;
  2368   001242  0E1E               	movlw	30
  2369   001244  6F13               	movwf	19,b	;volatile
  2370                           
  2371                           ;mcc_generated_files/system/src/pins.c: 129:     IOCAP = 0x0;
  2372   001246  0E00               	movlw	0
  2373   001248  6F45               	movwf	69,b	;volatile
  2374                           
  2375                           ;mcc_generated_files/system/src/pins.c: 130:     IOCAN = 0x0;
  2376   00124A  0E00               	movlw	0
  2377   00124C  6F46               	movwf	70,b	;volatile
  2378                           
  2379                           ;mcc_generated_files/system/src/pins.c: 131:     IOCAF = 0x0;
  2380   00124E  0E00               	movlw	0
  2381   001250  6F47               	movwf	71,b	;volatile
  2382                           
  2383                           ;mcc_generated_files/system/src/pins.c: 132:     IOCBP = 0x0;
  2384   001252  0E00               	movlw	0
  2385   001254  6F55               	movwf	85,b	;volatile
  2386                           
  2387                           ;mcc_generated_files/system/src/pins.c: 133:     IOCBN = 0x0;
  2388   001256  0E00               	movlw	0
  2389   001258  6F56               	movwf	86,b	;volatile
  2390                           
  2391                           ;mcc_generated_files/system/src/pins.c: 134:     IOCBF = 0x0;
  2392   00125A  0E00               	movlw	0
  2393   00125C  6F57               	movwf	87,b	;volatile
  2394                           
  2395                           ;mcc_generated_files/system/src/pins.c: 135:     IOCCP = 0x0;
  2396   00125E  0E00               	movlw	0
  2397   001260  6F65               	movwf	101,b	;volatile
  2398                           
  2399                           ;mcc_generated_files/system/src/pins.c: 136:     IOCCN = 0x0;
  2400   001262  0E00               	movlw	0
  2401   001264  6F66               	movwf	102,b	;volatile
  2402                           
  2403                           ;mcc_generated_files/system/src/pins.c: 137:     IOCCF = 0x0;
  2404   001266  0E00               	movlw	0
  2405   001268  6F67               	movwf	103,b	;volatile
  2406                           
  2407                           ;mcc_generated_files/system/src/pins.c: 138:     IOCEP = 0x0;
  2408   00126A  0E00               	movlw	0
  2409   00126C  6F85               	movwf	133,b	;volatile
  2410                           
  2411                           ;mcc_generated_files/system/src/pins.c: 139:     IOCEN = 0x0;
  2412   00126E  0E00               	movlw	0
  2413   001270  6F86               	movwf	134,b	;volatile
  2414                           
  2415                           ;mcc_generated_files/system/src/pins.c: 140:     IOCEF = 0x0;
  2416   001272  0E00               	movlw	0
  2417   001274  6F87               	movwf	135,b	;volatile
  2418   001276                     
  2419                           ; BSR set to: 58
  2420   001276  0012               	return		;funcret
  2421   001278                     __end_of_PIN_MANAGER_Initialize:
  2422                           	callstack 0
  2423                           
  2424 ;; *************** function _INTERRUPT_Initialize *****************
  2425 ;; Defined at:
  2426 ;;		line 42 in file "mcc_generated_files/system/src/interrupt.c"
  2427 ;; Parameters:    Size  Location     Type
  2428 ;;		None
  2429 ;; Auto vars:     Size  Location     Type
  2430 ;;  state           1   19[BANK0 ] _Bool 
  2431 ;; Return value:  Size  Location     Type
  2432 ;;                  1    wreg      void 
  2433 ;; Registers used:
  2434 ;;		wreg, status,2, status,0, cstack
  2435 ;; Tracked objects:
  2436 ;;		On entry : 0/0
  2437 ;;		On exit  : 0/0
  2438 ;;		Unchanged: 0/0
  2439 ;; Data sizes:     COMRAM   BANK0   BANK1   BANK2   BANK3   BANK4   BANK5   BANK6   BANK7   BANK8   BANK9  BANK10  BANK1
      +1  BANK12  BANK13  BANK14  BANK15
  2440 ;;      Params:         0       0       0       0       0       0       0       0       0       0       0       0       
      +0       0       0       0       0
  2441 ;;      Locals:         0       1       0       0       0       0       0       0       0       0       0       0       
      +0       0       0       0       0
  2442 ;;      Temps:          0       0       0       0       0       0       0       0       0       0       0       0       
      +0       0       0       0       0
  2443 ;;      Totals:         0       1       0       0       0       0       0       0       0       0       0       0       
      +0       0       0       0       0
  2444 ;;Total ram usage:        1 bytes
  2445 ;; Hardware stack levels used: 1
  2446 ;; Hardware stack levels required when called: 7
  2447 ;; This function calls:
  2448 ;;		_INT0_SetInterruptHandler
  2449 ;;		_INT1_SetInterruptHandler
  2450 ;;		_INT2_SetInterruptHandler
  2451 ;; This function is called by:
  2452 ;;		_SYSTEM_Initialize
  2453 ;; This function uses a non-reentrant model
  2454 ;;
  2455                           
  2456                           	psect	text15
  2457   00145E                     __ptext15:
  2458                           	callstack 0
  2459   00145E                     _INTERRUPT_Initialize:
  2460                           	callstack 22
  2461   00145E                     
  2462                           ;mcc_generated_files/system/src/interrupt.c: 44:     INTCON0bits.IPEN = 1;
  2463   00145E  8AD2               	bsf	210,5,c	;volatile
  2464   001460                     
  2465                           ;mcc_generated_files/system/src/interrupt.c: 46:     _Bool state = (unsigned char)GIE;
  2466   001460  0E00               	movlw	0
  2467   001462  BED2               	btfsc	16338,7,c	;volatile
  2468   001464  0E01               	movlw	1
  2469   001466  0100               	movlb	0	; () banked
  2470   001468  6FB1               	movwf	INTERRUPT_Initialize@state& (0+255),b
  2471   00146A                     
  2472                           ; BSR set to: 0
  2473                           ;mcc_generated_files/system/src/interrupt.c: 47:     GIE = 0;
  2474   00146A  9ED2               	bcf	16338,7,c	;volatile
  2475                           
  2476                           ;mcc_generated_files/system/src/interrupt.c: 48:     IVTLOCK = 0x55;
  2477   00146C  0E55               	movlw	85
  2478   00146E  6ED4               	movwf	212,c	;volatile
  2479                           
  2480                           ;mcc_generated_files/system/src/interrupt.c: 49:     IVTLOCK = 0xAA;
  2481   001470  0EAA               	movlw	170
  2482   001472  6ED4               	movwf	212,c	;volatile
  2483   001474                     
  2484                           ; BSR set to: 0
  2485                           ;mcc_generated_files/system/src/interrupt.c: 50:     IVTLOCKbits.IVTLOCKED = 0x00;
  2486   001474  90D4               	bcf	212,0,c	;volatile
  2487                           
  2488                           ;mcc_generated_files/system/src/interrupt.c: 52:     IVTBASEU = 0;
  2489   001476  0E00               	movlw	0
  2490   001478  6ED7               	movwf	215,c	;volatile
  2491                           
  2492                           ;mcc_generated_files/system/src/interrupt.c: 53:     IVTBASEH = 0;
  2493   00147A  0E00               	movlw	0
  2494   00147C  6ED6               	movwf	214,c	;volatile
  2495                           
  2496                           ;mcc_generated_files/system/src/interrupt.c: 54:     IVTBASEL = 8;
  2497   00147E  0E08               	movlw	8
  2498   001480  6ED5               	movwf	213,c	;volatile
  2499                           
  2500                           ;mcc_generated_files/system/src/interrupt.c: 56:     IVTLOCK = 0x55;
  2501   001482  0E55               	movlw	85
  2502   001484  6ED4               	movwf	212,c	;volatile
  2503                           
  2504                           ;mcc_generated_files/system/src/interrupt.c: 57:     IVTLOCK = 0xAA;
  2505   001486  0EAA               	movlw	170
  2506   001488  6ED4               	movwf	212,c	;volatile
  2507   00148A                     
  2508                           ; BSR set to: 0
  2509                           ;mcc_generated_files/system/src/interrupt.c: 58:     IVTLOCKbits.IVTLOCKED = 0x01;
  2510   00148A  80D4               	bsf	212,0,c	;volatile
  2511   00148C                     
  2512                           ; BSR set to: 0
  2513                           ;mcc_generated_files/system/src/interrupt.c: 60:     GIE = state;
  2514   00148C  B1B1               	btfsc	INTERRUPT_Initialize@state& (0+255),0,b
  2515   00148E  D002               	bra	u1535
  2516   001490  9ED2               	bcf	16338,7,c	;volatile
  2517   001492  D001               	bra	u1536
  2518   001494                     u1535:
  2519   001494  8ED2               	bsf	16338,7,c	;volatile
  2520   001496                     u1536:
  2521   001496                     
  2522                           ;mcc_generated_files/system/src/interrupt.c: 62:     IPR3bits.U1RXIP = 1;
  2523   001496  0139               	movlb	57	; () banked
  2524   001498  8783               	bsf	131,3,b	;volatile
  2525   00149A                     
  2526                           ; BSR set to: 57
  2527                           ;mcc_generated_files/system/src/interrupt.c: 63:     IPR3bits.U1TXIP = 1;
  2528   00149A  8983               	bsf	131,4,b	;volatile
  2529   00149C                     
  2530                           ; BSR set to: 57
  2531                           ;mcc_generated_files/system/src/interrupt.c: 64:     IPR3bits.TMR0IP = 1;
  2532   00149C  8F83               	bsf	131,7,b	;volatile
  2533   00149E                     
  2534                           ; BSR set to: 57
  2535                           ;mcc_generated_files/system/src/interrupt.c: 65:     IPR4bits.TMR1IP = 1;
  2536   00149E  8184               	bsf	132,0,b	;volatile
  2537   0014A0                     
  2538                           ; BSR set to: 57
  2539                           ;mcc_generated_files/system/src/interrupt.c: 66:     IPR4bits.TMR2IP = 1;
  2540   0014A0  8584               	bsf	132,2,b	;volatile
  2541   0014A2                     
  2542                           ; BSR set to: 57
  2543                           ;mcc_generated_files/system/src/interrupt.c: 67:     IPR0bits.IOCIP = 0;
  2544   0014A2  9F80               	bcf	128,7,b	;volatile
  2545   0014A4                     
  2546                           ; BSR set to: 57
  2547                           ;mcc_generated_files/system/src/interrupt.c: 68:     IPR1bits.ADIP = 0;
  2548   0014A4  9581               	bcf	129,2,b	;volatile
  2549   0014A6                     
  2550                           ; BSR set to: 57
  2551                           ;mcc_generated_files/system/src/interrupt.c: 69:     IPR5bits.I2C2RXIP = 0;
  2552   0014A6  9D85               	bcf	133,6,b	;volatile
  2553   0014A8                     
  2554                           ; BSR set to: 57
  2555                           ;mcc_generated_files/system/src/interrupt.c: 70:     IPR5bits.I2C2TXIP = 0;
  2556   0014A8  9F85               	bcf	133,7,b	;volatile
  2557   0014AA                     
  2558                           ; BSR set to: 57
  2559                           ;mcc_generated_files/system/src/interrupt.c: 71:     IPR6bits.I2C2IP = 0;
  2560   0014AA  9186               	bcf	134,0,b	;volatile
  2561   0014AC                     
  2562                           ; BSR set to: 57
  2563                           ;mcc_generated_files/system/src/interrupt.c: 72:     IPR6bits.I2C2EIP = 0;
  2564   0014AC  9386               	bcf	134,1,b	;volatile
  2565   0014AE                     
  2566                           ; BSR set to: 57
  2567                           ;mcc_generated_files/system/src/interrupt.c: 76:     (PIR1bits.INT0IF = 0);
  2568   0014AE  91A1               	bcf	161,0,b	;volatile
  2569   0014B0                     
  2570                           ; BSR set to: 57
  2571                           ;mcc_generated_files/system/src/interrupt.c: 77:     (INTCON0bits.INT0EDG = 1);
  2572   0014B0  80D2               	bsf	210,0,c	;volatile
  2573   0014B2                     
  2574                           ; BSR set to: 57
  2575                           ;mcc_generated_files/system/src/interrupt.c: 79:     INT0_SetInterruptHandler(INT0_Defau
      +                          ltInterruptHandler);
  2576   0014B2  0E0C               	movlw	low _INT0_DefaultInterruptHandler
  2577   0014B4  0100               	movlb	0	; () banked
  2578   0014B6  6FAF               	movwf	INT0_SetInterruptHandler@InterruptHandler& (0+255),b
  2579   0014B8  0E1F               	movlw	high _INT0_DefaultInterruptHandler
  2580   0014BA  6FB0               	movwf	(INT0_SetInterruptHandler@InterruptHandler+1)& (0+255),b
  2581   0014BC  EC40  F00F         	call	_INT0_SetInterruptHandler	;wreg free
  2582   0014C0                     
  2583                           ;mcc_generated_files/system/src/interrupt.c: 84:     (PIR5bits.INT1IF = 0);
  2584   0014C0  0139               	movlb	57	; () banked
  2585   0014C2  91A5               	bcf	165,0,b	;volatile
  2586   0014C4                     
  2587                           ; BSR set to: 57
  2588                           ;mcc_generated_files/system/src/interrupt.c: 85:     (INTCON0bits.INT1EDG = 1);
  2589   0014C4  82D2               	bsf	210,1,c	;volatile
  2590   0014C6                     
  2591                           ; BSR set to: 57
  2592                           ;mcc_generated_files/system/src/interrupt.c: 87:     INT1_SetInterruptHandler(INT1_Defau
      +                          ltInterruptHandler);
  2593   0014C6  0E0E               	movlw	low _INT1_DefaultInterruptHandler
  2594   0014C8  0100               	movlb	0	; () banked
  2595   0014CA  6FAF               	movwf	INT1_SetInterruptHandler@InterruptHandler& (0+255),b
  2596   0014CC  0E1F               	movlw	high _INT1_DefaultInterruptHandler
  2597   0014CE  6FB0               	movwf	(INT1_SetInterruptHandler@InterruptHandler+1)& (0+255),b
  2598   0014D0  EC3B  F00F         	call	_INT1_SetInterruptHandler	;wreg free
  2599   0014D4                     
  2600                           ;mcc_generated_files/system/src/interrupt.c: 92:     (PIR7bits.INT2IF = 0);
  2601   0014D4  0139               	movlb	57	; () banked
  2602   0014D6  9BA7               	bcf	167,5,b	;volatile
  2603   0014D8                     
  2604                           ; BSR set to: 57
  2605                           ;mcc_generated_files/system/src/interrupt.c: 93:     (INTCON0bits.INT2EDG = 1);
  2606   0014D8  84D2               	bsf	210,2,c	;volatile
  2607   0014DA                     
  2608                           ; BSR set to: 57
  2609                           ;mcc_generated_files/system/src/interrupt.c: 95:     INT2_SetInterruptHandler(INT2_Defau
      +                          ltInterruptHandler);
  2610   0014DA  0E10               	movlw	low _INT2_DefaultInterruptHandler
  2611   0014DC  0100               	movlb	0	; () banked
  2612   0014DE  6FAF               	movwf	INT2_SetInterruptHandler@InterruptHandler& (0+255),b
  2613   0014E0  0E1F               	movlw	high _INT2_DefaultInterruptHandler
  2614   0014E2  6FB0               	movwf	(INT2_SetInterruptHandler@InterruptHandler+1)& (0+255),b
  2615   0014E4  EC36  F00F         	call	_INT2_SetInterruptHandler	;wreg free
  2616   0014E8  0012               	return		;funcret
  2617   0014EA                     __end_of_INTERRUPT_Initialize:
  2618                           	callstack 0
  2619                           
  2620 ;; *************** function _INT2_SetInterruptHandler *****************
  2621 ;; Defined at:
  2622 ;;		line 203 in file "mcc_generated_files/system/src/interrupt.c"
  2623 ;; Parameters:    Size  Location     Type
  2624 ;;  InterruptHan    2   17[BANK0 ] PTR FTN()void 
  2625 ;;		 -> INT2_DefaultInterruptHandler(1), 
  2626 ;; Auto vars:     Size  Location     Type
  2627 ;;		None
  2628 ;; Return value:  Size  Location     Type
  2629 ;;                  1    wreg      void 
  2630 ;; Registers used:
  2631 ;;		wreg, status,2, status,0
  2632 ;; Tracked objects:
  2633 ;;		On entry : 0/0
  2634 ;;		On exit  : 0/0
  2635 ;;		Unchanged: 0/0
  2636 ;; Data sizes:     COMRAM   BANK0   BANK1   BANK2   BANK3   BANK4   BANK5   BANK6   BANK7   BANK8   BANK9  BANK10  BANK1
      +1  BANK12  BANK13  BANK14  BANK15
  2637 ;;      Params:         0       2       0       0       0       0       0       0       0       0       0       0       
      +0       0       0       0       0
  2638 ;;      Locals:         0       0       0       0       0       0       0       0       0       0       0       0       
      +0       0       0       0       0
  2639 ;;      Temps:          0       0       0       0       0       0       0       0       0       0       0       0       
      +0       0       0       0       0
  2640 ;;      Totals:         0       2       0       0       0       0       0       0       0       0       0       0       
      +0       0       0       0       0
  2641 ;;Total ram usage:        2 bytes
  2642 ;; Hardware stack levels used: 1
  2643 ;; Hardware stack levels required when called: 6
  2644 ;; This function calls:
  2645 ;;		Nothing
  2646 ;; This function is called by:
  2647 ;;		_INTERRUPT_Initialize
  2648 ;; This function uses a non-reentrant model
  2649 ;;
  2650                           
  2651                           	psect	text16
  2652   001E6C                     __ptext16:
  2653                           	callstack 0
  2654   001E6C                     _INT2_SetInterruptHandler:
  2655                           	callstack 22
  2656   001E6C                     
  2657                           ;mcc_generated_files/system/src/interrupt.c: 204:     INT2_InterruptHandler = InterruptH
      +                          andler;
  2658   001E6C  C0AF  F092         	movff	INT2_SetInterruptHandler@InterruptHandler,_INT2_InterruptHandler
  2659   001E70  C0B0  F093         	movff	INT2_SetInterruptHandler@InterruptHandler+1,_INT2_InterruptHandler+1
  2660   001E74  0012               	return		;funcret
  2661   001E76                     __end_of_INT2_SetInterruptHandler:
  2662                           	callstack 0
  2663                           
  2664 ;; *************** function _INT1_SetInterruptHandler *****************
  2665 ;; Defined at:
  2666 ;;		line 169 in file "mcc_generated_files/system/src/interrupt.c"
  2667 ;; Parameters:    Size  Location     Type
  2668 ;;  InterruptHan    2   17[BANK0 ] PTR FTN()void 
  2669 ;;		 -> INT1_DefaultInterruptHandler(1), 
  2670 ;; Auto vars:     Size  Location     Type
  2671 ;;		None
  2672 ;; Return value:  Size  Location     Type
  2673 ;;                  1    wreg      void 
  2674 ;; Registers used:
  2675 ;;		wreg, status,2, status,0
  2676 ;; Tracked objects:
  2677 ;;		On entry : 0/0
  2678 ;;		On exit  : 0/0
  2679 ;;		Unchanged: 0/0
  2680 ;; Data sizes:     COMRAM   BANK0   BANK1   BANK2   BANK3   BANK4   BANK5   BANK6   BANK7   BANK8   BANK9  BANK10  BANK1
      +1  BANK12  BANK13  BANK14  BANK15
  2681 ;;      Params:         0       2       0       0       0       0       0       0       0       0       0       0       
      +0       0       0       0       0
  2682 ;;      Locals:         0       0       0       0       0       0       0       0       0       0       0       0       
      +0       0       0       0       0
  2683 ;;      Temps:          0       0       0       0       0       0       0       0       0       0       0       0       
      +0       0       0       0       0
  2684 ;;      Totals:         0       2       0       0       0       0       0       0       0       0       0       0       
      +0       0       0       0       0
  2685 ;;Total ram usage:        2 bytes
  2686 ;; Hardware stack levels used: 1
  2687 ;; Hardware stack levels required when called: 6
  2688 ;; This function calls:
  2689 ;;		Nothing
  2690 ;; This function is called by:
  2691 ;;		_INTERRUPT_Initialize
  2692 ;; This function uses a non-reentrant model
  2693 ;;
  2694                           
  2695                           	psect	text17
  2696   001E76                     __ptext17:
  2697                           	callstack 0
  2698   001E76                     _INT1_SetInterruptHandler:
  2699                           	callstack 22
  2700   001E76                     
  2701                           ;mcc_generated_files/system/src/interrupt.c: 170:     INT1_InterruptHandler = InterruptH
      +                          andler;
  2702   001E76  C0AF  F094         	movff	INT1_SetInterruptHandler@InterruptHandler,_INT1_InterruptHandler
  2703   001E7A  C0B0  F095         	movff	INT1_SetInterruptHandler@InterruptHandler+1,_INT1_InterruptHandler+1
  2704   001E7E  0012               	return		;funcret
  2705   001E80                     __end_of_INT1_SetInterruptHandler:
  2706                           	callstack 0
  2707                           
  2708 ;; *************** function _INT0_SetInterruptHandler *****************
  2709 ;; Defined at:
  2710 ;;		line 135 in file "mcc_generated_files/system/src/interrupt.c"
  2711 ;; Parameters:    Size  Location     Type
  2712 ;;  InterruptHan    2   17[BANK0 ] PTR FTN()void 
  2713 ;;		 -> INT0_DefaultInterruptHandler(1), 
  2714 ;; Auto vars:     Size  Location     Type
  2715 ;;		None
  2716 ;; Return value:  Size  Location     Type
  2717 ;;                  1    wreg      void 
  2718 ;; Registers used:
  2719 ;;		wreg, status,2, status,0
  2720 ;; Tracked objects:
  2721 ;;		On entry : 0/0
  2722 ;;		On exit  : 0/0
  2723 ;;		Unchanged: 0/0
  2724 ;; Data sizes:     COMRAM   BANK0   BANK1   BANK2   BANK3   BANK4   BANK5   BANK6   BANK7   BANK8   BANK9  BANK10  BANK1
      +1  BANK12  BANK13  BANK14  BANK15
  2725 ;;      Params:         0       2       0       0       0       0       0       0       0       0       0       0       
      +0       0       0       0       0
  2726 ;;      Locals:         0       0       0       0       0       0       0       0       0       0       0       0       
      +0       0       0       0       0
  2727 ;;      Temps:          0       0       0       0       0       0       0       0       0       0       0       0       
      +0       0       0       0       0
  2728 ;;      Totals:         0       2       0       0       0       0       0       0       0       0       0       0       
      +0       0       0       0       0
  2729 ;;Total ram usage:        2 bytes
  2730 ;; Hardware stack levels used: 1
  2731 ;; Hardware stack levels required when called: 6
  2732 ;; This function calls:
  2733 ;;		Nothing
  2734 ;; This function is called by:
  2735 ;;		_INTERRUPT_Initialize
  2736 ;; This function uses a non-reentrant model
  2737 ;;
  2738                           
  2739                           	psect	text18
  2740   001E80                     __ptext18:
  2741                           	callstack 0
  2742   001E80                     _INT0_SetInterruptHandler:
  2743                           	callstack 22
  2744   001E80                     
  2745                           ;mcc_generated_files/system/src/interrupt.c: 136:     INT0_InterruptHandler = InterruptH
      +                          andler;
  2746   001E80  C0AF  F096         	movff	INT0_SetInterruptHandler@InterruptHandler,_INT0_InterruptHandler
  2747   001E84  C0B0  F097         	movff	INT0_SetInterruptHandler@InterruptHandler+1,_INT0_InterruptHandler+1
  2748   001E88  0012               	return		;funcret
  2749   001E8A                     __end_of_INT0_SetInterruptHandler:
  2750                           	callstack 0
  2751                           
  2752 ;; *************** function _I2C2_Initialize *****************
  2753 ;; Defined at:
  2754 ;;		line 91 in file "mcc_generated_files/i2c_host/src/i2c2.c"
  2755 ;; Parameters:    Size  Location     Type
  2756 ;;		None
  2757 ;; Auto vars:     Size  Location     Type
  2758 ;;		None
  2759 ;; Return value:  Size  Location     Type
  2760 ;;                  1    wreg      void 
  2761 ;; Registers used:
  2762 ;;		wreg, status,2, status,0, cstack
  2763 ;; Tracked objects:
  2764 ;;		On entry : 0/0
  2765 ;;		On exit  : 0/0
  2766 ;;		Unchanged: 0/0
  2767 ;; Data sizes:     COMRAM   BANK0   BANK1   BANK2   BANK3   BANK4   BANK5   BANK6   BANK7   BANK8   BANK9  BANK10  BANK1
      +1  BANK12  BANK13  BANK14  BANK15
  2768 ;;      Params:         0       0       0       0       0       0       0       0       0       0       0       0       
      +0       0       0       0       0
  2769 ;;      Locals:         0       0       0       0       0       0       0       0       0       0       0       0       
      +0       0       0       0       0
  2770 ;;      Temps:          0       0       0       0       0       0       0       0       0       0       0       0       
      +0       0       0       0       0
  2771 ;;      Totals:         0       0       0       0       0       0       0       0       0       0       0       0       
      +0       0       0       0       0
  2772 ;;Total ram usage:        0 bytes
  2773 ;; Hardware stack levels used: 1
  2774 ;; Hardware stack levels required when called: 7
  2775 ;; This function calls:
  2776 ;;		_I2C2_CallbackRegister
  2777 ;;		_I2C2_InterruptsEnable
  2778 ;; This function is called by:
  2779 ;;		_SYSTEM_Initialize
  2780 ;; This function uses a non-reentrant model
  2781 ;;
  2782                           
  2783                           	psect	text19
  2784   001642                     __ptext19:
  2785                           	callstack 0
  2786   001642                     _I2C2_Initialize:
  2787                           	callstack 22
  2788   001642                     
  2789                           ;mcc_generated_files/i2c_host/src/i2c2.c: 94:     I2C2CON0 = 0x4;
  2790   001642  0E04               	movlw	4
  2791   001644  013D               	movlb	61	; () banked
  2792   001646  6F5D               	movwf	93,b	;volatile
  2793                           
  2794                           ;mcc_generated_files/i2c_host/src/i2c2.c: 96:     I2C2CON1 = 0x80;
  2795   001648  0E80               	movlw	128
  2796   00164A  6F5E               	movwf	94,b	;volatile
  2797                           
  2798                           ;mcc_generated_files/i2c_host/src/i2c2.c: 98:     I2C2CON2 = 0x8;
  2799   00164C  0E08               	movlw	8
  2800   00164E  6F5F               	movwf	95,b	;volatile
  2801                           
  2802                           ;mcc_generated_files/i2c_host/src/i2c2.c: 100:     I2C2CLK = 0x3;
  2803   001650  0E03               	movlw	3
  2804   001652  6F65               	movwf	101,b	;volatile
  2805                           
  2806                           ;mcc_generated_files/i2c_host/src/i2c2.c: 102:     I2C2PIR = 0x0;
  2807   001654  0E00               	movlw	0
  2808   001656  6F63               	movwf	99,b	;volatile
  2809                           
  2810                           ;mcc_generated_files/i2c_host/src/i2c2.c: 104:     I2C2PIE = 0x0;
  2811   001658  0E00               	movlw	0
  2812   00165A  6F64               	movwf	100,b	;volatile
  2813                           
  2814                           ;mcc_generated_files/i2c_host/src/i2c2.c: 106:     I2C2ERR = 0x0;
  2815   00165C  0E00               	movlw	0
  2816   00165E  6F60               	movwf	96,b	;volatile
  2817                           
  2818                           ;mcc_generated_files/i2c_host/src/i2c2.c: 108:     I2C2CNT = 0x0;
  2819   001660  0E00               	movlw	0
  2820   001662  6F56               	movwf	86,b	;volatile
  2821                           
  2822                           ;mcc_generated_files/i2c_host/src/i2c2.c: 110:     RC3I2C = 0x51;
  2823   001664  0E51               	movlw	81
  2824   001666  013A               	movlb	58	; () banked
  2825   001668  6F6A               	movwf	106,b	;volatile
  2826                           
  2827                           ;mcc_generated_files/i2c_host/src/i2c2.c: 112:     RC4I2C = 0x51;
  2828   00166A  0E51               	movlw	81
  2829   00166C  6F6B               	movwf	107,b	;volatile
  2830   00166E                     
  2831                           ; BSR set to: 58
  2832                           ;mcc_generated_files/i2c_host/src/i2c2.c: 113:     I2C2_InterruptsEnable();
  2833   00166E  ECAD  F00E         	call	_I2C2_InterruptsEnable	;wreg free
  2834   001672                     
  2835                           ;mcc_generated_files/i2c_host/src/i2c2.c: 117:     I2C2PIEbits.SCIE = 0;
  2836   001672  013D               	movlb	61	; () banked
  2837   001674  9164               	bcf	100,0,b	;volatile
  2838   001676                     
  2839                           ; BSR set to: 61
  2840                           ;mcc_generated_files/i2c_host/src/i2c2.c: 118:     I2C2PIEbits.PCIE = 0;
  2841   001676  9564               	bcf	100,2,b	;volatile
  2842   001678                     
  2843                           ; BSR set to: 61
  2844                           ;mcc_generated_files/i2c_host/src/i2c2.c: 119:     I2C2CON0bits.EN = 1;
  2845   001678  8F5D               	bsf	93,7,b	;volatile
  2846   00167A                     
  2847                           ; BSR set to: 61
  2848                           ;mcc_generated_files/i2c_host/src/i2c2.c: 120:     _delay((unsigned long)((1)*(64000000/
      +                          4000000.0)));
  2849   00167A  0E05               	movlw	5
  2850   00167C                     u2527:
  2851   00167C  2EE8               	decfsz	wreg,f,c
  2852   00167E  D7FE               	bra	u2527
  2853   001680  F000               	nop	
  2854   001682                     
  2855                           ;mcc_generated_files/i2c_host/src/i2c2.c: 121:     __nop();
  2856   001682  F000               	nop	
  2857   001684                     
  2858                           ;mcc_generated_files/i2c_host/src/i2c2.c: 122:     __nop();
  2859   001684  F000               	nop	
  2860   001686                     
  2861                           ;mcc_generated_files/i2c_host/src/i2c2.c: 123:     __nop();
  2862   001686  F000               	nop	
  2863   001688                     
  2864                           ;mcc_generated_files/i2c_host/src/i2c2.c: 124:     __nop();
  2865   001688  F000               	nop	
  2866   00168A                     
  2867                           ;mcc_generated_files/i2c_host/src/i2c2.c: 125:     __nop();
  2868   00168A  F000               	nop	
  2869   00168C                     
  2870                           ;mcc_generated_files/i2c_host/src/i2c2.c: 126:     __nop();
  2871   00168C  F000               	nop	
  2872   00168E                     
  2873                           ;mcc_generated_files/i2c_host/src/i2c2.c: 127:     I2C2PIRbits.SCIF = 0;
  2874   00168E  013D               	movlb	61	; () banked
  2875   001690  9163               	bcf	99,0,b	;volatile
  2876   001692                     
  2877                           ; BSR set to: 61
  2878                           ;mcc_generated_files/i2c_host/src/i2c2.c: 128:     I2C2PIRbits.PCIF = 0;
  2879   001692  9563               	bcf	99,2,b	;volatile
  2880   001694                     
  2881                           ; BSR set to: 61
  2882                           ;mcc_generated_files/i2c_host/src/i2c2.c: 129:     I2C2PIEbits.PCIE = 1;
  2883   001694  8564               	bsf	100,2,b	;volatile
  2884   001696                     
  2885                           ; BSR set to: 61
  2886                           ;mcc_generated_files/i2c_host/src/i2c2.c: 130:     I2C2_CallbackRegister(I2C2_DefaultCal
      +                          lback);
  2887   001696  0E08               	movlw	low _I2C2_DefaultCallback
  2888   001698  0100               	movlb	0	; () banked
  2889   00169A  6FAF               	movwf	I2C2_CallbackRegister@callbackHandler& (0+255),b
  2890   00169C  0E1F               	movlw	high _I2C2_DefaultCallback
  2891   00169E  6FB0               	movwf	(I2C2_CallbackRegister@callbackHandler+1)& (0+255),b
  2892   0016A0  EC85  F00E         	call	_I2C2_CallbackRegister	;wreg free
  2893   0016A4  0012               	return		;funcret
  2894   0016A6                     __end_of_I2C2_Initialize:
  2895                           	callstack 0
  2896                           
  2897 ;; *************** function _I2C2_InterruptsEnable *****************
  2898 ;; Defined at:
  2899 ;;		line 448 in file "mcc_generated_files/i2c_host/src/i2c2.c"
  2900 ;; Parameters:    Size  Location     Type
  2901 ;;		None
  2902 ;; Auto vars:     Size  Location     Type
  2903 ;;		None
  2904 ;; Return value:  Size  Location     Type
  2905 ;;                  1    wreg      void 
  2906 ;; Registers used:
  2907 ;;		None
  2908 ;; Tracked objects:
  2909 ;;		On entry : 0/0
  2910 ;;		On exit  : 0/0
  2911 ;;		Unchanged: 0/0
  2912 ;; Data sizes:     COMRAM   BANK0   BANK1   BANK2   BANK3   BANK4   BANK5   BANK6   BANK7   BANK8   BANK9  BANK10  BANK1
      +1  BANK12  BANK13  BANK14  BANK15
  2913 ;;      Params:         0       0       0       0       0       0       0       0       0       0       0       0       
      +0       0       0       0       0
  2914 ;;      Locals:         0       0       0       0       0       0       0       0       0       0       0       0       
      +0       0       0       0       0
  2915 ;;      Temps:          0       0       0       0       0       0       0       0       0       0       0       0       
      +0       0       0       0       0
  2916 ;;      Totals:         0       0       0       0       0       0       0       0       0       0       0       0       
      +0       0       0       0       0
  2917 ;;Total ram usage:        0 bytes
  2918 ;; Hardware stack levels used: 1
  2919 ;; Hardware stack levels required when called: 6
  2920 ;; This function calls:
  2921 ;;		Nothing
  2922 ;; This function is called by:
  2923 ;;		_I2C2_Initialize
  2924 ;; This function uses a non-reentrant model
  2925 ;;
  2926                           
  2927                           	psect	text20
  2928   001D5A                     __ptext20:
  2929                           	callstack 0
  2930   001D5A                     _I2C2_InterruptsEnable:
  2931                           	callstack 22
  2932   001D5A                     
  2933                           ;mcc_generated_files/i2c_host/src/i2c2.c: 450:     PIE6bits.I2C2IE = 1;
  2934   001D5A  0139               	movlb	57	; () banked
  2935   001D5C  8196               	bsf	150,0,b	;volatile
  2936                           
  2937                           ;mcc_generated_files/i2c_host/src/i2c2.c: 451:     PIE6bits.I2C2EIE = 1;
  2938   001D5E  8396               	bsf	150,1,b	;volatile
  2939                           
  2940                           ;mcc_generated_files/i2c_host/src/i2c2.c: 452:     PIE5bits.I2C2RXIE = 1;
  2941   001D60  8D95               	bsf	149,6,b	;volatile
  2942                           
  2943                           ;mcc_generated_files/i2c_host/src/i2c2.c: 453:     PIE5bits.I2C2TXIE = 1;
  2944   001D62  8F95               	bsf	149,7,b	;volatile
  2945                           
  2946                           ;mcc_generated_files/i2c_host/src/i2c2.c: 455:     I2C2PIEbits.PCIE = 1;
  2947   001D64  013D               	movlb	61	; () banked
  2948   001D66  8564               	bsf	100,2,b	;volatile
  2949                           
  2950                           ;mcc_generated_files/i2c_host/src/i2c2.c: 456:     I2C2PIEbits.RSCIE = 1;
  2951   001D68  8364               	bsf	100,1,b	;volatile
  2952                           
  2953                           ;mcc_generated_files/i2c_host/src/i2c2.c: 457:     I2C2PIEbits.CNTIE = 1;
  2954   001D6A  8F64               	bsf	100,7,b	;volatile
  2955                           
  2956                           ;mcc_generated_files/i2c_host/src/i2c2.c: 458:     I2C2ERRbits.NACKIE = 1;
  2957   001D6C  8160               	bsf	96,0,b	;volatile
  2958   001D6E                     
  2959                           ; BSR set to: 61
  2960   001D6E  0012               	return		;funcret
  2961   001D70                     __end_of_I2C2_InterruptsEnable:
  2962                           	callstack 0
  2963                           
  2964 ;; *************** function _I2C2_CallbackRegister *****************
  2965 ;; Defined at:
  2966 ;;		line 216 in file "mcc_generated_files/i2c_host/src/i2c2.c"
  2967 ;; Parameters:    Size  Location     Type
  2968 ;;  callbackHand    2   17[BANK0 ] PTR FTN()void 
  2969 ;;		 -> I2C2_DefaultCallback(1), 
  2970 ;; Auto vars:     Size  Location     Type
  2971 ;;		None
  2972 ;; Return value:  Size  Location     Type
  2973 ;;                  1    wreg      void 
  2974 ;; Registers used:
  2975 ;;		wreg, status,2, status,0
  2976 ;; Tracked objects:
  2977 ;;		On entry : 0/0
  2978 ;;		On exit  : 0/0
  2979 ;;		Unchanged: 0/0
  2980 ;; Data sizes:     COMRAM   BANK0   BANK1   BANK2   BANK3   BANK4   BANK5   BANK6   BANK7   BANK8   BANK9  BANK10  BANK1
      +1  BANK12  BANK13  BANK14  BANK15
  2981 ;;      Params:         0       2       0       0       0       0       0       0       0       0       0       0       
      +0       0       0       0       0
  2982 ;;      Locals:         0       0       0       0       0       0       0       0       0       0       0       0       
      +0       0       0       0       0
  2983 ;;      Temps:          0       0       0       0       0       0       0       0       0       0       0       0       
      +0       0       0       0       0
  2984 ;;      Totals:         0       2       0       0       0       0       0       0       0       0       0       0       
      +0       0       0       0       0
  2985 ;;Total ram usage:        2 bytes
  2986 ;; Hardware stack levels used: 1
  2987 ;; Hardware stack levels required when called: 6
  2988 ;; This function calls:
  2989 ;;		Nothing
  2990 ;; This function is called by:
  2991 ;;		_I2C2_Initialize
  2992 ;;		_I2C2_Deinitialize
  2993 ;; This function uses a non-reentrant model
  2994 ;;
  2995                           
  2996                           	psect	text21
  2997   001D0A                     __ptext21:
  2998                           	callstack 0
  2999   001D0A                     _I2C2_CallbackRegister:
  3000                           	callstack 22
  3001   001D0A                     
  3002                           ;mcc_generated_files/i2c_host/src/i2c2.c: 216: void I2C2_CallbackRegister(void (*callbac
      +                          kHandler)(void));mcc_generated_files/i2c_host/src/i2c2.c: 217: {;mcc_generated_files/i2c
      +                          _host/src/i2c2.c: 218:     if (callbackHandler != ((void*)0))
  3003   001D0A  0100               	movlb	0	; () banked
  3004   001D0C  51AF               	movf	I2C2_CallbackRegister@callbackHandler& (0+255),w,b
  3005   001D0E  11B0               	iorwf	(I2C2_CallbackRegister@callbackHandler+1)& (0+255),w,b
  3006   001D10  B4D8               	btfsc	status,2,c
  3007   001D12  EF8D  F00E         	goto	u831
  3008   001D16  EF8F  F00E         	goto	u830
  3009   001D1A                     u831:
  3010   001D1A  EF93  F00E         	goto	l340
  3011   001D1E                     u830:
  3012   001D1E                     
  3013                           ; BSR set to: 0
  3014                           ;mcc_generated_files/i2c_host/src/i2c2.c: 219:     {;mcc_generated_files/i2c_host/src/i2
      +                          c2.c: 220:         I2C2_Callback = callbackHandler;
  3015   001D1E  C0AF  F09C         	movff	I2C2_CallbackRegister@callbackHandler,_I2C2_Callback
  3016   001D22  C0B0  F09D         	movff	I2C2_CallbackRegister@callbackHandler+1,_I2C2_Callback+1
  3017   001D26                     l340:
  3018                           
  3019                           ; BSR set to: 0
  3020   001D26  0012               	return		;funcret
  3021   001D28                     __end_of_I2C2_CallbackRegister:
  3022                           	callstack 0
  3023                           
  3024 ;; *************** function _I2C1_Initialize *****************
  3025 ;; Defined at:
  3026 ;;		line 26 in file "mcc_generated_files/peripheral/src/i2c1.c"
  3027 ;; Parameters:    Size  Location     Type
  3028 ;;		None
  3029 ;; Auto vars:     Size  Location     Type
  3030 ;;		None
  3031 ;; Return value:  Size  Location     Type
  3032 ;;                  1    wreg      void 
  3033 ;; Registers used:
  3034 ;;		wreg, status,2
  3035 ;; Tracked objects:
  3036 ;;		On entry : 0/0
  3037 ;;		On exit  : 0/0
  3038 ;;		Unchanged: 0/0
  3039 ;; Data sizes:     COMRAM   BANK0   BANK1   BANK2   BANK3   BANK4   BANK5   BANK6   BANK7   BANK8   BANK9  BANK10  BANK1
      +1  BANK12  BANK13  BANK14  BANK15
  3040 ;;      Params:         0       0       0       0       0       0       0       0       0       0       0       0       
      +0       0       0       0       0
  3041 ;;      Locals:         0       0       0       0       0       0       0       0       0       0       0       0       
      +0       0       0       0       0
  3042 ;;      Temps:          0       0       0       0       0       0       0       0       0       0       0       0       
      +0       0       0       0       0
  3043 ;;      Totals:         0       0       0       0       0       0       0       0       0       0       0       0       
      +0       0       0       0       0
  3044 ;;Total ram usage:        0 bytes
  3045 ;; Hardware stack levels used: 1
  3046 ;; Hardware stack levels required when called: 6
  3047 ;; This function calls:
  3048 ;;		Nothing
  3049 ;; This function is called by:
  3050 ;;		_SYSTEM_Initialize
  3051 ;; This function uses a non-reentrant model
  3052 ;;
  3053                           
  3054                           	psect	text22
  3055   001842                     __ptext22:
  3056                           	callstack 0
  3057   001842                     _I2C1_Initialize:
  3058                           	callstack 23
  3059   001842                     
  3060                           ;mcc_generated_files/peripheral/src/i2c1.c: 28:     I2C1TXB = 0x0;
  3061   001842  0E00               	movlw	0
  3062   001844  013D               	movlb	61	; () banked
  3063   001846  6F6B               	movwf	107,b	;volatile
  3064                           
  3065                           ;mcc_generated_files/peripheral/src/i2c1.c: 30:     I2C1CNT = 0x0;
  3066   001848  0E00               	movlw	0
  3067   00184A  6F6C               	movwf	108,b	;volatile
  3068                           
  3069                           ;mcc_generated_files/peripheral/src/i2c1.c: 32:     I2C1ADB0 = 0x0;
  3070   00184C  0E00               	movlw	0
  3071   00184E  6F6D               	movwf	109,b	;volatile
  3072                           
  3073                           ;mcc_generated_files/peripheral/src/i2c1.c: 34:     I2C1ADB1 = 0x0;
  3074   001850  0E00               	movlw	0
  3075   001852  6F6E               	movwf	110,b	;volatile
  3076                           
  3077                           ;mcc_generated_files/peripheral/src/i2c1.c: 36:     I2C1ADR0 = 0x0;
  3078   001854  0E00               	movlw	0
  3079   001856  6F6F               	movwf	111,b	;volatile
  3080                           
  3081                           ;mcc_generated_files/peripheral/src/i2c1.c: 38:     I2C1ADR1 = 0x0;
  3082   001858  0E00               	movlw	0
  3083   00185A  6F70               	movwf	112,b	;volatile
  3084                           
  3085                           ;mcc_generated_files/peripheral/src/i2c1.c: 40:     I2C1ADR2 = 0x0;
  3086   00185C  0E00               	movlw	0
  3087   00185E  6F71               	movwf	113,b	;volatile
  3088                           
  3089                           ;mcc_generated_files/peripheral/src/i2c1.c: 42:     I2C1ADR3 = 0x0;
  3090   001860  0E00               	movlw	0
  3091   001862  6F72               	movwf	114,b	;volatile
  3092                           
  3093                           ;mcc_generated_files/peripheral/src/i2c1.c: 44:     I2C1CON0 = 0x0;
  3094   001864  0E00               	movlw	0
  3095   001866  6F73               	movwf	115,b	;volatile
  3096                           
  3097                           ;mcc_generated_files/peripheral/src/i2c1.c: 46:     I2C1CON1 = 0x0;
  3098   001868  0E00               	movlw	0
  3099   00186A  6F74               	movwf	116,b	;volatile
  3100                           
  3101                           ;mcc_generated_files/peripheral/src/i2c1.c: 48:     I2C1CON2 = 0x0;
  3102   00186C  0E00               	movlw	0
  3103   00186E  6F75               	movwf	117,b	;volatile
  3104                           
  3105                           ;mcc_generated_files/peripheral/src/i2c1.c: 50:     I2C1ERR = 0x0;
  3106   001870  0E00               	movlw	0
  3107   001872  6F76               	movwf	118,b	;volatile
  3108                           
  3109                           ;mcc_generated_files/peripheral/src/i2c1.c: 52:     I2C1STAT1 = 0x0;
  3110   001874  0E00               	movlw	0
  3111   001876  6F78               	movwf	120,b	;volatile
  3112                           
  3113                           ;mcc_generated_files/peripheral/src/i2c1.c: 54:     I2C1PIR = 0x0;
  3114   001878  0E00               	movlw	0
  3115   00187A  6F79               	movwf	121,b	;volatile
  3116                           
  3117                           ;mcc_generated_files/peripheral/src/i2c1.c: 56:     I2C1PIE = 0x0;
  3118   00187C  0E00               	movlw	0
  3119   00187E  6F7A               	movwf	122,b	;volatile
  3120                           
  3121                           ;mcc_generated_files/peripheral/src/i2c1.c: 58:     I2C1CLK = 0x0;
  3122   001880  0E00               	movlw	0
  3123   001882  6F7B               	movwf	123,b	;volatile
  3124                           
  3125                           ;mcc_generated_files/peripheral/src/i2c1.c: 60:     I2C1BTO = 0x1;
  3126   001884  0E01               	movlw	1
  3127   001886  6F7C               	movwf	124,b	;volatile
  3128   001888                     
  3129                           ; BSR set to: 61
  3130   001888  0012               	return		;funcret
  3131   00188A                     __end_of_I2C1_Initialize:
  3132                           	callstack 0
  3133                           
  3134 ;; *************** function _FVR_Initialize *****************
  3135 ;; Defined at:
  3136 ;;		line 43 in file "mcc_generated_files/fvr/src/fvr.c"
  3137 ;; Parameters:    Size  Location     Type
  3138 ;;		None
  3139 ;; Auto vars:     Size  Location     Type
  3140 ;;		None
  3141 ;; Return value:  Size  Location     Type
  3142 ;;                  1    wreg      void 
  3143 ;; Registers used:
  3144 ;;		wreg, status,2
  3145 ;; Tracked objects:
  3146 ;;		On entry : 0/0
  3147 ;;		On exit  : 0/0
  3148 ;;		Unchanged: 0/0
  3149 ;; Data sizes:     COMRAM   BANK0   BANK1   BANK2   BANK3   BANK4   BANK5   BANK6   BANK7   BANK8   BANK9  BANK10  BANK1
      +1  BANK12  BANK13  BANK14  BANK15
  3150 ;;      Params:         0       0       0       0       0       0       0       0       0       0       0       0       
      +0       0       0       0       0
  3151 ;;      Locals:         0       0       0       0       0       0       0       0       0       0       0       0       
      +0       0       0       0       0
  3152 ;;      Temps:          0       0       0       0       0       0       0       0       0       0       0       0       
      +0       0       0       0       0
  3153 ;;      Totals:         0       0       0       0       0       0       0       0       0       0       0       0       
      +0       0       0       0       0
  3154 ;;Total ram usage:        0 bytes
  3155 ;; Hardware stack levels used: 1
  3156 ;; Hardware stack levels required when called: 6
  3157 ;; This function calls:
  3158 ;;		Nothing
  3159 ;; This function is called by:
  3160 ;;		_SYSTEM_Initialize
  3161 ;; This function uses a non-reentrant model
  3162 ;;
  3163                           
  3164                           	psect	text23
  3165   001EBC                     __ptext23:
  3166                           	callstack 0
  3167   001EBC                     _FVR_Initialize:
  3168                           	callstack 23
  3169   001EBC                     
  3170                           ;mcc_generated_files/fvr/src/fvr.c: 46:     FVRCON = 0xC2;
  3171   001EBC  0EC2               	movlw	194
  3172   001EBE  013E               	movlb	62	; () banked
  3173   001EC0  6FC1               	movwf	193,b	;volatile
  3174   001EC2                     
  3175                           ; BSR set to: 62
  3176   001EC2  0012               	return		;funcret
  3177   001EC4                     __end_of_FVR_Initialize:
  3178                           	callstack 0
  3179                           
  3180 ;; *************** function _CLOCK_Initialize *****************
  3181 ;; Defined at:
  3182 ;;		line 37 in file "mcc_generated_files/system/src/clock.c"
  3183 ;; Parameters:    Size  Location     Type
  3184 ;;		None
  3185 ;; Auto vars:     Size  Location     Type
  3186 ;;		None
  3187 ;; Return value:  Size  Location     Type
  3188 ;;                  1    wreg      void 
  3189 ;; Registers used:
  3190 ;;		wreg, status,2
  3191 ;; Tracked objects:
  3192 ;;		On entry : 0/0
  3193 ;;		On exit  : 0/0
  3194 ;;		Unchanged: 0/0
  3195 ;; Data sizes:     COMRAM   BANK0   BANK1   BANK2   BANK3   BANK4   BANK5   BANK6   BANK7   BANK8   BANK9  BANK10  BANK1
      +1  BANK12  BANK13  BANK14  BANK15
  3196 ;;      Params:         0       0       0       0       0       0       0       0       0       0       0       0       
      +0       0       0       0       0
  3197 ;;      Locals:         0       0       0       0       0       0       0       0       0       0       0       0       
      +0       0       0       0       0
  3198 ;;      Temps:          0       0       0       0       0       0       0       0       0       0       0       0       
      +0       0       0       0       0
  3199 ;;      Totals:         0       0       0       0       0       0       0       0       0       0       0       0       
      +0       0       0       0       0
  3200 ;;Total ram usage:        0 bytes
  3201 ;; Hardware stack levels used: 1
  3202 ;; Hardware stack levels required when called: 6
  3203 ;; This function calls:
  3204 ;;		Nothing
  3205 ;; This function is called by:
  3206 ;;		_SYSTEM_Initialize
  3207 ;; This function uses a non-reentrant model
  3208 ;;
  3209                           
  3210                           	psect	text24
  3211   001D42                     __ptext24:
  3212                           	callstack 0
  3213   001D42                     _CLOCK_Initialize:
  3214                           	callstack 23
  3215   001D42                     
  3216                           ;mcc_generated_files/system/src/clock.c: 41:     OSCCON1 = 0x60;
  3217   001D42  0E60               	movlw	96
  3218   001D44  0139               	movlb	57	; () banked
  3219   001D46  6FD9               	movwf	217,b	;volatile
  3220                           
  3221                           ;mcc_generated_files/system/src/clock.c: 43:     OSCCON3 = 0x0;
  3222   001D48  0E00               	movlw	0
  3223   001D4A  6FDB               	movwf	219,b	;volatile
  3224                           
  3225                           ;mcc_generated_files/system/src/clock.c: 45:     OSCEN = 0x0;
  3226   001D4C  0E00               	movlw	0
  3227   001D4E  6FDD               	movwf	221,b	;volatile
  3228                           
  3229                           ;mcc_generated_files/system/src/clock.c: 47:     OSCFRQ = 0x8;
  3230   001D50  0E08               	movlw	8
  3231   001D52  6FDF               	movwf	223,b	;volatile
  3232                           
  3233                           ;mcc_generated_files/system/src/clock.c: 49:     OSCTUNE = 0x0;
  3234   001D54  0E00               	movlw	0
  3235   001D56  6FDE               	movwf	222,b	;volatile
  3236   001D58                     
  3237                           ; BSR set to: 57
  3238   001D58  0012               	return		;funcret
  3239   001D5A                     __end_of_CLOCK_Initialize:
  3240                           	callstack 0
  3241                           
  3242 ;; *************** function _ADCC_Initialize *****************
  3243 ;; Defined at:
  3244 ;;		line 47 in file "mcc_generated_files/adc/src/adcc.c"
  3245 ;; Parameters:    Size  Location     Type
  3246 ;;		None
  3247 ;; Auto vars:     Size  Location     Type
  3248 ;;		None
  3249 ;; Return value:  Size  Location     Type
  3250 ;;                  1    wreg      void 
  3251 ;; Registers used:
  3252 ;;		wreg, status,2, status,0, cstack
  3253 ;; Tracked objects:
  3254 ;;		On entry : 0/0
  3255 ;;		On exit  : 0/0
  3256 ;;		Unchanged: 0/0
  3257 ;; Data sizes:     COMRAM   BANK0   BANK1   BANK2   BANK3   BANK4   BANK5   BANK6   BANK7   BANK8   BANK9  BANK10  BANK1
      +1  BANK12  BANK13  BANK14  BANK15
  3258 ;;      Params:         0       0       0       0       0       0       0       0       0       0       0       0       
      +0       0       0       0       0
  3259 ;;      Locals:         0       0       0       0       0       0       0       0       0       0       0       0       
      +0       0       0       0       0
  3260 ;;      Temps:          0       0       0       0       0       0       0       0       0       0       0       0       
      +0       0       0       0       0
  3261 ;;      Totals:         0       0       0       0       0       0       0       0       0       0       0       0       
      +0       0       0       0       0
  3262 ;;Total ram usage:        0 bytes
  3263 ;; Hardware stack levels used: 1
  3264 ;; Hardware stack levels required when called: 7
  3265 ;; This function calls:
  3266 ;;		_ADCC_SetADIInterruptHandler
  3267 ;; This function is called by:
  3268 ;;		_SYSTEM_Initialize
  3269 ;; This function uses a non-reentrant model
  3270 ;;
  3271                           
  3272                           	psect	text25
  3273   0014EA                     __ptext25:
  3274                           	callstack 0
  3275   0014EA                     _ADCC_Initialize:
  3276                           	callstack 22
  3277   0014EA                     
  3278                           ;mcc_generated_files/adc/src/adcc.c: 51:     ADLTHL = 0x0;
  3279   0014EA  0E00               	movlw	0
  3280   0014EC  013E               	movlb	62	; () banked
  3281   0014EE  6FDE               	movwf	222,b	;volatile
  3282                           
  3283                           ;mcc_generated_files/adc/src/adcc.c: 53:     ADLTHH = 0x0;
  3284   0014F0  0E00               	movlw	0
  3285   0014F2  6FDF               	movwf	223,b	;volatile
  3286                           
  3287                           ;mcc_generated_files/adc/src/adcc.c: 55:     ADUTHL = 0x0;
  3288   0014F4  0E00               	movlw	0
  3289   0014F6  6FE0               	movwf	224,b	;volatile
  3290                           
  3291                           ;mcc_generated_files/adc/src/adcc.c: 57:     ADUTHH = 0x0;
  3292   0014F8  0E00               	movlw	0
  3293   0014FA  6FE1               	movwf	225,b	;volatile
  3294                           
  3295                           ;mcc_generated_files/adc/src/adcc.c: 59:     ADSTPTL = 0x0;
  3296   0014FC  0E00               	movlw	0
  3297   0014FE  6FE4               	movwf	228,b	;volatile
  3298                           
  3299                           ;mcc_generated_files/adc/src/adcc.c: 61:     ADSTPTH = 0x0;
  3300   001500  0E00               	movlw	0
  3301   001502  6FE5               	movwf	229,b	;volatile
  3302                           
  3303                           ;mcc_generated_files/adc/src/adcc.c: 63:     ADACCU = 0x0;
  3304   001504  0E00               	movlw	0
  3305   001506  6FEA               	movwf	234,b	;volatile
  3306                           
  3307                           ;mcc_generated_files/adc/src/adcc.c: 65:     ADRPT = 0x0;
  3308   001508  0E00               	movlw	0
  3309   00150A  6FEC               	movwf	236,b	;volatile
  3310                           
  3311                           ;mcc_generated_files/adc/src/adcc.c: 67:     ADPCH = 0x0;
  3312   00150C  0E00               	movlw	0
  3313   00150E  6FF1               	movwf	241,b	;volatile
  3314                           
  3315                           ;mcc_generated_files/adc/src/adcc.c: 69:     ADACQL = 0x1;
  3316   001510  0E01               	movlw	1
  3317   001512  6FF3               	movwf	243,b	;volatile
  3318                           
  3319                           ;mcc_generated_files/adc/src/adcc.c: 71:     ADACQH = 0x0;
  3320   001514  0E00               	movlw	0
  3321   001516  6FF4               	movwf	244,b	;volatile
  3322                           
  3323                           ;mcc_generated_files/adc/src/adcc.c: 73:     ADCAP = 0x0;
  3324   001518  0E00               	movlw	0
  3325   00151A  6FF5               	movwf	245,b	;volatile
  3326                           
  3327                           ;mcc_generated_files/adc/src/adcc.c: 75:     ADPREL = 0x0;
  3328   00151C  0E00               	movlw	0
  3329   00151E  6FF6               	movwf	246,b	;volatile
  3330                           
  3331                           ;mcc_generated_files/adc/src/adcc.c: 77:     ADPREH = 0x0;
  3332   001520  0E00               	movlw	0
  3333   001522  6FF7               	movwf	247,b	;volatile
  3334                           
  3335                           ;mcc_generated_files/adc/src/adcc.c: 79:     ADCON1 = 0x0;
  3336   001524  0E00               	movlw	0
  3337   001526  6FF9               	movwf	249,b	;volatile
  3338                           
  3339                           ;mcc_generated_files/adc/src/adcc.c: 81:     ADCON2 = 0x10;
  3340   001528  0E10               	movlw	16
  3341   00152A  6FFA               	movwf	250,b	;volatile
  3342                           
  3343                           ;mcc_generated_files/adc/src/adcc.c: 83:     ADCON3 = 0x0;
  3344   00152C  0E00               	movlw	0
  3345   00152E  6FFB               	movwf	251,b	;volatile
  3346                           
  3347                           ;mcc_generated_files/adc/src/adcc.c: 85:     ADSTAT = 0x0;
  3348   001530  0E00               	movlw	0
  3349   001532  6FFC               	movwf	252,b	;volatile
  3350                           
  3351                           ;mcc_generated_files/adc/src/adcc.c: 87:     ADREF = 0x3;
  3352   001534  0E03               	movlw	3
  3353   001536  6FFD               	movwf	253,b	;volatile
  3354                           
  3355                           ;mcc_generated_files/adc/src/adcc.c: 89:     ADACT = 0x0;
  3356   001538  0E00               	movlw	0
  3357   00153A  6FFE               	movwf	254,b	;volatile
  3358                           
  3359                           ;mcc_generated_files/adc/src/adcc.c: 91:     ADCLK = 0x1F;
  3360   00153C  0E1F               	movlw	31
  3361   00153E  6FFF               	movwf	255,b	;volatile
  3362                           
  3363                           ;mcc_generated_files/adc/src/adcc.c: 93:     ADCON0 = 0x84;
  3364   001540  0E84               	movlw	132
  3365   001542  6FF8               	movwf	248,b	;volatile
  3366   001544                     
  3367                           ; BSR set to: 62
  3368                           ;mcc_generated_files/adc/src/adcc.c: 96:     PIR1bits.ADIF = 0;
  3369   001544  0139               	movlb	57	; () banked
  3370   001546  95A1               	bcf	161,2,b	;volatile
  3371   001548                     
  3372                           ; BSR set to: 57
  3373                           ;mcc_generated_files/adc/src/adcc.c: 98:     ADCC_SetADIInterruptHandler(ADCC_DefaultADI
      +                          _ISR);
  3374   001548  0E06               	movlw	low _ADCC_DefaultADI_ISR
  3375   00154A  0100               	movlb	0	; () banked
  3376   00154C  6FAF               	movwf	ADCC_SetADIInterruptHandler@InterruptHandler& (0+255),b
  3377   00154E  0E1F               	movlw	high _ADCC_DefaultADI_ISR
  3378   001550  6FB0               	movwf	(ADCC_SetADIInterruptHandler@InterruptHandler+1)& (0+255),b
  3379   001552  EC45  F00F         	call	_ADCC_SetADIInterruptHandler	;wreg free
  3380   001556                     
  3381                           ;mcc_generated_files/adc/src/adcc.c: 100:     PIE1bits.ADIE = 1;
  3382   001556  0139               	movlb	57	; () banked
  3383   001558  8591               	bsf	145,2,b	;volatile
  3384   00155A                     
  3385                           ; BSR set to: 57
  3386                           ;mcc_generated_files/adc/src/adcc.c: 103:     PIR1bits.ADTIF = 0;
  3387   00155A  97A1               	bcf	161,3,b	;volatile
  3388   00155C                     
  3389                           ; BSR set to: 57
  3390   00155C  0012               	return		;funcret
  3391   00155E                     __end_of_ADCC_Initialize:
  3392                           	callstack 0
  3393                           
  3394 ;; *************** function _ADCC_SetADIInterruptHandler *****************
  3395 ;; Defined at:
  3396 ;;		line 297 in file "mcc_generated_files/adc/src/adcc.c"
  3397 ;; Parameters:    Size  Location     Type
  3398 ;;  InterruptHan    2   17[BANK0 ] PTR FTN()void 
  3399 ;;		 -> ADC_int(1), ADCC_DefaultADI_ISR(1), 
  3400 ;; Auto vars:     Size  Location     Type
  3401 ;;		None
  3402 ;; Return value:  Size  Location     Type
  3403 ;;                  1    wreg      void 
  3404 ;; Registers used:
  3405 ;;		wreg, status,2, status,0
  3406 ;; Tracked objects:
  3407 ;;		On entry : 0/0
  3408 ;;		On exit  : 0/0
  3409 ;;		Unchanged: 0/0
  3410 ;; Data sizes:     COMRAM   BANK0   BANK1   BANK2   BANK3   BANK4   BANK5   BANK6   BANK7   BANK8   BANK9  BANK10  BANK1
      +1  BANK12  BANK13  BANK14  BANK15
  3411 ;;      Params:         0       2       0       0       0       0       0       0       0       0       0       0       
      +0       0       0       0       0
  3412 ;;      Locals:         0       0       0       0       0       0       0       0       0       0       0       0       
      +0       0       0       0       0
  3413 ;;      Temps:          0       0       0       0       0       0       0       0       0       0       0       0       
      +0       0       0       0       0
  3414 ;;      Totals:         0       2       0       0       0       0       0       0       0       0       0       0       
      +0       0       0       0       0
  3415 ;;Total ram usage:        2 bytes
  3416 ;; Hardware stack levels used: 1
  3417 ;; Hardware stack levels required when called: 6
  3418 ;; This function calls:
  3419 ;;		Nothing
  3420 ;; This function is called by:
  3421 ;;		_ADCC_Initialize
  3422 ;;		_main
  3423 ;; This function uses a non-reentrant model
  3424 ;;
  3425                           
  3426                           	psect	text26
  3427   001E8A                     __ptext26:
  3428                           	callstack 0
  3429   001E8A                     _ADCC_SetADIInterruptHandler:
  3430                           	callstack 22
  3431   001E8A                     
  3432                           ;mcc_generated_files/adc/src/adcc.c: 297: void ADCC_SetADIInterruptHandler(void (* Inter
      +                          ruptHandler)(void));mcc_generated_files/adc/src/adcc.c: 298: {;mcc_generated_files/adc/s
      +                          rc/adcc.c: 299:     ADCC_ADI_InterruptHandler = InterruptHandler;
  3433   001E8A  C0AF  F0C3         	movff	ADCC_SetADIInterruptHandler@InterruptHandler,_ADCC_ADI_InterruptHandler
  3434   001E8E  C0B0  F0C4         	movff	ADCC_SetADIInterruptHandler@InterruptHandler+1,_ADCC_ADI_InterruptHandler+1
  3435   001E92  0012               	return		;funcret
  3436   001E94                     __end_of_ADCC_SetADIInterruptHandler:
  3437                           	callstack 0
  3438                           
  3439 ;; *************** function _SPI1_Open *****************
  3440 ;; Defined at:
  3441 ;;		line 85 in file "mcc_generated_files/spi/src/spi1.c"
  3442 ;; Parameters:    Size  Location     Type
  3443 ;;  spiConfigInd    1    wreg     unsigned char 
  3444 ;; Auto vars:     Size  Location     Type
  3445 ;;  spiConfigInd    1    0[COMRAM] unsigned char 
  3446 ;; Return value:  Size  Location     Type
  3447 ;;                  1    wreg      _Bool 
  3448 ;; Registers used:
  3449 ;;		wreg, status,2
  3450 ;; Tracked objects:
  3451 ;;		On entry : 0/0
  3452 ;;		On exit  : 0/0
  3453 ;;		Unchanged: 0/0
  3454 ;; Data sizes:     COMRAM   BANK0   BANK1   BANK2   BANK3   BANK4   BANK5   BANK6   BANK7   BANK8   BANK9  BANK10  BANK1
      +1  BANK12  BANK13  BANK14  BANK15
  3455 ;;      Params:         0       0       0       0       0       0       0       0       0       0       0       0       
      +0       0       0       0       0
  3456 ;;      Locals:         0       0       0       0       0       0       0       0       0       0       0       0       
      +0       0       0       0       0
  3457 ;;      Temps:          0       0       0       0       0       0       0       0       0       0       0       0       
      +0       0       0       0       0
  3458 ;;      Totals:         0       0       0       0       0       0       0       0       0       0       0       0       
      +0       0       0       0       0
  3459 ;;Total ram usage:        0 bytes
  3460 ;; Hardware stack levels used: 1
  3461 ;; Hardware stack levels required when called: 6
  3462 ;; This function calls:
  3463 ;;		Nothing
  3464 ;; This function is called by:
  3465 ;;		_main
  3466 ;; This function uses a non-reentrant model
  3467 ;;
  3468                           
  3469                           	psect	text27
  3470   001BC8                     __ptext27:
  3471                           	callstack 0
  3472   001BC8                     _SPI1_Open:
  3473                           	callstack 24
  3474   001BC8                     
  3475                           ;mcc_generated_files/spi/src/spi1.c: 85: _Bool SPI1_Open(uint8_t spiConfigIndex);mcc_gen
      +                          erated_files/spi/src/spi1.c: 86: {;mcc_generated_files/spi/src/spi1.c: 87:     if(!SPI1C
      +                          ON0bits.EN)
  3476   001BC8  013D               	movlb	61	; () banked
  3477   001BCA  BF14               	btfsc	20,7,b	;volatile
  3478   001BCC  EFEA  F00D         	goto	u981
  3479   001BD0  EFEC  F00D         	goto	u980
  3480   001BD4                     u981:
  3481   001BD4  EFF8  F00D         	goto	l569
  3482   001BD8                     u980:
  3483   001BD8                     
  3484                           ; BSR set to: 61
  3485                           ;mcc_generated_files/spi/src/spi1.c: 88:     {;mcc_generated_files/spi/src/spi1.c: 89:  
      +                                 SPI1CON0 = 0b10000011;
  3486   001BD8  0E83               	movlw	131
  3487   001BDA  6F14               	movwf	20,b	;volatile
  3488                           
  3489                           ;mcc_generated_files/spi/src/spi1.c: 90:         SPI1CON1 = 0x40;
  3490   001BDC  0E40               	movlw	64
  3491   001BDE  6F15               	movwf	21,b	;volatile
  3492                           
  3493                           ;mcc_generated_files/spi/src/spi1.c: 91:         SPI1CON2 = 0b00000010;
  3494   001BE0  0E02               	movlw	2
  3495   001BE2  6F16               	movwf	22,b	;volatile
  3496                           
  3497                           ;mcc_generated_files/spi/src/spi1.c: 92:         SPI1CLK = 0x00;
  3498   001BE4  0E00               	movlw	0
  3499   001BE6  6F1C               	movwf	28,b	;volatile
  3500                           
  3501                           ;mcc_generated_files/spi/src/spi1.c: 93:         SPI1BAUD = 0x18;
  3502   001BE8  0E18               	movlw	24
  3503   001BEA  6F19               	movwf	25,b	;volatile
  3504   001BEC                     
  3505                           ; BSR set to: 61
  3506                           ;mcc_generated_files/spi/src/spi1.c: 94:         TRISCbits.TRISC3 = 0;
  3507   001BEC  96C4               	bcf	196,3,c	;volatile
  3508   001BEE                     
  3509                           ; BSR set to: 61
  3510                           ;mcc_generated_files/spi/src/spi1.c: 95:         SPI1CON0bits.EN = 1;
  3511   001BEE  8F14               	bsf	20,7,b	;volatile
  3512   001BF0                     l569:
  3513                           
  3514                           ; BSR set to: 61
  3515   001BF0  0012               	return		;funcret
  3516   001BF2                     __end_of_SPI1_Open:
  3517                           	callstack 0
  3518                           
  3519 ;; *************** function _ADCC_ISR *****************
  3520 ;; Defined at:
  3521 ;;		line 286 in file "mcc_generated_files/adc/src/adcc.c"
  3522 ;; Parameters:    Size  Location     Type
  3523 ;;		None
  3524 ;; Auto vars:     Size  Location     Type
  3525 ;;		None
  3526 ;; Return value:  Size  Location     Type
  3527 ;;                  1    wreg      void 
  3528 ;; Registers used:
  3529 ;;		wreg, fsr2l, fsr2h, status,2, status,0, pcl, pclath, pclatu, tosl, cstack
  3530 ;; Tracked objects:
  3531 ;;		On entry : 0/0
  3532 ;;		On exit  : 0/0
  3533 ;;		Unchanged: 0/0
  3534 ;; Data sizes:     COMRAM   BANK0   BANK1   BANK2   BANK3   BANK4   BANK5   BANK6   BANK7   BANK8   BANK9  BANK10  BANK1
      +1  BANK12  BANK13  BANK14  BANK15
  3535 ;;      Params:         0       0       0       0       0       0       0       0       0       0       0       0       
      +0       0       0       0       0
  3536 ;;      Locals:         0       0       0       0       0       0       0       0       0       0       0       0       
      +0       0       0       0       0
  3537 ;;      Temps:          3       0       0       0       0       0       0       0       0       0       0       0       
      +0       0       0       0       0
  3538 ;;      Totals:         3       0       0       0       0       0       0       0       0       0       0       0       
      +0       0       0       0       0
  3539 ;;Total ram usage:        3 bytes
  3540 ;; Hardware stack levels used: 1
  3541 ;; Hardware stack levels required when called: 5
  3542 ;; This function calls:
  3543 ;;		Absolute function
  3544 ;;		_ADCC_DefaultADI_ISR
  3545 ;;		_ADC_int
  3546 ;; This function is called by:
  3547 ;;		Interrupt level 1
  3548 ;; This function uses a non-reentrant model
  3549 ;;
  3550                           
  3551                           	psect	text28
  3552   0016A8                     __ptext28:
  3553                           	callstack 0
  3554   0016A8                     _ADCC_ISR:
  3555                           	callstack 22
  3556                           
  3557                           ; BSR set to: 61
  3558                           ;incstack = 0
  3559   0016A8  006F FF60  F03F    	movff	status,??_ADCC_ISR
  3560   0016AE  006F FFE8  F040    	movff	pclath,??_ADCC_ISR+1
  3561   0016B4  006F FFEC  F041    	movff	pclatu,??_ADCC_ISR+2
  3562   0016BA                     
  3563                           ;mcc_generated_files/adc/src/adcc.c: 289:     PIR1bits.ADIF = 0;
  3564   0016BA  0139               	movlb	57	; () banked
  3565   0016BC  95A1               	bcf	161,2,b	;volatile
  3566   0016BE                     
  3567                           ; BSR set to: 57
  3568                           ;mcc_generated_files/adc/src/adcc.c: 291:     if (ADCC_ADI_InterruptHandler != ((void*)0
      +                          ))
  3569   0016BE  0100               	movlb	0	; () banked
  3570   0016C0  51C3               	movf	_ADCC_ADI_InterruptHandler& (0+255),w,b
  3571   0016C2  11C4               	iorwf	(_ADCC_ADI_InterruptHandler+1)& (0+255),w,b
  3572   0016C4  B4D8               	btfsc	status,2,c
  3573   0016C6  EF67  F00B         	goto	i1u112_21
  3574   0016CA  EF69  F00B         	goto	i1u112_20
  3575   0016CE                     i1u112_21:
  3576   0016CE  EF75  F00B         	goto	i1l176
  3577   0016D2                     i1u112_20:
  3578   0016D2                     
  3579                           ; BSR set to: 0
  3580                           ;mcc_generated_files/adc/src/adcc.c: 292:     {;mcc_generated_files/adc/src/adcc.c: 293:
      +                                   ADCC_ADI_InterruptHandler();
  3581   0016D2  D802               	call	i1u113_28
  3582   0016D4  EF75  F00B         	goto	i1u113_29
  3583   0016D8                     i1u113_28:
  3584   0016D8  0005               	push	
  3585   0016DA  6EFA               	movwf	pclath,c
  3586   0016DC  51C3               	movf	_ADCC_ADI_InterruptHandler& (0+255),w,b
  3587   0016DE  6EFD               	movwf	tosl,c
  3588   0016E0  51C4               	movf	(_ADCC_ADI_InterruptHandler+1)& (0+255),w,b
  3589   0016E2  6EFE               	movwf	tosh,c
  3590   0016E4  6AFF               	clrf	tosu,c
  3591   0016E6  50FA               	movf	pclath,w,c
  3592   0016E8  0012               	return		;indir
  3593   0016EA                     i1u113_29:
  3594   0016EA                     i1l176:
  3595   0016EA  0060  F107  FFFB   	movff	??_ADCC_ISR+2,pclatu
  3596   0016F0  0060  F103  FFFA   	movff	??_ADCC_ISR+1,pclath
  3597   0016F6  0060  F0FF  FFD8   	movff	??_ADCC_ISR,status
  3598   0016FC  0011               	retfie		f
  3599   0016FE                     __end_of_ADCC_ISR:
  3600                           	callstack 0
  3601                           
  3602 ;; *************** function _ADCC_DefaultADI_ISR *****************
  3603 ;; Defined at:
  3604 ;;		line 302 in file "mcc_generated_files/adc/src/adcc.c"
  3605 ;; Parameters:    Size  Location     Type
  3606 ;;		None
  3607 ;; Auto vars:     Size  Location     Type
  3608 ;;		None
  3609 ;; Return value:  Size  Location     Type
  3610 ;;                  1    wreg      void 
  3611 ;; Registers used:
  3612 ;;		None
  3613 ;; Tracked objects:
  3614 ;;		On entry : 0/0
  3615 ;;		On exit  : 0/0
  3616 ;;		Unchanged: 0/0
  3617 ;; Data sizes:     COMRAM   BANK0   BANK1   BANK2   BANK3   BANK4   BANK5   BANK6   BANK7   BANK8   BANK9  BANK10  BANK1
      +1  BANK12  BANK13  BANK14  BANK15
  3618 ;;      Params:         0       0       0       0       0       0       0       0       0       0       0       0       
      +0       0       0       0       0
  3619 ;;      Locals:         0       0       0       0       0       0       0       0       0       0       0       0       
      +0       0       0       0       0
  3620 ;;      Temps:          0       0       0       0       0       0       0       0       0       0       0       0       
      +0       0       0       0       0
  3621 ;;      Totals:         0       0       0       0       0       0       0       0       0       0       0       0       
      +0       0       0       0       0
  3622 ;;Total ram usage:        0 bytes
  3623 ;; Hardware stack levels used: 1
  3624 ;; Hardware stack levels required when called: 3
  3625 ;; This function calls:
  3626 ;;		Nothing
  3627 ;; This function is called by:
  3628 ;;		_ADCC_Initialize
  3629 ;;		_ADCC_ISR
  3630 ;; This function uses a non-reentrant model
  3631 ;;
  3632                           
  3633                           	psect	text29
  3634   001F06                     __ptext29:
  3635                           	callstack 0
  3636   001F06                     _ADCC_DefaultADI_ISR:
  3637                           	callstack 23
  3638   001F06  0012               	return		;funcret
  3639   001F08                     __end_of_ADCC_DefaultADI_ISR:
  3640                           	callstack 0
  3641                           
  3642 ;; *************** function _ADC_int *****************
  3643 ;; Defined at:
  3644 ;;		line 10 in file "ADC_int.c"
  3645 ;; Parameters:    Size  Location     Type
  3646 ;;		None
  3647 ;; Auto vars:     Size  Location     Type
  3648 ;;		None
  3649 ;; Return value:  Size  Location     Type
  3650 ;;                  1    wreg      void 
  3651 ;; Registers used:
  3652 ;;		wreg, fsr2l, fsr2h, status,2, status,0, cstack
  3653 ;; Tracked objects:
  3654 ;;		On entry : 0/0
  3655 ;;		On exit  : 0/0
  3656 ;;		Unchanged: 0/0
  3657 ;; Data sizes:     COMRAM   BANK0   BANK1   BANK2   BANK3   BANK4   BANK5   BANK6   BANK7   BANK8   BANK9  BANK10  BANK1
      +1  BANK12  BANK13  BANK14  BANK15
  3658 ;;      Params:         0       0       0       0       0       0       0       0       0       0       0       0       
      +0       0       0       0       0
  3659 ;;      Locals:         0       0       0       0       0       0       0       0       0       0       0       0       
      +0       0       0       0       0
  3660 ;;      Temps:          2       0       0       0       0       0       0       0       0       0       0       0       
      +0       0       0       0       0
  3661 ;;      Totals:         2       0       0       0       0       0       0       0       0       0       0       0       
      +0       0       0       0       0
  3662 ;;Total ram usage:        2 bytes
  3663 ;; Hardware stack levels used: 1
  3664 ;; Hardware stack levels required when called: 4
  3665 ;; This function calls:
  3666 ;;		_ADCC_StartConversion
  3667 ;;		_SPI1_ByteWrite
  3668 ;;		_Timer2_Start
  3669 ;;		_UART1_Write
  3670 ;; This function is called by:
  3671 ;;		_main
  3672 ;;		_ADCC_ISR
  3673 ;; This function uses a non-reentrant model
  3674 ;;
  3675                           
  3676                           	psect	text30
  3677   0013D0                     __ptext30:
  3678                           	callstack 0
  3679   0013D0                     _ADC_int:
  3680                           	callstack 22
  3681   0013D0                     
  3682                           ;ADC_int.c: 14:     if(ADPCH == 0)
  3683   0013D0  013E               	movlb	62	; () banked
  3684   0013D2  51F1               	movf	241,w,b	;volatile
  3685   0013D4  A4D8               	btfss	status,2,c
  3686   0013D6  EFEF  F009         	goto	i1u108_21
  3687   0013DA  EFF1  F009         	goto	i1u108_20
  3688   0013DE                     i1u108_21:
  3689   0013DE  EF2E  F00A         	goto	i1l1498
  3690   0013E2                     i1u108_20:
  3691   0013E2                     
  3692                           ; BSR set to: 62
  3693                           ;ADC_int.c: 15:     {;ADC_int.c: 18:         LATEbits.LATE0 = 0;
  3694   0013E2  90BE               	bcf	190,0,c	;volatile
  3695   0013E4                     
  3696                           ; BSR set to: 62
  3697                           ;ADC_int.c: 20:         ADCC_StartConversion(channel_ANA1);
  3698   0013E4  0E01               	movlw	1
  3699   0013E6  EC0D  F00F         	call	_ADCC_StartConversion
  3700   0013EA                     
  3701                           ;ADC_int.c: 23:         Timer2_Start();
  3702   0013EA  EC7F  F00F         	call	_Timer2_Start	;wreg free
  3703   0013EE                     
  3704                           ;ADC_int.c: 24:         SPI1_ByteWrite(0b00110000 | ADRESH);
  3705   0013EE  013E               	movlb	62	; () banked
  3706   0013F0  51F0               	movf	240,w,b	;volatile
  3707   0013F2  0930               	iorlw	48
  3708   0013F4  EC4A  F00F         	call	_SPI1_ByteWrite
  3709   0013F8                     
  3710                           ;ADC_int.c: 25:         SPI1_ByteWrite(ADRESL);
  3711   0013F8  013E               	movlb	62	; () banked
  3712   0013FA  51EF               	movf	239,w,b	;volatile
  3713   0013FC  EC4A  F00F         	call	_SPI1_ByteWrite
  3714   001400                     
  3715                           ;ADC_int.c: 27:         UART1_Write(valp[ADRESH & 0b1111]);
  3716   001400  013E               	movlb	62	; () banked
  3717   001402  51F0               	movf	240,w,b	;volatile
  3718   001404  0B0F               	andlw	15
  3719   001406  6E3D               	movwf	??_ADC_int^0,c
  3720   001408  6A3E               	clrf	(??_ADC_int+1)^0,c
  3721   00140A  0EB3               	movlw	low _valp
  3722   00140C  243D               	addwf	??_ADC_int^0,w,c
  3723   00140E  6ED9               	movwf	fsr2l,c
  3724   001410  0E00               	movlw	high _valp
  3725   001412  203E               	addwfc	(??_ADC_int+1)^0,w,c
  3726   001414  6EDA               	movwf	fsr2h,c
  3727   001416  50DF               	movf	indf2,w,c
  3728   001418  ECD4  F00B         	call	_UART1_Write
  3729   00141C                     
  3730                           ;ADC_int.c: 28:         UART1_Write(valp[(ADRESL >> 4) & 0b1111]);
  3731   00141C  013E               	movlb	62	; () banked
  3732   00141E  39EF               	swapf	239,w,b	;volatile
  3733   001420  0B0F               	andlw	15
  3734   001422  0B0F               	andlw	15
  3735   001424  6E3D               	movwf	??_ADC_int^0,c
  3736   001426  6A3E               	clrf	(??_ADC_int+1)^0,c
  3737   001428  0EB3               	movlw	low _valp
  3738   00142A  243D               	addwf	??_ADC_int^0,w,c
  3739   00142C  6ED9               	movwf	fsr2l,c
  3740   00142E  0E00               	movlw	high _valp
  3741   001430  203E               	addwfc	(??_ADC_int+1)^0,w,c
  3742   001432  6EDA               	movwf	fsr2h,c
  3743   001434  50DF               	movf	indf2,w,c
  3744   001436  ECD4  F00B         	call	_UART1_Write
  3745   00143A                     
  3746                           ;ADC_int.c: 29:         UART1_Write(valp[ADRESL & 0b1111]);
  3747   00143A  013E               	movlb	62	; () banked
  3748   00143C  51EF               	movf	239,w,b	;volatile
  3749   00143E  0B0F               	andlw	15
  3750   001440  6E3D               	movwf	??_ADC_int^0,c
  3751   001442  6A3E               	clrf	(??_ADC_int+1)^0,c
  3752   001444  0EB3               	movlw	low _valp
  3753   001446  243D               	addwf	??_ADC_int^0,w,c
  3754   001448  6ED9               	movwf	fsr2l,c
  3755   00144A  0E00               	movlw	high _valp
  3756   00144C  203E               	addwfc	(??_ADC_int+1)^0,w,c
  3757   00144E  6EDA               	movwf	fsr2h,c
  3758   001450  50DF               	movf	indf2,w,c
  3759   001452  ECD4  F00B         	call	_UART1_Write
  3760   001456                     
  3761                           ;ADC_int.c: 30:         UART1_Write(',');
  3762   001456  0E2C               	movlw	44
  3763   001458  ECD4  F00B         	call	_UART1_Write
  3764   00145C                     i1l1498:
  3765   00145C  0012               	return		;funcret
  3766   00145E                     __end_of_ADC_int:
  3767                           	callstack 0
  3768                           
  3769 ;; *************** function _UART1_Write *****************
  3770 ;; Defined at:
  3771 ;;		line 402 in file "mcc_generated_files/uart/src/uart1.c"
  3772 ;; Parameters:    Size  Location     Type
  3773 ;;  txData          1    wreg     unsigned char 
  3774 ;; Auto vars:     Size  Location     Type
  3775 ;;  txData          1   17[COMRAM] unsigned char 
  3776 ;;  tempTxHead      1   16[COMRAM] unsigned char 
  3777 ;; Return value:  Size  Location     Type
  3778 ;;                  1    wreg      void 
  3779 ;; Registers used:
  3780 ;;		wreg, fsr2l, fsr2h, status,2, status,0
  3781 ;; Tracked objects:
  3782 ;;		On entry : 0/0
  3783 ;;		On exit  : 0/0
  3784 ;;		Unchanged: 0/0
  3785 ;; Data sizes:     COMRAM   BANK0   BANK1   BANK2   BANK3   BANK4   BANK5   BANK6   BANK7   BANK8   BANK9  BANK10  BANK1
      +1  BANK12  BANK13  BANK14  BANK15
  3786 ;;      Params:         0       0       0       0       0       0       0       0       0       0       0       0       
      +0       0       0       0       0
  3787 ;;      Locals:         2       0       0       0       0       0       0       0       0       0       0       0       
      +0       0       0       0       0
  3788 ;;      Temps:          0       0       0       0       0       0       0       0       0       0       0       0       
      +0       0       0       0       0
  3789 ;;      Totals:         2       0       0       0       0       0       0       0       0       0       0       0       
      +0       0       0       0       0
  3790 ;;Total ram usage:        2 bytes
  3791 ;; Hardware stack levels used: 1
  3792 ;; Hardware stack levels required when called: 3
  3793 ;; This function calls:
  3794 ;;		Nothing
  3795 ;; This function is called by:
  3796 ;;		_ADC_int
  3797 ;; This function uses a non-reentrant model
  3798 ;;
  3799                           
  3800                           	psect	text31
  3801   0017A8                     __ptext31:
  3802                           	callstack 0
  3803   0017A8                     _UART1_Write:
  3804                           	callstack 22
  3805                           
  3806                           ;incstack = 0
  3807                           ;UART1_Write@txData stored from wreg
  3808   0017A8  6E3C               	movwf	UART1_Write@txData^0,c
  3809   0017AA                     
  3810                           ;mcc_generated_files/uart/src/uart1.c: 402: void UART1_Write(uint8_t txData);mcc_generat
      +                          ed_files/uart/src/uart1.c: 403: {;mcc_generated_files/uart/src/uart1.c: 404:     uint8_t
      +                           tempTxHead;;mcc_generated_files/uart/src/uart1.c: 406:     if(0 == PIE3bits.U1TXIE)
  3811   0017AA  0139               	movlb	57	; () banked
  3812   0017AC  B993               	btfsc	147,4,b	;volatile
  3813   0017AE  EFDB  F00B         	goto	i1u88_21
  3814   0017B2  EFDD  F00B         	goto	i1u88_20
  3815   0017B6                     i1u88_21:
  3816   0017B6  EFE2  F00B         	goto	i1l3572
  3817   0017BA                     i1u88_20:
  3818   0017BA                     
  3819                           ; BSR set to: 57
  3820                           ;mcc_generated_files/uart/src/uart1.c: 407:     {;mcc_generated_files/uart/src/uart1.c: 
      +                          408:         U1TXB = txData;
  3821   0017BA  0060  F0F3  FDEA   	movff	UART1_Write@txData,15850	;volatile
  3822                           
  3823                           ;mcc_generated_files/uart/src/uart1.c: 409:     }
  3824   0017C0  EFFA  F00B         	goto	i1l1395
  3825   0017C4                     i1l3572:
  3826                           
  3827                           ; BSR set to: 57
  3828   0017C4  5028               	movf	_uart1TxBufferRemaining^0,w,c	;volatile
  3829   0017C6  B4D8               	btfsc	status,2,c
  3830   0017C8  EFE8  F00B         	goto	i1u89_21
  3831   0017CC  EFEA  F00B         	goto	i1u89_20
  3832   0017D0                     i1u89_21:
  3833   0017D0  EFFA  F00B         	goto	i1l1395
  3834   0017D4                     i1u89_20:
  3835   0017D4                     
  3836                           ; BSR set to: 57
  3837                           ;mcc_generated_files/uart/src/uart1.c: 411:     {;mcc_generated_files/uart/src/uart1.c: 
      +                          412:        uart1TxBuffer[uart1TxHead] = txData;
  3838   0017D4  0E70               	movlw	low _uart1TxBuffer
  3839   0017D6  242A               	addwf	_uart1TxHead^0,w,c	;volatile
  3840   0017D8  6ED9               	movwf	fsr2l,c
  3841   0017DA  6ADA               	clrf	fsr2h,c
  3842   0017DC  0E00               	movlw	high _uart1TxBuffer
  3843   0017DE  22DA               	addwfc	fsr2h,f,c
  3844   0017E0  0060  F0F3  FFDF   	movff	UART1_Write@txData,indf2
  3845   0017E6                     
  3846                           ; BSR set to: 57
  3847                           ;mcc_generated_files/uart/src/uart1.c: 413:        tempTxHead = (uart1TxHead + 1) & ((16
      +                          ) - 1);
  3848   0017E6  282A               	incf	_uart1TxHead^0,w,c	;volatile
  3849   0017E8  0B0F               	andlw	15
  3850   0017EA  6E3B               	movwf	UART1_Write@tempTxHead^0,c
  3851   0017EC                     
  3852                           ; BSR set to: 57
  3853                           ;mcc_generated_files/uart/src/uart1.c: 415:        uart1TxHead = tempTxHead;
  3854   0017EC  C03B  F02A         	movff	UART1_Write@tempTxHead,_uart1TxHead	;volatile
  3855   0017F0                     
  3856                           ; BSR set to: 57
  3857                           ;mcc_generated_files/uart/src/uart1.c: 416:        PIE3bits.U1TXIE = 0;
  3858   0017F0  9993               	bcf	147,4,b	;volatile
  3859   0017F2                     
  3860                           ; BSR set to: 57
  3861                           ;mcc_generated_files/uart/src/uart1.c: 417:        uart1TxBufferRemaining--;
  3862   0017F2  0628               	decf	_uart1TxBufferRemaining^0,f,c	;volatile
  3863   0017F4                     i1l1395:
  3864                           
  3865                           ; BSR set to: 57
  3866                           ;mcc_generated_files/uart/src/uart1.c: 423:     PIE3bits.U1TXIE = 1;
  3867   0017F4  8993               	bsf	147,4,b	;volatile
  3868   0017F6                     
  3869                           ; BSR set to: 57
  3870   0017F6  0012               	return		;funcret
  3871   0017F8                     __end_of_UART1_Write:
  3872                           	callstack 0
  3873                           
  3874 ;; *************** function _Timer2_Start *****************
  3875 ;; Defined at:
  3876 ;;		line 95 in file "mcc_generated_files/timer/src/tmr2.c"
  3877 ;; Parameters:    Size  Location     Type
  3878 ;;		None
  3879 ;; Auto vars:     Size  Location     Type
  3880 ;;		None
  3881 ;; Return value:  Size  Location     Type
  3882 ;;                  1    wreg      void 
  3883 ;; Registers used:
  3884 ;;		None
  3885 ;; Tracked objects:
  3886 ;;		On entry : 0/0
  3887 ;;		On exit  : 0/0
  3888 ;;		Unchanged: 0/0
  3889 ;; Data sizes:     COMRAM   BANK0   BANK1   BANK2   BANK3   BANK4   BANK5   BANK6   BANK7   BANK8   BANK9  BANK10  BANK1
      +1  BANK12  BANK13  BANK14  BANK15
  3890 ;;      Params:         0       0       0       0       0       0       0       0       0       0       0       0       
      +0       0       0       0       0
  3891 ;;      Locals:         0       0       0       0       0       0       0       0       0       0       0       0       
      +0       0       0       0       0
  3892 ;;      Temps:          0       0       0       0       0       0       0       0       0       0       0       0       
      +0       0       0       0       0
  3893 ;;      Totals:         0       0       0       0       0       0       0       0       0       0       0       0       
      +0       0       0       0       0
  3894 ;;Total ram usage:        0 bytes
  3895 ;; Hardware stack levels used: 1
  3896 ;; Hardware stack levels required when called: 3
  3897 ;; This function calls:
  3898 ;;		Nothing
  3899 ;; This function is called by:
  3900 ;;		_ADC_int
  3901 ;; This function uses a non-reentrant model
  3902 ;;
  3903                           
  3904                           	psect	text32
  3905   001EFE                     __ptext32:
  3906                           	callstack 0
  3907   001EFE                     _Timer2_Start:
  3908                           	callstack 22
  3909   001EFE                     
  3910                           ;mcc_generated_files/timer/src/tmr2.c: 98:     T2CONbits.TMR2ON = 1;
  3911   001EFE  8EAC               	bsf	172,7,c	;volatile
  3912   001F00  0012               	return		;funcret
  3913   001F02                     __end_of_Timer2_Start:
  3914                           	callstack 0
  3915                           
  3916 ;; *************** function _SPI1_ByteWrite *****************
  3917 ;; Defined at:
  3918 ;;		line 145 in file "mcc_generated_files/spi/src/spi1.c"
  3919 ;; Parameters:    Size  Location     Type
  3920 ;;  byte            1    wreg     unsigned char 
  3921 ;; Auto vars:     Size  Location     Type
  3922 ;;  byte            1   16[COMRAM] unsigned char 
  3923 ;; Return value:  Size  Location     Type
  3924 ;;                  1    wreg      void 
  3925 ;; Registers used:
  3926 ;;		wreg
  3927 ;; Tracked objects:
  3928 ;;		On entry : 0/0
  3929 ;;		On exit  : 0/0
  3930 ;;		Unchanged: 0/0
  3931 ;; Data sizes:     COMRAM   BANK0   BANK1   BANK2   BANK3   BANK4   BANK5   BANK6   BANK7   BANK8   BANK9  BANK10  BANK1
      +1  BANK12  BANK13  BANK14  BANK15
  3932 ;;      Params:         0       0       0       0       0       0       0       0       0       0       0       0       
      +0       0       0       0       0
  3933 ;;      Locals:         1       0       0       0       0       0       0       0       0       0       0       0       
      +0       0       0       0       0
  3934 ;;      Temps:          0       0       0       0       0       0       0       0       0       0       0       0       
      +0       0       0       0       0
  3935 ;;      Totals:         1       0       0       0       0       0       0       0       0       0       0       0       
      +0       0       0       0       0
  3936 ;;Total ram usage:        1 bytes
  3937 ;; Hardware stack levels used: 1
  3938 ;; Hardware stack levels required when called: 3
  3939 ;; This function calls:
  3940 ;;		Nothing
  3941 ;; This function is called by:
  3942 ;;		_ADC_int
  3943 ;;		_SPI1_WriteByte
  3944 ;; This function uses a non-reentrant model
  3945 ;;
  3946                           
  3947                           	psect	text33
  3948   001E94                     __ptext33:
  3949                           	callstack 0
  3950   001E94                     _SPI1_ByteWrite:
  3951                           	callstack 22
  3952                           
  3953                           ;incstack = 0
  3954                           ;SPI1_ByteWrite@byte stored from wreg
  3955   001E94  6E3B               	movwf	SPI1_ByteWrite@byte^0,c
  3956   001E96                     
  3957                           ;mcc_generated_files/spi/src/spi1.c: 145: void SPI1_ByteWrite(uint8_t byte);mcc_generate
      +                          d_files/spi/src/spi1.c: 146: {;mcc_generated_files/spi/src/spi1.c: 147:     SPI1TXB = by
      +                          te;
  3958   001E96  0060  F0EF  FD11   	movff	SPI1_ByteWrite@byte,15633	;volatile
  3959   001E9C  0012               	return		;funcret
  3960   001E9E                     __end_of_SPI1_ByteWrite:
  3961                           	callstack 0
  3962                           
  3963 ;; *************** function _ADCC_StartConversion *****************
  3964 ;; Defined at:
  3965 ;;		line 106 in file "mcc_generated_files/adc/src/adcc.c"
  3966 ;; Parameters:    Size  Location     Type
  3967 ;;  channel         1    wreg     enum E15846
  3968 ;; Auto vars:     Size  Location     Type
  3969 ;;  channel         1   16[COMRAM] enum E15846
  3970 ;; Return value:  Size  Location     Type
  3971 ;;                  1    wreg      void 
  3972 ;; Registers used:
  3973 ;;		wreg
  3974 ;; Tracked objects:
  3975 ;;		On entry : 0/0
  3976 ;;		On exit  : 0/0
  3977 ;;		Unchanged: 0/0
  3978 ;; Data sizes:     COMRAM   BANK0   BANK1   BANK2   BANK3   BANK4   BANK5   BANK6   BANK7   BANK8   BANK9  BANK10  BANK1
      +1  BANK12  BANK13  BANK14  BANK15
  3979 ;;      Params:         0       0       0       0       0       0       0       0       0       0       0       0       
      +0       0       0       0       0
  3980 ;;      Locals:         1       0       0       0       0       0       0       0       0       0       0       0       
      +0       0       0       0       0
  3981 ;;      Temps:          0       0       0       0       0       0       0       0       0       0       0       0       
      +0       0       0       0       0
  3982 ;;      Totals:         1       0       0       0       0       0       0       0       0       0       0       0       
      +0       0       0       0       0
  3983 ;;Total ram usage:        1 bytes
  3984 ;; Hardware stack levels used: 1
  3985 ;; Hardware stack levels required when called: 3
  3986 ;; This function calls:
  3987 ;;		Nothing
  3988 ;; This function is called by:
  3989 ;;		_ADC_int
  3990 ;; This function uses a non-reentrant model
  3991 ;;
  3992                           
  3993                           	psect	text34
  3994   001E1A                     __ptext34:
  3995                           	callstack 0
  3996   001E1A                     _ADCC_StartConversion:
  3997                           	callstack 22
  3998                           
  3999                           ;incstack = 0
  4000                           ;ADCC_StartConversion@channel stored from wreg
  4001   001E1A  6E3B               	movwf	ADCC_StartConversion@channel^0,c
  4002   001E1C                     
  4003                           ;mcc_generated_files/adc/src/adcc.c: 106: void ADCC_StartConversion(adcc_channel_t chann
      +                          el);mcc_generated_files/adc/src/adcc.c: 107: {;mcc_generated_files/adc/src/adcc.c: 109: 
      +                              ADPCH = channel;
  4004   001E1C  0060  F0EF  FEF1   	movff	ADCC_StartConversion@channel,16113	;volatile
  4005   001E22                     
  4006                           ;mcc_generated_files/adc/src/adcc.c: 112:     ADCON0bits.ADGO = 1;
  4007   001E22  013E               	movlb	62	; () banked
  4008   001E24  81F8               	bsf	248,0,b	;volatile
  4009   001E26                     
  4010                           ; BSR set to: 62
  4011   001E26  0012               	return		;funcret
  4012   001E28                     __end_of_ADCC_StartConversion:
  4013                           	callstack 0
  4014                           
  4015 ;; *************** function _I2C2_ISR *****************
  4016 ;; Defined at:
  4017 ;;		line 224 in file "mcc_generated_files/i2c_host/src/i2c2.c"
  4018 ;; Parameters:    Size  Location     Type
  4019 ;;		None
  4020 ;; Auto vars:     Size  Location     Type
  4021 ;;		None
  4022 ;; Return value:  Size  Location     Type
  4023 ;;                  1    wreg      void 
  4024 ;; Registers used:
  4025 ;;		wreg, status,2, status,0, cstack
  4026 ;; Tracked objects:
  4027 ;;		On entry : 0/0
  4028 ;;		On exit  : 0/0
  4029 ;;		Unchanged: 0/0
  4030 ;; Data sizes:     COMRAM   BANK0   BANK1   BANK2   BANK3   BANK4   BANK5   BANK6   BANK7   BANK8   BANK9  BANK10  BANK1
      +1  BANK12  BANK13  BANK14  BANK15
  4031 ;;      Params:         0       0       0       0       0       0       0       0       0       0       0       0       
      +0       0       0       0       0
  4032 ;;      Locals:         0       0       0       0       0       0       0       0       0       0       0       0       
      +0       0       0       0       0
  4033 ;;      Temps:          1       0       0       0       0       0       0       0       0       0       0       0       
      +0       0       0       0       0
  4034 ;;      Totals:         1       0       0       0       0       0       0       0       0       0       0       0       
      +0       0       0       0       0
  4035 ;;Total ram usage:        1 bytes
  4036 ;; Hardware stack levels used: 1
  4037 ;; Hardware stack levels required when called: 5
  4038 ;; This function calls:
  4039 ;;		_I2C2_Close
  4040 ;;		_I2C2_ReadStart
  4041 ;;		_I2C2_RestartDisable
  4042 ;;		_I2C2_StopSend
  4043 ;; This function is called by:
  4044 ;;		Interrupt level 1
  4045 ;; This function uses a non-reentrant model
  4046 ;;
  4047                           
  4048                           	psect	text35
  4049   001334                     __ptext35:
  4050                           	callstack 0
  4051   001334                     _I2C2_ISR:
  4052                           	callstack 22
  4053                           
  4054                           ; BSR set to: 62
  4055                           ;incstack = 0
  4056   001334  006F FF60  F043    	movff	status,??_I2C2_ISR
  4057   00133A                     
  4058                           ;mcc_generated_files/i2c_host/src/i2c2.c: 226:     if (I2C2PIEbits.PCIE && I2C2PIRbits.P
      +                          CIF)
  4059   00133A  013D               	movlb	61	; () banked
  4060   00133C  A564               	btfss	100,2,b	;volatile
  4061   00133E  EFA3  F009         	goto	i1u237_21
  4062   001342  EFA5  F009         	goto	i1u237_20
  4063   001346                     i1u237_21:
  4064   001346  EFB0  F009         	goto	i1l345
  4065   00134A                     i1u237_20:
  4066   00134A                     
  4067                           ; BSR set to: 61
  4068   00134A  A563               	btfss	99,2,b	;volatile
  4069   00134C  EFAA  F009         	goto	i1u238_21
  4070   001350  EFAC  F009         	goto	i1u238_20
  4071   001354                     i1u238_21:
  4072   001354  EFB0  F009         	goto	i1l345
  4073   001358                     i1u238_20:
  4074   001358                     i1l5058:
  4075                           
  4076                           ;mcc_generated_files/i2c_host/src/i2c2.c: 227:     {;mcc_generated_files/i2c_host/src/i2
      +                          c2.c: 228:         I2C2_Close();
  4077   001358  ECF9  F00D         	call	_I2C2_Close	;wreg free
  4078                           
  4079                           ;mcc_generated_files/i2c_host/src/i2c2.c: 229:     }
  4080   00135C  EFE4  F009         	goto	i1l352
  4081   001360                     i1l345:
  4082                           
  4083                           ; BSR set to: 61
  4084   001360  AF64               	btfss	100,7,b	;volatile
  4085   001362  EFB5  F009         	goto	i1u239_21
  4086   001366  EFB7  F009         	goto	i1u239_20
  4087   00136A                     i1u239_21:
  4088   00136A  EFD2  F009         	goto	i1l347
  4089   00136E                     i1u239_20:
  4090   00136E                     
  4091                           ; BSR set to: 61
  4092   00136E  AF63               	btfss	99,7,b	;volatile
  4093   001370  EFBC  F009         	goto	i1u240_21
  4094   001374  EFBE  F009         	goto	i1u240_20
  4095   001378                     i1u240_21:
  4096   001378  EFD2  F009         	goto	i1l347
  4097   00137C                     i1u240_20:
  4098   00137C                     
  4099                           ; BSR set to: 61
  4100                           ;mcc_generated_files/i2c_host/src/i2c2.c: 231:     {;mcc_generated_files/i2c_host/src/i2
      +                          c2.c: 233:         if (i2c2Status.switchToRead)
  4101   00137C  500C               	movf	(_i2c2Status+11)^0,w,c	;volatile
  4102   00137E  B4D8               	btfsc	status,2,c
  4103   001380  EFC4  F009         	goto	i1u241_21
  4104   001384  EFC6  F009         	goto	i1u241_20
  4105   001388                     i1u241_21:
  4106   001388  EFCE  F009         	goto	i1l5072
  4107   00138C                     i1u241_20:
  4108   00138C                     
  4109                           ; BSR set to: 61
  4110                           ;mcc_generated_files/i2c_host/src/i2c2.c: 234:         {;mcc_generated_files/i2c_host/sr
      +                          c/i2c2.c: 235:             i2c2Status.switchToRead = 0;
  4111   00138C  0E00               	movlw	0
  4112   00138E  6E0C               	movwf	(_i2c2Status+11)^0,c	;volatile
  4113   001390                     
  4114                           ; BSR set to: 61
  4115                           ;mcc_generated_files/i2c_host/src/i2c2.c: 236:             I2C2PIRbits.SCIF = 0;
  4116   001390  9163               	bcf	99,0,b	;volatile
  4117   001392                     
  4118                           ; BSR set to: 61
  4119                           ;mcc_generated_files/i2c_host/src/i2c2.c: 237:             I2C2PIRbits.CNTIF = 0;
  4120   001392  9F63               	bcf	99,7,b	;volatile
  4121   001394                     
  4122                           ; BSR set to: 61
  4123                           ;mcc_generated_files/i2c_host/src/i2c2.c: 238:             I2C2_ReadStart();
  4124   001394  EC20  F00E         	call	_I2C2_ReadStart	;wreg free
  4125                           
  4126                           ;mcc_generated_files/i2c_host/src/i2c2.c: 239:         }
  4127   001398  EFE4  F009         	goto	i1l352
  4128   00139C                     i1l5072:
  4129                           
  4130                           ; BSR set to: 61
  4131                           ;mcc_generated_files/i2c_host/src/i2c2.c: 241:         {;mcc_generated_files/i2c_host/sr
      +                          c/i2c2.c: 242:             I2C2_StopSend();
  4132   00139C  EC0D  F00E         	call	_I2C2_StopSend	;wreg free
  4133   0013A0  EFAC  F009         	goto	i1l5058
  4134   0013A4                     i1l347:
  4135                           
  4136                           ; BSR set to: 61
  4137   0013A4  A364               	btfss	100,1,b	;volatile
  4138   0013A6  EFD7  F009         	goto	i1u242_21
  4139   0013AA  EFD9  F009         	goto	i1u242_20
  4140   0013AE                     i1u242_21:
  4141   0013AE  EFE4  F009         	goto	i1l352
  4142   0013B2                     i1u242_20:
  4143   0013B2                     
  4144                           ; BSR set to: 61
  4145   0013B2  A363               	btfss	99,1,b	;volatile
  4146   0013B4  EFDE  F009         	goto	i1u243_21
  4147   0013B8  EFE0  F009         	goto	i1u243_20
  4148   0013BC                     i1u243_21:
  4149   0013BC  EFE4  F009         	goto	i1l352
  4150   0013C0                     i1u243_20:
  4151   0013C0                     
  4152                           ; BSR set to: 61
  4153                           ;mcc_generated_files/i2c_host/src/i2c2.c: 247:     {;mcc_generated_files/i2c_host/src/i2
      +                          c2.c: 248:         I2C2_RestartDisable();
  4154   0013C0  EC66  F00F         	call	_I2C2_RestartDisable	;wreg free
  4155   0013C4                     
  4156                           ;mcc_generated_files/i2c_host/src/i2c2.c: 249:         I2C2PIRbits.RSCIF = 0;
  4157   0013C4  013D               	movlb	61	; () banked
  4158   0013C6  9363               	bcf	99,1,b	;volatile
  4159   0013C8                     i1l352:
  4160   0013C8  0060  F10F  FFD8   	movff	??_I2C2_ISR,status
  4161   0013CE  0011               	retfie		f
  4162   0013D0                     __end_of_I2C2_ISR:
  4163                           	callstack 0
  4164                           
  4165 ;; *************** function _I2C2_StopSend *****************
  4166 ;; Defined at:
  4167 ;;		line 413 in file "mcc_generated_files/i2c_host/src/i2c2.c"
  4168 ;; Parameters:    Size  Location     Type
  4169 ;;		None
  4170 ;; Auto vars:     Size  Location     Type
  4171 ;;		None
  4172 ;; Return value:  Size  Location     Type
  4173 ;;                  1    wreg      void 
  4174 ;; Registers used:
  4175 ;;		wreg, status,2, cstack
  4176 ;; Tracked objects:
  4177 ;;		On entry : 0/0
  4178 ;;		On exit  : 0/0
  4179 ;;		Unchanged: 0/0
  4180 ;; Data sizes:     COMRAM   BANK0   BANK1   BANK2   BANK3   BANK4   BANK5   BANK6   BANK7   BANK8   BANK9  BANK10  BANK1
      +1  BANK12  BANK13  BANK14  BANK15
  4181 ;;      Params:         0       0       0       0       0       0       0       0       0       0       0       0       
      +0       0       0       0       0
  4182 ;;      Locals:         0       0       0       0       0       0       0       0       0       0       0       0       
      +0       0       0       0       0
  4183 ;;      Temps:          0       0       0       0       0       0       0       0       0       0       0       0       
      +0       0       0       0       0
  4184 ;;      Totals:         0       0       0       0       0       0       0       0       0       0       0       0       
      +0       0       0       0       0
  4185 ;;Total ram usage:        0 bytes
  4186 ;; Hardware stack levels used: 1
  4187 ;; Hardware stack levels required when called: 4
  4188 ;; This function calls:
  4189 ;;		_I2C2_CounterGet
  4190 ;;		_I2C2_CounterSet
  4191 ;;		_I2C2_DataTransmit
  4192 ;;		_I2C2_RestartDisable
  4193 ;; This function is called by:
  4194 ;;		_I2C2_ISR
  4195 ;;		_I2C2_ERROR_ISR
  4196 ;; This function uses a non-reentrant model
  4197 ;;
  4198                           
  4199                           	psect	text36
  4200   001C1A                     __ptext36:
  4201                           	callstack 0
  4202   001C1A                     _I2C2_StopSend:
  4203                           	callstack 22
  4204   001C1A                     
  4205                           ;mcc_generated_files/i2c_host/src/i2c2.c: 415:     I2C2_RestartDisable();
  4206   001C1A  EC66  F00F         	call	_I2C2_RestartDisable	;wreg free
  4207   001C1E                     
  4208                           ;mcc_generated_files/i2c_host/src/i2c2.c: 416:     if (I2C2_CounterGet())
  4209   001C1E  EC69  F00F         	call	_I2C2_CounterGet	;wreg free
  4210   001C22  0900               	iorlw	0
  4211   001C24  B4D8               	btfsc	status,2,c
  4212   001C26  EF17  F00E         	goto	i1u231_21
  4213   001C2A  EF19  F00E         	goto	i1u231_20
  4214   001C2E                     i1u231_21:
  4215   001C2E  EF1F  F00E         	goto	i1l422
  4216   001C32                     i1u231_20:
  4217   001C32                     
  4218                           ;mcc_generated_files/i2c_host/src/i2c2.c: 417:     {;mcc_generated_files/i2c_host/src/i2
      +                          c2.c: 418:         I2C2_CounterSet(0);
  4219   001C32  0E00               	movlw	0
  4220   001C34  EC21  F00F         	call	_I2C2_CounterSet
  4221                           
  4222                           ;mcc_generated_files/i2c_host/src/i2c2.c: 419:         I2C2_DataTransmit(0);
  4223   001C38  0E00               	movlw	0
  4224   001C3A  EC1B  F00F         	call	_I2C2_DataTransmit
  4225   001C3E                     i1l422:
  4226   001C3E  0012               	return		;funcret
  4227   001C40                     __end_of_I2C2_StopSend:
  4228                           	callstack 0
  4229                           
  4230 ;; *************** function _I2C2_RestartDisable *****************
  4231 ;; Defined at:
  4232 ;;		line 408 in file "mcc_generated_files/i2c_host/src/i2c2.c"
  4233 ;; Parameters:    Size  Location     Type
  4234 ;;		None
  4235 ;; Auto vars:     Size  Location     Type
  4236 ;;		None
  4237 ;; Return value:  Size  Location     Type
  4238 ;;                  1    wreg      void 
  4239 ;; Registers used:
  4240 ;;		None
  4241 ;; Tracked objects:
  4242 ;;		On entry : 0/0
  4243 ;;		On exit  : 0/0
  4244 ;;		Unchanged: 0/0
  4245 ;; Data sizes:     COMRAM   BANK0   BANK1   BANK2   BANK3   BANK4   BANK5   BANK6   BANK7   BANK8   BANK9  BANK10  BANK1
      +1  BANK12  BANK13  BANK14  BANK15
  4246 ;;      Params:         0       0       0       0       0       0       0       0       0       0       0       0       
      +0       0       0       0       0
  4247 ;;      Locals:         0       0       0       0       0       0       0       0       0       0       0       0       
      +0       0       0       0       0
  4248 ;;      Temps:          0       0       0       0       0       0       0       0       0       0       0       0       
      +0       0       0       0       0
  4249 ;;      Totals:         0       0       0       0       0       0       0       0       0       0       0       0       
      +0       0       0       0       0
  4250 ;;Total ram usage:        0 bytes
  4251 ;; Hardware stack levels used: 1
  4252 ;; Hardware stack levels required when called: 3
  4253 ;; This function calls:
  4254 ;;		Nothing
  4255 ;; This function is called by:
  4256 ;;		_I2C2_ISR
  4257 ;;		_I2C2_StopSend
  4258 ;; This function uses a non-reentrant model
  4259 ;;
  4260                           
  4261                           	psect	text37
  4262   001ECC                     __ptext37:
  4263                           	callstack 0
  4264   001ECC                     _I2C2_RestartDisable:
  4265                           	callstack 22
  4266   001ECC                     
  4267                           ;mcc_generated_files/i2c_host/src/i2c2.c: 410:     I2C2CON0bits.RSEN = 0;
  4268   001ECC  013D               	movlb	61	; () banked
  4269   001ECE  9D5D               	bcf	93,6,b	;volatile
  4270   001ED0                     
  4271                           ; BSR set to: 61
  4272   001ED0  0012               	return		;funcret
  4273   001ED2                     __end_of_I2C2_RestartDisable:
  4274                           	callstack 0
  4275                           
  4276 ;; *************** function _I2C2_DataTransmit *****************
  4277 ;; Defined at:
  4278 ;;		line 357 in file "mcc_generated_files/i2c_host/src/i2c2.c"
  4279 ;; Parameters:    Size  Location     Type
  4280 ;;  data            1    wreg     unsigned char 
  4281 ;; Auto vars:     Size  Location     Type
  4282 ;;  data            1    6[BANK0 ] unsigned char 
  4283 ;; Return value:  Size  Location     Type
  4284 ;;                  1    wreg      void 
  4285 ;; Registers used:
  4286 ;;		wreg
  4287 ;; Tracked objects:
  4288 ;;		On entry : 0/0
  4289 ;;		On exit  : 0/0
  4290 ;;		Unchanged: 0/0
  4291 ;; Data sizes:     COMRAM   BANK0   BANK1   BANK2   BANK3   BANK4   BANK5   BANK6   BANK7   BANK8   BANK9  BANK10  BANK1
      +1  BANK12  BANK13  BANK14  BANK15
  4292 ;;      Params:         0       0       0       0       0       0       0       0       0       0       0       0       
      +0       0       0       0       0
  4293 ;;      Locals:         0       1       0       0       0       0       0       0       0       0       0       0       
      +0       0       0       0       0
  4294 ;;      Temps:          0       0       0       0       0       0       0       0       0       0       0       0       
      +0       0       0       0       0
  4295 ;;      Totals:         0       1       0       0       0       0       0       0       0       0       0       0       
      +0       0       0       0       0
  4296 ;;Total ram usage:        1 bytes
  4297 ;; Hardware stack levels used: 1
  4298 ;; Hardware stack levels required when called: 3
  4299 ;; This function calls:
  4300 ;;		Nothing
  4301 ;; This function is called by:
  4302 ;;		_I2C2_TX_ISR
  4303 ;;		_I2C2_StopSend
  4304 ;; This function uses a non-reentrant model
  4305 ;;
  4306                           
  4307                           	psect	text38
  4308   001E36                     __ptext38:
  4309                           	callstack 0
  4310   001E36                     _I2C2_DataTransmit:
  4311                           	callstack 23
  4312                           
  4313                           ; BSR set to: 61
  4314                           ;incstack = 0
  4315                           ;I2C2_DataTransmit@data stored from wreg
  4316   001E36  0100               	movlb	0	; () banked
  4317   001E38  6FA4               	movwf	I2C2_DataTransmit@data& (0+255),b
  4318   001E3A                     
  4319                           ;mcc_generated_files/i2c_host/src/i2c2.c: 357: static void I2C2_DataTransmit(uint8_t dat
      +                          a);mcc_generated_files/i2c_host/src/i2c2.c: 358: {;mcc_generated_files/i2c_host/src/i2c2
      +                          .c: 359:     I2C2TXB = data;
  4320   001E3A  0060  F293  FD55   	movff	I2C2_DataTransmit@data,15701	;volatile
  4321   001E40  0012               	return		;funcret
  4322   001E42                     __end_of_I2C2_DataTransmit:
  4323                           	callstack 0
  4324                           
  4325 ;; *************** function _I2C2_CounterGet *****************
  4326 ;; Defined at:
  4327 ;;		line 372 in file "mcc_generated_files/i2c_host/src/i2c2.c"
  4328 ;; Parameters:    Size  Location     Type
  4329 ;;		None
  4330 ;; Auto vars:     Size  Location     Type
  4331 ;;		None
  4332 ;; Return value:  Size  Location     Type
  4333 ;;                  1    wreg      unsigned char 
  4334 ;; Registers used:
  4335 ;;		wreg, status,2
  4336 ;; Tracked objects:
  4337 ;;		On entry : 0/0
  4338 ;;		On exit  : 0/0
  4339 ;;		Unchanged: 0/0
  4340 ;; Data sizes:     COMRAM   BANK0   BANK1   BANK2   BANK3   BANK4   BANK5   BANK6   BANK7   BANK8   BANK9  BANK10  BANK1
      +1  BANK12  BANK13  BANK14  BANK15
  4341 ;;      Params:         0       0       0       0       0       0       0       0       0       0       0       0       
      +0       0       0       0       0
  4342 ;;      Locals:         0       0       0       0       0       0       0       0       0       0       0       0       
      +0       0       0       0       0
  4343 ;;      Temps:          0       0       0       0       0       0       0       0       0       0       0       0       
      +0       0       0       0       0
  4344 ;;      Totals:         0       0       0       0       0       0       0       0       0       0       0       0       
      +0       0       0       0       0
  4345 ;;Total ram usage:        0 bytes
  4346 ;; Hardware stack levels used: 1
  4347 ;; Hardware stack levels required when called: 3
  4348 ;; This function calls:
  4349 ;;		Nothing
  4350 ;; This function is called by:
  4351 ;;		_I2C2_StopSend
  4352 ;; This function uses a non-reentrant model
  4353 ;;
  4354                           
  4355                           	psect	text39
  4356   001ED2                     __ptext39:
  4357                           	callstack 0
  4358   001ED2                     _I2C2_CounterGet:
  4359                           	callstack 22
  4360   001ED2                     
  4361                           ;mcc_generated_files/i2c_host/src/i2c2.c: 374:     return (uint8_t) I2C2CNT;
  4362   001ED2  013D               	movlb	61	; () banked
  4363   001ED4  5156               	movf	86,w,b	;volatile
  4364   001ED6                     
  4365                           ; BSR set to: 61
  4366   001ED6  0012               	return		;funcret
  4367   001ED8                     __end_of_I2C2_CounterGet:
  4368                           	callstack 0
  4369                           
  4370 ;; *************** function _I2C2_ReadStart *****************
  4371 ;; Defined at:
  4372 ;;		line 302 in file "mcc_generated_files/i2c_host/src/i2c2.c"
  4373 ;; Parameters:    Size  Location     Type
  4374 ;;		None
  4375 ;; Auto vars:     Size  Location     Type
  4376 ;;		None
  4377 ;; Return value:  Size  Location     Type
  4378 ;;                  1    wreg      void 
  4379 ;; Registers used:
  4380 ;;		wreg, status,2, status,0, cstack
  4381 ;; Tracked objects:
  4382 ;;		On entry : 0/0
  4383 ;;		On exit  : 0/0
  4384 ;;		Unchanged: 0/0
  4385 ;; Data sizes:     COMRAM   BANK0   BANK1   BANK2   BANK3   BANK4   BANK5   BANK6   BANK7   BANK8   BANK9  BANK10  BANK1
      +1  BANK12  BANK13  BANK14  BANK15
  4386 ;;      Params:         0       0       0       0       0       0       0       0       0       0       0       0       
      +0       0       0       0       0
  4387 ;;      Locals:         0       0       0       0       0       0       0       0       0       0       0       0       
      +0       0       0       0       0
  4388 ;;      Temps:          0       0       0       0       0       0       0       0       0       0       0       0       
      +0       0       0       0       0
  4389 ;;      Totals:         0       0       0       0       0       0       0       0       0       0       0       0       
      +0       0       0       0       0
  4390 ;;Total ram usage:        0 bytes
  4391 ;; Hardware stack levels used: 1
  4392 ;; Hardware stack levels required when called: 4
  4393 ;; This function calls:
  4394 ;;		_I2C2_AddrTransmit
  4395 ;;		_I2C2_CounterSet
  4396 ;;		_I2C2_StartSend
  4397 ;; This function is called by:
  4398 ;;		_I2C2_ISR
  4399 ;;		_I2C2_Read
  4400 ;; This function uses a non-reentrant model
  4401 ;;
  4402                           
  4403                           	psect	text40
  4404   001C40                     __ptext40:
  4405                           	callstack 0
  4406   001C40                     _I2C2_ReadStart:
  4407                           	callstack 22
  4408   001C40                     
  4409                           ;mcc_generated_files/i2c_host/src/i2c2.c: 304:     if (i2c2Status.readLength)
  4410   001C40  500A               	movf	(_i2c2Status+9)^0,w,c	;volatile
  4411   001C42  100B               	iorwf	(_i2c2Status+10)^0,w,c	;volatile
  4412   001C44  B4D8               	btfsc	status,2,c
  4413   001C46  EF27  F00E         	goto	i1u230_21
  4414   001C4A  EF29  F00E         	goto	i1u230_20
  4415   001C4E                     i1u230_21:
  4416   001C4E  EF2C  F00E         	goto	i1l4920
  4417   001C52                     i1u230_20:
  4418   001C52                     
  4419                           ;mcc_generated_files/i2c_host/src/i2c2.c: 305:     {;mcc_generated_files/i2c_host/src/i2
      +                          c2.c: 306:         I2C2_CounterSet((uint8_t) i2c2Status.readLength);
  4420   001C52  500A               	movf	(_i2c2Status+9)^0,w,c	;volatile
  4421   001C54  EC21  F00F         	call	_I2C2_CounterSet
  4422   001C58                     i1l4920:
  4423                           
  4424                           ;mcc_generated_files/i2c_host/src/i2c2.c: 309:     I2C2_AddrTransmit((uint8_t) (i2c2Stat
      +                          us.address << 1 | 1));
  4425   001C58  80D8               	bsf	status,0,c
  4426   001C5A  3402               	rlcf	(_i2c2Status+1)^0,w,c	;volatile
  4427   001C5C  EC4F  F00F         	call	_I2C2_AddrTransmit
  4428   001C60                     
  4429                           ;mcc_generated_files/i2c_host/src/i2c2.c: 310:     I2C2_StartSend();
  4430   001C60  EC6C  F00F         	call	_I2C2_StartSend	;wreg free
  4431   001C64  0012               	return		;funcret
  4432   001C66                     __end_of_I2C2_ReadStart:
  4433                           	callstack 0
  4434                           
  4435 ;; *************** function _I2C2_StartSend *****************
  4436 ;; Defined at:
  4437 ;;		line 347 in file "mcc_generated_files/i2c_host/src/i2c2.c"
  4438 ;; Parameters:    Size  Location     Type
  4439 ;;		None
  4440 ;; Auto vars:     Size  Location     Type
  4441 ;;		None
  4442 ;; Return value:  Size  Location     Type
  4443 ;;                  1    wreg      void 
  4444 ;; Registers used:
  4445 ;;		None
  4446 ;; Tracked objects:
  4447 ;;		On entry : 0/0
  4448 ;;		On exit  : 0/0
  4449 ;;		Unchanged: 0/0
  4450 ;; Data sizes:     COMRAM   BANK0   BANK1   BANK2   BANK3   BANK4   BANK5   BANK6   BANK7   BANK8   BANK9  BANK10  BANK1
      +1  BANK12  BANK13  BANK14  BANK15
  4451 ;;      Params:         0       0       0       0       0       0       0       0       0       0       0       0       
      +0       0       0       0       0
  4452 ;;      Locals:         0       0       0       0       0       0       0       0       0       0       0       0       
      +0       0       0       0       0
  4453 ;;      Temps:          0       0       0       0       0       0       0       0       0       0       0       0       
      +0       0       0       0       0
  4454 ;;      Totals:         0       0       0       0       0       0       0       0       0       0       0       0       
      +0       0       0       0       0
  4455 ;;Total ram usage:        0 bytes
  4456 ;; Hardware stack levels used: 1
  4457 ;; Hardware stack levels required when called: 3
  4458 ;; This function calls:
  4459 ;;		Nothing
  4460 ;; This function is called by:
  4461 ;;		_I2C2_ReadStart
  4462 ;;		_I2C2_WriteStart
  4463 ;; This function uses a non-reentrant model
  4464 ;;
  4465                           
  4466                           	psect	text41
  4467   001ED8                     __ptext41:
  4468                           	callstack 0
  4469   001ED8                     _I2C2_StartSend:
  4470                           	callstack 22
  4471   001ED8                     
  4472                           ;mcc_generated_files/i2c_host/src/i2c2.c: 349:     I2C2CON0bits.S = 1;
  4473   001ED8  013D               	movlb	61	; () banked
  4474   001EDA  8B5D               	bsf	93,5,b	;volatile
  4475   001EDC                     
  4476                           ; BSR set to: 61
  4477   001EDC  0012               	return		;funcret
  4478   001EDE                     __end_of_I2C2_StartSend:
  4479                           	callstack 0
  4480                           
  4481 ;; *************** function _I2C2_CounterSet *****************
  4482 ;; Defined at:
  4483 ;;		line 367 in file "mcc_generated_files/i2c_host/src/i2c2.c"
  4484 ;; Parameters:    Size  Location     Type
  4485 ;;  counter         1    wreg     unsigned char 
  4486 ;; Auto vars:     Size  Location     Type
  4487 ;;  counter         1    1[BANK0 ] unsigned char 
  4488 ;; Return value:  Size  Location     Type
  4489 ;;                  1    wreg      void 
  4490 ;; Registers used:
  4491 ;;		wreg
  4492 ;; Tracked objects:
  4493 ;;		On entry : 0/0
  4494 ;;		On exit  : 0/0
  4495 ;;		Unchanged: 0/0
  4496 ;; Data sizes:     COMRAM   BANK0   BANK1   BANK2   BANK3   BANK4   BANK5   BANK6   BANK7   BANK8   BANK9  BANK10  BANK1
      +1  BANK12  BANK13  BANK14  BANK15
  4497 ;;      Params:         0       0       0       0       0       0       0       0       0       0       0       0       
      +0       0       0       0       0
  4498 ;;      Locals:         0       1       0       0       0       0       0       0       0       0       0       0       
      +0       0       0       0       0
  4499 ;;      Temps:          0       0       0       0       0       0       0       0       0       0       0       0       
      +0       0       0       0       0
  4500 ;;      Totals:         0       1       0       0       0       0       0       0       0       0       0       0       
      +0       0       0       0       0
  4501 ;;Total ram usage:        1 bytes
  4502 ;; Hardware stack levels used: 1
  4503 ;; Hardware stack levels required when called: 3
  4504 ;; This function calls:
  4505 ;;		Nothing
  4506 ;; This function is called by:
  4507 ;;		_I2C2_ReadStart
  4508 ;;		_I2C2_StopSend
  4509 ;;		_I2C2_WriteStart
  4510 ;; This function uses a non-reentrant model
  4511 ;;
  4512                           
  4513                           	psect	text42
  4514   001E42                     __ptext42:
  4515                           	callstack 0
  4516   001E42                     _I2C2_CounterSet:
  4517                           	callstack 22
  4518                           
  4519                           ; BSR set to: 61
  4520                           ;incstack = 0
  4521                           ;I2C2_CounterSet@counter stored from wreg
  4522   001E42  0100               	movlb	0	; () banked
  4523   001E44  6F9F               	movwf	I2C2_CounterSet@counter& (0+255),b
  4524   001E46                     
  4525                           ;mcc_generated_files/i2c_host/src/i2c2.c: 367: static void I2C2_CounterSet(uint8_t count
      +                          er);mcc_generated_files/i2c_host/src/i2c2.c: 368: {;mcc_generated_files/i2c_host/src/i2c
      +                          2.c: 369:     I2C2CNT = counter;
  4526   001E46  0060  F27F  FD56   	movff	I2C2_CounterSet@counter,15702	;volatile
  4527   001E4C  0012               	return		;funcret
  4528   001E4E                     __end_of_I2C2_CounterSet:
  4529                           	callstack 0
  4530                           
  4531 ;; *************** function _I2C2_AddrTransmit *****************
  4532 ;; Defined at:
  4533 ;;		line 352 in file "mcc_generated_files/i2c_host/src/i2c2.c"
  4534 ;; Parameters:    Size  Location     Type
  4535 ;;  addr            1    wreg     unsigned char 
  4536 ;; Auto vars:     Size  Location     Type
  4537 ;;  addr            1   23[COMRAM] unsigned char 
  4538 ;; Return value:  Size  Location     Type
  4539 ;;                  1    wreg      void 
  4540 ;; Registers used:
  4541 ;;		wreg
  4542 ;; Tracked objects:
  4543 ;;		On entry : 0/0
  4544 ;;		On exit  : 0/0
  4545 ;;		Unchanged: 0/0
  4546 ;; Data sizes:     COMRAM   BANK0   BANK1   BANK2   BANK3   BANK4   BANK5   BANK6   BANK7   BANK8   BANK9  BANK10  BANK1
      +1  BANK12  BANK13  BANK14  BANK15
  4547 ;;      Params:         0       0       0       0       0       0       0       0       0       0       0       0       
      +0       0       0       0       0
  4548 ;;      Locals:         1       0       0       0       0       0       0       0       0       0       0       0       
      +0       0       0       0       0
  4549 ;;      Temps:          0       0       0       0       0       0       0       0       0       0       0       0       
      +0       0       0       0       0
  4550 ;;      Totals:         1       0       0       0       0       0       0       0       0       0       0       0       
      +0       0       0       0       0
  4551 ;;Total ram usage:        1 bytes
  4552 ;; Hardware stack levels used: 1
  4553 ;; Hardware stack levels required when called: 3
  4554 ;; This function calls:
  4555 ;;		Nothing
  4556 ;; This function is called by:
  4557 ;;		_I2C2_ReadStart
  4558 ;;		_I2C2_WriteStart
  4559 ;; This function uses a non-reentrant model
  4560 ;;
  4561                           
  4562                           	psect	text43
  4563   001E9E                     __ptext43:
  4564                           	callstack 0
  4565   001E9E                     _I2C2_AddrTransmit:
  4566                           	callstack 22
  4567                           
  4568                           ;incstack = 0
  4569                           ;I2C2_AddrTransmit@addr stored from wreg
  4570   001E9E  6E42               	movwf	I2C2_AddrTransmit@addr^0,c
  4571   001EA0                     
  4572                           ;mcc_generated_files/i2c_host/src/i2c2.c: 352: static void I2C2_AddrTransmit(uint8_t add
      +                          r);mcc_generated_files/i2c_host/src/i2c2.c: 353: {;mcc_generated_files/i2c_host/src/i2c2
      +                          .c: 354:     I2C2ADB1 = addr;
  4573   001EA0  0060  F10B  FD58   	movff	I2C2_AddrTransmit@addr,15704	;volatile
  4574   001EA6  0012               	return		;funcret
  4575   001EA8                     __end_of_I2C2_AddrTransmit:
  4576                           	callstack 0
  4577                           
  4578 ;; *************** function _I2C2_Close *****************
  4579 ;; Defined at:
  4580 ;;		line 328 in file "mcc_generated_files/i2c_host/src/i2c2.c"
  4581 ;; Parameters:    Size  Location     Type
  4582 ;;		None
  4583 ;; Auto vars:     Size  Location     Type
  4584 ;;		None
  4585 ;; Return value:  Size  Location     Type
  4586 ;;                  1    wreg      void 
  4587 ;; Registers used:
  4588 ;;		wreg, status,2, status,0, cstack
  4589 ;; Tracked objects:
  4590 ;;		On entry : 0/0
  4591 ;;		On exit  : 0/0
  4592 ;;		Unchanged: 0/0
  4593 ;; Data sizes:     COMRAM   BANK0   BANK1   BANK2   BANK3   BANK4   BANK5   BANK6   BANK7   BANK8   BANK9  BANK10  BANK1
      +1  BANK12  BANK13  BANK14  BANK15
  4594 ;;      Params:         0       0       0       0       0       0       0       0       0       0       0       0       
      +0       0       0       0       0
  4595 ;;      Locals:         0       0       0       0       0       0       0       0       0       0       0       0       
      +0       0       0       0       0
  4596 ;;      Temps:          0       0       0       0       0       0       0       0       0       0       0       0       
      +0       0       0       0       0
  4597 ;;      Totals:         0       0       0       0       0       0       0       0       0       0       0       0       
      +0       0       0       0       0
  4598 ;;Total ram usage:        0 bytes
  4599 ;; Hardware stack levels used: 1
  4600 ;; Hardware stack levels required when called: 4
  4601 ;; This function calls:
  4602 ;;		_I2C2_BufferClear
  4603 ;;		_I2C2_ErrorFlagsClear
  4604 ;;		_I2C2_InterruptsClear
  4605 ;; This function is called by:
  4606 ;;		_I2C2_ISR
  4607 ;; This function uses a non-reentrant model
  4608 ;;
  4609                           
  4610                           	psect	text44
  4611   001BF2                     __ptext44:
  4612                           	callstack 0
  4613   001BF2                     _I2C2_Close:
  4614                           	callstack 22
  4615   001BF2                     
  4616                           ;mcc_generated_files/i2c_host/src/i2c2.c: 330:     i2c2Status.busy = 0;
  4617   001BF2  0E00               	movlw	0
  4618   001BF4  6E01               	movwf	_i2c2Status^0,c	;volatile
  4619                           
  4620                           ;mcc_generated_files/i2c_host/src/i2c2.c: 331:     i2c2Status.address = 0xFF;
  4621   001BF6  0E00               	movlw	0
  4622   001BF8  6E03               	movwf	(_i2c2Status+2)^0,c	;volatile
  4623   001BFA  6802               	setf	(_i2c2Status+1)^0,c	;volatile
  4624   001BFC                     
  4625                           ;mcc_generated_files/i2c_host/src/i2c2.c: 332:     i2c2Status.writePtr = ((void*)0);
  4626   001BFC  0E00               	movlw	0
  4627   001BFE  6E04               	movwf	(_i2c2Status+3)^0,c	;volatile
  4628   001C00  0E00               	movlw	0
  4629   001C02  6E05               	movwf	(_i2c2Status+4)^0,c	;volatile
  4630   001C04                     
  4631                           ;mcc_generated_files/i2c_host/src/i2c2.c: 333:     i2c2Status.readPtr = ((void*)0);
  4632   001C04  0E00               	movlw	0
  4633   001C06  6E08               	movwf	(_i2c2Status+7)^0,c	;volatile
  4634   001C08  0E00               	movlw	0
  4635   001C0A  6E09               	movwf	(_i2c2Status+8)^0,c	;volatile
  4636   001C0C                     
  4637                           ;mcc_generated_files/i2c_host/src/i2c2.c: 334:     I2C2_InterruptsClear();
  4638   001C0C  EC62  F00F         	call	_I2C2_InterruptsClear	;wreg free
  4639                           
  4640                           ;mcc_generated_files/i2c_host/src/i2c2.c: 335:     I2C2_ErrorFlagsClear();
  4641   001C10  EC54  F00F         	call	_I2C2_ErrorFlagsClear	;wreg free
  4642   001C14                     
  4643                           ;mcc_generated_files/i2c_host/src/i2c2.c: 336:     I2C2_BufferClear();
  4644   001C14  EC59  F00F         	call	_I2C2_BufferClear	;wreg free
  4645   001C18  0012               	return		;funcret
  4646   001C1A                     __end_of_I2C2_Close:
  4647                           	callstack 0
  4648                           
  4649 ;; *************** function _I2C2_InterruptsClear *****************
  4650 ;; Defined at:
  4651 ;;		line 471 in file "mcc_generated_files/i2c_host/src/i2c2.c"
  4652 ;; Parameters:    Size  Location     Type
  4653 ;;		None
  4654 ;; Auto vars:     Size  Location     Type
  4655 ;;		None
  4656 ;; Return value:  Size  Location     Type
  4657 ;;                  1    wreg      void 
  4658 ;; Registers used:
  4659 ;;		wreg, status,2
  4660 ;; Tracked objects:
  4661 ;;		On entry : 0/0
  4662 ;;		On exit  : 0/0
  4663 ;;		Unchanged: 0/0
  4664 ;; Data sizes:     COMRAM   BANK0   BANK1   BANK2   BANK3   BANK4   BANK5   BANK6   BANK7   BANK8   BANK9  BANK10  BANK1
      +1  BANK12  BANK13  BANK14  BANK15
  4665 ;;      Params:         0       0       0       0       0       0       0       0       0       0       0       0       
      +0       0       0       0       0
  4666 ;;      Locals:         0       0       0       0       0       0       0       0       0       0       0       0       
      +0       0       0       0       0
  4667 ;;      Temps:          0       0       0       0       0       0       0       0       0       0       0       0       
      +0       0       0       0       0
  4668 ;;      Totals:         0       0       0       0       0       0       0       0       0       0       0       0       
      +0       0       0       0       0
  4669 ;;Total ram usage:        0 bytes
  4670 ;; Hardware stack levels used: 1
  4671 ;; Hardware stack levels required when called: 3
  4672 ;; This function calls:
  4673 ;;		Nothing
  4674 ;; This function is called by:
  4675 ;;		_I2C2_Close
  4676 ;;		_I2C2_BusReset
  4677 ;; This function uses a non-reentrant model
  4678 ;;
  4679                           
  4680                           	psect	text45
  4681   001EC4                     __ptext45:
  4682                           	callstack 0
  4683   001EC4                     _I2C2_InterruptsClear:
  4684                           	callstack 22
  4685   001EC4                     
  4686                           ;mcc_generated_files/i2c_host/src/i2c2.c: 473:     I2C2PIR = 0x00;
  4687   001EC4  0E00               	movlw	0
  4688   001EC6  013D               	movlb	61	; () banked
  4689   001EC8  6F63               	movwf	99,b	;volatile
  4690   001ECA                     
  4691                           ; BSR set to: 61
  4692   001ECA  0012               	return		;funcret
  4693   001ECC                     __end_of_I2C2_InterruptsClear:
  4694                           	callstack 0
  4695                           
  4696 ;; *************** function _I2C2_ErrorFlagsClear *****************
  4697 ;; Defined at:
  4698 ;;		line 476 in file "mcc_generated_files/i2c_host/src/i2c2.c"
  4699 ;; Parameters:    Size  Location     Type
  4700 ;;		None
  4701 ;; Auto vars:     Size  Location     Type
  4702 ;;		None
  4703 ;; Return value:  Size  Location     Type
  4704 ;;                  1    wreg      void 
  4705 ;; Registers used:
  4706 ;;		None
  4707 ;; Tracked objects:
  4708 ;;		On entry : 0/0
  4709 ;;		On exit  : 0/0
  4710 ;;		Unchanged: 0/0
  4711 ;; Data sizes:     COMRAM   BANK0   BANK1   BANK2   BANK3   BANK4   BANK5   BANK6   BANK7   BANK8   BANK9  BANK10  BANK1
      +1  BANK12  BANK13  BANK14  BANK15
  4712 ;;      Params:         0       0       0       0       0       0       0       0       0       0       0       0       
      +0       0       0       0       0
  4713 ;;      Locals:         0       0       0       0       0       0       0       0       0       0       0       0       
      +0       0       0       0       0
  4714 ;;      Temps:          0       0       0       0       0       0       0       0       0       0       0       0       
      +0       0       0       0       0
  4715 ;;      Totals:         0       0       0       0       0       0       0       0       0       0       0       0       
      +0       0       0       0       0
  4716 ;;Total ram usage:        0 bytes
  4717 ;; Hardware stack levels used: 1
  4718 ;; Hardware stack levels required when called: 3
  4719 ;; This function calls:
  4720 ;;		Nothing
  4721 ;; This function is called by:
  4722 ;;		_I2C2_Close
  4723 ;;		_I2C2_BusReset
  4724 ;; This function uses a non-reentrant model
  4725 ;;
  4726                           
  4727                           	psect	text46
  4728   001EA8                     __ptext46:
  4729                           	callstack 0
  4730   001EA8                     _I2C2_ErrorFlagsClear:
  4731                           	callstack 22
  4732   001EA8                     
  4733                           ;mcc_generated_files/i2c_host/src/i2c2.c: 478:     I2C2ERRbits.BCLIF = 0;
  4734   001EA8  013D               	movlb	61	; () banked
  4735   001EAA  9B60               	bcf	96,5,b	;volatile
  4736                           
  4737                           ;mcc_generated_files/i2c_host/src/i2c2.c: 479:     I2C2ERRbits.BTOIF = 0;
  4738   001EAC  9D60               	bcf	96,6,b	;volatile
  4739                           
  4740                           ;mcc_generated_files/i2c_host/src/i2c2.c: 480:     I2C2ERRbits.NACKIF = 0;
  4741   001EAE  9960               	bcf	96,4,b	;volatile
  4742   001EB0                     
  4743                           ; BSR set to: 61
  4744   001EB0  0012               	return		;funcret
  4745   001EB2                     __end_of_I2C2_ErrorFlagsClear:
  4746                           	callstack 0
  4747                           
  4748 ;; *************** function _I2C2_BufferClear *****************
  4749 ;; Defined at:
  4750 ;;		line 483 in file "mcc_generated_files/i2c_host/src/i2c2.c"
  4751 ;; Parameters:    Size  Location     Type
  4752 ;;		None
  4753 ;; Auto vars:     Size  Location     Type
  4754 ;;		None
  4755 ;; Return value:  Size  Location     Type
  4756 ;;                  1    wreg      void 
  4757 ;; Registers used:
  4758 ;;		wreg, status,2
  4759 ;; Tracked objects:
  4760 ;;		On entry : 0/0
  4761 ;;		On exit  : 0/0
  4762 ;;		Unchanged: 0/0
  4763 ;; Data sizes:     COMRAM   BANK0   BANK1   BANK2   BANK3   BANK4   BANK5   BANK6   BANK7   BANK8   BANK9  BANK10  BANK1
      +1  BANK12  BANK13  BANK14  BANK15
  4764 ;;      Params:         0       0       0       0       0       0       0       0       0       0       0       0       
      +0       0       0       0       0
  4765 ;;      Locals:         0       0       0       0       0       0       0       0       0       0       0       0       
      +0       0       0       0       0
  4766 ;;      Temps:          0       0       0       0       0       0       0       0       0       0       0       0       
      +0       0       0       0       0
  4767 ;;      Totals:         0       0       0       0       0       0       0       0       0       0       0       0       
      +0       0       0       0       0
  4768 ;;Total ram usage:        0 bytes
  4769 ;; Hardware stack levels used: 1
  4770 ;; Hardware stack levels required when called: 3
  4771 ;; This function calls:
  4772 ;;		Nothing
  4773 ;; This function is called by:
  4774 ;;		_I2C2_Close
  4775 ;;		_I2C2_BusReset
  4776 ;; This function uses a non-reentrant model
  4777 ;;
  4778                           
  4779                           	psect	text47
  4780   001EB2                     __ptext47:
  4781                           	callstack 0
  4782   001EB2                     _I2C2_BufferClear:
  4783                           	callstack 22
  4784   001EB2                     
  4785                           ;mcc_generated_files/i2c_host/src/i2c2.c: 485:     I2C2STAT1 = 0x00;
  4786   001EB2  0E00               	movlw	0
  4787   001EB4  013D               	movlb	61	; () banked
  4788   001EB6  6F62               	movwf	98,b	;volatile
  4789   001EB8                     
  4790                           ; BSR set to: 61
  4791                           ;mcc_generated_files/i2c_host/src/i2c2.c: 486:     I2C2STAT1bits.CLRBF = 1;
  4792   001EB8  8562               	bsf	98,2,b	;volatile
  4793   001EBA                     
  4794                           ; BSR set to: 61
  4795   001EBA  0012               	return		;funcret
  4796   001EBC                     __end_of_I2C2_BufferClear:
  4797                           	callstack 0
  4798                           
  4799 ;; *************** function _I2C2_ERROR_ISR *****************
  4800 ;; Defined at:
  4801 ;;		line 253 in file "mcc_generated_files/i2c_host/src/i2c2.c"
  4802 ;; Parameters:    Size  Location     Type
  4803 ;;		None
  4804 ;; Auto vars:     Size  Location     Type
  4805 ;;		None
  4806 ;; Return value:  Size  Location     Type
  4807 ;;                  1    wreg      void 
  4808 ;; Registers used:
  4809 ;;		wreg, status,2, pcl, pclath, pclatu, tosl, cstack
  4810 ;; Tracked objects:
  4811 ;;		On entry : 0/0
  4812 ;;		On exit  : 0/0
  4813 ;;		Unchanged: 0/0
  4814 ;; Data sizes:     COMRAM   BANK0   BANK1   BANK2   BANK3   BANK4   BANK5   BANK6   BANK7   BANK8   BANK9  BANK10  BANK1
      +1  BANK12  BANK13  BANK14  BANK15
  4815 ;;      Params:         0       0       0       0       0       0       0       0       0       0       0       0       
      +0       0       0       0       0
  4816 ;;      Locals:         0       0       0       0       0       0       0       0       0       0       0       0       
      +0       0       0       0       0
  4817 ;;      Temps:          0       3       0       0       0       0       0       0       0       0       0       0       
      +0       0       0       0       0
  4818 ;;      Totals:         0       3       0       0       0       0       0       0       0       0       0       0       
      +0       0       0       0       0
  4819 ;;Total ram usage:        3 bytes
  4820 ;; Hardware stack levels used: 1
  4821 ;; Hardware stack levels required when called: 5
  4822 ;; This function calls:
  4823 ;;		Absolute function
  4824 ;;		_I2C2_BusReset
  4825 ;;		_I2C2_DefaultCallback
  4826 ;;		_I2C2_IsAddr
  4827 ;;		_I2C2_IsBusCol
  4828 ;;		_I2C2_IsBusTimeOut
  4829 ;;		_I2C2_IsData
  4830 ;;		_I2C2_IsNack
  4831 ;;		_I2C2_StopSend
  4832 ;; This function is called by:
  4833 ;;		Interrupt level 1
  4834 ;; This function uses a non-reentrant model
  4835 ;;
  4836                           
  4837                           	psect	text48
  4838   001084                     __ptext48:
  4839                           	callstack 0
  4840   001084                     _I2C2_ERROR_ISR:
  4841                           	callstack 22
  4842                           
  4843                           ; BSR set to: 61
  4844                           ;incstack = 0
  4845   001084  006F FF60  F0A0    	movff	status,??_I2C2_ERROR_ISR
  4846   00108A  006F FFE8  F0A1    	movff	pclath,??_I2C2_ERROR_ISR+1
  4847   001090  006F FFEC  F0A2    	movff	pclatu,??_I2C2_ERROR_ISR+2
  4848   001096                     
  4849                           ;mcc_generated_files/i2c_host/src/i2c2.c: 255:     if (I2C2_IsBusCol())
  4850   001096  ECD9  F00E         	call	_I2C2_IsBusCol	;wreg free
  4851   00109A  0900               	iorlw	0
  4852   00109C  B4D8               	btfsc	status,2,c
  4853   00109E  EF53  F008         	goto	i1u244_21
  4854   0010A2  EF55  F008         	goto	i1u244_20
  4855   0010A6                     i1u244_21:
  4856   0010A6  EF5D  F008         	goto	i1l5090
  4857   0010AA                     i1u244_20:
  4858   0010AA                     
  4859                           ;mcc_generated_files/i2c_host/src/i2c2.c: 256:     {;mcc_generated_files/i2c_host/src/i2
      +                          c2.c: 257:         i2c2Status.errorState = I2C_ERROR_BUS_COLLISION;
  4860   0010AA  0E03               	movlw	3
  4861   0010AC  6E0D               	movwf	(_i2c2Status+12)^0,c	;volatile
  4862   0010AE                     
  4863                           ;mcc_generated_files/i2c_host/src/i2c2.c: 258:         I2C2ERRbits.BCLIF = 0;
  4864   0010AE  013D               	movlb	61	; () banked
  4865   0010B0  9B60               	bcf	96,5,b	;volatile
  4866   0010B2                     
  4867                           ; BSR set to: 61
  4868                           ;mcc_generated_files/i2c_host/src/i2c2.c: 259:         I2C2_BusReset();
  4869   0010B2  EC68  F00C         	call	_I2C2_BusReset	;wreg free
  4870                           
  4871                           ;mcc_generated_files/i2c_host/src/i2c2.c: 260:     }
  4872   0010B6  EFA5  F008         	goto	i1l5116
  4873   0010BA                     i1l5090:
  4874   0010BA  ECE4  F00E         	call	_I2C2_IsAddr	;wreg free
  4875   0010BE  0900               	iorlw	0
  4876   0010C0  B4D8               	btfsc	status,2,c
  4877   0010C2  EF65  F008         	goto	i1u245_21
  4878   0010C6  EF67  F008         	goto	i1u245_20
  4879   0010CA                     i1u245_21:
  4880   0010CA  EF79  F008         	goto	i1l5100
  4881   0010CE                     i1u245_20:
  4882   0010CE  ECB8  F00E         	call	_I2C2_IsNack	;wreg free
  4883   0010D2  0900               	iorlw	0
  4884   0010D4  B4D8               	btfsc	status,2,c
  4885   0010D6  EF6F  F008         	goto	i1u246_21
  4886   0010DA  EF71  F008         	goto	i1u246_20
  4887   0010DE                     i1u246_21:
  4888   0010DE  EF79  F008         	goto	i1l5100
  4889   0010E2                     i1u246_20:
  4890   0010E2                     
  4891                           ;mcc_generated_files/i2c_host/src/i2c2.c: 262:     {;mcc_generated_files/i2c_host/src/i2
      +                          c2.c: 263:         i2c2Status.errorState = I2C_ERROR_ADDR_NACK;
  4892   0010E2  0E01               	movlw	1
  4893   0010E4  6E0D               	movwf	(_i2c2Status+12)^0,c	;volatile
  4894   0010E6                     
  4895                           ;mcc_generated_files/i2c_host/src/i2c2.c: 264:         I2C2ERRbits.NACKIF = 0;
  4896   0010E6  013D               	movlb	61	; () banked
  4897   0010E8  9960               	bcf	96,4,b	;volatile
  4898   0010EA                     i1l5098:
  4899                           
  4900                           ; BSR set to: 61
  4901                           ;mcc_generated_files/i2c_host/src/i2c2.c: 265:         I2C2_StopSend();
  4902   0010EA  EC0D  F00E         	call	_I2C2_StopSend	;wreg free
  4903                           
  4904                           ;mcc_generated_files/i2c_host/src/i2c2.c: 266:     }
  4905   0010EE  EFA5  F008         	goto	i1l5116
  4906   0010F2                     i1l5100:
  4907   0010F2  ECC3  F00E         	call	_I2C2_IsData	;wreg free
  4908   0010F6  0900               	iorlw	0
  4909   0010F8  B4D8               	btfsc	status,2,c
  4910   0010FA  EF81  F008         	goto	i1u247_21
  4911   0010FE  EF83  F008         	goto	i1u247_20
  4912   001102                     i1u247_21:
  4913   001102  EF93  F008         	goto	i1l5110
  4914   001106                     i1u247_20:
  4915   001106  ECB8  F00E         	call	_I2C2_IsNack	;wreg free
  4916   00110A  0900               	iorlw	0
  4917   00110C  B4D8               	btfsc	status,2,c
  4918   00110E  EF8B  F008         	goto	i1u248_21
  4919   001112  EF8D  F008         	goto	i1u248_20
  4920   001116                     i1u248_21:
  4921   001116  EF93  F008         	goto	i1l5110
  4922   00111A                     i1u248_20:
  4923   00111A                     
  4924                           ;mcc_generated_files/i2c_host/src/i2c2.c: 268:     {;mcc_generated_files/i2c_host/src/i2
      +                          c2.c: 269:         i2c2Status.errorState = I2C_ERROR_DATA_NACK;
  4925   00111A  0E02               	movlw	2
  4926   00111C  6E0D               	movwf	(_i2c2Status+12)^0,c	;volatile
  4927   00111E                     
  4928                           ;mcc_generated_files/i2c_host/src/i2c2.c: 270:         I2C2ERRbits.NACKIF = 0;
  4929   00111E  013D               	movlb	61	; () banked
  4930   001120  9960               	bcf	96,4,b	;volatile
  4931   001122  EF75  F008         	goto	i1l5098
  4932   001126                     i1l5110:
  4933   001126  ECCE  F00E         	call	_I2C2_IsBusTimeOut	;wreg free
  4934   00112A  0900               	iorlw	0
  4935   00112C  B4D8               	btfsc	status,2,c
  4936   00112E  EF9B  F008         	goto	i1u249_21
  4937   001132  EF9D  F008         	goto	i1u249_20
  4938   001136                     i1u249_21:
  4939   001136  EFA3  F008         	goto	i1l363
  4940   00113A                     i1u249_20:
  4941   00113A                     
  4942                           ;mcc_generated_files/i2c_host/src/i2c2.c: 274:     {;mcc_generated_files/i2c_host/src/i2
      +                          c2.c: 275:         i2c2Status.errorState = I2C_ERROR_BUS_COLLISION;
  4943   00113A  0E03               	movlw	3
  4944   00113C  6E0D               	movwf	(_i2c2Status+12)^0,c	;volatile
  4945   00113E                     
  4946                           ;mcc_generated_files/i2c_host/src/i2c2.c: 276:         I2C2ERRbits.BTOIF = 0;
  4947   00113E  013D               	movlb	61	; () banked
  4948   001140  9D60               	bcf	96,6,b	;volatile
  4949                           
  4950                           ;mcc_generated_files/i2c_host/src/i2c2.c: 277:     }
  4951   001142  EFA5  F008         	goto	i1l5116
  4952   001146                     i1l363:
  4953                           
  4954                           ;mcc_generated_files/i2c_host/src/i2c2.c: 279:     {;mcc_generated_files/i2c_host/src/i2
      +                          c2.c: 280:         I2C2ERRbits.NACKIF = 0;
  4955   001146  013D               	movlb	61	; () banked
  4956   001148  9960               	bcf	96,4,b	;volatile
  4957   00114A                     i1l5116:
  4958                           
  4959                           ;mcc_generated_files/i2c_host/src/i2c2.c: 283:     if (i2c2Status.errorState != I2C_ERRO
      +                          R_NONE)
  4960   00114A  500D               	movf	(_i2c2Status+12)^0,w,c	;volatile
  4961   00114C  B4D8               	btfsc	status,2,c
  4962   00114E  EFAB  F008         	goto	i1u250_21
  4963   001152  EFAD  F008         	goto	i1u250_20
  4964   001156                     i1u250_21:
  4965   001156  EFBA  F008         	goto	i1l366
  4966   00115A                     i1u250_20:
  4967   00115A                     
  4968                           ;mcc_generated_files/i2c_host/src/i2c2.c: 284:     {;mcc_generated_files/i2c_host/src/i2
      +                          c2.c: 285:         I2C2_Callback();
  4969   00115A  D802               	call	i1u251_28
  4970   00115C  EFBA  F008         	goto	i1u251_29
  4971   001160                     i1u251_28:
  4972   001160  0005               	push	
  4973   001162  6EFA               	movwf	pclath,c
  4974   001164  0100               	movlb	0	; () banked
  4975   001166  519C               	movf	_I2C2_Callback& (0+255),w,b
  4976   001168  6EFD               	movwf	tosl,c
  4977   00116A  519D               	movf	(_I2C2_Callback+1)& (0+255),w,b
  4978   00116C  6EFE               	movwf	tosh,c
  4979   00116E  6AFF               	clrf	tosu,c
  4980   001170  50FA               	movf	pclath,w,c
  4981   001172  0012               	return		;indir
  4982   001174                     i1u251_29:
  4983   001174                     i1l366:
  4984   001174  0060  F28B  FFFB   	movff	??_I2C2_ERROR_ISR+2,pclatu
  4985   00117A  0060  F287  FFFA   	movff	??_I2C2_ERROR_ISR+1,pclath
  4986   001180  0060  F283  FFD8   	movff	??_I2C2_ERROR_ISR,status
  4987   001186  0011               	retfie		f
  4988   001188                     __end_of_I2C2_ERROR_ISR:
  4989                           	callstack 0
  4990                           
  4991 ;; *************** function _I2C2_IsNack *****************
  4992 ;; Defined at:
  4993 ;;		line 423 in file "mcc_generated_files/i2c_host/src/i2c2.c"
  4994 ;; Parameters:    Size  Location     Type
  4995 ;;		None
  4996 ;; Auto vars:     Size  Location     Type
  4997 ;;		None
  4998 ;; Return value:  Size  Location     Type
  4999 ;;                  1    wreg      _Bool 
  5000 ;; Registers used:
  5001 ;;		wreg
  5002 ;; Tracked objects:
  5003 ;;		On entry : 0/0
  5004 ;;		On exit  : 0/0
  5005 ;;		Unchanged: 0/0
  5006 ;; Data sizes:     COMRAM   BANK0   BANK1   BANK2   BANK3   BANK4   BANK5   BANK6   BANK7   BANK8   BANK9  BANK10  BANK1
      +1  BANK12  BANK13  BANK14  BANK15
  5007 ;;      Params:         0       0       0       0       0       0       0       0       0       0       0       0       
      +0       0       0       0       0
  5008 ;;      Locals:         0       0       0       0       0       0       0       0       0       0       0       0       
      +0       0       0       0       0
  5009 ;;      Temps:          0       0       0       0       0       0       0       0       0       0       0       0       
      +0       0       0       0       0
  5010 ;;      Totals:         0       0       0       0       0       0       0       0       0       0       0       0       
      +0       0       0       0       0
  5011 ;;Total ram usage:        0 bytes
  5012 ;; Hardware stack levels used: 1
  5013 ;; Hardware stack levels required when called: 3
  5014 ;; This function calls:
  5015 ;;		Nothing
  5016 ;; This function is called by:
  5017 ;;		_I2C2_ERROR_ISR
  5018 ;; This function uses a non-reentrant model
  5019 ;;
  5020                           
  5021                           	psect	text49
  5022   001D70                     __ptext49:
  5023                           	callstack 0
  5024   001D70                     _I2C2_IsNack:
  5025                           	callstack 23
  5026   001D70                     
  5027                           ;mcc_generated_files/i2c_host/src/i2c2.c: 425:     return I2C2CON1bits.ACKSTAT;
  5028   001D70  013D               	movlb	61	; () banked
  5029   001D72  BB5E               	btfsc	94,5,b	;volatile
  5030   001D74  EFBE  F00E         	goto	i1u159_21
  5031   001D78  EFC1  F00E         	goto	i1u159_20
  5032   001D7C                     i1u159_21:
  5033   001D7C  0E01               	movlw	1
  5034   001D7E  EFC2  F00E         	goto	i1u159_26
  5035   001D82                     i1u159_20:
  5036   001D82  0E00               	movlw	0
  5037   001D84                     i1u159_26:
  5038   001D84                     
  5039                           ; BSR set to: 61
  5040   001D84  0012               	return		;funcret
  5041   001D86                     __end_of_I2C2_IsNack:
  5042                           	callstack 0
  5043                           
  5044 ;; *************** function _I2C2_IsData *****************
  5045 ;; Defined at:
  5046 ;;		line 438 in file "mcc_generated_files/i2c_host/src/i2c2.c"
  5047 ;; Parameters:    Size  Location     Type
  5048 ;;		None
  5049 ;; Auto vars:     Size  Location     Type
  5050 ;;		None
  5051 ;; Return value:  Size  Location     Type
  5052 ;;                  1    wreg      _Bool 
  5053 ;; Registers used:
  5054 ;;		wreg
  5055 ;; Tracked objects:
  5056 ;;		On entry : 0/0
  5057 ;;		On exit  : 0/0
  5058 ;;		Unchanged: 0/0
  5059 ;; Data sizes:     COMRAM   BANK0   BANK1   BANK2   BANK3   BANK4   BANK5   BANK6   BANK7   BANK8   BANK9  BANK10  BANK1
      +1  BANK12  BANK13  BANK14  BANK15
  5060 ;;      Params:         0       0       0       0       0       0       0       0       0       0       0       0       
      +0       0       0       0       0
  5061 ;;      Locals:         0       0       0       0       0       0       0       0       0       0       0       0       
      +0       0       0       0       0
  5062 ;;      Temps:          0       0       0       0       0       0       0       0       0       0       0       0       
      +0       0       0       0       0
  5063 ;;      Totals:         0       0       0       0       0       0       0       0       0       0       0       0       
      +0       0       0       0       0
  5064 ;;Total ram usage:        0 bytes
  5065 ;; Hardware stack levels used: 1
  5066 ;; Hardware stack levels required when called: 3
  5067 ;; This function calls:
  5068 ;;		Nothing
  5069 ;; This function is called by:
  5070 ;;		_I2C2_ERROR_ISR
  5071 ;; This function uses a non-reentrant model
  5072 ;;
  5073                           
  5074                           	psect	text50
  5075   001D86                     __ptext50:
  5076                           	callstack 0
  5077   001D86                     _I2C2_IsData:
  5078                           	callstack 23
  5079   001D86                     
  5080                           ;mcc_generated_files/i2c_host/src/i2c2.c: 440:     return I2C2STAT0bits.D;
  5081   001D86  013D               	movlb	61	; () banked
  5082   001D88  B761               	btfsc	97,3,b	;volatile
  5083   001D8A  EFC9  F00E         	goto	i1u160_21
  5084   001D8E  EFCC  F00E         	goto	i1u160_20
  5085   001D92                     i1u160_21:
  5086   001D92  0E01               	movlw	1
  5087   001D94  EFCD  F00E         	goto	i1u160_26
  5088   001D98                     i1u160_20:
  5089   001D98  0E00               	movlw	0
  5090   001D9A                     i1u160_26:
  5091   001D9A                     
  5092                           ; BSR set to: 61
  5093   001D9A  0012               	return		;funcret
  5094   001D9C                     __end_of_I2C2_IsData:
  5095                           	callstack 0
  5096                           
  5097 ;; *************** function _I2C2_IsBusTimeOut *****************
  5098 ;; Defined at:
  5099 ;;		line 433 in file "mcc_generated_files/i2c_host/src/i2c2.c"
  5100 ;; Parameters:    Size  Location     Type
  5101 ;;		None
  5102 ;; Auto vars:     Size  Location     Type
  5103 ;;		None
  5104 ;; Return value:  Size  Location     Type
  5105 ;;                  1    wreg      _Bool 
  5106 ;; Registers used:
  5107 ;;		wreg
  5108 ;; Tracked objects:
  5109 ;;		On entry : 0/0
  5110 ;;		On exit  : 0/0
  5111 ;;		Unchanged: 0/0
  5112 ;; Data sizes:     COMRAM   BANK0   BANK1   BANK2   BANK3   BANK4   BANK5   BANK6   BANK7   BANK8   BANK9  BANK10  BANK1
      +1  BANK12  BANK13  BANK14  BANK15
  5113 ;;      Params:         0       0       0       0       0       0       0       0       0       0       0       0       
      +0       0       0       0       0
  5114 ;;      Locals:         0       0       0       0       0       0       0       0       0       0       0       0       
      +0       0       0       0       0
  5115 ;;      Temps:          0       0       0       0       0       0       0       0       0       0       0       0       
      +0       0       0       0       0
  5116 ;;      Totals:         0       0       0       0       0       0       0       0       0       0       0       0       
      +0       0       0       0       0
  5117 ;;Total ram usage:        0 bytes
  5118 ;; Hardware stack levels used: 1
  5119 ;; Hardware stack levels required when called: 3
  5120 ;; This function calls:
  5121 ;;		Nothing
  5122 ;; This function is called by:
  5123 ;;		_I2C2_ERROR_ISR
  5124 ;; This function uses a non-reentrant model
  5125 ;;
  5126                           
  5127                           	psect	text51
  5128   001D9C                     __ptext51:
  5129                           	callstack 0
  5130   001D9C                     _I2C2_IsBusTimeOut:
  5131                           	callstack 23
  5132   001D9C                     
  5133                           ;mcc_generated_files/i2c_host/src/i2c2.c: 435:     return I2C2ERRbits.BTOIF;
  5134   001D9C  013D               	movlb	61	; () banked
  5135   001D9E  BD60               	btfsc	96,6,b	;volatile
  5136   001DA0  EFD4  F00E         	goto	i1u161_21
  5137   001DA4  EFD7  F00E         	goto	i1u161_20
  5138   001DA8                     i1u161_21:
  5139   001DA8  0E01               	movlw	1
  5140   001DAA  EFD8  F00E         	goto	i1u161_26
  5141   001DAE                     i1u161_20:
  5142   001DAE  0E00               	movlw	0
  5143   001DB0                     i1u161_26:
  5144   001DB0                     
  5145                           ; BSR set to: 61
  5146   001DB0  0012               	return		;funcret
  5147   001DB2                     __end_of_I2C2_IsBusTimeOut:
  5148                           	callstack 0
  5149                           
  5150 ;; *************** function _I2C2_IsBusCol *****************
  5151 ;; Defined at:
  5152 ;;		line 428 in file "mcc_generated_files/i2c_host/src/i2c2.c"
  5153 ;; Parameters:    Size  Location     Type
  5154 ;;		None
  5155 ;; Auto vars:     Size  Location     Type
  5156 ;;		None
  5157 ;; Return value:  Size  Location     Type
  5158 ;;                  1    wreg      _Bool 
  5159 ;; Registers used:
  5160 ;;		wreg
  5161 ;; Tracked objects:
  5162 ;;		On entry : 0/0
  5163 ;;		On exit  : 0/0
  5164 ;;		Unchanged: 0/0
  5165 ;; Data sizes:     COMRAM   BANK0   BANK1   BANK2   BANK3   BANK4   BANK5   BANK6   BANK7   BANK8   BANK9  BANK10  BANK1
      +1  BANK12  BANK13  BANK14  BANK15
  5166 ;;      Params:         0       0       0       0       0       0       0       0       0       0       0       0       
      +0       0       0       0       0
  5167 ;;      Locals:         0       0       0       0       0       0       0       0       0       0       0       0       
      +0       0       0       0       0
  5168 ;;      Temps:          0       0       0       0       0       0       0       0       0       0       0       0       
      +0       0       0       0       0
  5169 ;;      Totals:         0       0       0       0       0       0       0       0       0       0       0       0       
      +0       0       0       0       0
  5170 ;;Total ram usage:        0 bytes
  5171 ;; Hardware stack levels used: 1
  5172 ;; Hardware stack levels required when called: 3
  5173 ;; This function calls:
  5174 ;;		Nothing
  5175 ;; This function is called by:
  5176 ;;		_I2C2_ERROR_ISR
  5177 ;; This function uses a non-reentrant model
  5178 ;;
  5179                           
  5180                           	psect	text52
  5181   001DB2                     __ptext52:
  5182                           	callstack 0
  5183   001DB2                     _I2C2_IsBusCol:
  5184                           	callstack 23
  5185   001DB2                     
  5186                           ;mcc_generated_files/i2c_host/src/i2c2.c: 430:     return I2C2ERRbits.BCLIF;
  5187   001DB2  013D               	movlb	61	; () banked
  5188   001DB4  BB60               	btfsc	96,5,b	;volatile
  5189   001DB6  EFDF  F00E         	goto	i1u156_21
  5190   001DBA  EFE2  F00E         	goto	i1u156_20
  5191   001DBE                     i1u156_21:
  5192   001DBE  0E01               	movlw	1
  5193   001DC0  EFE3  F00E         	goto	i1u156_26
  5194   001DC4                     i1u156_20:
  5195   001DC4  0E00               	movlw	0
  5196   001DC6                     i1u156_26:
  5197   001DC6                     
  5198                           ; BSR set to: 61
  5199   001DC6  0012               	return		;funcret
  5200   001DC8                     __end_of_I2C2_IsBusCol:
  5201                           	callstack 0
  5202                           
  5203 ;; *************** function _I2C2_IsAddr *****************
  5204 ;; Defined at:
  5205 ;;		line 443 in file "mcc_generated_files/i2c_host/src/i2c2.c"
  5206 ;; Parameters:    Size  Location     Type
  5207 ;;		None
  5208 ;; Auto vars:     Size  Location     Type
  5209 ;;		None
  5210 ;; Return value:  Size  Location     Type
  5211 ;;                  1    wreg      _Bool 
  5212 ;; Registers used:
  5213 ;;		wreg
  5214 ;; Tracked objects:
  5215 ;;		On entry : 0/0
  5216 ;;		On exit  : 0/0
  5217 ;;		Unchanged: 0/0
  5218 ;; Data sizes:     COMRAM   BANK0   BANK1   BANK2   BANK3   BANK4   BANK5   BANK6   BANK7   BANK8   BANK9  BANK10  BANK1
      +1  BANK12  BANK13  BANK14  BANK15
  5219 ;;      Params:         0       0       0       0       0       0       0       0       0       0       0       0       
      +0       0       0       0       0
  5220 ;;      Locals:         0       0       0       0       0       0       0       0       0       0       0       0       
      +0       0       0       0       0
  5221 ;;      Temps:          0       0       0       0       0       0       0       0       0       0       0       0       
      +0       0       0       0       0
  5222 ;;      Totals:         0       0       0       0       0       0       0       0       0       0       0       0       
      +0       0       0       0       0
  5223 ;;Total ram usage:        0 bytes
  5224 ;; Hardware stack levels used: 1
  5225 ;; Hardware stack levels required when called: 3
  5226 ;; This function calls:
  5227 ;;		Nothing
  5228 ;; This function is called by:
  5229 ;;		_I2C2_ERROR_ISR
  5230 ;; This function uses a non-reentrant model
  5231 ;;
  5232                           
  5233                           	psect	text53
  5234   001DC8                     __ptext53:
  5235                           	callstack 0
  5236   001DC8                     _I2C2_IsAddr:
  5237                           	callstack 23
  5238   001DC8                     
  5239                           ;mcc_generated_files/i2c_host/src/i2c2.c: 445:     return !I2C2STAT0bits.D;
  5240   001DC8  013D               	movlb	61	; () banked
  5241   001DCA  A761               	btfss	97,3,b	;volatile
  5242   001DCC  EFEA  F00E         	goto	i1u157_21
  5243   001DD0  EFED  F00E         	goto	i1u157_20
  5244   001DD4                     i1u157_21:
  5245   001DD4  0E01               	movlw	1
  5246   001DD6  EFEE  F00E         	goto	i1u158_20
  5247   001DDA                     i1u157_20:
  5248   001DDA  0E00               	movlw	0
  5249   001DDC                     i1u158_20:
  5250   001DDC                     
  5251                           ; BSR set to: 61
  5252   001DDC  0012               	return		;funcret
  5253   001DDE                     __end_of_I2C2_IsAddr:
  5254                           	callstack 0
  5255                           
  5256 ;; *************** function _I2C2_DefaultCallback *****************
  5257 ;; Defined at:
  5258 ;;		line 339 in file "mcc_generated_files/i2c_host/src/i2c2.c"
  5259 ;; Parameters:    Size  Location     Type
  5260 ;;		None
  5261 ;; Auto vars:     Size  Location     Type
  5262 ;;		None
  5263 ;; Return value:  Size  Location     Type
  5264 ;;                  1    wreg      void 
  5265 ;; Registers used:
  5266 ;;		None
  5267 ;; Tracked objects:
  5268 ;;		On entry : 0/0
  5269 ;;		On exit  : 0/0
  5270 ;;		Unchanged: 0/0
  5271 ;; Data sizes:     COMRAM   BANK0   BANK1   BANK2   BANK3   BANK4   BANK5   BANK6   BANK7   BANK8   BANK9  BANK10  BANK1
      +1  BANK12  BANK13  BANK14  BANK15
  5272 ;;      Params:         0       0       0       0       0       0       0       0       0       0       0       0       
      +0       0       0       0       0
  5273 ;;      Locals:         0       0       0       0       0       0       0       0       0       0       0       0       
      +0       0       0       0       0
  5274 ;;      Temps:          0       0       0       0       0       0       0       0       0       0       0       0       
      +0       0       0       0       0
  5275 ;;      Totals:         0       0       0       0       0       0       0       0       0       0       0       0       
      +0       0       0       0       0
  5276 ;;Total ram usage:        0 bytes
  5277 ;; Hardware stack levels used: 1
  5278 ;; Hardware stack levels required when called: 3
  5279 ;; This function calls:
  5280 ;;		Nothing
  5281 ;; This function is called by:
  5282 ;;		_I2C2_Initialize
  5283 ;;		_I2C2_Deinitialize
  5284 ;;		_I2C2_ERROR_ISR
  5285 ;; This function uses a non-reentrant model
  5286 ;;
  5287                           
  5288                           	psect	text54
  5289   001F08                     __ptext54:
  5290                           	callstack 0
  5291   001F08                     _I2C2_DefaultCallback:
  5292                           	callstack 23
  5293   001F08  0012               	return		;funcret
  5294   001F0A                     __end_of_I2C2_DefaultCallback:
  5295                           	callstack 0
  5296                           
  5297 ;; *************** function _I2C2_BusReset *****************
  5298 ;; Defined at:
  5299 ;;		line 377 in file "mcc_generated_files/i2c_host/src/i2c2.c"
  5300 ;; Parameters:    Size  Location     Type
  5301 ;;		None
  5302 ;; Auto vars:     Size  Location     Type
  5303 ;;		None
  5304 ;; Return value:  Size  Location     Type
  5305 ;;                  1    wreg      void 
  5306 ;; Registers used:
  5307 ;;		wreg, status,2, cstack
  5308 ;; Tracked objects:
  5309 ;;		On entry : 0/0
  5310 ;;		On exit  : 0/0
  5311 ;;		Unchanged: 0/0
  5312 ;; Data sizes:     COMRAM   BANK0   BANK1   BANK2   BANK3   BANK4   BANK5   BANK6   BANK7   BANK8   BANK9  BANK10  BANK1
      +1  BANK12  BANK13  BANK14  BANK15
  5313 ;;      Params:         0       0       0       0       0       0       0       0       0       0       0       0       
      +0       0       0       0       0
  5314 ;;      Locals:         0       0       0       0       0       0       0       0       0       0       0       0       
      +0       0       0       0       0
  5315 ;;      Temps:          0       0       0       0       0       0       0       0       0       0       0       0       
      +0       0       0       0       0
  5316 ;;      Totals:         0       0       0       0       0       0       0       0       0       0       0       0       
      +0       0       0       0       0
  5317 ;;Total ram usage:        0 bytes
  5318 ;; Hardware stack levels used: 1
  5319 ;; Hardware stack levels required when called: 4
  5320 ;; This function calls:
  5321 ;;		_I2C2_BufferClear
  5322 ;;		_I2C2_ErrorFlagsClear
  5323 ;;		_I2C2_InterruptsClear
  5324 ;;		_I2C2_InterruptsDisable
  5325 ;;		i1_I2C2_InterruptsEnable
  5326 ;; This function is called by:
  5327 ;;		_I2C2_ERROR_ISR
  5328 ;; This function uses a non-reentrant model
  5329 ;;
  5330                           
  5331                           	psect	text55
  5332   0018D0                     __ptext55:
  5333                           	callstack 0
  5334   0018D0                     _I2C2_BusReset:
  5335                           	callstack 22
  5336   0018D0                     
  5337                           ;mcc_generated_files/i2c_host/src/i2c2.c: 379:     I2C2_InterruptsClear();
  5338   0018D0  EC62  F00F         	call	_I2C2_InterruptsClear	;wreg free
  5339   0018D4                     
  5340                           ;mcc_generated_files/i2c_host/src/i2c2.c: 380:     I2C2_ErrorFlagsClear();
  5341   0018D4  EC54  F00F         	call	_I2C2_ErrorFlagsClear	;wreg free
  5342   0018D8                     
  5343                           ;mcc_generated_files/i2c_host/src/i2c2.c: 381:     I2C2_InterruptsDisable();
  5344   0018D8  ECFA  F00E         	call	_I2C2_InterruptsDisable	;wreg free
  5345   0018DC                     
  5346                           ;mcc_generated_files/i2c_host/src/i2c2.c: 382:     I2C2_BufferClear();
  5347   0018DC  EC59  F00F         	call	_I2C2_BufferClear	;wreg free
  5348   0018E0                     
  5349                           ;mcc_generated_files/i2c_host/src/i2c2.c: 383:     I2C2CON0bits.EN = 0;
  5350   0018E0  013D               	movlb	61	; () banked
  5351   0018E2  9F5D               	bcf	93,7,b	;volatile
  5352   0018E4                     
  5353                           ; BSR set to: 61
  5354                           ;mcc_generated_files/i2c_host/src/i2c2.c: 384:     I2C2_InterruptsEnable();
  5355   0018E4  ECEF  F00E         	call	i1_I2C2_InterruptsEnable	;wreg free
  5356   0018E8                     
  5357                           ;mcc_generated_files/i2c_host/src/i2c2.c: 388:     I2C2PIEbits.SCIE = 0;
  5358   0018E8  013D               	movlb	61	; () banked
  5359   0018EA  9164               	bcf	100,0,b	;volatile
  5360   0018EC                     
  5361                           ; BSR set to: 61
  5362                           ;mcc_generated_files/i2c_host/src/i2c2.c: 389:     I2C2PIEbits.PCIE = 0;
  5363   0018EC  9564               	bcf	100,2,b	;volatile
  5364   0018EE                     
  5365                           ; BSR set to: 61
  5366                           ;mcc_generated_files/i2c_host/src/i2c2.c: 390:     I2C2CON0bits.EN = 1;
  5367   0018EE  8F5D               	bsf	93,7,b	;volatile
  5368   0018F0                     
  5369                           ; BSR set to: 61
  5370                           ;mcc_generated_files/i2c_host/src/i2c2.c: 391:     _delay((unsigned long)((1)*(64000000/
      +                          4000000.0)));
  5371   0018F0  0E05               	movlw	5
  5372   0018F2                     i1u253_27:
  5373   0018F2  2EE8               	decfsz	wreg,f,c
  5374   0018F4  D7FE               	bra	i1u253_27
  5375   0018F6  F000               	nop	
  5376   0018F8                     
  5377                           ;mcc_generated_files/i2c_host/src/i2c2.c: 392:     __nop();
  5378   0018F8  F000               	nop	
  5379   0018FA                     
  5380                           ;mcc_generated_files/i2c_host/src/i2c2.c: 393:     __nop();
  5381   0018FA  F000               	nop	
  5382   0018FC                     
  5383                           ;mcc_generated_files/i2c_host/src/i2c2.c: 394:     __nop();
  5384   0018FC  F000               	nop	
  5385   0018FE                     
  5386                           ;mcc_generated_files/i2c_host/src/i2c2.c: 395:     __nop();
  5387   0018FE  F000               	nop	
  5388   001900                     
  5389                           ;mcc_generated_files/i2c_host/src/i2c2.c: 396:     __nop();
  5390   001900  F000               	nop	
  5391   001902                     
  5392                           ;mcc_generated_files/i2c_host/src/i2c2.c: 397:     __nop();
  5393   001902  F000               	nop	
  5394   001904                     
  5395                           ;mcc_generated_files/i2c_host/src/i2c2.c: 398:     I2C2PIRbits.SCIF = 0;
  5396   001904  013D               	movlb	61	; () banked
  5397   001906  9163               	bcf	99,0,b	;volatile
  5398   001908                     
  5399                           ; BSR set to: 61
  5400                           ;mcc_generated_files/i2c_host/src/i2c2.c: 399:     I2C2PIRbits.PCIF = 0;
  5401   001908  9563               	bcf	99,2,b	;volatile
  5402   00190A                     
  5403                           ; BSR set to: 61
  5404                           ;mcc_generated_files/i2c_host/src/i2c2.c: 400:     I2C2PIEbits.PCIE = 1;
  5405   00190A  8564               	bsf	100,2,b	;volatile
  5406   00190C                     
  5407                           ; BSR set to: 61
  5408   00190C  0012               	return		;funcret
  5409   00190E                     __end_of_I2C2_BusReset:
  5410                           	callstack 0
  5411                           
  5412 ;; *************** function i1_I2C2_InterruptsEnable *****************
  5413 ;; Defined at:
  5414 ;;		line 448 in file "mcc_generated_files/i2c_host/src/i2c2.c"
  5415 ;; Parameters:    Size  Location     Type
  5416 ;;		None
  5417 ;; Auto vars:     Size  Location     Type
  5418 ;;		None
  5419 ;; Return value:  Size  Location     Type
  5420 ;;                  1    wreg      void 
  5421 ;; Registers used:
  5422 ;;		None
  5423 ;; Tracked objects:
  5424 ;;		On entry : 0/0
  5425 ;;		On exit  : 0/0
  5426 ;;		Unchanged: 0/0
  5427 ;; Data sizes:     COMRAM   BANK0   BANK1   BANK2   BANK3   BANK4   BANK5   BANK6   BANK7   BANK8   BANK9  BANK10  BANK1
      +1  BANK12  BANK13  BANK14  BANK15
  5428 ;;      Params:         0       0       0       0       0       0       0       0       0       0       0       0       
      +0       0       0       0       0
  5429 ;;      Locals:         0       0       0       0       0       0       0       0       0       0       0       0       
      +0       0       0       0       0
  5430 ;;      Temps:          0       0       0       0       0       0       0       0       0       0       0       0       
      +0       0       0       0       0
  5431 ;;      Totals:         0       0       0       0       0       0       0       0       0       0       0       0       
      +0       0       0       0       0
  5432 ;;Total ram usage:        0 bytes
  5433 ;; Hardware stack levels used: 1
  5434 ;; Hardware stack levels required when called: 3
  5435 ;; This function calls:
  5436 ;;		Nothing
  5437 ;; This function is called by:
  5438 ;;		_I2C2_BusReset
  5439 ;; This function uses a non-reentrant model
  5440 ;;
  5441                           
  5442                           	psect	text56
  5443   001DDE                     __ptext56:
  5444                           	callstack 0
  5445   001DDE                     i1_I2C2_InterruptsEnable:
  5446                           	callstack 22
  5447   001DDE                     
  5448                           ;mcc_generated_files/i2c_host/src/i2c2.c: 450:     PIE6bits.I2C2IE = 1;
  5449   001DDE  0139               	movlb	57	; () banked
  5450   001DE0  8196               	bsf	150,0,b	;volatile
  5451                           
  5452                           ;mcc_generated_files/i2c_host/src/i2c2.c: 451:     PIE6bits.I2C2EIE = 1;
  5453   001DE2  8396               	bsf	150,1,b	;volatile
  5454                           
  5455                           ;mcc_generated_files/i2c_host/src/i2c2.c: 452:     PIE5bits.I2C2RXIE = 1;
  5456   001DE4  8D95               	bsf	149,6,b	;volatile
  5457                           
  5458                           ;mcc_generated_files/i2c_host/src/i2c2.c: 453:     PIE5bits.I2C2TXIE = 1;
  5459   001DE6  8F95               	bsf	149,7,b	;volatile
  5460                           
  5461                           ;mcc_generated_files/i2c_host/src/i2c2.c: 455:     I2C2PIEbits.PCIE = 1;
  5462   001DE8  013D               	movlb	61	; () banked
  5463   001DEA  8564               	bsf	100,2,b	;volatile
  5464                           
  5465                           ;mcc_generated_files/i2c_host/src/i2c2.c: 456:     I2C2PIEbits.RSCIE = 1;
  5466   001DEC  8364               	bsf	100,1,b	;volatile
  5467                           
  5468                           ;mcc_generated_files/i2c_host/src/i2c2.c: 457:     I2C2PIEbits.CNTIE = 1;
  5469   001DEE  8F64               	bsf	100,7,b	;volatile
  5470                           
  5471                           ;mcc_generated_files/i2c_host/src/i2c2.c: 458:     I2C2ERRbits.NACKIE = 1;
  5472   001DF0  8160               	bsf	96,0,b	;volatile
  5473   001DF2                     
  5474                           ; BSR set to: 61
  5475   001DF2  0012               	return		;funcret
  5476   001DF4                     __end_ofi1_I2C2_InterruptsEnable:
  5477                           	callstack 0
  5478                           
  5479 ;; *************** function _I2C2_InterruptsDisable *****************
  5480 ;; Defined at:
  5481 ;;		line 461 in file "mcc_generated_files/i2c_host/src/i2c2.c"
  5482 ;; Parameters:    Size  Location     Type
  5483 ;;		None
  5484 ;; Auto vars:     Size  Location     Type
  5485 ;;		None
  5486 ;; Return value:  Size  Location     Type
  5487 ;;                  1    wreg      void 
  5488 ;; Registers used:
  5489 ;;		wreg, status,2
  5490 ;; Tracked objects:
  5491 ;;		On entry : 0/0
  5492 ;;		On exit  : 0/0
  5493 ;;		Unchanged: 0/0
  5494 ;; Data sizes:     COMRAM   BANK0   BANK1   BANK2   BANK3   BANK4   BANK5   BANK6   BANK7   BANK8   BANK9  BANK10  BANK1
      +1  BANK12  BANK13  BANK14  BANK15
  5495 ;;      Params:         0       0       0       0       0       0       0       0       0       0       0       0       
      +0       0       0       0       0
  5496 ;;      Locals:         0       0       0       0       0       0       0       0       0       0       0       0       
      +0       0       0       0       0
  5497 ;;      Temps:          0       0       0       0       0       0       0       0       0       0       0       0       
      +0       0       0       0       0
  5498 ;;      Totals:         0       0       0       0       0       0       0       0       0       0       0       0       
      +0       0       0       0       0
  5499 ;;Total ram usage:        0 bytes
  5500 ;; Hardware stack levels used: 1
  5501 ;; Hardware stack levels required when called: 3
  5502 ;; This function calls:
  5503 ;;		Nothing
  5504 ;; This function is called by:
  5505 ;;		_I2C2_BusReset
  5506 ;;		_I2C2_Deinitialize
  5507 ;; This function uses a non-reentrant model
  5508 ;;
  5509                           
  5510                           	psect	text57
  5511   001DF4                     __ptext57:
  5512                           	callstack 0
  5513   001DF4                     _I2C2_InterruptsDisable:
  5514                           	callstack 22
  5515   001DF4                     
  5516                           ;mcc_generated_files/i2c_host/src/i2c2.c: 463:     PIE6bits.I2C2IE = 0;
  5517   001DF4  0139               	movlb	57	; () banked
  5518   001DF6  9196               	bcf	150,0,b	;volatile
  5519                           
  5520                           ;mcc_generated_files/i2c_host/src/i2c2.c: 464:     PIE6bits.I2C2EIE = 0;
  5521   001DF8  9396               	bcf	150,1,b	;volatile
  5522                           
  5523                           ;mcc_generated_files/i2c_host/src/i2c2.c: 465:     PIE5bits.I2C2RXIE = 0;
  5524   001DFA  9D95               	bcf	149,6,b	;volatile
  5525                           
  5526                           ;mcc_generated_files/i2c_host/src/i2c2.c: 466:     PIE5bits.I2C2TXIE = 0;
  5527   001DFC  9F95               	bcf	149,7,b	;volatile
  5528   001DFE                     
  5529                           ; BSR set to: 57
  5530                           ;mcc_generated_files/i2c_host/src/i2c2.c: 467:     I2C2PIE = 0x00;
  5531   001DFE  0E00               	movlw	0
  5532   001E00  013D               	movlb	61	; () banked
  5533   001E02  6F64               	movwf	100,b	;volatile
  5534                           
  5535                           ;mcc_generated_files/i2c_host/src/i2c2.c: 468:     I2C2ERR = 0x00;
  5536   001E04  0E00               	movlw	0
  5537   001E06  6F60               	movwf	96,b	;volatile
  5538   001E08                     
  5539                           ; BSR set to: 61
  5540   001E08  0012               	return		;funcret
  5541   001E0A                     __end_of_I2C2_InterruptsDisable:
  5542                           	callstack 0
  5543                           
  5544 ;; *************** function _I2C2_RX_ISR *****************
  5545 ;; Defined at:
  5546 ;;		line 289 in file "mcc_generated_files/i2c_host/src/i2c2.c"
  5547 ;; Parameters:    Size  Location     Type
  5548 ;;		None
  5549 ;; Auto vars:     Size  Location     Type
  5550 ;;		None
  5551 ;; Return value:  Size  Location     Type
  5552 ;;                  1    wreg      void 
  5553 ;; Registers used:
  5554 ;;		wreg, fsr2l, fsr2h, status,2, status,0, cstack
  5555 ;; Tracked objects:
  5556 ;;		On entry : 0/0
  5557 ;;		On exit  : 0/0
  5558 ;;		Unchanged: 0/0
  5559 ;; Data sizes:     COMRAM   BANK0   BANK1   BANK2   BANK3   BANK4   BANK5   BANK6   BANK7   BANK8   BANK9  BANK10  BANK1
      +1  BANK12  BANK13  BANK14  BANK15
  5560 ;;      Params:         0       0       0       0       0       0       0       0       0       0       0       0       
      +0       0       0       0       0
  5561 ;;      Locals:         0       0       0       0       0       0       0       0       0       0       0       0       
      +0       0       0       0       0
  5562 ;;      Temps:          0       1       0       0       0       0       0       0       0       0       0       0       
      +0       0       0       0       0
  5563 ;;      Totals:         0       1       0       0       0       0       0       0       0       0       0       0       
      +0       0       0       0       0
  5564 ;;Total ram usage:        1 bytes
  5565 ;; Hardware stack levels used: 1
  5566 ;; Hardware stack levels required when called: 4
  5567 ;; This function calls:
  5568 ;;		_I2C2_DataReceive
  5569 ;; This function is called by:
  5570 ;;		Interrupt level 1
  5571 ;; This function uses a non-reentrant model
  5572 ;;
  5573                           
  5574                           	psect	text58
  5575   001C68                     __ptext58:
  5576                           	callstack 0
  5577   001C68                     _I2C2_RX_ISR:
  5578                           	callstack 23
  5579                           
  5580                           ; BSR set to: 61
  5581                           ;incstack = 0
  5582   001C68  006F FF60  F0A3    	movff	status,??_I2C2_RX_ISR
  5583   001C6E                     
  5584                           ;mcc_generated_files/i2c_host/src/i2c2.c: 291:     *i2c2Status.readPtr++ = I2C2_DataRece
      +                          ive();
  5585   001C6E  EC6F  F00F         	call	_I2C2_DataReceive	;wreg free
  5586   001C72  0060  F023  FFD9   	movff	_i2c2Status+7,fsr2l	;volatile
  5587   001C78  0060  F027  FFDA   	movff	_i2c2Status+8,fsr2h	;volatile
  5588   001C7E  6EDF               	movwf	indf2,c
  5589   001C80  4A08               	infsnz	(_i2c2Status+7)^0,f,c	;volatile
  5590   001C82  2A09               	incf	(_i2c2Status+8)^0,f,c	;volatile
  5591   001C84  0060  F28F  FFD8   	movff	??_I2C2_RX_ISR,status
  5592   001C8A  0011               	retfie		f
  5593   001C8C                     __end_of_I2C2_RX_ISR:
  5594                           	callstack 0
  5595                           
  5596 ;; *************** function _I2C2_DataReceive *****************
  5597 ;; Defined at:
  5598 ;;		line 362 in file "mcc_generated_files/i2c_host/src/i2c2.c"
  5599 ;; Parameters:    Size  Location     Type
  5600 ;;		None
  5601 ;; Auto vars:     Size  Location     Type
  5602 ;;		None
  5603 ;; Return value:  Size  Location     Type
  5604 ;;                  1    wreg      unsigned char 
  5605 ;; Registers used:
  5606 ;;		wreg, status,2
  5607 ;; Tracked objects:
  5608 ;;		On entry : 0/0
  5609 ;;		On exit  : 0/0
  5610 ;;		Unchanged: 0/0
  5611 ;; Data sizes:     COMRAM   BANK0   BANK1   BANK2   BANK3   BANK4   BANK5   BANK6   BANK7   BANK8   BANK9  BANK10  BANK1
      +1  BANK12  BANK13  BANK14  BANK15
  5612 ;;      Params:         0       0       0       0       0       0       0       0       0       0       0       0       
      +0       0       0       0       0
  5613 ;;      Locals:         0       0       0       0       0       0       0       0       0       0       0       0       
      +0       0       0       0       0
  5614 ;;      Temps:          0       0       0       0       0       0       0       0       0       0       0       0       
      +0       0       0       0       0
  5615 ;;      Totals:         0       0       0       0       0       0       0       0       0       0       0       0       
      +0       0       0       0       0
  5616 ;;Total ram usage:        0 bytes
  5617 ;; Hardware stack levels used: 1
  5618 ;; Hardware stack levels required when called: 3
  5619 ;; This function calls:
  5620 ;;		Nothing
  5621 ;; This function is called by:
  5622 ;;		_I2C2_RX_ISR
  5623 ;; This function uses a non-reentrant model
  5624 ;;
  5625                           
  5626                           	psect	text59
  5627   001EDE                     __ptext59:
  5628                           	callstack 0
  5629   001EDE                     _I2C2_DataReceive:
  5630                           	callstack 23
  5631   001EDE                     
  5632                           ;mcc_generated_files/i2c_host/src/i2c2.c: 364:     return I2C2RXB;
  5633   001EDE  013D               	movlb	61	; () banked
  5634   001EE0  5154               	movf	84,w,b	;volatile
  5635   001EE2                     
  5636                           ; BSR set to: 61
  5637   001EE2  0012               	return		;funcret
  5638   001EE4                     __end_of_I2C2_DataReceive:
  5639                           	callstack 0
  5640                           
  5641 ;; *************** function _I2C2_TX_ISR *****************
  5642 ;; Defined at:
  5643 ;;		line 294 in file "mcc_generated_files/i2c_host/src/i2c2.c"
  5644 ;; Parameters:    Size  Location     Type
  5645 ;;		None
  5646 ;; Auto vars:     Size  Location     Type
  5647 ;;		None
  5648 ;; Return value:  Size  Location     Type
  5649 ;;                  1    wreg      void 
  5650 ;; Registers used:
  5651 ;;		wreg, fsr2l, fsr2h, status,2, status,0, cstack
  5652 ;; Tracked objects:
  5653 ;;		On entry : 0/0
  5654 ;;		On exit  : 0/0
  5655 ;;		Unchanged: 0/0
  5656 ;; Data sizes:     COMRAM   BANK0   BANK1   BANK2   BANK3   BANK4   BANK5   BANK6   BANK7   BANK8   BANK9  BANK10  BANK1
      +1  BANK12  BANK13  BANK14  BANK15
  5657 ;;      Params:         0       0       0       0       0       0       0       0       0       0       0       0       
      +0       0       0       0       0
  5658 ;;      Locals:         0       0       0       0       0       0       0       0       0       0       0       0       
      +0       0       0       0       0
  5659 ;;      Temps:          0       1       0       0       0       0       0       0       0       0       0       0       
      +0       0       0       0       0
  5660 ;;      Totals:         0       1       0       0       0       0       0       0       0       0       0       0       
      +0       0       0       0       0
  5661 ;;Total ram usage:        1 bytes
  5662 ;; Hardware stack levels used: 1
  5663 ;; Hardware stack levels required when called: 4
  5664 ;; This function calls:
  5665 ;;		_I2C2_DataTransmit
  5666 ;; This function is called by:
  5667 ;;		Interrupt level 1
  5668 ;; This function uses a non-reentrant model
  5669 ;;
  5670                           
  5671                           	psect	text60
  5672   001C8C                     __ptext60:
  5673                           	callstack 0
  5674   001C8C                     _I2C2_TX_ISR:
  5675                           	callstack 23
  5676                           
  5677                           ; BSR set to: 61
  5678                           ;incstack = 0
  5679   001C8C  006F FF60  F0A5    	movff	status,??_I2C2_TX_ISR
  5680   001C92                     
  5681                           ;mcc_generated_files/i2c_host/src/i2c2.c: 296:     I2C2_DataTransmit(*i2c2Status.writePt
      +                          r++);
  5682   001C92  0060  F013  FFD9   	movff	_i2c2Status+3,fsr2l	;volatile
  5683   001C98  0060  F017  FFDA   	movff	_i2c2Status+4,fsr2h	;volatile
  5684   001C9E  4A04               	infsnz	(_i2c2Status+3)^0,f,c	;volatile
  5685   001CA0  2A05               	incf	(_i2c2Status+4)^0,f,c	;volatile
  5686   001CA2  50DF               	movf	indf2,w,c
  5687   001CA4  EC1B  F00F         	call	_I2C2_DataTransmit
  5688   001CA8  0060  F297  FFD8   	movff	??_I2C2_TX_ISR,status
  5689   001CAE  0011               	retfie		f
  5690   001CB0                     __end_of_I2C2_TX_ISR:
  5691                           	callstack 0
  5692                           
  5693 ;; *************** function _IOC_ISR *****************
  5694 ;; Defined at:
  5695 ;;		line 104 in file "mcc_generated_files/system/src/interrupt.c"
  5696 ;; Parameters:    Size  Location     Type
  5697 ;;		None
  5698 ;; Auto vars:     Size  Location     Type
  5699 ;;		None
  5700 ;; Return value:  Size  Location     Type
  5701 ;;                  1    wreg      void 
  5702 ;; Registers used:
  5703 ;;		cstack
  5704 ;; Tracked objects:
  5705 ;;		On entry : 0/0
  5706 ;;		On exit  : 0/0
  5707 ;;		Unchanged: 0/0
  5708 ;; Data sizes:     COMRAM   BANK0   BANK1   BANK2   BANK3   BANK4   BANK5   BANK6   BANK7   BANK8   BANK9  BANK10  BANK1
      +1  BANK12  BANK13  BANK14  BANK15
  5709 ;;      Params:         0       0       0       0       0       0       0       0       0       0       0       0       
      +0       0       0       0       0
  5710 ;;      Locals:         0       0       0       0       0       0       0       0       0       0       0       0       
      +0       0       0       0       0
  5711 ;;      Temps:          0       0       0       0       0       0       0       0       0       0       0       0       
      +0       0       0       0       0
  5712 ;;      Totals:         0       0       0       0       0       0       0       0       0       0       0       0       
      +0       0       0       0       0
  5713 ;;Total ram usage:        0 bytes
  5714 ;; Hardware stack levels used: 1
  5715 ;; Hardware stack levels required when called: 4
  5716 ;; This function calls:
  5717 ;;		_PIN_MANAGER_IOC
  5718 ;; This function is called by:
  5719 ;;		Interrupt level 1
  5720 ;; This function uses a non-reentrant model
  5721 ;;
  5722                           
  5723                           	psect	text61
  5724   001EE4                     __ptext61:
  5725                           	callstack 0
  5726   001EE4                     _IOC_ISR:
  5727                           	callstack 23
  5728   001EE4                     
  5729                           ;mcc_generated_files/system/src/interrupt.c: 106:     PIN_MANAGER_IOC();
  5730   001EE4  EC85  F00F         	call	_PIN_MANAGER_IOC	;wreg free
  5731   001EE8  0011               	retfie		f
  5732   001EEA                     __end_of_IOC_ISR:
  5733                           	callstack 0
  5734                           
  5735 ;; *************** function _PIN_MANAGER_IOC *****************
  5736 ;; Defined at:
  5737 ;;		line 145 in file "mcc_generated_files/system/src/pins.c"
  5738 ;; Parameters:    Size  Location     Type
  5739 ;;		None
  5740 ;; Auto vars:     Size  Location     Type
  5741 ;;		None
  5742 ;; Return value:  Size  Location     Type
  5743 ;;                  1    wreg      void 
  5744 ;; Registers used:
  5745 ;;		None
  5746 ;; Tracked objects:
  5747 ;;		On entry : 0/0
  5748 ;;		On exit  : 0/0
  5749 ;;		Unchanged: 0/0
  5750 ;; Data sizes:     COMRAM   BANK0   BANK1   BANK2   BANK3   BANK4   BANK5   BANK6   BANK7   BANK8   BANK9  BANK10  BANK1
      +1  BANK12  BANK13  BANK14  BANK15
  5751 ;;      Params:         0       0       0       0       0       0       0       0       0       0       0       0       
      +0       0       0       0       0
  5752 ;;      Locals:         0       0       0       0       0       0       0       0       0       0       0       0       
      +0       0       0       0       0
  5753 ;;      Temps:          0       0       0       0       0       0       0       0       0       0       0       0       
      +0       0       0       0       0
  5754 ;;      Totals:         0       0       0       0       0       0       0       0       0       0       0       0       
      +0       0       0       0       0
  5755 ;;Total ram usage:        0 bytes
  5756 ;; Hardware stack levels used: 1
  5757 ;; Hardware stack levels required when called: 3
  5758 ;; This function calls:
  5759 ;;		Nothing
  5760 ;; This function is called by:
  5761 ;;		_IOC_ISR
  5762 ;; This function uses a non-reentrant model
  5763 ;;
  5764                           
  5765                           	psect	text62
  5766   001F0A                     __ptext62:
  5767                           	callstack 0
  5768   001F0A                     _PIN_MANAGER_IOC:
  5769                           	callstack 23
  5770   001F0A  0012               	return		;funcret
  5771   001F0C                     __end_of_PIN_MANAGER_IOC:
  5772                           	callstack 0
  5773                           
  5774 ;; *************** function _INT0_ISR *****************
  5775 ;; Defined at:
  5776 ;;		line 117 in file "mcc_generated_files/system/src/interrupt.c"
  5777 ;; Parameters:    Size  Location     Type
  5778 ;;		None
  5779 ;; Auto vars:     Size  Location     Type
  5780 ;;		None
  5781 ;; Return value:  Size  Location     Type
  5782 ;;                  1    wreg      void 
  5783 ;; Registers used:
  5784 ;;		wreg, status,2, status,0, pcl, pclath, pclatu, tosl, cstack
  5785 ;; Tracked objects:
  5786 ;;		On entry : 0/0
  5787 ;;		On exit  : 0/0
  5788 ;;		Unchanged: 0/0
  5789 ;; Data sizes:     COMRAM   BANK0   BANK1   BANK2   BANK3   BANK4   BANK5   BANK6   BANK7   BANK8   BANK9  BANK10  BANK1
      +1  BANK12  BANK13  BANK14  BANK15
  5790 ;;      Params:         0       0       0       0       0       0       0       0       0       0       0       0       
      +0       0       0       0       0
  5791 ;;      Locals:         0       0       0       0       0       0       0       0       0       0       0       0       
      +0       0       0       0       0
  5792 ;;      Temps:          0       3       0       0       0       0       0       0       0       0       0       0       
      +0       0       0       0       0
  5793 ;;      Totals:         0       3       0       0       0       0       0       0       0       0       0       0       
      +0       0       0       0       0
  5794 ;;Total ram usage:        3 bytes
  5795 ;; Hardware stack levels used: 1
  5796 ;; Hardware stack levels required when called: 5
  5797 ;; This function calls:
  5798 ;;		_INT0_CallBack
  5799 ;; This function is called by:
  5800 ;;		Interrupt level 1
  5801 ;; This function uses a non-reentrant model
  5802 ;;
  5803                           
  5804                           	psect	text63
  5805   001A88                     __ptext63:
  5806                           	callstack 0
  5807   001A88                     _INT0_ISR:
  5808                           	callstack 22
  5809                           
  5810                           ;incstack = 0
  5811   001A88  006F FF60  F0A6    	movff	status,??_INT0_ISR
  5812   001A8E  006F FFE8  F0A7    	movff	pclath,??_INT0_ISR+1
  5813   001A94  006F FFEC  F0A8    	movff	pclatu,??_INT0_ISR+2
  5814   001A9A                     
  5815                           ;mcc_generated_files/system/src/interrupt.c: 119:     (PIR1bits.INT0IF = 0);
  5816   001A9A  0139               	movlb	57	; () banked
  5817   001A9C  91A1               	bcf	161,0,b	;volatile
  5818   001A9E                     
  5819                           ; BSR set to: 57
  5820                           ;mcc_generated_files/system/src/interrupt.c: 122:     INT0_CallBack();
  5821   001A9E  EC5B  F00D         	call	_INT0_CallBack	;wreg free
  5822   001AA2  0060  F2A3  FFFB   	movff	??_INT0_ISR+2,pclatu
  5823   001AA8  0060  F29F  FFFA   	movff	??_INT0_ISR+1,pclath
  5824   001AAE  0060  F29B  FFD8   	movff	??_INT0_ISR,status
  5825   001AB4  0011               	retfie		f
  5826   001AB6                     __end_of_INT0_ISR:
  5827                           	callstack 0
  5828                           
  5829 ;; *************** function _INT0_CallBack *****************
  5830 ;; Defined at:
  5831 ;;		line 126 in file "mcc_generated_files/system/src/interrupt.c"
  5832 ;; Parameters:    Size  Location     Type
  5833 ;;		None
  5834 ;; Auto vars:     Size  Location     Type
  5835 ;;		None
  5836 ;; Return value:  Size  Location     Type
  5837 ;;                  1    wreg      void 
  5838 ;; Registers used:
  5839 ;;		wreg, status,2, status,0, pcl, pclath, pclatu, tosl, cstack
  5840 ;; Tracked objects:
  5841 ;;		On entry : 0/0
  5842 ;;		On exit  : 0/0
  5843 ;;		Unchanged: 0/0
  5844 ;; Data sizes:     COMRAM   BANK0   BANK1   BANK2   BANK3   BANK4   BANK5   BANK6   BANK7   BANK8   BANK9  BANK10  BANK1
      +1  BANK12  BANK13  BANK14  BANK15
  5845 ;;      Params:         0       0       0       0       0       0       0       0       0       0       0       0       
      +0       0       0       0       0
  5846 ;;      Locals:         0       0       0       0       0       0       0       0       0       0       0       0       
      +0       0       0       0       0
  5847 ;;      Temps:          0       0       0       0       0       0       0       0       0       0       0       0       
      +0       0       0       0       0
  5848 ;;      Totals:         0       0       0       0       0       0       0       0       0       0       0       0       
      +0       0       0       0       0
  5849 ;;Total ram usage:        0 bytes
  5850 ;; Hardware stack levels used: 1
  5851 ;; Hardware stack levels required when called: 4
  5852 ;; This function calls:
  5853 ;;		Absolute function
  5854 ;;		_INT0_DefaultInterruptHandler
  5855 ;; This function is called by:
  5856 ;;		_INT0_ISR
  5857 ;; This function uses a non-reentrant model
  5858 ;;
  5859                           
  5860                           	psect	text64
  5861   001AB6                     __ptext64:
  5862                           	callstack 0
  5863   001AB6                     _INT0_CallBack:
  5864                           	callstack 22
  5865   001AB6                     
  5866                           ;mcc_generated_files/system/src/interrupt.c: 129:     if(INT0_InterruptHandler)
  5867   001AB6  0100               	movlb	0	; () banked
  5868   001AB8  5196               	movf	_INT0_InterruptHandler& (0+255),w,b
  5869   001ABA  1197               	iorwf	(_INT0_InterruptHandler+1)& (0+255),w,b
  5870   001ABC  B4D8               	btfsc	status,2,c
  5871   001ABE  EF63  F00D         	goto	i1u162_21
  5872   001AC2  EF65  F00D         	goto	i1u162_20
  5873   001AC6                     i1u162_21:
  5874   001AC6  EF71  F00D         	goto	i1l885
  5875   001ACA                     i1u162_20:
  5876   001ACA                     
  5877                           ; BSR set to: 0
  5878                           ;mcc_generated_files/system/src/interrupt.c: 130:     {;mcc_generated_files/system/src/i
      +                          nterrupt.c: 131:         INT0_InterruptHandler();
  5879   001ACA  D802               	call	i1u163_28
  5880   001ACC  EF71  F00D         	goto	i1u163_29
  5881   001AD0                     i1u163_28:
  5882   001AD0  0005               	push	
  5883   001AD2  6EFA               	movwf	pclath,c
  5884   001AD4  5196               	movf	_INT0_InterruptHandler& (0+255),w,b
  5885   001AD6  6EFD               	movwf	tosl,c
  5886   001AD8  5197               	movf	(_INT0_InterruptHandler+1)& (0+255),w,b
  5887   001ADA  6EFE               	movwf	tosh,c
  5888   001ADC  6AFF               	clrf	tosu,c
  5889   001ADE  50FA               	movf	pclath,w,c
  5890   001AE0  0012               	return		;indir
  5891   001AE2                     i1u163_29:
  5892   001AE2                     i1l885:
  5893   001AE2  0012               	return		;funcret
  5894   001AE4                     __end_of_INT0_CallBack:
  5895                           	callstack 0
  5896                           
  5897 ;; *************** function _INT0_DefaultInterruptHandler *****************
  5898 ;; Defined at:
  5899 ;;		line 139 in file "mcc_generated_files/system/src/interrupt.c"
  5900 ;; Parameters:    Size  Location     Type
  5901 ;;		None
  5902 ;; Auto vars:     Size  Location     Type
  5903 ;;		None
  5904 ;; Return value:  Size  Location     Type
  5905 ;;                  1    wreg      void 
  5906 ;; Registers used:
  5907 ;;		None
  5908 ;; Tracked objects:
  5909 ;;		On entry : 0/0
  5910 ;;		On exit  : 0/0
  5911 ;;		Unchanged: 0/0
  5912 ;; Data sizes:     COMRAM   BANK0   BANK1   BANK2   BANK3   BANK4   BANK5   BANK6   BANK7   BANK8   BANK9  BANK10  BANK1
      +1  BANK12  BANK13  BANK14  BANK15
  5913 ;;      Params:         0       0       0       0       0       0       0       0       0       0       0       0       
      +0       0       0       0       0
  5914 ;;      Locals:         0       0       0       0       0       0       0       0       0       0       0       0       
      +0       0       0       0       0
  5915 ;;      Temps:          0       0       0       0       0       0       0       0       0       0       0       0       
      +0       0       0       0       0
  5916 ;;      Totals:         0       0       0       0       0       0       0       0       0       0       0       0       
      +0       0       0       0       0
  5917 ;;Total ram usage:        0 bytes
  5918 ;; Hardware stack levels used: 1
  5919 ;; Hardware stack levels required when called: 3
  5920 ;; This function calls:
  5921 ;;		Nothing
  5922 ;; This function is called by:
  5923 ;;		_INTERRUPT_Initialize
  5924 ;;		_INT0_CallBack
  5925 ;; This function uses a non-reentrant model
  5926 ;;
  5927                           
  5928                           	psect	text65
  5929   001F0C                     __ptext65:
  5930                           	callstack 0
  5931   001F0C                     _INT0_DefaultInterruptHandler:
  5932                           	callstack 22
  5933   001F0C  0012               	return		;funcret
  5934   001F0E                     __end_of_INT0_DefaultInterruptHandler:
  5935                           	callstack 0
  5936                           
  5937 ;; *************** function _INT1_ISR *****************
  5938 ;; Defined at:
  5939 ;;		line 151 in file "mcc_generated_files/system/src/interrupt.c"
  5940 ;; Parameters:    Size  Location     Type
  5941 ;;		None
  5942 ;; Auto vars:     Size  Location     Type
  5943 ;;		None
  5944 ;; Return value:  Size  Location     Type
  5945 ;;                  1    wreg      void 
  5946 ;; Registers used:
  5947 ;;		wreg, status,2, status,0, pcl, pclath, pclatu, tosl, cstack
  5948 ;; Tracked objects:
  5949 ;;		On entry : 0/0
  5950 ;;		On exit  : 0/0
  5951 ;;		Unchanged: 0/0
  5952 ;; Data sizes:     COMRAM   BANK0   BANK1   BANK2   BANK3   BANK4   BANK5   BANK6   BANK7   BANK8   BANK9  BANK10  BANK1
      +1  BANK12  BANK13  BANK14  BANK15
  5953 ;;      Params:         0       0       0       0       0       0       0       0       0       0       0       0       
      +0       0       0       0       0
  5954 ;;      Locals:         0       0       0       0       0       0       0       0       0       0       0       0       
      +0       0       0       0       0
  5955 ;;      Temps:          0       3       0       0       0       0       0       0       0       0       0       0       
      +0       0       0       0       0
  5956 ;;      Totals:         0       3       0       0       0       0       0       0       0       0       0       0       
      +0       0       0       0       0
  5957 ;;Total ram usage:        3 bytes
  5958 ;; Hardware stack levels used: 1
  5959 ;; Hardware stack levels required when called: 5
  5960 ;; This function calls:
  5961 ;;		_INT1_CallBack
  5962 ;; This function is called by:
  5963 ;;		Interrupt level 1
  5964 ;; This function uses a non-reentrant model
  5965 ;;
  5966                           
  5967                           	psect	text66
  5968   001AE4                     __ptext66:
  5969                           	callstack 0
  5970   001AE4                     _INT1_ISR:
  5971                           	callstack 22
  5972                           
  5973                           ;incstack = 0
  5974   001AE4  006F FF60  F0A9    	movff	status,??_INT1_ISR
  5975   001AEA  006F FFE8  F0AA    	movff	pclath,??_INT1_ISR+1
  5976   001AF0  006F FFEC  F0AB    	movff	pclatu,??_INT1_ISR+2
  5977   001AF6                     
  5978                           ;mcc_generated_files/system/src/interrupt.c: 153:     (PIR5bits.INT1IF = 0);
  5979   001AF6  0139               	movlb	57	; () banked
  5980   001AF8  91A5               	bcf	165,0,b	;volatile
  5981   001AFA                     
  5982                           ; BSR set to: 57
  5983                           ;mcc_generated_files/system/src/interrupt.c: 156:     INT1_CallBack();
  5984   001AFA  EC89  F00D         	call	_INT1_CallBack	;wreg free
  5985   001AFE  0060  F2AF  FFFB   	movff	??_INT1_ISR+2,pclatu
  5986   001B04  0060  F2AB  FFFA   	movff	??_INT1_ISR+1,pclath
  5987   001B0A  0060  F2A7  FFD8   	movff	??_INT1_ISR,status
  5988   001B10  0011               	retfie		f
  5989   001B12                     __end_of_INT1_ISR:
  5990                           	callstack 0
  5991                           
  5992 ;; *************** function _INT1_CallBack *****************
  5993 ;; Defined at:
  5994 ;;		line 160 in file "mcc_generated_files/system/src/interrupt.c"
  5995 ;; Parameters:    Size  Location     Type
  5996 ;;		None
  5997 ;; Auto vars:     Size  Location     Type
  5998 ;;		None
  5999 ;; Return value:  Size  Location     Type
  6000 ;;                  1    wreg      void 
  6001 ;; Registers used:
  6002 ;;		wreg, status,2, status,0, pcl, pclath, pclatu, tosl, cstack
  6003 ;; Tracked objects:
  6004 ;;		On entry : 0/0
  6005 ;;		On exit  : 0/0
  6006 ;;		Unchanged: 0/0
  6007 ;; Data sizes:     COMRAM   BANK0   BANK1   BANK2   BANK3   BANK4   BANK5   BANK6   BANK7   BANK8   BANK9  BANK10  BANK1
      +1  BANK12  BANK13  BANK14  BANK15
  6008 ;;      Params:         0       0       0       0       0       0       0       0       0       0       0       0       
      +0       0       0       0       0
  6009 ;;      Locals:         0       0       0       0       0       0       0       0       0       0       0       0       
      +0       0       0       0       0
  6010 ;;      Temps:          0       0       0       0       0       0       0       0       0       0       0       0       
      +0       0       0       0       0
  6011 ;;      Totals:         0       0       0       0       0       0       0       0       0       0       0       0       
      +0       0       0       0       0
  6012 ;;Total ram usage:        0 bytes
  6013 ;; Hardware stack levels used: 1
  6014 ;; Hardware stack levels required when called: 4
  6015 ;; This function calls:
  6016 ;;		Absolute function
  6017 ;;		_INT1_DefaultInterruptHandler
  6018 ;; This function is called by:
  6019 ;;		_INT1_ISR
  6020 ;; This function uses a non-reentrant model
  6021 ;;
  6022                           
  6023                           	psect	text67
  6024   001B12                     __ptext67:
  6025                           	callstack 0
  6026   001B12                     _INT1_CallBack:
  6027                           	callstack 22
  6028   001B12                     
  6029                           ;mcc_generated_files/system/src/interrupt.c: 163:     if(INT1_InterruptHandler)
  6030   001B12  0100               	movlb	0	; () banked
  6031   001B14  5194               	movf	_INT1_InterruptHandler& (0+255),w,b
  6032   001B16  1195               	iorwf	(_INT1_InterruptHandler+1)& (0+255),w,b
  6033   001B18  B4D8               	btfsc	status,2,c
  6034   001B1A  EF91  F00D         	goto	i1u164_21
  6035   001B1E  EF93  F00D         	goto	i1u164_20
  6036   001B22                     i1u164_21:
  6037   001B22  EF9F  F00D         	goto	i1l900
  6038   001B26                     i1u164_20:
  6039   001B26                     
  6040                           ; BSR set to: 0
  6041                           ;mcc_generated_files/system/src/interrupt.c: 164:     {;mcc_generated_files/system/src/i
      +                          nterrupt.c: 165:         INT1_InterruptHandler();
  6042   001B26  D802               	call	i1u165_28
  6043   001B28  EF9F  F00D         	goto	i1u165_29
  6044   001B2C                     i1u165_28:
  6045   001B2C  0005               	push	
  6046   001B2E  6EFA               	movwf	pclath,c
  6047   001B30  5194               	movf	_INT1_InterruptHandler& (0+255),w,b
  6048   001B32  6EFD               	movwf	tosl,c
  6049   001B34  5195               	movf	(_INT1_InterruptHandler+1)& (0+255),w,b
  6050   001B36  6EFE               	movwf	tosh,c
  6051   001B38  6AFF               	clrf	tosu,c
  6052   001B3A  50FA               	movf	pclath,w,c
  6053   001B3C  0012               	return		;indir
  6054   001B3E                     i1u165_29:
  6055   001B3E                     i1l900:
  6056   001B3E  0012               	return		;funcret
  6057   001B40                     __end_of_INT1_CallBack:
  6058                           	callstack 0
  6059                           
  6060 ;; *************** function _INT1_DefaultInterruptHandler *****************
  6061 ;; Defined at:
  6062 ;;		line 173 in file "mcc_generated_files/system/src/interrupt.c"
  6063 ;; Parameters:    Size  Location     Type
  6064 ;;		None
  6065 ;; Auto vars:     Size  Location     Type
  6066 ;;		None
  6067 ;; Return value:  Size  Location     Type
  6068 ;;                  1    wreg      void 
  6069 ;; Registers used:
  6070 ;;		None
  6071 ;; Tracked objects:
  6072 ;;		On entry : 0/0
  6073 ;;		On exit  : 0/0
  6074 ;;		Unchanged: 0/0
  6075 ;; Data sizes:     COMRAM   BANK0   BANK1   BANK2   BANK3   BANK4   BANK5   BANK6   BANK7   BANK8   BANK9  BANK10  BANK1
      +1  BANK12  BANK13  BANK14  BANK15
  6076 ;;      Params:         0       0       0       0       0       0       0       0       0       0       0       0       
      +0       0       0       0       0
  6077 ;;      Locals:         0       0       0       0       0       0       0       0       0       0       0       0       
      +0       0       0       0       0
  6078 ;;      Temps:          0       0       0       0       0       0       0       0       0       0       0       0       
      +0       0       0       0       0
  6079 ;;      Totals:         0       0       0       0       0       0       0       0       0       0       0       0       
      +0       0       0       0       0
  6080 ;;Total ram usage:        0 bytes
  6081 ;; Hardware stack levels used: 1
  6082 ;; Hardware stack levels required when called: 3
  6083 ;; This function calls:
  6084 ;;		Nothing
  6085 ;; This function is called by:
  6086 ;;		_INTERRUPT_Initialize
  6087 ;;		_INT1_CallBack
  6088 ;; This function uses a non-reentrant model
  6089 ;;
  6090                           
  6091                           	psect	text68
  6092   001F0E                     __ptext68:
  6093                           	callstack 0
  6094   001F0E                     _INT1_DefaultInterruptHandler:
  6095                           	callstack 22
  6096   001F0E  0012               	return		;funcret
  6097   001F10                     __end_of_INT1_DefaultInterruptHandler:
  6098                           	callstack 0
  6099                           
  6100 ;; *************** function _INT2_ISR *****************
  6101 ;; Defined at:
  6102 ;;		line 185 in file "mcc_generated_files/system/src/interrupt.c"
  6103 ;; Parameters:    Size  Location     Type
  6104 ;;		None
  6105 ;; Auto vars:     Size  Location     Type
  6106 ;;		None
  6107 ;; Return value:  Size  Location     Type
  6108 ;;                  1    wreg      void 
  6109 ;; Registers used:
  6110 ;;		wreg, status,2, status,0, pcl, pclath, pclatu, tosl, cstack
  6111 ;; Tracked objects:
  6112 ;;		On entry : 0/0
  6113 ;;		On exit  : 0/0
  6114 ;;		Unchanged: 0/0
  6115 ;; Data sizes:     COMRAM   BANK0   BANK1   BANK2   BANK3   BANK4   BANK5   BANK6   BANK7   BANK8   BANK9  BANK10  BANK1
      +1  BANK12  BANK13  BANK14  BANK15
  6116 ;;      Params:         0       0       0       0       0       0       0       0       0       0       0       0       
      +0       0       0       0       0
  6117 ;;      Locals:         0       0       0       0       0       0       0       0       0       0       0       0       
      +0       0       0       0       0
  6118 ;;      Temps:          0       3       0       0       0       0       0       0       0       0       0       0       
      +0       0       0       0       0
  6119 ;;      Totals:         0       3       0       0       0       0       0       0       0       0       0       0       
      +0       0       0       0       0
  6120 ;;Total ram usage:        3 bytes
  6121 ;; Hardware stack levels used: 1
  6122 ;; Hardware stack levels required when called: 5
  6123 ;; This function calls:
  6124 ;;		_INT2_CallBack
  6125 ;; This function is called by:
  6126 ;;		Interrupt level 1
  6127 ;; This function uses a non-reentrant model
  6128 ;;
  6129                           
  6130                           	psect	text69
  6131   001B40                     __ptext69:
  6132                           	callstack 0
  6133   001B40                     _INT2_ISR:
  6134                           	callstack 22
  6135                           
  6136                           ;incstack = 0
  6137   001B40  006F FF60  F0AC    	movff	status,??_INT2_ISR
  6138   001B46  006F FFE8  F0AD    	movff	pclath,??_INT2_ISR+1
  6139   001B4C  006F FFEC  F0AE    	movff	pclatu,??_INT2_ISR+2
  6140   001B52                     
  6141                           ;mcc_generated_files/system/src/interrupt.c: 187:     (PIR7bits.INT2IF = 0);
  6142   001B52  0139               	movlb	57	; () banked
  6143   001B54  9BA7               	bcf	167,5,b	;volatile
  6144   001B56                     
  6145                           ; BSR set to: 57
  6146                           ;mcc_generated_files/system/src/interrupt.c: 190:     INT2_CallBack();
  6147   001B56  ECB7  F00D         	call	_INT2_CallBack	;wreg free
  6148   001B5A  0060  F2BB  FFFB   	movff	??_INT2_ISR+2,pclatu
  6149   001B60  0060  F2B7  FFFA   	movff	??_INT2_ISR+1,pclath
  6150   001B66  0060  F2B3  FFD8   	movff	??_INT2_ISR,status
  6151   001B6C  0011               	retfie		f
  6152   001B6E                     __end_of_INT2_ISR:
  6153                           	callstack 0
  6154                           
  6155 ;; *************** function _INT2_CallBack *****************
  6156 ;; Defined at:
  6157 ;;		line 194 in file "mcc_generated_files/system/src/interrupt.c"
  6158 ;; Parameters:    Size  Location     Type
  6159 ;;		None
  6160 ;; Auto vars:     Size  Location     Type
  6161 ;;		None
  6162 ;; Return value:  Size  Location     Type
  6163 ;;                  1    wreg      void 
  6164 ;; Registers used:
  6165 ;;		wreg, status,2, status,0, pcl, pclath, pclatu, tosl, cstack
  6166 ;; Tracked objects:
  6167 ;;		On entry : 0/0
  6168 ;;		On exit  : 0/0
  6169 ;;		Unchanged: 0/0
  6170 ;; Data sizes:     COMRAM   BANK0   BANK1   BANK2   BANK3   BANK4   BANK5   BANK6   BANK7   BANK8   BANK9  BANK10  BANK1
      +1  BANK12  BANK13  BANK14  BANK15
  6171 ;;      Params:         0       0       0       0       0       0       0       0       0       0       0       0       
      +0       0       0       0       0
  6172 ;;      Locals:         0       0       0       0       0       0       0       0       0       0       0       0       
      +0       0       0       0       0
  6173 ;;      Temps:          0       0       0       0       0       0       0       0       0       0       0       0       
      +0       0       0       0       0
  6174 ;;      Totals:         0       0       0       0       0       0       0       0       0       0       0       0       
      +0       0       0       0       0
  6175 ;;Total ram usage:        0 bytes
  6176 ;; Hardware stack levels used: 1
  6177 ;; Hardware stack levels required when called: 4
  6178 ;; This function calls:
  6179 ;;		Absolute function
  6180 ;;		_INT2_DefaultInterruptHandler
  6181 ;; This function is called by:
  6182 ;;		_INT2_ISR
  6183 ;; This function uses a non-reentrant model
  6184 ;;
  6185                           
  6186                           	psect	text70
  6187   001B6E                     __ptext70:
  6188                           	callstack 0
  6189   001B6E                     _INT2_CallBack:
  6190                           	callstack 22
  6191   001B6E                     
  6192                           ;mcc_generated_files/system/src/interrupt.c: 197:     if(INT2_InterruptHandler)
  6193   001B6E  0100               	movlb	0	; () banked
  6194   001B70  5192               	movf	_INT2_InterruptHandler& (0+255),w,b
  6195   001B72  1193               	iorwf	(_INT2_InterruptHandler+1)& (0+255),w,b
  6196   001B74  B4D8               	btfsc	status,2,c
  6197   001B76  EFBF  F00D         	goto	i1u103_21
  6198   001B7A  EFC1  F00D         	goto	i1u103_20
  6199   001B7E                     i1u103_21:
  6200   001B7E  EFCD  F00D         	goto	i1l915
  6201   001B82                     i1u103_20:
  6202   001B82                     
  6203                           ; BSR set to: 0
  6204                           ;mcc_generated_files/system/src/interrupt.c: 198:     {;mcc_generated_files/system/src/i
      +                          nterrupt.c: 199:         INT2_InterruptHandler();
  6205   001B82  D802               	call	i1u104_28
  6206   001B84  EFCD  F00D         	goto	i1u104_29
  6207   001B88                     i1u104_28:
  6208   001B88  0005               	push	
  6209   001B8A  6EFA               	movwf	pclath,c
  6210   001B8C  5192               	movf	_INT2_InterruptHandler& (0+255),w,b
  6211   001B8E  6EFD               	movwf	tosl,c
  6212   001B90  5193               	movf	(_INT2_InterruptHandler+1)& (0+255),w,b
  6213   001B92  6EFE               	movwf	tosh,c
  6214   001B94  6AFF               	clrf	tosu,c
  6215   001B96  50FA               	movf	pclath,w,c
  6216   001B98  0012               	return		;indir
  6217   001B9A                     i1u104_29:
  6218   001B9A                     i1l915:
  6219   001B9A  0012               	return		;funcret
  6220   001B9C                     __end_of_INT2_CallBack:
  6221                           	callstack 0
  6222                           
  6223 ;; *************** function _INT2_DefaultInterruptHandler *****************
  6224 ;; Defined at:
  6225 ;;		line 207 in file "mcc_generated_files/system/src/interrupt.c"
  6226 ;; Parameters:    Size  Location     Type
  6227 ;;		None
  6228 ;; Auto vars:     Size  Location     Type
  6229 ;;		None
  6230 ;; Return value:  Size  Location     Type
  6231 ;;                  1    wreg      void 
  6232 ;; Registers used:
  6233 ;;		None
  6234 ;; Tracked objects:
  6235 ;;		On entry : 0/0
  6236 ;;		On exit  : 0/0
  6237 ;;		Unchanged: 0/0
  6238 ;; Data sizes:     COMRAM   BANK0   BANK1   BANK2   BANK3   BANK4   BANK5   BANK6   BANK7   BANK8   BANK9  BANK10  BANK1
      +1  BANK12  BANK13  BANK14  BANK15
  6239 ;;      Params:         0       0       0       0       0       0       0       0       0       0       0       0       
      +0       0       0       0       0
  6240 ;;      Locals:         0       0       0       0       0       0       0       0       0       0       0       0       
      +0       0       0       0       0
  6241 ;;      Temps:          0       0       0       0       0       0       0       0       0       0       0       0       
      +0       0       0       0       0
  6242 ;;      Totals:         0       0       0       0       0       0       0       0       0       0       0       0       
      +0       0       0       0       0
  6243 ;;Total ram usage:        0 bytes
  6244 ;; Hardware stack levels used: 1
  6245 ;; Hardware stack levels required when called: 3
  6246 ;; This function calls:
  6247 ;;		Nothing
  6248 ;; This function is called by:
  6249 ;;		_INTERRUPT_Initialize
  6250 ;;		_INT2_CallBack
  6251 ;; This function uses a non-reentrant model
  6252 ;;
  6253                           
  6254                           	psect	text71
  6255   001F10                     __ptext71:
  6256                           	callstack 0
  6257   001F10                     _INT2_DefaultInterruptHandler:
  6258                           	callstack 22
  6259   001F10  0012               	return		;funcret
  6260   001F12                     __end_of_INT2_DefaultInterruptHandler:
  6261                           	callstack 0
  6262                           
  6263 ;; *************** function _Timer1_GateISR *****************
  6264 ;; Defined at:
  6265 ;;		line 187 in file "mcc_generated_files/timer/src/tmr1.c"
  6266 ;; Parameters:    Size  Location     Type
  6267 ;;		None
  6268 ;; Auto vars:     Size  Location     Type
  6269 ;;		None
  6270 ;; Return value:  Size  Location     Type
  6271 ;;                  1    wreg      void 
  6272 ;; Registers used:
  6273 ;;		None
  6274 ;; Tracked objects:
  6275 ;;		On entry : 0/0
  6276 ;;		On exit  : 0/0
  6277 ;;		Unchanged: 0/0
  6278 ;; Data sizes:     COMRAM   BANK0   BANK1   BANK2   BANK3   BANK4   BANK5   BANK6   BANK7   BANK8   BANK9  BANK10  BANK1
      +1  BANK12  BANK13  BANK14  BANK15
  6279 ;;      Params:         0       0       0       0       0       0       0       0       0       0       0       0       
      +0       0       0       0       0
  6280 ;;      Locals:         0       0       0       0       0       0       0       0       0       0       0       0       
      +0       0       0       0       0
  6281 ;;      Temps:          0       0       0       0       0       0       0       0       0       0       0       0       
      +0       0       0       0       0
  6282 ;;      Totals:         0       0       0       0       0       0       0       0       0       0       0       0       
      +0       0       0       0       0
  6283 ;;Total ram usage:        0 bytes
  6284 ;; Hardware stack levels used: 1
  6285 ;; Hardware stack levels required when called: 3
  6286 ;; This function calls:
  6287 ;;		Nothing
  6288 ;; This function is called by:
  6289 ;;		Interrupt level 1
  6290 ;; This function uses a non-reentrant model
  6291 ;;
  6292                           
  6293                           	psect	text72
  6294   001EEC                     __ptext72:
  6295                           	callstack 0
  6296   001EEC                     _Timer1_GateISR:
  6297                           	callstack 24
  6298   001EEC                     
  6299                           ;mcc_generated_files/timer/src/tmr1.c: 190:     PIR4bits.TMR1GIF = 0;
  6300   001EEC  0139               	movlb	57	; () banked
  6301   001EEE  93A4               	bcf	164,1,b	;volatile
  6302   001EF0                     
  6303                           ; BSR set to: 57
  6304   001EF0  0011               	retfie		f
  6305   001EF2                     __end_of_Timer1_GateISR:
  6306                           	callstack 0
  6307                           
  6308 ;; *************** function _Default_ISR *****************
  6309 ;; Defined at:
  6310 ;;		line 100 in file "mcc_generated_files/system/src/interrupt.c"
  6311 ;; Parameters:    Size  Location     Type
  6312 ;;		None
  6313 ;; Auto vars:     Size  Location     Type
  6314 ;;		None
  6315 ;; Return value:  Size  Location     Type
  6316 ;;                  1    wreg      void 
  6317 ;; Registers used:
  6318 ;;		None
  6319 ;; Tracked objects:
  6320 ;;		On entry : 0/0
  6321 ;;		On exit  : 0/0
  6322 ;;		Unchanged: 0/0
  6323 ;; Data sizes:     COMRAM   BANK0   BANK1   BANK2   BANK3   BANK4   BANK5   BANK6   BANK7   BANK8   BANK9  BANK10  BANK1
      +1  BANK12  BANK13  BANK14  BANK15
  6324 ;;      Params:         0       0       0       0       0       0       0       0       0       0       0       0       
      +0       0       0       0       0
  6325 ;;      Locals:         0       0       0       0       0       0       0       0       0       0       0       0       
      +0       0       0       0       0
  6326 ;;      Temps:          0       0       0       0       0       0       0       0       0       0       0       0       
      +0       0       0       0       0
  6327 ;;      Totals:         0       0       0       0       0       0       0       0       0       0       0       0       
      +0       0       0       0       0
  6328 ;;Total ram usage:        0 bytes
  6329 ;; Hardware stack levels used: 1
  6330 ;; This function calls:
  6331 ;;		Nothing
  6332 ;; This function is called by:
  6333 ;;		Interrupt level 2
  6334 ;; This function uses a non-reentrant model
  6335 ;;
  6336                           
  6337                           	psect	text73
  6338   001F14                     __ptext73:
  6339                           	callstack 0
  6340   001F14                     _Default_ISR:
  6341                           	callstack 24
  6342   001F14  0011               	retfie		f
  6343   001F16                     __end_of_Default_ISR:
  6344                           	callstack 0
  6345                           
  6346 ;; *************** function _Timer_OverflowISR *****************
  6347 ;; Defined at:
  6348 ;;		line 118 in file "mcc_generated_files/timer/src/tmr0.c"
  6349 ;; Parameters:    Size  Location     Type
  6350 ;;		None
  6351 ;; Auto vars:     Size  Location     Type
  6352 ;;		None
  6353 ;; Return value:  Size  Location     Type
  6354 ;;                  1    wreg      void 
  6355 ;; Registers used:
  6356 ;;		wreg, status,2, status,0, pcl, pclath, pclatu, tosl, cstack
  6357 ;; Tracked objects:
  6358 ;;		On entry : 0/0
  6359 ;;		On exit  : 0/0
  6360 ;;		Unchanged: 0/0
  6361 ;; Data sizes:     COMRAM   BANK0   BANK1   BANK2   BANK3   BANK4   BANK5   BANK6   BANK7   BANK8   BANK9  BANK10  BANK1
      +1  BANK12  BANK13  BANK14  BANK15
  6362 ;;      Params:         0       0       0       0       0       0       0       0       0       0       0       0       
      +0       0       0       0       0
  6363 ;;      Locals:         0       0       0       0       0       0       0       0       0       0       0       0       
      +0       0       0       0       0
  6364 ;;      Temps:          2       0       0       0       0       0       0       0       0       0       0       0       
      +0       0       0       0       0
  6365 ;;      Totals:         2       0       0       0       0       0       0       0       0       0       0       0       
      +0       0       0       0       0
  6366 ;;Total ram usage:        2 bytes
  6367 ;; Hardware stack levels used: 1
  6368 ;; Hardware stack levels required when called: 2
  6369 ;; This function calls:
  6370 ;;		Absolute function
  6371 ;;		_Timer1_DefaultOverflowCallback
  6372 ;;		_Timer2_DefaultOverflowCallback
  6373 ;;		_Timer_DefaultOverflowCallback
  6374 ;;		_Timer_int
  6375 ;; This function is called by:
  6376 ;;		Interrupt level 2
  6377 ;; This function uses a non-reentrant model
  6378 ;;
  6379                           
  6380                           	psect	text74
  6381   001700                     __ptext74:
  6382                           	callstack 0
  6383   001700                     _Timer_OverflowISR:
  6384                           	callstack 22
  6385                           
  6386                           ;incstack = 0
  6387   001700  006F FFE8  F02D    	movff	pclath,??_Timer_OverflowISR
  6388   001706  006F FFEC  F02E    	movff	pclatu,??_Timer_OverflowISR+1
  6389   00170C                     
  6390                           ;mcc_generated_files/timer/src/tmr0.c: 121:     PIR3bits.TMR0IF = 0;
  6391   00170C  0139               	movlb	57	; () banked
  6392   00170E  9FA3               	bcf	163,7,b	;volatile
  6393   001710                     
  6394                           ; BSR set to: 57
  6395                           ;mcc_generated_files/timer/src/tmr0.c: 123:     TMR0H = timerTMR0ReloadVal16bit >> 8;
  6396   001710  0100               	movlb	0	; () banked
  6397   001712  5191               	movf	(_timerTMR0ReloadVal16bit+1)& (0+255),w,b	;volatile
  6398   001714  6EB7               	movwf	183,c	;volatile
  6399   001716                     
  6400                           ; BSR set to: 0
  6401                           ;mcc_generated_files/timer/src/tmr0.c: 124:     TMR0L = (uint8_t) timerTMR0ReloadVal16bi
      +                          t;
  6402   001716  0060  F243  FFB6   	movff	_timerTMR0ReloadVal16bit,16310	;volatile
  6403   00171C                     
  6404                           ; BSR set to: 0
  6405                           ;mcc_generated_files/timer/src/tmr0.c: 128:     if(Timer_OverflowCallback)
  6406   00171C  518E               	movf	_Timer_OverflowCallback& (0+255),w,b
  6407   00171E  118F               	iorwf	(_Timer_OverflowCallback+1)& (0+255),w,b
  6408   001720  B4D8               	btfsc	status,2,c
  6409   001722  EF95  F00B         	goto	i2u134_41
  6410   001726  EF97  F00B         	goto	i2u134_40
  6411   00172A                     i2u134_41:
  6412   00172A  EFA3  F00B         	goto	i2l980
  6413   00172E                     i2u134_40:
  6414   00172E                     
  6415                           ; BSR set to: 0
  6416                           ;mcc_generated_files/timer/src/tmr0.c: 129:     {;mcc_generated_files/timer/src/tmr0.c: 
      +                          130:         Timer_OverflowCallback();
  6417   00172E  D802               	call	i2u135_48
  6418   001730  EFA3  F00B         	goto	i2u135_49
  6419   001734                     i2u135_48:
  6420   001734  0005               	push	
  6421   001736  6EFA               	movwf	pclath,c
  6422   001738  518E               	movf	_Timer_OverflowCallback& (0+255),w,b
  6423   00173A  6EFD               	movwf	tosl,c
  6424   00173C  518F               	movf	(_Timer_OverflowCallback+1)& (0+255),w,b
  6425   00173E  6EFE               	movwf	tosh,c
  6426   001740  6AFF               	clrf	tosu,c
  6427   001742  50FA               	movf	pclath,w,c
  6428   001744  0012               	return		;indir
  6429   001746                     i2u135_49:
  6430   001746                     i2l980:
  6431   001746  0060  F0BB  FFFB   	movff	??_Timer_OverflowISR+1,pclatu
  6432   00174C  0060  F0B7  FFFA   	movff	??_Timer_OverflowISR,pclath
  6433   001752  0011               	retfie		f
  6434   001754                     __end_of_Timer_OverflowISR:
  6435                           	callstack 0
  6436                           
  6437 ;; *************** function _Timer1_DefaultOverflowCallback *****************
  6438 ;; Defined at:
  6439 ;;		line 176 in file "mcc_generated_files/timer/src/tmr1.c"
  6440 ;; Parameters:    Size  Location     Type
  6441 ;;		None
  6442 ;; Auto vars:     Size  Location     Type
  6443 ;;		None
  6444 ;; Return value:  Size  Location     Type
  6445 ;;                  1    wreg      void 
  6446 ;; Registers used:
  6447 ;;		None
  6448 ;; Tracked objects:
  6449 ;;		On entry : 0/0
  6450 ;;		On exit  : 0/0
  6451 ;;		Unchanged: 0/0
  6452 ;; Data sizes:     COMRAM   BANK0   BANK1   BANK2   BANK3   BANK4   BANK5   BANK6   BANK7   BANK8   BANK9  BANK10  BANK1
      +1  BANK12  BANK13  BANK14  BANK15
  6453 ;;      Params:         0       0       0       0       0       0       0       0       0       0       0       0       
      +0       0       0       0       0
  6454 ;;      Locals:         0       0       0       0       0       0       0       0       0       0       0       0       
      +0       0       0       0       0
  6455 ;;      Temps:          0       0       0       0       0       0       0       0       0       0       0       0       
      +0       0       0       0       0
  6456 ;;      Totals:         0       0       0       0       0       0       0       0       0       0       0       0       
      +0       0       0       0       0
  6457 ;;Total ram usage:        0 bytes
  6458 ;; Hardware stack levels used: 1
  6459 ;; This function calls:
  6460 ;;		Nothing
  6461 ;; This function is called by:
  6462 ;;		_Timer1_Initialize
  6463 ;;		_Timer_OverflowISR
  6464 ;;		_Timer2_ISR
  6465 ;;		_Timer1_OverflowISR
  6466 ;; This function uses a non-reentrant model
  6467 ;;
  6468                           
  6469                           	psect	text75
  6470   001F16                     __ptext75:
  6471                           	callstack 0
  6472   001F16                     _Timer1_DefaultOverflowCallback:
  6473                           	callstack 23
  6474   001F16  0012               	return		;funcret
  6475   001F18                     __end_of_Timer1_DefaultOverflowCallback:
  6476                           	callstack 0
  6477                           
  6478 ;; *************** function _Timer2_DefaultOverflowCallback *****************
  6479 ;; Defined at:
  6480 ;;		line 145 in file "mcc_generated_files/timer/src/tmr2.c"
  6481 ;; Parameters:    Size  Location     Type
  6482 ;;		None
  6483 ;; Auto vars:     Size  Location     Type
  6484 ;;		None
  6485 ;; Return value:  Size  Location     Type
  6486 ;;                  1    wreg      void 
  6487 ;; Registers used:
  6488 ;;		None
  6489 ;; Tracked objects:
  6490 ;;		On entry : 0/0
  6491 ;;		On exit  : 0/0
  6492 ;;		Unchanged: 0/0
  6493 ;; Data sizes:     COMRAM   BANK0   BANK1   BANK2   BANK3   BANK4   BANK5   BANK6   BANK7   BANK8   BANK9  BANK10  BANK1
      +1  BANK12  BANK13  BANK14  BANK15
  6494 ;;      Params:         0       0       0       0       0       0       0       0       0       0       0       0       
      +0       0       0       0       0
  6495 ;;      Locals:         0       0       0       0       0       0       0       0       0       0       0       0       
      +0       0       0       0       0
  6496 ;;      Temps:          0       0       0       0       0       0       0       0       0       0       0       0       
      +0       0       0       0       0
  6497 ;;      Totals:         0       0       0       0       0       0       0       0       0       0       0       0       
      +0       0       0       0       0
  6498 ;;Total ram usage:        0 bytes
  6499 ;; Hardware stack levels used: 1
  6500 ;; This function calls:
  6501 ;;		Nothing
  6502 ;; This function is called by:
  6503 ;;		_Timer2_Initialize
  6504 ;;		_Timer_OverflowISR
  6505 ;;		_Timer2_ISR
  6506 ;;		_Timer1_OverflowISR
  6507 ;; This function uses a non-reentrant model
  6508 ;;
  6509                           
  6510                           	psect	text76
  6511   001F18                     __ptext76:
  6512                           	callstack 0
  6513   001F18                     _Timer2_DefaultOverflowCallback:
  6514                           	callstack 23
  6515   001F18  0012               	return		;funcret
  6516   001F1A                     __end_of_Timer2_DefaultOverflowCallback:
  6517                           	callstack 0
  6518                           
  6519 ;; *************** function _Timer_DefaultOverflowCallback *****************
  6520 ;; Defined at:
  6521 ;;		line 139 in file "mcc_generated_files/timer/src/tmr0.c"
  6522 ;; Parameters:    Size  Location     Type
  6523 ;;		None
  6524 ;; Auto vars:     Size  Location     Type
  6525 ;;		None
  6526 ;; Return value:  Size  Location     Type
  6527 ;;                  1    wreg      void 
  6528 ;; Registers used:
  6529 ;;		None
  6530 ;; Tracked objects:
  6531 ;;		On entry : 0/0
  6532 ;;		On exit  : 0/0
  6533 ;;		Unchanged: 0/0
  6534 ;; Data sizes:     COMRAM   BANK0   BANK1   BANK2   BANK3   BANK4   BANK5   BANK6   BANK7   BANK8   BANK9  BANK10  BANK1
      +1  BANK12  BANK13  BANK14  BANK15
  6535 ;;      Params:         0       0       0       0       0       0       0       0       0       0       0       0       
      +0       0       0       0       0
  6536 ;;      Locals:         0       0       0       0       0       0       0       0       0       0       0       0       
      +0       0       0       0       0
  6537 ;;      Temps:          0       0       0       0       0       0       0       0       0       0       0       0       
      +0       0       0       0       0
  6538 ;;      Totals:         0       0       0       0       0       0       0       0       0       0       0       0       
      +0       0       0       0       0
  6539 ;;Total ram usage:        0 bytes
  6540 ;; Hardware stack levels used: 1
  6541 ;; This function calls:
  6542 ;;		Nothing
  6543 ;; This function is called by:
  6544 ;;		_Timer_Initialize
  6545 ;;		_Timer_OverflowISR
  6546 ;;		_Timer2_ISR
  6547 ;;		_Timer1_OverflowISR
  6548 ;; This function uses a non-reentrant model
  6549 ;;
  6550                           
  6551                           	psect	text77
  6552   001F1A                     __ptext77:
  6553                           	callstack 0
  6554   001F1A                     _Timer_DefaultOverflowCallback:
  6555                           	callstack 23
  6556   001F1A  0012               	return		;funcret
  6557   001F1C                     __end_of_Timer_DefaultOverflowCallback:
  6558                           	callstack 0
  6559                           
  6560 ;; *************** function _Timer_int *****************
  6561 ;; Defined at:
  6562 ;;		line 7 in file "Timer_int.c"
  6563 ;; Parameters:    Size  Location     Type
  6564 ;;		None
  6565 ;; Auto vars:     Size  Location     Type
  6566 ;;		None
  6567 ;; Return value:  Size  Location     Type
  6568 ;;                  1    wreg      void 
  6569 ;; Registers used:
  6570 ;;		wreg, status,2, status,0, cstack
  6571 ;; Tracked objects:
  6572 ;;		On entry : 0/0
  6573 ;;		On exit  : 0/0
  6574 ;;		Unchanged: 0/0
  6575 ;; Data sizes:     COMRAM   BANK0   BANK1   BANK2   BANK3   BANK4   BANK5   BANK6   BANK7   BANK8   BANK9  BANK10  BANK1
      +1  BANK12  BANK13  BANK14  BANK15
  6576 ;;      Params:         0       0       0       0       0       0       0       0       0       0       0       0       
      +0       0       0       0       0
  6577 ;;      Locals:         0       0       0       0       0       0       0       0       0       0       0       0       
      +0       0       0       0       0
  6578 ;;      Temps:          1       0       0       0       0       0       0       0       0       0       0       0       
      +0       0       0       0       0
  6579 ;;      Totals:         1       0       0       0       0       0       0       0       0       0       0       0       
      +0       0       0       0       0
  6580 ;;Total ram usage:        1 bytes
  6581 ;; Hardware stack levels used: 1
  6582 ;; Hardware stack levels required when called: 1
  6583 ;; This function calls:
  6584 ;;		i2_ADCC_StartConversion
  6585 ;; This function is called by:
  6586 ;;		_main
  6587 ;;		_Timer_OverflowISR
  6588 ;;		_Timer2_ISR
  6589 ;;		_Timer1_OverflowISR
  6590 ;; This function uses a non-reentrant model
  6591 ;;
  6592                           
  6593                           	psect	text78
  6594   0017F8                     __ptext78:
  6595                           	callstack 0
  6596   0017F8                     _Timer_int:
  6597                           	callstack 22
  6598   0017F8                     
  6599                           ;Timer_int.c: 10:     LATDbits.LATD0 = !LATDbits.LATD0;
  6600   0017F8  A0BD               	btfss	189,0,c	;volatile
  6601   0017FA  EF01  F00C         	goto	i2u109_41
  6602   0017FE  EF05  F00C         	goto	i2u109_40
  6603   001802                     i2u109_41:
  6604   001802  6A34               	clrf	??_Timer_int^0,c
  6605   001804  2A34               	incf	??_Timer_int^0,f,c
  6606   001806  EF06  F00C         	goto	i2u110_48
  6607   00180A                     i2u109_40:
  6608   00180A  6A34               	clrf	??_Timer_int^0,c
  6609   00180C                     i2u110_48:
  6610   00180C  50BD               	movf	189,w,c	;volatile
  6611   00180E  1834               	xorwf	??_Timer_int^0,w,c
  6612   001810  0BFE               	andlw	-2
  6613   001812  1834               	xorwf	??_Timer_int^0,w,c
  6614   001814  6EBD               	movwf	189,c	;volatile
  6615   001816                     
  6616                           ;Timer_int.c: 11:     static int count = 0;;Timer_int.c: 12:     count++;
  6617   001816  4A0E               	infsnz	Timer_int@count^0,f,c
  6618   001818  2A0F               	incf	(Timer_int@count+1)^0,f,c
  6619   00181A                     
  6620                           ;Timer_int.c: 14:     if(count == PERIOD)
  6621   00181A  5046               	movf	_PERIOD^0,w,c
  6622   00181C  180E               	xorwf	Timer_int@count^0,w,c
  6623   00181E  E107               	bnz	i2u111_41
  6624   001820  5047               	movf	(_PERIOD+1)^0,w,c
  6625   001822  180F               	xorwf	(Timer_int@count+1)^0,w,c
  6626   001824  A4D8               	btfss	status,2,c
  6627   001826  EF17  F00C         	goto	i2u111_41
  6628   00182A  EF19  F00C         	goto	i2u111_40
  6629   00182E                     i2u111_41:
  6630   00182E  EF20  F00C         	goto	i2l1536
  6631   001832                     i2u111_40:
  6632   001832                     
  6633                           ;Timer_int.c: 15:     {;Timer_int.c: 17:         count = 0;
  6634   001832  0E00               	movlw	0
  6635   001834  6E0F               	movwf	(Timer_int@count+1)^0,c
  6636   001836  0E00               	movlw	0
  6637   001838  6E0E               	movwf	Timer_int@count^0,c
  6638   00183A                     
  6639                           ;Timer_int.c: 18:         ADCC_StartConversion(channel_ANA0);
  6640   00183A  0E00               	movlw	0
  6641   00183C  EC14  F00F         	call	i2_ADCC_StartConversion
  6642   001840                     i2l1536:
  6643   001840  0012               	return		;funcret
  6644   001842                     __end_of_Timer_int:
  6645                           	callstack 0
  6646                           
  6647 ;; *************** function i2_ADCC_StartConversion *****************
  6648 ;; Defined at:
  6649 ;;		line 106 in file "mcc_generated_files/adc/src/adcc.c"
  6650 ;; Parameters:    Size  Location     Type
  6651 ;;  channel         1    wreg     enum E15846
  6652 ;; Auto vars:     Size  Location     Type
  6653 ;;  channel         1    8[COMRAM] enum E15846
  6654 ;; Return value:  Size  Location     Type
  6655 ;;                  1    wreg      void 
  6656 ;; Registers used:
  6657 ;;		wreg
  6658 ;; Tracked objects:
  6659 ;;		On entry : 0/0
  6660 ;;		On exit  : 0/0
  6661 ;;		Unchanged: 0/0
  6662 ;; Data sizes:     COMRAM   BANK0   BANK1   BANK2   BANK3   BANK4   BANK5   BANK6   BANK7   BANK8   BANK9  BANK10  BANK1
      +1  BANK12  BANK13  BANK14  BANK15
  6663 ;;      Params:         0       0       0       0       0       0       0       0       0       0       0       0       
      +0       0       0       0       0
  6664 ;;      Locals:         1       0       0       0       0       0       0       0       0       0       0       0       
      +0       0       0       0       0
  6665 ;;      Temps:          0       0       0       0       0       0       0       0       0       0       0       0       
      +0       0       0       0       0
  6666 ;;      Totals:         1       0       0       0       0       0       0       0       0       0       0       0       
      +0       0       0       0       0
  6667 ;;Total ram usage:        1 bytes
  6668 ;; Hardware stack levels used: 1
  6669 ;; This function calls:
  6670 ;;		Nothing
  6671 ;; This function is called by:
  6672 ;;		_Timer_int
  6673 ;; This function uses a non-reentrant model
  6674 ;;
  6675                           
  6676                           	psect	text79
  6677   001E28                     __ptext79:
  6678                           	callstack 0
  6679   001E28                     i2_ADCC_StartConversion:
  6680                           	callstack 22
  6681                           
  6682                           ;incstack = 0
  6683                           ;i2ADCC_StartConversion@channel stored from wreg
  6684   001E28  6E33               	movwf	i2ADCC_StartConversion@channel^0,c
  6685   001E2A                     
  6686                           ;mcc_generated_files/adc/src/adcc.c: 106: void ADCC_StartConversion(adcc_channel_t chann
      +                          el);mcc_generated_files/adc/src/adcc.c: 107: {;mcc_generated_files/adc/src/adcc.c: 109: 
      +                              ADPCH = channel;
  6687   001E2A  0060  F0CF  FEF1   	movff	i2ADCC_StartConversion@channel,16113	;volatile
  6688   001E30                     
  6689                           ;mcc_generated_files/adc/src/adcc.c: 112:     ADCON0bits.ADGO = 1;
  6690   001E30  013E               	movlb	62	; () banked
  6691   001E32  81F8               	bsf	248,0,b	;volatile
  6692   001E34                     
  6693                           ; BSR set to: 62
  6694   001E34  0012               	return		;funcret
  6695   001E36                     __end_ofi2_ADCC_StartConversion:
  6696                           	callstack 0
  6697                           
  6698 ;; *************** function _Timer2_ISR *****************
  6699 ;; Defined at:
  6700 ;;		line 125 in file "mcc_generated_files/timer/src/tmr2.c"
  6701 ;; Parameters:    Size  Location     Type
  6702 ;;		None
  6703 ;; Auto vars:     Size  Location     Type
  6704 ;;		None
  6705 ;; Return value:  Size  Location     Type
  6706 ;;                  1    wreg      void 
  6707 ;; Registers used:
  6708 ;;		wreg, status,2, status,0, pcl, pclath, pclatu, tosl, cstack
  6709 ;; Tracked objects:
  6710 ;;		On entry : 0/0
  6711 ;;		On exit  : 0/0
  6712 ;;		Unchanged: 0/0
  6713 ;; Data sizes:     COMRAM   BANK0   BANK1   BANK2   BANK3   BANK4   BANK5   BANK6   BANK7   BANK8   BANK9  BANK10  BANK1
      +1  BANK12  BANK13  BANK14  BANK15
  6714 ;;      Params:         0       0       0       0       0       0       0       0       0       0       0       0       
      +0       0       0       0       0
  6715 ;;      Locals:         0       0       0       0       0       0       0       0       0       0       0       0       
      +0       0       0       0       0
  6716 ;;      Temps:          2       0       0       0       0       0       0       0       0       0       0       0       
      +0       0       0       0       0
  6717 ;;      Totals:         2       0       0       0       0       0       0       0       0       0       0       0       
      +0       0       0       0       0
  6718 ;;Total ram usage:        2 bytes
  6719 ;; Hardware stack levels used: 1
  6720 ;; Hardware stack levels required when called: 2
  6721 ;; This function calls:
  6722 ;;		Absolute function
  6723 ;;		_Timer1_DefaultOverflowCallback
  6724 ;;		_Timer2_DefaultOverflowCallback
  6725 ;;		_Timer2_Stop
  6726 ;;		_Timer_DefaultOverflowCallback
  6727 ;;		_Timer_int
  6728 ;; This function is called by:
  6729 ;;		Interrupt level 2
  6730 ;; This function uses a non-reentrant model
  6731 ;;
  6732                           
  6733                           	psect	text80
  6734   001754                     __ptext80:
  6735                           	callstack 0
  6736   001754                     _Timer2_ISR:
  6737                           	callstack 22
  6738                           
  6739                           ; BSR set to: 62
  6740                           ;incstack = 0
  6741   001754  006F FFE8  F031    	movff	pclath,??_Timer2_ISR
  6742   00175A  006F FFEC  F032    	movff	pclatu,??_Timer2_ISR+1
  6743   001760                     
  6744                           ;mcc_generated_files/timer/src/tmr2.c: 128:      PIR4bits.TMR2IF = 0;
  6745   001760  0139               	movlb	57	; () banked
  6746   001762  95A4               	bcf	164,2,b	;volatile
  6747                           
  6748                           ;mcc_generated_files/timer/src/tmr2.c: 130:      LATEbits.LATE0 = 1;
  6749   001764  80BE               	bsf	190,0,c	;volatile
  6750                           
  6751                           ;mcc_generated_files/timer/src/tmr2.c: 131:              LATBbits.LATB4 = 0;
  6752   001766  98BB               	bcf	187,4,c	;volatile
  6753                           
  6754                           ;mcc_generated_files/timer/src/tmr2.c: 133:         LATBbits.LATB4 = 1;
  6755   001768  88BB               	bsf	187,4,c	;volatile
  6756   00176A                     
  6757                           ; BSR set to: 57
  6758                           ;mcc_generated_files/timer/src/tmr2.c: 134:     if(Timer2_OverflowCallback)
  6759   00176A  0100               	movlb	0	; () banked
  6760   00176C  518C               	movf	_Timer2_OverflowCallback& (0+255),w,b
  6761   00176E  118D               	iorwf	(_Timer2_OverflowCallback+1)& (0+255),w,b
  6762   001770  B4D8               	btfsc	status,2,c
  6763   001772  EFBD  F00B         	goto	i2u136_41
  6764   001776  EFBF  F00B         	goto	i2u136_40
  6765   00177A                     i2u136_41:
  6766   00177A  EFCB  F00B         	goto	i2l3978
  6767   00177E                     i2u136_40:
  6768   00177E                     
  6769                           ; BSR set to: 0
  6770                           ;mcc_generated_files/timer/src/tmr2.c: 135:     {;mcc_generated_files/timer/src/tmr2.c: 
      +                          136:         Timer2_OverflowCallback();
  6771   00177E  D802               	call	i2u137_48
  6772   001780  EFCB  F00B         	goto	i2u137_49
  6773   001784                     i2u137_48:
  6774   001784  0005               	push	
  6775   001786  6EFA               	movwf	pclath,c
  6776   001788  518C               	movf	_Timer2_OverflowCallback& (0+255),w,b
  6777   00178A  6EFD               	movwf	tosl,c
  6778   00178C  518D               	movf	(_Timer2_OverflowCallback+1)& (0+255),w,b
  6779   00178E  6EFE               	movwf	tosh,c
  6780   001790  6AFF               	clrf	tosu,c
  6781   001792  50FA               	movf	pclath,w,c
  6782   001794  0012               	return		;indir
  6783   001796                     i2u137_49:
  6784   001796                     i2l3978:
  6785                           
  6786                           ;mcc_generated_files/timer/src/tmr2.c: 138: Timer2_Stop();
  6787   001796  EC81  F00F         	call	_Timer2_Stop	;wreg free
  6788   00179A  0060  F0CB  FFFB   	movff	??_Timer2_ISR+1,pclatu
  6789   0017A0  0060  F0C7  FFFA   	movff	??_Timer2_ISR,pclath
  6790   0017A6  0011               	retfie		f
  6791   0017A8                     __end_of_Timer2_ISR:
  6792                           	callstack 0
  6793                           
  6794 ;; *************** function _Timer2_Stop *****************
  6795 ;; Defined at:
  6796 ;;		line 101 in file "mcc_generated_files/timer/src/tmr2.c"
  6797 ;; Parameters:    Size  Location     Type
  6798 ;;		None
  6799 ;; Auto vars:     Size  Location     Type
  6800 ;;		None
  6801 ;; Return value:  Size  Location     Type
  6802 ;;                  1    wreg      void 
  6803 ;; Registers used:
  6804 ;;		None
  6805 ;; Tracked objects:
  6806 ;;		On entry : 0/0
  6807 ;;		On exit  : 0/0
  6808 ;;		Unchanged: 0/0
  6809 ;; Data sizes:     COMRAM   BANK0   BANK1   BANK2   BANK3   BANK4   BANK5   BANK6   BANK7   BANK8   BANK9  BANK10  BANK1
      +1  BANK12  BANK13  BANK14  BANK15
  6810 ;;      Params:         0       0       0       0       0       0       0       0       0       0       0       0       
      +0       0       0       0       0
  6811 ;;      Locals:         0       0       0       0       0       0       0       0       0       0       0       0       
      +0       0       0       0       0
  6812 ;;      Temps:          0       0       0       0       0       0       0       0       0       0       0       0       
      +0       0       0       0       0
  6813 ;;      Totals:         0       0       0       0       0       0       0       0       0       0       0       0       
      +0       0       0       0       0
  6814 ;;Total ram usage:        0 bytes
  6815 ;; Hardware stack levels used: 1
  6816 ;; This function calls:
  6817 ;;		Nothing
  6818 ;; This function is called by:
  6819 ;;		_Timer2_ISR
  6820 ;; This function uses a non-reentrant model
  6821 ;;
  6822                           
  6823                           	psect	text81
  6824   001F02                     __ptext81:
  6825                           	callstack 0
  6826   001F02                     _Timer2_Stop:
  6827                           	callstack 23
  6828   001F02                     
  6829                           ;mcc_generated_files/timer/src/tmr2.c: 104:     T2CONbits.TMR2ON = 0;
  6830   001F02  9EAC               	bcf	172,7,c	;volatile
  6831   001F04  0012               	return		;funcret
  6832   001F06                     __end_of_Timer2_Stop:
  6833                           	callstack 0
  6834                           
  6835 ;; *************** function _Timer1_OverflowISR *****************
  6836 ;; Defined at:
  6837 ;;		line 156 in file "mcc_generated_files/timer/src/tmr1.c"
  6838 ;; Parameters:    Size  Location     Type
  6839 ;;		None
  6840 ;; Auto vars:     Size  Location     Type
  6841 ;;		None
  6842 ;; Return value:  Size  Location     Type
  6843 ;;                  1    wreg      void 
  6844 ;; Registers used:
  6845 ;;		wreg, status,2, status,0, pcl, pclath, pclatu, tosl, cstack
  6846 ;; Tracked objects:
  6847 ;;		On entry : 0/0
  6848 ;;		On exit  : 0/0
  6849 ;;		Unchanged: 0/0
  6850 ;; Data sizes:     COMRAM   BANK0   BANK1   BANK2   BANK3   BANK4   BANK5   BANK6   BANK7   BANK8   BANK9  BANK10  BANK1
      +1  BANK12  BANK13  BANK14  BANK15
  6851 ;;      Params:         0       0       0       0       0       0       0       0       0       0       0       0       
      +0       0       0       0       0
  6852 ;;      Locals:         0       0       0       0       0       0       0       0       0       0       0       0       
      +0       0       0       0       0
  6853 ;;      Temps:          3       0       0       0       0       0       0       0       0       0       0       0       
      +0       0       0       0       0
  6854 ;;      Totals:         3       0       0       0       0       0       0       0       0       0       0       0       
      +0       0       0       0       0
  6855 ;;Total ram usage:        3 bytes
  6856 ;; Hardware stack levels used: 1
  6857 ;; Hardware stack levels required when called: 2
  6858 ;; This function calls:
  6859 ;;		Absolute function
  6860 ;;		_Timer1_DefaultOverflowCallback
  6861 ;;		_Timer1_Write
  6862 ;;		_Timer2_DefaultOverflowCallback
  6863 ;;		_Timer_DefaultOverflowCallback
  6864 ;;		_Timer_int
  6865 ;; This function is called by:
  6866 ;;		Interrupt level 2
  6867 ;; This function uses a non-reentrant model
  6868 ;;
  6869                           
  6870                           	psect	text82
  6871   001560                     __ptext82:
  6872                           	callstack 0
  6873   001560                     _Timer1_OverflowISR:
  6874                           	callstack 22
  6875                           
  6876                           ;incstack = 0
  6877   001560  006F FFE8  F036    	movff	pclath,??_Timer1_OverflowISR+1
  6878   001566  006F FFEC  F037    	movff	pclatu,??_Timer1_OverflowISR+2
  6879   00156C                     
  6880                           ;mcc_generated_files/timer/src/tmr1.c: 159:     static int a = 0;;mcc_generated_files/ti
      +                          mer/src/tmr1.c: 162:     PIR4bits.TMR1IF = 0;
  6881   00156C  0139               	movlb	57	; () banked
  6882   00156E  91A4               	bcf	164,0,b	;volatile
  6883   001570                     
  6884                           ; BSR set to: 57
  6885                           ;mcc_generated_files/timer/src/tmr1.c: 163:     Timer1_Write(0xE757);
  6886   001570  0EE7               	movlw	231
  6887   001572  6E34               	movwf	(Timer1_Write@timerVal+1)^0,c
  6888   001574  0E57               	movlw	87
  6889   001576  6E33               	movwf	Timer1_Write@timerVal^0,c
  6890   001578  ECCE  F00D         	call	_Timer1_Write	;wreg free
  6891   00157C                     
  6892                           ;mcc_generated_files/timer/src/tmr1.c: 164:     LATDbits.LATD1 = !LATDbits.LATD1;
  6893   00157C  A2BD               	btfss	189,1,c	;volatile
  6894   00157E  EFC3  F00A         	goto	i2u138_41
  6895   001582  EFC7  F00A         	goto	i2u138_40
  6896   001586                     i2u138_41:
  6897   001586  6A35               	clrf	??_Timer1_OverflowISR^0,c
  6898   001588  2A35               	incf	??_Timer1_OverflowISR^0,f,c
  6899   00158A  EFC8  F00A         	goto	i2u139_48
  6900   00158E                     i2u138_40:
  6901   00158E  6A35               	clrf	??_Timer1_OverflowISR^0,c
  6902   001590                     i2u139_48:
  6903   001590  4635               	rlncf	??_Timer1_OverflowISR^0,f,c
  6904   001592  50BD               	movf	189,w,c	;volatile
  6905   001594  1835               	xorwf	??_Timer1_OverflowISR^0,w,c
  6906   001596  0BFD               	andlw	-3
  6907   001598  1835               	xorwf	??_Timer1_OverflowISR^0,w,c
  6908   00159A  6EBD               	movwf	189,c	;volatile
  6909   00159C                     
  6910                           ;mcc_generated_files/timer/src/tmr1.c: 165:     if(Timer1_OverflowCallback)
  6911   00159C  501C               	movf	_Timer1_OverflowCallback^0,w,c
  6912   00159E  101D               	iorwf	(_Timer1_OverflowCallback+1)^0,w,c
  6913   0015A0  B4D8               	btfsc	status,2,c
  6914   0015A2  EFD5  F00A         	goto	i2u140_41
  6915   0015A6  EFD7  F00A         	goto	i2u140_40
  6916   0015AA                     i2u140_41:
  6917   0015AA  EFE3  F00A         	goto	i2l1147
  6918   0015AE                     i2u140_40:
  6919   0015AE                     
  6920                           ;mcc_generated_files/timer/src/tmr1.c: 166:     {;mcc_generated_files/timer/src/tmr1.c: 
      +                          167:         Timer1_OverflowCallback();
  6921   0015AE  D802               	call	i2u141_48
  6922   0015B0  EFE3  F00A         	goto	i2u141_49
  6923   0015B4                     i2u141_48:
  6924   0015B4  0005               	push	
  6925   0015B6  6EFA               	movwf	pclath,c
  6926   0015B8  501C               	movf	_Timer1_OverflowCallback^0,w,c
  6927   0015BA  6EFD               	movwf	tosl,c
  6928   0015BC  501D               	movf	(_Timer1_OverflowCallback+1)^0,w,c
  6929   0015BE  6EFE               	movwf	tosh,c
  6930   0015C0  6AFF               	clrf	tosu,c
  6931   0015C2  50FA               	movf	pclath,w,c
  6932   0015C4  0012               	return		;indir
  6933   0015C6                     i2u141_49:
  6934   0015C6                     i2l1147:
  6935   0015C6  0060  F0DF  FFFB   	movff	??_Timer1_OverflowISR+2,pclatu
  6936   0015CC  0060  F0DB  FFFA   	movff	??_Timer1_OverflowISR+1,pclath
  6937   0015D2  0011               	retfie		f
  6938   0015D4                     __end_of_Timer1_OverflowISR:
  6939                           	callstack 0
  6940                           
  6941 ;; *************** function _Timer1_Write *****************
  6942 ;; Defined at:
  6943 ;;		line 114 in file "mcc_generated_files/timer/src/tmr1.c"
  6944 ;; Parameters:    Size  Location     Type
  6945 ;;  timerVal        2    8[COMRAM] unsigned int 
  6946 ;; Auto vars:     Size  Location     Type
  6947 ;;		None
  6948 ;; Return value:  Size  Location     Type
  6949 ;;                  1    wreg      void 
  6950 ;; Registers used:
  6951 ;;		wreg, status,2
  6952 ;; Tracked objects:
  6953 ;;		On entry : 0/0
  6954 ;;		On exit  : 0/0
  6955 ;;		Unchanged: 0/0
  6956 ;; Data sizes:     COMRAM   BANK0   BANK1   BANK2   BANK3   BANK4   BANK5   BANK6   BANK7   BANK8   BANK9  BANK10  BANK1
      +1  BANK12  BANK13  BANK14  BANK15
  6957 ;;      Params:         2       0       0       0       0       0       0       0       0       0       0       0       
      +0       0       0       0       0
  6958 ;;      Locals:         0       0       0       0       0       0       0       0       0       0       0       0       
      +0       0       0       0       0
  6959 ;;      Temps:          0       0       0       0       0       0       0       0       0       0       0       0       
      +0       0       0       0       0
  6960 ;;      Totals:         2       0       0       0       0       0       0       0       0       0       0       0       
      +0       0       0       0       0
  6961 ;;Total ram usage:        2 bytes
  6962 ;; Hardware stack levels used: 1
  6963 ;; This function calls:
  6964 ;;		Nothing
  6965 ;; This function is called by:
  6966 ;;		_Timer1_OverflowISR
  6967 ;;		_Timer1_Reload
  6968 ;; This function uses a non-reentrant model
  6969 ;;
  6970                           
  6971                           	psect	text83
  6972   001B9C                     __ptext83:
  6973                           	callstack 0
  6974   001B9C                     _Timer1_Write:
  6975                           	callstack 23
  6976   001B9C                     
  6977                           ;mcc_generated_files/timer/src/tmr1.c: 114: void Timer1_Write(size_t timerVal);mcc_gener
      +                          ated_files/timer/src/tmr1.c: 115: {;mcc_generated_files/timer/src/tmr1.c: 116:     if (T
      +                          1CONbits.NOT_SYNC == 1)
  6978   001B9C  A4B2               	btfss	178,2,c	;volatile
  6979   001B9E  EFD3  F00D         	goto	i2u105_41
  6980   001BA2  EFD5  F00D         	goto	i2u105_40
  6981   001BA6                     i2u105_41:
  6982   001BA6  EFDE  F00D         	goto	i2l3722
  6983   001BAA                     i2u105_40:
  6984   001BAA                     
  6985                           ;mcc_generated_files/timer/src/tmr1.c: 117:     {;mcc_generated_files/timer/src/tmr1.c: 
      +                          119:         T1CONbits.TMR1ON = 0;
  6986   001BAA  90B2               	bcf	178,0,c	;volatile
  6987   001BAC                     
  6988                           ;mcc_generated_files/timer/src/tmr1.c: 122:         TMR1H = (uint8_t)(timerVal >> 8);
  6989   001BAC  5034               	movf	(Timer1_Write@timerVal+1)^0,w,c
  6990   001BAE  6EB1               	movwf	177,c	;volatile
  6991   001BB0                     
  6992                           ;mcc_generated_files/timer/src/tmr1.c: 123:         TMR1L = (uint8_t)timerVal;
  6993   001BB0  0060  F0CF  FFB0   	movff	Timer1_Write@timerVal,16304	;volatile
  6994   001BB6                     
  6995                           ;mcc_generated_files/timer/src/tmr1.c: 126:         T1CONbits.TMR1ON = 1;
  6996   001BB6  80B2               	bsf	178,0,c	;volatile
  6997                           
  6998                           ;mcc_generated_files/timer/src/tmr1.c: 127:     }
  6999   001BB8  EFE3  F00D         	goto	i2l1127
  7000   001BBC                     i2l3722:
  7001                           
  7002                           ;mcc_generated_files/timer/src/tmr1.c: 129:     {;mcc_generated_files/timer/src/tmr1.c: 
      +                          131:         TMR1H = (uint8_t)(timerVal >> 8);
  7003   001BBC  5034               	movf	(Timer1_Write@timerVal+1)^0,w,c
  7004   001BBE  6EB1               	movwf	177,c	;volatile
  7005   001BC0                     
  7006                           ;mcc_generated_files/timer/src/tmr1.c: 132:         TMR1L = (uint8_t)timerVal;
  7007   001BC0  0060  F0CF  FFB0   	movff	Timer1_Write@timerVal,16304	;volatile
  7008   001BC6                     i2l1127:
  7009   001BC6  0012               	return		;funcret
  7010   001BC8                     __end_of_Timer1_Write:
  7011                           	callstack 0
  7012                           
  7013 ;; *************** function _UART1_Receive_Vector_ISR *****************
  7014 ;; Defined at:
  7015 ;;		line 336 in file "mcc_generated_files/uart/src/uart1.c"
  7016 ;; Parameters:    Size  Location     Type
  7017 ;;		None
  7018 ;; Auto vars:     Size  Location     Type
  7019 ;;		None
  7020 ;; Return value:  Size  Location     Type
  7021 ;;                  1    wreg      void 
  7022 ;; Registers used:
  7023 ;;		wreg, status,2, status,0
  7024 ;; Tracked objects:
  7025 ;;		On entry : 0/0
  7026 ;;		On exit  : 0/0
  7027 ;;		Unchanged: 0/0
  7028 ;; Data sizes:     COMRAM   BANK0   BANK1   BANK2   BANK3   BANK4   BANK5   BANK6   BANK7   BANK8   BANK9  BANK10  BANK1
      +1  BANK12  BANK13  BANK14  BANK15
  7029 ;;      Params:         0       0       0       0       0       0       0       0       0       0       0       0       
      +0       0       0       0       0
  7030 ;;      Locals:         0       0       0       0       0       0       0       0       0       0       0       0       
      +0       0       0       0       0
  7031 ;;      Temps:          2       0       0       0       0       0       0       0       0       0       0       0       
      +0       0       0       0       0
  7032 ;;      Totals:         2       0       0       0       0       0       0       0       0       0       0       0       
      +0       0       0       0       0
  7033 ;;Total ram usage:        2 bytes
  7034 ;; Hardware stack levels used: 1
  7035 ;; This function calls:
  7036 ;;		Nothing
  7037 ;; This function is called by:
  7038 ;;		Interrupt level 2
  7039 ;; This function uses a non-reentrant model
  7040 ;;
  7041                           
  7042                           	psect	text84
  7043   001910                     __ptext84:
  7044                           	callstack 0
  7045   001910                     _UART1_Receive_Vector_ISR:
  7046                           	callstack 24
  7047   001910                     
  7048                           ;mcc_generated_files/uart/src/uart1.c: 338:     static unsigned char status = 0;;mcc_gen
      +                          erated_files/uart/src/uart1.c: 339:     static uint16_t mesage = 1;;mcc_generated_files/
      +                          uart/src/uart1.c: 341:     if(status == 0)
  7049   001910  5024               	movf	UART1_Receive_Vector_ISR@status^0,w,c
  7050   001912  A4D8               	btfss	status,2,c
  7051   001914  EF8E  F00C         	goto	i2u69_41
  7052   001918  EF90  F00C         	goto	i2u69_40
  7053   00191C                     i2u69_41:
  7054   00191C  EF97  F00C         	goto	i2l3206
  7055   001920                     i2u69_40:
  7056   001920                     
  7057                           ;mcc_generated_files/uart/src/uart1.c: 342:     {;mcc_generated_files/uart/src/uart1.c: 
      +                          343:         status++;
  7058   001920  2A24               	incf	UART1_Receive_Vector_ISR@status^0,f,c
  7059   001922                     
  7060                           ;mcc_generated_files/uart/src/uart1.c: 344:         mesage = U1RXB;
  7061   001922  006F F7A0  F044    	movff	15848,UART1_Receive_Vector_ISR@mesage	;volatile
  7062   001928  6A45               	clrf	(UART1_Receive_Vector_ISR@mesage+1)^0,c
  7063                           
  7064                           ;mcc_generated_files/uart/src/uart1.c: 345:     }
  7065   00192A  EFA4  F00C         	goto	i2l1381
  7066   00192E                     i2l3206:
  7067                           
  7068                           ;mcc_generated_files/uart/src/uart1.c: 347:     {;mcc_generated_files/uart/src/uart1.c: 
      +                          348:         status = 0;
  7069   00192E  0E00               	movlw	0
  7070   001930  6E24               	movwf	UART1_Receive_Vector_ISR@status^0,c
  7071                           
  7072                           ;mcc_generated_files/uart/src/uart1.c: 349:         mesage = (mesage << 8) + U1RXB;
  7073   001932  5044               	movf	UART1_Receive_Vector_ISR@mesage^0,w,c
  7074   001934  6E38               	movwf	??_UART1_Receive_Vector_ISR^0,c
  7075   001936  013D               	movlb	61	; () banked
  7076   001938  51E8               	movf	232,w,b	;volatile
  7077   00193A  6E44               	movwf	UART1_Receive_Vector_ISR@mesage^0,c
  7078   00193C  C038  F045         	movff	??_UART1_Receive_Vector_ISR,UART1_Receive_Vector_ISR@mesage+1
  7079   001940                     
  7080                           ; BSR set to: 61
  7081                           ;mcc_generated_files/uart/src/uart1.c: 352:             PERIOD = mesage;
  7082   001940  C044  F046         	movff	UART1_Receive_Vector_ISR@mesage,_PERIOD
  7083   001944  C045  F047         	movff	UART1_Receive_Vector_ISR@mesage+1,_PERIOD+1
  7084   001948                     i2l1381:
  7085   001948  0011               	retfie		f
  7086   00194A                     __end_of_UART1_Receive_Vector_ISR:
  7087                           	callstack 0
  7088                           
  7089 ;; *************** function _UART1_Transmit_Vector_ISR *****************
  7090 ;; Defined at:
  7091 ;;		line 426 in file "mcc_generated_files/uart/src/uart1.c"
  7092 ;; Parameters:    Size  Location     Type
  7093 ;;		None
  7094 ;; Auto vars:     Size  Location     Type
  7095 ;;		None
  7096 ;; Return value:  Size  Location     Type
  7097 ;;                  1    wreg      void 
  7098 ;; Registers used:
  7099 ;;		wreg, fsr2l, fsr2h, status,2, status,0, cstack
  7100 ;; Tracked objects:
  7101 ;;		On entry : 0/0
  7102 ;;		On exit  : 0/0
  7103 ;;		Unchanged: 0/0
  7104 ;; Data sizes:     COMRAM   BANK0   BANK1   BANK2   BANK3   BANK4   BANK5   BANK6   BANK7   BANK8   BANK9  BANK10  BANK1
      +1  BANK12  BANK13  BANK14  BANK15
  7105 ;;      Params:         0       0       0       0       0       0       0       0       0       0       0       0       
      +0       0       0       0       0
  7106 ;;      Locals:         0       0       0       0       0       0       0       0       0       0       0       0       
      +0       0       0       0       0
  7107 ;;      Temps:          0       0       0       0       0       0       0       0       0       0       0       0       
      +0       0       0       0       0
  7108 ;;      Totals:         0       0       0       0       0       0       0       0       0       0       0       0       
      +0       0       0       0       0
  7109 ;;Total ram usage:        0 bytes
  7110 ;; Hardware stack levels used: 1
  7111 ;; Hardware stack levels required when called: 1
  7112 ;; This function calls:
  7113 ;;		_UART1_TransmitISR
  7114 ;; This function is called by:
  7115 ;;		Interrupt level 2
  7116 ;; This function uses a non-reentrant model
  7117 ;;
  7118                           
  7119                           	psect	text85
  7120   001EF4                     __ptext85:
  7121                           	callstack 0
  7122   001EF4                     _UART1_Transmit_Vector_ISR:
  7123                           	callstack 23
  7124   001EF4                     
  7125                           ;mcc_generated_files/uart/src/uart1.c: 429:     UART1_TransmitISR();
  7126   001EF4  ECC1  F00C         	call	_UART1_TransmitISR	;wreg free
  7127   001EF8  0011               	retfie		f
  7128   001EFA                     __end_of_UART1_Transmit_Vector_ISR:
  7129                           	callstack 0
  7130                           
  7131 ;; *************** function _UART1_TransmitISR *****************
  7132 ;; Defined at:
  7133 ;;		line 432 in file "mcc_generated_files/uart/src/uart1.c"
  7134 ;; Parameters:    Size  Location     Type
  7135 ;;		None
  7136 ;; Auto vars:     Size  Location     Type
  7137 ;;  tempTxTail      1   15[COMRAM] unsigned char 
  7138 ;; Return value:  Size  Location     Type
  7139 ;;                  1    wreg      void 
  7140 ;; Registers used:
  7141 ;;		wreg, fsr2l, fsr2h, status,2, status,0
  7142 ;; Tracked objects:
  7143 ;;		On entry : 0/0
  7144 ;;		On exit  : 0/0
  7145 ;;		Unchanged: 0/0
  7146 ;; Data sizes:     COMRAM   BANK0   BANK1   BANK2   BANK3   BANK4   BANK5   BANK6   BANK7   BANK8   BANK9  BANK10  BANK1
      +1  BANK12  BANK13  BANK14  BANK15
  7147 ;;      Params:         0       0       0       0       0       0       0       0       0       0       0       0       
      +0       0       0       0       0
  7148 ;;      Locals:         1       0       0       0       0       0       0       0       0       0       0       0       
      +0       0       0       0       0
  7149 ;;      Temps:          0       0       0       0       0       0       0       0       0       0       0       0       
      +0       0       0       0       0
  7150 ;;      Totals:         1       0       0       0       0       0       0       0       0       0       0       0       
      +0       0       0       0       0
  7151 ;;Total ram usage:        1 bytes
  7152 ;; Hardware stack levels used: 1
  7153 ;; This function calls:
  7154 ;;		Nothing
  7155 ;; This function is called by:
  7156 ;;		_UART1_Initialize
  7157 ;;		_UART1_Transmit_Vector_ISR
  7158 ;; This function uses a non-reentrant model
  7159 ;;
  7160                           
  7161                           	psect	text86
  7162   001982                     __ptext86:
  7163                           	callstack 0
  7164   001982                     _UART1_TransmitISR:
  7165                           	callstack 23
  7166   001982                     
  7167                           ;mcc_generated_files/uart/src/uart1.c: 434:     uint8_t tempTxTail;;mcc_generated_files/
      +                          uart/src/uart1.c: 436:     if(sizeof(uart1TxBuffer) > uart1TxBufferRemaining)
  7168   001982  0E10               	movlw	16
  7169   001984  6028               	cpfslt	_uart1TxBufferRemaining^0,c	;volatile
  7170   001986  EFC7  F00C         	goto	i2u107_41
  7171   00198A  EFC9  F00C         	goto	i2u107_40
  7172   00198E                     i2u107_41:
  7173   00198E  EFDA  F00C         	goto	i2l1406
  7174   001992                     i2u107_40:
  7175   001992                     
  7176                           ;mcc_generated_files/uart/src/uart1.c: 437:     {;mcc_generated_files/uart/src/uart1.c: 
      +                          438:        U1TXB = uart1TxBuffer[uart1TxTail];
  7177   001992  0E70               	movlw	low _uart1TxBuffer
  7178   001994  2429               	addwf	_uart1TxTail^0,w,c	;volatile
  7179   001996  6ED9               	movwf	fsr2l,c
  7180   001998  6ADA               	clrf	fsr2h,c
  7181   00199A  0E00               	movlw	high _uart1TxBuffer
  7182   00199C  22DA               	addwfc	fsr2h,f,c
  7183   00199E  50DF               	movf	indf2,w,c
  7184   0019A0  013D               	movlb	61	; () banked
  7185   0019A2  6FEA               	movwf	234,b	;volatile
  7186   0019A4                     
  7187                           ; BSR set to: 61
  7188                           ;mcc_generated_files/uart/src/uart1.c: 439:        tempTxTail = (uart1TxTail + 1) & ((16
      +                          ) - 1);
  7189   0019A4  2829               	incf	_uart1TxTail^0,w,c	;volatile
  7190   0019A6  0B0F               	andlw	15
  7191   0019A8  6E3A               	movwf	UART1_TransmitISR@tempTxTail^0,c
  7192   0019AA                     
  7193                           ; BSR set to: 61
  7194                           ;mcc_generated_files/uart/src/uart1.c: 441:        uart1TxTail = tempTxTail;
  7195   0019AA  C03A  F029         	movff	UART1_TransmitISR@tempTxTail,_uart1TxTail	;volatile
  7196   0019AE                     
  7197                           ; BSR set to: 61
  7198                           ;mcc_generated_files/uart/src/uart1.c: 442:        uart1TxBufferRemaining++;
  7199   0019AE  2A28               	incf	_uart1TxBufferRemaining^0,f,c	;volatile
  7200                           
  7201                           ;mcc_generated_files/uart/src/uart1.c: 443:     }
  7202   0019B0  EFDC  F00C         	goto	i2l1409
  7203   0019B4                     i2l1406:
  7204                           
  7205                           ;mcc_generated_files/uart/src/uart1.c: 445:     {;mcc_generated_files/uart/src/uart1.c: 
      +                          446:         PIE3bits.U1TXIE = 0;
  7206   0019B4  0139               	movlb	57	; () banked
  7207   0019B6  9993               	bcf	147,4,b	;volatile
  7208   0019B8                     i2l1409:
  7209   0019B8  0012               	return		;funcret
  7210   0019BA                     __end_of_UART1_TransmitISR:
  7211                           	callstack 0
  7212                           
  7213                           ;
  7214                           ; Interrupt Vector Table @ 0x8
  7215                           ;
  7216                           
  7217                           	psect	ivt0x8
  7218   000008                     __pivt0x8:
  7219                           	callstack 0
  7220   000008                     ivt0x8_base:
  7221                           	callstack 0
  7222                           
  7223                           ; Vector 0 : SWINT
  7224   000008  07C5               	dw	_Default_ISR shr (0+2)
  7225                           
  7226                           ; Vector 1 : HLVD
  7227   00000A  07C5               	dw	_Default_ISR shr (0+2)
  7228                           
  7229                           ; Vector 2 : OSF
  7230   00000C  07C5               	dw	_Default_ISR shr (0+2)
  7231                           
  7232                           ; Vector 3 : CSW
  7233   00000E  07C5               	dw	_Default_ISR shr (0+2)
  7234                           
  7235                           ; Vector 4 : NVM
  7236   000010  07C5               	dw	_Default_ISR shr (0+2)
  7237                           
  7238                           ; Vector 5 : SCAN
  7239   000012  07C5               	dw	_Default_ISR shr (0+2)
  7240                           
  7241                           ; Vector 6 : CRC
  7242   000014  07C5               	dw	_Default_ISR shr (0+2)
  7243                           
  7244                           ; Vector 7 : IOC
  7245   000016  07B9               	dw	_IOC_ISR shr (0+2)
  7246                           
  7247                           ; Vector 8 : INT0
  7248   000018  06A2               	dw	_INT0_ISR shr (0+2)
  7249                           
  7250                           ; Vector 9 : ZCD
  7251   00001A  07C5               	dw	_Default_ISR shr (0+2)
  7252                           
  7253                           ; Vector 10 : AD
  7254   00001C  05AA               	dw	_ADCC_ISR shr (0+2)
  7255                           
  7256                           ; Vector 11 : ADT
  7257   00001E  07C5               	dw	_Default_ISR shr (0+2)
  7258                           
  7259                           ; Vector 12 : CMP1
  7260   000020  07C5               	dw	_Default_ISR shr (0+2)
  7261                           
  7262                           ; Vector 13 : SMT1
  7263   000022  07C5               	dw	_Default_ISR shr (0+2)
  7264                           
  7265                           ; Vector 14 : SMT1PRA
  7266   000024  07C5               	dw	_Default_ISR shr (0+2)
  7267                           
  7268                           ; Vector 15 : SMT1PRW
  7269   000026  07C5               	dw	_Default_ISR shr (0+2)
  7270                           
  7271                           ; Vector 16 : DMA1SCNT
  7272   000028  07C5               	dw	_Default_ISR shr (0+2)
  7273                           
  7274                           ; Vector 17 : DMA1DCNT
  7275   00002A  07C5               	dw	_Default_ISR shr (0+2)
  7276                           
  7277                           ; Vector 18 : DMA1OR
  7278   00002C  07C5               	dw	_Default_ISR shr (0+2)
  7279                           
  7280                           ; Vector 19 : DMA1A
  7281   00002E  07C5               	dw	_Default_ISR shr (0+2)
  7282                           
  7283                           ; Vector 20 : SPI1RX
  7284   000030  07C5               	dw	_Default_ISR shr (0+2)
  7285                           
  7286                           ; Vector 21 : SPI1TX
  7287   000032  07C5               	dw	_Default_ISR shr (0+2)
  7288                           
  7289                           ; Vector 22 : SPI1
  7290   000034  07C5               	dw	_Default_ISR shr (0+2)
  7291                           
  7292                           ; Vector 23 : I2C1RX
  7293   000036  07C5               	dw	_Default_ISR shr (0+2)
  7294                           
  7295                           ; Vector 24 : I2C1TX
  7296   000038  07C5               	dw	_Default_ISR shr (0+2)
  7297                           
  7298                           ; Vector 25 : I2C1
  7299   00003A  07C5               	dw	_Default_ISR shr (0+2)
  7300                           
  7301                           ; Vector 26 : I2C1E
  7302   00003C  07C5               	dw	_Default_ISR shr (0+2)
  7303                           
  7304                           ; Vector 27 : U1RX
  7305   00003E  0644               	dw	_UART1_Receive_Vector_ISR shr (0+2)
  7306                           
  7307                           ; Vector 28 : U1TX
  7308   000040  07BD               	dw	_UART1_Transmit_Vector_ISR shr (0+2)
  7309                           
  7310                           ; Vector 29 : U1E
  7311   000042  07C5               	dw	_Default_ISR shr (0+2)
  7312                           
  7313                           ; Vector 30 : U1
  7314   000044  07C5               	dw	_Default_ISR shr (0+2)
  7315                           
  7316                           ; Vector 31 : TMR0
  7317   000046  05C0               	dw	_Timer_OverflowISR shr (0+2)
  7318                           
  7319                           ; Vector 32 : TMR1
  7320   000048  0558               	dw	_Timer1_OverflowISR shr (0+2)
  7321                           
  7322                           ; Vector 33 : TMR1G
  7323   00004A  07BB               	dw	_Timer1_GateISR shr (0+2)
  7324                           
  7325                           ; Vector 34 : TMR2
  7326   00004C  05D5               	dw	_Timer2_ISR shr (0+2)
  7327                           
  7328                           ; Vector 35 : CCP1
  7329   00004E  07C5               	dw	_Default_ISR shr (0+2)
  7330                           
  7331                           ; Vector 36 : Undefined
  7332   000050  002B               	dw	ivt0x8_undefint shr (0+2)
  7333                           
  7334                           ; Vector 37 : NCO1
  7335   000052  07C5               	dw	_Default_ISR shr (0+2)
  7336                           
  7337                           ; Vector 38 : CWG1
  7338   000054  07C5               	dw	_Default_ISR shr (0+2)
  7339                           
  7340                           ; Vector 39 : CLC1
  7341   000056  07C5               	dw	_Default_ISR shr (0+2)
  7342                           
  7343                           ; Vector 40 : INT1
  7344   000058  06B9               	dw	_INT1_ISR shr (0+2)
  7345                           
  7346                           ; Vector 41 : CMP2
  7347   00005A  07C5               	dw	_Default_ISR shr (0+2)
  7348                           
  7349                           ; Vector 42 : DMA2SCNT
  7350   00005C  07C5               	dw	_Default_ISR shr (0+2)
  7351                           
  7352                           ; Vector 43 : DMA2DCNT
  7353   00005E  07C5               	dw	_Default_ISR shr (0+2)
  7354                           
  7355                           ; Vector 44 : DMA2OR
  7356   000060  07C5               	dw	_Default_ISR shr (0+2)
  7357                           
  7358                           ; Vector 45 : DMA2A
  7359   000062  07C5               	dw	_Default_ISR shr (0+2)
  7360                           
  7361                           ; Vector 46 : I2C2RX
  7362   000064  071A               	dw	_I2C2_RX_ISR shr (0+2)
  7363                           
  7364                           ; Vector 47 : I2C2TX
  7365   000066  0723               	dw	_I2C2_TX_ISR shr (0+2)
  7366                           
  7367                           ; Vector 48 : I2C2
  7368   000068  04CD               	dw	_I2C2_ISR shr (0+2)
  7369                           
  7370                           ; Vector 49 : I2C2E
  7371   00006A  0421               	dw	_I2C2_ERROR_ISR shr (0+2)
  7372                           
  7373                           ; Vector 50 : U2RX
  7374   00006C  07C5               	dw	_Default_ISR shr (0+2)
  7375                           
  7376                           ; Vector 51 : U2TX
  7377   00006E  07C5               	dw	_Default_ISR shr (0+2)
  7378                           
  7379                           ; Vector 52 : U2E
  7380   000070  07C5               	dw	_Default_ISR shr (0+2)
  7381                           
  7382                           ; Vector 53 : U2
  7383   000072  07C5               	dw	_Default_ISR shr (0+2)
  7384                           
  7385                           ; Vector 54 : TMR3
  7386   000074  07C5               	dw	_Default_ISR shr (0+2)
  7387                           
  7388                           ; Vector 55 : TMR3G
  7389   000076  07C5               	dw	_Default_ISR shr (0+2)
  7390                           
  7391                           ; Vector 56 : TMR4
  7392   000078  07C5               	dw	_Default_ISR shr (0+2)
  7393                           
  7394                           ; Vector 57 : CCP2
  7395   00007A  07C5               	dw	_Default_ISR shr (0+2)
  7396                           
  7397                           ; Vector 58 : Undefined
  7398   00007C  002B               	dw	ivt0x8_undefint shr (0+2)
  7399                           
  7400                           ; Vector 59 : CWG2
  7401   00007E  07C5               	dw	_Default_ISR shr (0+2)
  7402                           
  7403                           ; Vector 60 : CLC2
  7404   000080  07C5               	dw	_Default_ISR shr (0+2)
  7405                           
  7406                           ; Vector 61 : INT2
  7407   000082  06D0               	dw	_INT2_ISR shr (0+2)
  7408                           
  7409                           ; Vector 62 : Undefined
  7410   000084  002B               	dw	ivt0x8_undefint shr (0+2)
  7411                           
  7412                           ; Vector 63 : Undefined
  7413   000086  002B               	dw	ivt0x8_undefint shr (0+2)
  7414                           
  7415                           ; Vector 64 : Undefined
  7416   000088  002B               	dw	ivt0x8_undefint shr (0+2)
  7417                           
  7418                           ; Vector 65 : Undefined
  7419   00008A  002B               	dw	ivt0x8_undefint shr (0+2)
  7420                           
  7421                           ; Vector 66 : Undefined
  7422   00008C  002B               	dw	ivt0x8_undefint shr (0+2)
  7423                           
  7424                           ; Vector 67 : Undefined
  7425   00008E  002B               	dw	ivt0x8_undefint shr (0+2)
  7426                           
  7427                           ; Vector 68 : Undefined
  7428   000090  002B               	dw	ivt0x8_undefint shr (0+2)
  7429                           
  7430                           ; Vector 69 : Undefined
  7431   000092  002B               	dw	ivt0x8_undefint shr (0+2)
  7432                           
  7433                           ; Vector 70 : TMR5
  7434   000094  07C5               	dw	_Default_ISR shr (0+2)
  7435                           
  7436                           ; Vector 71 : TMR5G
  7437   000096  07C5               	dw	_Default_ISR shr (0+2)
  7438                           
  7439                           ; Vector 72 : TMR6
  7440   000098  07C5               	dw	_Default_ISR shr (0+2)
  7441                           
  7442                           ; Vector 73 : CCP3
  7443   00009A  07C5               	dw	_Default_ISR shr (0+2)
  7444                           
  7445                           ; Vector 74 : CWG3
  7446   00009C  07C5               	dw	_Default_ISR shr (0+2)
  7447                           
  7448                           ; Vector 75 : CLC3
  7449   00009E  07C5               	dw	_Default_ISR shr (0+2)
  7450                           
  7451                           ; Vector 76 : Undefined
  7452   0000A0  002B               	dw	ivt0x8_undefint shr (0+2)
  7453                           
  7454                           ; Vector 77 : Undefined
  7455   0000A2  002B               	dw	ivt0x8_undefint shr (0+2)
  7456                           
  7457                           ; Vector 78 : Undefined
  7458   0000A4  002B               	dw	ivt0x8_undefint shr (0+2)
  7459                           
  7460                           ; Vector 79 : Undefined
  7461   0000A6  002B               	dw	ivt0x8_undefint shr (0+2)
  7462                           
  7463                           ; Vector 80 : CCP4
  7464   0000A8  07C5               	dw	_Default_ISR shr (0+2)
  7465                           
  7466                           ; Vector 81 : CLC4
  7467   0000AA  07C5               	dw	_Default_ISR shr (0+2)
  7468   0000AC                     ivt0x8_undefint:
  7469                           	callstack 0
  7470   0000AC  00FF               	reset	
  7471                           
  7472                           	psect	text87
  7473   000000                     __ptext87:
  7474                           	callstack 0
  7475   000000                     
  7476                           	psect	rparam
  7477   000000                     
  7478                           	psect	idloc
  7479                           
  7480                           ;Config register IDLOC0 @ 0x200000
  7481                           ;	unspecified, using default values
  7482   200000                     	org	2097152
  7483   200000  0FFF               	dw	4095
  7484                           
  7485                           ;Config register IDLOC1 @ 0x200002
  7486                           ;	unspecified, using default values
  7487   200002                     	org	2097154
  7488   200002  0FFF               	dw	4095
  7489                           
  7490                           ;Config register IDLOC2 @ 0x200004
  7491                           ;	unspecified, using default values
  7492   200004                     	org	2097156
  7493   200004  0FFF               	dw	4095
  7494                           
  7495                           ;Config register IDLOC3 @ 0x200006
  7496                           ;	unspecified, using default values
  7497   200006                     	org	2097158
  7498   200006  0FFF               	dw	4095
  7499                           
  7500                           ;Config register IDLOC4 @ 0x200008
  7501                           ;	unspecified, using default values
  7502   200008                     	org	2097160
  7503   200008  0FFF               	dw	4095
  7504                           
  7505                           ;Config register IDLOC5 @ 0x20000A
  7506                           ;	unspecified, using default values
  7507   20000A                     	org	2097162
  7508   20000A  0FFF               	dw	4095
  7509                           
  7510                           ;Config register IDLOC6 @ 0x20000C
  7511                           ;	unspecified, using default values
  7512   20000C                     	org	2097164
  7513   20000C  0FFF               	dw	4095
  7514                           
  7515                           ;Config register IDLOC7 @ 0x20000E
  7516                           ;	unspecified, using default values
  7517   20000E                     	org	2097166
  7518   20000E  0FFF               	dw	4095
  7519                           
  7520                           	psect	config
  7521                           
  7522                           ;Config register CONFIG1L @ 0x300000
  7523                           ;	External Oscillator Selection
  7524                           ;	FEXTOSC = HS, HS (crystal oscillator) above 8 MHz; PFM set to high power
  7525                           ;	Reset Oscillator Selection
  7526                           ;	RSTOSC = HFINTOSC_64MHZ, HFINTOSC with HFFRQ = 64 MHz and CDIV = 1:1
  7527   300000                     	org	3145728
  7528   300000  8A                 	db	138
  7529                           
  7530                           ;Config register CONFIG1H @ 0x300001
  7531                           ;	Clock out Enable bit
  7532                           ;	CLKOUTEN = OFF, CLKOUT function is disabled
  7533                           ;	PRLOCKED One-Way Set Enable bit
  7534                           ;	PR1WAY = ON, PRLOCK bit can be cleared and set only once
  7535                           ;	Clock Switch Enable bit
  7536                           ;	CSWEN = ON, Writing to NOSC and NDIV is allowed
  7537                           ;	Fail-Safe Clock Monitor Enable bit
  7538                           ;	FCMEN = ON, Fail-Safe Clock Monitor enabled
  7539   300001                     	org	3145729
  7540   300001  FF                 	db	255
  7541                           
  7542                           ;Config register CONFIG2L @ 0x300002
  7543                           ;	MCLR Enable bit
  7544                           ;	MCLRE = EXTMCLR, If LVP = 0, MCLR pin is MCLR; If LVP = 1, RE3 pin function is MCLR
  7545                           ;	Power-up timer selection bits
  7546                           ;	PWRTS = PWRT_64, PWRT set at 64ms
  7547                           ;	Multi-vector enable bit
  7548                           ;	MVECEN = ON, Multi-vector enabled, Vector table used for interrupts
  7549                           ;	IVTLOCK bit One-way set enable bit
  7550                           ;	IVT1WAY = ON, IVTLOCK bit can be cleared and set only once
  7551                           ;	Low Power BOR Enable bit
  7552                           ;	LPBOREN = OFF, ULPBOR disabled
  7553                           ;	Brown-out Reset Enable bits
  7554                           ;	BOREN = SBORDIS, Brown-out Reset enabled , SBOREN bit is ignored
  7555   300002                     	org	3145730
  7556   300002  FD                 	db	253
  7557                           
  7558                           ;Config register CONFIG2H @ 0x300003
  7559                           ;	Brown-out Reset Voltage Selection bits
  7560                           ;	BORV = VBOR_2P45, Brown-out Reset Voltage (VBOR) set to 2.45V
  7561                           ;	ZCD Disable bit
  7562                           ;	ZCD = OFF, ZCD disabled. ZCD can be enabled by setting the ZCDSEN bit of ZCDCON
  7563                           ;	PPSLOCK bit One-Way Set Enable bit
  7564                           ;	PPS1WAY = ON, PPSLOCK bit can be cleared and set only once; PPS registers remain locke
      +                          d after one clear/set cycle
  7565                           ;	Stack Full/Underflow Reset Enable bit
  7566                           ;	STVREN = ON, Stack full/underflow will cause Reset
  7567                           ;	Debugger Enable bit
  7568                           ;	DEBUG = OFF, Background debugger disabled
  7569                           ;	Extended Instruction Set Enable bit
  7570                           ;	XINST = OFF, Extended Instruction Set and Indexed Addressing Mode disabled
  7571   300003                     	org	3145731
  7572   300003  FF                 	db	255
  7573                           
  7574                           ;Config register CONFIG3L @ 0x300004
  7575                           ;	WDT Period selection bits
  7576                           ;	WDTCPS = WDTCPS_31, Divider ratio 1:65536; software control of WDTPS
  7577                           ;	WDT operating mode
  7578                           ;	WDTE = OFF, WDT Disabled; SWDTEN is ignored
  7579   300004                     	org	3145732
  7580   300004  9F                 	db	159
  7581                           
  7582                           ;Config register CONFIG3H @ 0x300005
  7583                           ;	WDT Window Select bits
  7584                           ;	WDTCWS = WDTCWS_7, window always open (100%); software control; keyed access not requi
      +                          red
  7585                           ;	WDT input clock selector
  7586                           ;	WDTCCS = SC, Software Control
  7587   300005                     	org	3145733
  7588   300005  FF                 	db	255
  7589                           
  7590                           ;Config register CONFIG4L @ 0x300006
  7591                           ;	Boot Block Size selection bits
  7592                           ;	BBSIZE = BBSIZE_512, Boot Block size is 512 words
  7593                           ;	Boot Block enable bit
  7594                           ;	BBEN = OFF, Boot block disabled
  7595                           ;	Storage Area Flash enable bit
  7596                           ;	SAFEN = OFF, SAF disabled
  7597                           ;	Application Block write protection bit
  7598                           ;	WRTAPP = OFF, Application Block not write protected
  7599   300006                     	org	3145734
  7600   300006  FF                 	db	255
  7601                           
  7602                           ;Config register CONFIG4H @ 0x300007
  7603                           ;	Boot Block Write Protection bit
  7604                           ;	WRTB = OFF, Boot Block not write-protected
  7605                           ;	Configuration Register Write Protection bit
  7606                           ;	WRTC = OFF, Configuration registers not write-protected
  7607                           ;	Data EEPROM Write Protection bit
  7608                           ;	WRTD = OFF, Data EEPROM not write-protected
  7609                           ;	SAF Write protection bit
  7610                           ;	WRTSAF = OFF, SAF not Write Protected
  7611                           ;	Low Voltage Programming Enable bit
  7612                           ;	LVP = ON, Low voltage programming enabled. MCLR/VPP pin function is MCLR. MCLRE config
      +                          uration bit is ignored
  7613   300007                     	org	3145735
  7614   300007  FF                 	db	255
  7615                           
  7616                           ;Config register CONFIG5L @ 0x300008
  7617                           ;	PFM and Data EEPROM Code Protection bit
  7618                           ;	CP = OFF, PFM and Data EEPROM code protection disabled
  7619   300008                     	org	3145736
  7620   300008  FF                 	db	255
  7621                           
  7622                           ;Config register CONFIG5H @ 0x300009
  7623                           ;	unspecified, using default values
  7624   300009                     	org	3145737
  7625   300009  FF                 	db	255
  7626                           tosu	equ	0x3FFF
  7627                           tosh	equ	0x3FFE
  7628                           tosl	equ	0x3FFD
  7629                           stkptr	equ	0x3FFC
  7630                           pclatu	equ	0x3FFB
  7631                           pclath	equ	0x3FFA
  7632                           pcl	equ	0x3FF9
  7633                           tblptru	equ	0x3FF8
  7634                           tblptrh	equ	0x3FF7
  7635                           tblptrl	equ	0x3FF6
  7636                           tablat	equ	0x3FF5
  7637                           prodh	equ	0x3FF4
  7638                           prodl	equ	0x3FF3
  7639                           indf0	equ	0x3FEF
  7640                           postinc0	equ	0x3FEE
  7641                           postdec0	equ	0x3FED
  7642                           preinc0	equ	0x3FEC
  7643                           plusw0	equ	0x3FEB
  7644                           fsr0h	equ	0x3FEA
  7645                           fsr0l	equ	0x3FE9
  7646                           wreg	equ	0x3FE8
  7647                           indf1	equ	0x3FE7
  7648                           postinc1	equ	0x3FE6
  7649                           postdec1	equ	0x3FE5
  7650                           preinc1	equ	0x3FE4
  7651                           plusw1	equ	0x3FE3
  7652                           fsr1h	equ	0x3FE2
  7653                           fsr1l	equ	0x3FE1
  7654                           bsr	equ	0x3FE0
  7655                           indf2	equ	0x3FDF
  7656                           postinc2	equ	0x3FDE
  7657                           postdec2	equ	0x3FDD
  7658                           preinc2	equ	0x3FDC
  7659                           plusw2	equ	0x3FDB
  7660                           fsr2h	equ	0x3FDA
  7661                           fsr2l	equ	0x3FD9
  7662                           status	equ	0x3FD8

Data Sizes:
    Strings     0
    Constant    127
    Data        20
    BSS         104
    Persistent  2
    Stack       0

Auto Spaces:
    Space          Size  Autos    Used
    COMRAM           95     25      71
    BANK0           160     21     101
    BANK1           256      0       0
    BANK2           256      0       0
    BANK3           256      0       0
    BANK4           256      0       0
    BANK5           256      0       0
    BANK6           256      0       0
    BANK7           256      0       0
    BANK8           256      0       0
    BANK9           256      0       0
    BANK10          256      0       0
    BANK11          256      0       0
    BANK12          256      0       0
    BANK13          256      0       0
    BANK14          256      0       0
    BANK15          256      0       0

Pointer List with Targets:

    S562$2$1	PTR unsigned char  size(2) Largest target is 0

    S562$3$1	PTR unsigned char  size(2) Largest target is 0

    S562$4$3	PTR unsigned char  size(2) Largest target is 0

    S562$4$1	PTR unsigned char  size(2) Largest target is 0

    Absolute function$0	PTR struct . size(2) Largest target is 0

    S562$8$0	PTR FTN()void  size(2) Largest target is 1
		 -> I2C2_DefaultCallback(), 

    S1285$3$0	PTR void  size(2) Largest target is 0

    S1285$4$0	PTR void  size(2) Largest target is 0

    S1285$5$0	PTR void  size(2) Largest target is 0

    S2033$4$0	PTR FTN()void  size(2) Largest target is 1
		 -> Timer_int(), Timer1_DefaultOverflowCallback(), Timer2_DefaultOverflowCallback(), Timer_DefaultOverflowCallback(), 

    S2953$17$0	PTR FTN()void  size(2) Largest target is 0

    S2953$18$0	PTR FTN()void  size(2) Largest target is 0

    S2953$20$0	PTR FTN()void  size(2) Largest target is 1
		 -> UART1_DefaultFramingErrorCallback(), 

    S2953$21$0	PTR FTN()void  size(2) Largest target is 1
		 -> UART1_DefaultOverrunErrorCallback(), 

    S2953$22$0	PTR FTN()void  size(2) Largest target is 1
		 -> UART1_DefaultParityErrorCallback(), 

    Timer1_InterruptHandler	PTR FTN()void  size(2) Largest target is 1
		 -> Absolute function(), 

    UART1_ParityErrorHandler	PTR FTN()void  size(2) Largest target is 1
		 -> UART1_DefaultParityErrorCallback(), Absolute function(), 

    UART1_ParityErrorCallbackRegister@callbackHandler	PTR FTN()void  size(2) Largest target is 1
		 -> UART1_DefaultParityErrorCallback(), 

    UART1_OverrunErrorCallbackRegister@callbackHandler	PTR FTN()void  size(2) Largest target is 1
		 -> UART1_DefaultOverrunErrorCallback(), 

    UART1_FramingErrorCallbackRegister@callbackHandler	PTR FTN()void  size(2) Largest target is 1
		 -> UART1_DefaultFramingErrorCallback(), 

    UART1_TxCompleteInterruptHandler	PTR FTN()void  size(2) Largest target is 1
		 -> Absolute function(), 

    UART1_RxCompleteInterruptHandler	PTR FTN()void  size(2) Largest target is 1
		 -> Absolute function(), 

    UART1_OverrunErrorHandler	PTR FTN()void  size(2) Largest target is 1
		 -> UART1_DefaultOverrunErrorCallback(), Absolute function(), 

    UART1_FramingErrorHandler	PTR FTN()void  size(2) Largest target is 1
		 -> UART1_DefaultFramingErrorCallback(), Absolute function(), 

    UART1_TxInterruptHandler	PTR FTN()void  size(2) Largest target is 1
		 -> UART1_TransmitISR(), Absolute function(), 

    UART1_RxInterruptHandler	PTR FTN()void  size(2) Largest target is 1
		 -> UART1_ReceiveISR(), Absolute function(), 

    S2953$EventCallbackRegister	PTR FTN(PTR FTN()void ,)void  size(2) Largest target is 1
		 -> Absolute function(), 

    UART.EventCallbackRegister	PTR FTN(PTR FTN()void ,)void  size(2) Largest target is 1
		 -> Absolute function(), 

    S2953$ParityErrorCallbackRegister	PTR FTN(PTR FTN()void ,)void  size(2) Largest target is 1
		 -> UART1_ParityErrorCallbackRegister(), 

    UART.ParityErrorCallbackRegister	PTR FTN(PTR FTN()void ,)void  size(2) Largest target is 1
		 -> UART1_ParityErrorCallbackRegister(), 

    S2953$OverrunErrorCallbackRegister	PTR FTN(PTR FTN()void ,)void  size(2) Largest target is 1
		 -> UART1_OverrunErrorCallbackRegister(), 

    UART.OverrunErrorCallbackRegister	PTR FTN(PTR FTN()void ,)void  size(2) Largest target is 1
		 -> UART1_OverrunErrorCallbackRegister(), 

    S2953$FramingErrorCallbackRegister	PTR FTN(PTR FTN()void ,)void  size(2) Largest target is 1
		 -> UART1_FramingErrorCallbackRegister(), 

    UART.FramingErrorCallbackRegister	PTR FTN(PTR FTN()void ,)void  size(2) Largest target is 1
		 -> UART1_FramingErrorCallbackRegister(), 

    S2953$TxCollisionCallbackRegister	PTR FTN(PTR FTN()void ,)void  size(2) Largest target is 1
		 -> Absolute function(), 

    UART.TxCollisionCallbackRegister	PTR FTN(PTR FTN()void ,)void  size(2) Largest target is 1
		 -> Absolute function(), 

    S2953$RxCompleteCallbackRegister	PTR FTN(PTR FTN()void ,)void  size(2) Largest target is 1
		 -> UART1_RxCompleteCallbackRegister(), 

    UART.RxCompleteCallbackRegister	PTR FTN(PTR FTN()void ,)void  size(2) Largest target is 1
		 -> UART1_RxCompleteCallbackRegister(), 

    S2953$TxCompleteCallbackRegister	PTR FTN(PTR FTN()void ,)void  size(2) Largest target is 1
		 -> UART1_TxCompleteCallbackRegister(), 

    UART.TxCompleteCallbackRegister	PTR FTN(PTR FTN()void ,)void  size(2) Largest target is 1
		 -> UART1_TxCompleteCallbackRegister(), 

    S2953$ErrorGet	PTR FTN()unsigned int  size(2) Largest target is 2
		 -> UART1_ErrorGet(), 

    UART.ErrorGet	PTR FTN()unsigned int  size(2) Largest target is 2
		 -> UART1_ErrorGet(), 

    S2953$BaudRateGet	PTR FTN()unsigned long  size(2) Largest target is 1
		 -> Absolute function(), 

    UART.BaudRateGet	PTR FTN()unsigned long  size(2) Largest target is 1
		 -> Absolute function(), 

    S2953$BaudRateSet	PTR FTN(unsigned long ,)void  size(2) Largest target is 1
		 -> Absolute function(), 

    UART.BaudRateSet	PTR FTN(unsigned long ,)void  size(2) Largest target is 1
		 -> Absolute function(), 

    S2953$BRGCountGet	PTR FTN()unsigned long  size(2) Largest target is 1
		 -> Absolute function(), 

    UART.BRGCountGet	PTR FTN()unsigned long  size(2) Largest target is 1
		 -> Absolute function(), 

    S2953$BRGCountSet	PTR FTN(unsigned long ,)void  size(2) Largest target is 1
		 -> Absolute function(), 

    UART.BRGCountSet	PTR FTN(unsigned long ,)void  size(2) Largest target is 1
		 -> Absolute function(), 

    S2953$AutoBaudEventEnableGet	PTR FTN()_Bool  size(2) Largest target is 1
		 -> Absolute function(), 

    UART.AutoBaudEventEnableGet	PTR FTN()_Bool  size(2) Largest target is 1
		 -> Absolute function(), 

    S2953$AutoBaudQuery	PTR FTN()_Bool  size(2) Largest target is 1
		 -> UART1_AutoBaudQuery(), 

    UART.AutoBaudQuery	PTR FTN()_Bool  size(2) Largest target is 1
		 -> UART1_AutoBaudQuery(), 

    S2953$AutoBaudSet	PTR FTN(_Bool ,)void  size(2) Largest target is 1
		 -> UART1_AutoBaudSet(), 

    UART.AutoBaudSet	PTR FTN(_Bool ,)void  size(2) Largest target is 1
		 -> UART1_AutoBaudSet(), 

    S2953$TransmitDisable	PTR FTN()void  size(2) Largest target is 1
		 -> UART1_TransmitDisable(), 

    UART.TransmitDisable	PTR FTN()void  size(2) Largest target is 1
		 -> UART1_TransmitDisable(), 

    S2953$TransmitEnable	PTR FTN()void  size(2) Largest target is 1
		 -> UART1_TransmitEnable(), 

    UART.TransmitEnable	PTR FTN()void  size(2) Largest target is 1
		 -> UART1_TransmitEnable(), 

    S2953$IsTxDone	PTR FTN()_Bool  size(2) Largest target is 1
		 -> UART1_IsTxDone(), 

    UART.IsTxDone	PTR FTN()_Bool  size(2) Largest target is 1
		 -> UART1_IsTxDone(), 

    S2953$IsTxReady	PTR FTN()_Bool  size(2) Largest target is 1
		 -> UART1_IsTxReady(), 

    UART.IsTxReady	PTR FTN()_Bool  size(2) Largest target is 1
		 -> UART1_IsTxReady(), 

    S2953$IsRxReady	PTR FTN()_Bool  size(2) Largest target is 1
		 -> UART1_IsRxReady(), 

    UART.IsRxReady	PTR FTN()_Bool  size(2) Largest target is 1
		 -> UART1_IsRxReady(), 

    S2953$Write	PTR FTN(unsigned char ,)void  size(2) Largest target is 1
		 -> UART1_Write(), 

    UART.Write	PTR FTN(unsigned char ,)void  size(2) Largest target is 1
		 -> UART1_Write(), 

    S2953$Read	PTR FTN()unsigned char  size(2) Largest target is 1
		 -> UART1_Read(), 

    UART.Read	PTR FTN()unsigned char  size(2) Largest target is 1
		 -> UART1_Read(), 

    S2953$Deinitialize	PTR FTN()void  size(2) Largest target is 1
		 -> UART1_Deinitialize(), 

    UART.Deinitialize	PTR FTN()void  size(2) Largest target is 1
		 -> UART1_Deinitialize(), 

    S2953$Initialize	PTR FTN()void  size(2) Largest target is 1
		 -> UART1_Initialize(), 

    UART.Initialize	PTR FTN()void  size(2) Largest target is 1
		 -> UART1_Initialize(), 

    Timer1_OverflowCallbackRegister@CallbackHandler	PTR FTN()void  size(2) Largest target is 1
		 -> Timer_int(), Timer1_DefaultOverflowCallback(), Timer2_DefaultOverflowCallback(), Timer_DefaultOverflowCallback(), 

    Timer1_OverflowCallback	PTR FTN()void  size(2) Largest target is 1
		 -> Timer_int(), Timer1_DefaultOverflowCallback(), Timer2_DefaultOverflowCallback(), Timer_DefaultOverflowCallback(), 
		 -> Absolute function(), 

    Timer1.Tasks	PTR FTN()void  size(2) Largest target is 1
		 -> Absolute function(), 

    Timer1.TimeoutCallbackRegister	PTR FTN(PTR FTN()void ,)void  size(2) Largest target is 1
		 -> Timer1_OverflowCallbackRegister(), Timer2_OverflowCallbackRegister(), Timer_OverflowCallbackRegister(), 

    Timer1.PeriodCountSet	PTR FTN(unsigned int ,)void  size(2) Largest target is 1
		 -> Timer1_PeriodCountSet(), Timer2_PeriodCountSet(), Timer_PeriodCountSet(), 

    Timer1.Stop	PTR FTN()void  size(2) Largest target is 1
		 -> Timer1_Stop(), Timer2_Stop(), Timer_Stop(), 

    Timer1.Start	PTR FTN()void  size(2) Largest target is 1
		 -> Timer1_Start(), Timer2_Start(), Timer_Start(), 

    Timer1.Initialize	PTR FTN()void  size(2) Largest target is 1
		 -> Timer2_Initialize(), Timer1_Initialize(), Timer_Initialize(), 

    Timer2_OverflowCallbackRegister@InterruptHandler	PTR FTN()void  size(2) Largest target is 1
		 -> Timer_int(), Timer1_DefaultOverflowCallback(), Timer2_DefaultOverflowCallback(), Timer_DefaultOverflowCallback(), 

    Timer2_OverflowCallback	PTR FTN()void  size(2) Largest target is 1
		 -> Timer_int(), Timer1_DefaultOverflowCallback(), Timer2_DefaultOverflowCallback(), Timer_DefaultOverflowCallback(), 
		 -> Absolute function(), 

    Timer2.Tasks	PTR FTN()void  size(2) Largest target is 1
		 -> Absolute function(), 

    Timer2.TimeoutCallbackRegister	PTR FTN(PTR FTN()void ,)void  size(2) Largest target is 1
		 -> Timer1_OverflowCallbackRegister(), Timer2_OverflowCallbackRegister(), Timer_OverflowCallbackRegister(), 

    Timer2.PeriodCountSet	PTR FTN(unsigned int ,)void  size(2) Largest target is 1
		 -> Timer1_PeriodCountSet(), Timer2_PeriodCountSet(), Timer_PeriodCountSet(), 

    Timer2.Stop	PTR FTN()void  size(2) Largest target is 1
		 -> Timer1_Stop(), Timer2_Stop(), Timer_Stop(), 

    Timer2.Start	PTR FTN()void  size(2) Largest target is 1
		 -> Timer1_Start(), Timer2_Start(), Timer_Start(), 

    Timer2.Initialize	PTR FTN()void  size(2) Largest target is 1
		 -> Timer2_Initialize(), Timer1_Initialize(), Timer_Initialize(), 

    Timer_OverflowCallbackRegister@CallbackHandler	PTR FTN()void  size(2) Largest target is 1
		 -> Timer_int(), Timer1_DefaultOverflowCallback(), Timer2_DefaultOverflowCallback(), Timer_DefaultOverflowCallback(), 

    Timer_OverflowCallback	PTR FTN()void  size(2) Largest target is 1
		 -> Timer_int(), Timer1_DefaultOverflowCallback(), Timer2_DefaultOverflowCallback(), Timer_DefaultOverflowCallback(), 
		 -> Absolute function(), 

    S2033TMR_INTERFACE$Tasks	PTR FTN()void  size(2) Largest target is 1
		 -> Absolute function(), 

    Timer.Tasks	PTR FTN()void  size(2) Largest target is 1
		 -> Absolute function(), 

    S2033TMR_INTERFACE$TimeoutCallbackRegister	PTR FTN(PTR FTN()void ,)void  size(2) Largest target is 1
		 -> Timer1_OverflowCallbackRegister(), Timer2_OverflowCallbackRegister(), Timer_OverflowCallbackRegister(), 

    Timer.TimeoutCallbackRegister	PTR FTN(PTR FTN()void ,)void  size(2) Largest target is 1
		 -> Timer1_OverflowCallbackRegister(), Timer2_OverflowCallbackRegister(), Timer_OverflowCallbackRegister(), 

    S2033TMR_INTERFACE$PeriodCountSet	PTR FTN(unsigned int ,)void  size(2) Largest target is 1
		 -> Timer1_PeriodCountSet(), Timer2_PeriodCountSet(), Timer_PeriodCountSet(), 

    Timer.PeriodCountSet	PTR FTN(unsigned int ,)void  size(2) Largest target is 1
		 -> Timer1_PeriodCountSet(), Timer2_PeriodCountSet(), Timer_PeriodCountSet(), 

    S2033TMR_INTERFACE$Stop	PTR FTN()void  size(2) Largest target is 1
		 -> Timer1_Stop(), Timer2_Stop(), Timer_Stop(), 

    Timer.Stop	PTR FTN()void  size(2) Largest target is 1
		 -> Timer1_Stop(), Timer2_Stop(), Timer_Stop(), 

    S2033TMR_INTERFACE$Start	PTR FTN()void  size(2) Largest target is 1
		 -> Timer1_Start(), Timer2_Start(), Timer_Start(), 

    Timer.Start	PTR FTN()void  size(2) Largest target is 1
		 -> Timer1_Start(), Timer2_Start(), Timer_Start(), 

    S2033TMR_INTERFACE$Initialize	PTR FTN()void  size(2) Largest target is 1
		 -> Timer2_Initialize(), Timer1_Initialize(), Timer_Initialize(), 

    Timer.Initialize	PTR FTN()void  size(2) Largest target is 1
		 -> Timer2_Initialize(), Timer1_Initialize(), Timer_Initialize(), 

    INT2_SetInterruptHandler@InterruptHandler	PTR FTN()void  size(2) Largest target is 1
		 -> INT2_DefaultInterruptHandler(), 

    INT2_InterruptHandler	PTR FTN()void  size(2) Largest target is 1
		 -> INT2_DefaultInterruptHandler(), Absolute function(), 

    INT1_SetInterruptHandler@InterruptHandler	PTR FTN()void  size(2) Largest target is 1
		 -> INT1_DefaultInterruptHandler(), 

    INT1_InterruptHandler	PTR FTN()void  size(2) Largest target is 1
		 -> INT1_DefaultInterruptHandler(), Absolute function(), 

    INT0_SetInterruptHandler@InterruptHandler	PTR FTN()void  size(2) Largest target is 1
		 -> INT0_DefaultInterruptHandler(), 

    INT0_InterruptHandler	PTR FTN()void  size(2) Largest target is 1
		 -> INT0_DefaultInterruptHandler(), Absolute function(), 

    S1285SPI_INTERFACE$ByteWrite	PTR FTN(unsigned char ,)void  size(2) Largest target is 1
		 -> SPI1_ByteWrite(), 

    SPI1.ByteWrite	PTR FTN(unsigned char ,)void  size(2) Largest target is 1
		 -> SPI1_ByteWrite(), 

    S1285SPI_INTERFACE$ByteRead	PTR FTN()unsigned char  size(2) Largest target is 1
		 -> SPI1_ByteRead(), 

    SPI1.ByteRead	PTR FTN()unsigned char  size(2) Largest target is 1
		 -> SPI1_ByteRead(), 

    S1285SPI_INTERFACE$ByteExchange	PTR FTN(unsigned char ,)unsigned char  size(2) Largest target is 1
		 -> SPI1_ByteExchange(), 

    SPI1.ByteExchange	PTR FTN(unsigned char ,)unsigned char  size(2) Largest target is 1
		 -> SPI1_ByteExchange(), 

    S1285SPI_INTERFACE$BufferWrite	PTR FTN(PTR void ,unsigned int ,)void  size(2) Largest target is 1
		 -> SPI1_BufferWrite(), 

    SPI1.BufferWrite	PTR FTN(PTR void ,unsigned int ,)void  size(2) Largest target is 1
		 -> SPI1_BufferWrite(), 

    S1285SPI_INTERFACE$BufferRead	PTR FTN(PTR void ,unsigned int ,)void  size(2) Largest target is 1
		 -> SPI1_BufferRead(), 

    SPI1.BufferRead	PTR FTN(PTR void ,unsigned int ,)void  size(2) Largest target is 1
		 -> SPI1_BufferRead(), 

    S1285SPI_INTERFACE$BufferExchange	PTR FTN(PTR void ,unsigned int ,)void  size(2) Largest target is 1
		 -> SPI1_BufferExchange(), 

    SPI1.BufferExchange	PTR FTN(PTR void ,unsigned int ,)void  size(2) Largest target is 1
		 -> SPI1_BufferExchange(), 

    S1285SPI_INTERFACE$Open	PTR FTN(unsigned char ,)_Bool  size(2) Largest target is 1
		 -> SPI1_Open(), 

    SPI1.Open	PTR FTN(unsigned char ,)_Bool  size(2) Largest target is 1
		 -> SPI1_Open(), 

    S1285SPI_INTERFACE$Close	PTR FTN()void  size(2) Largest target is 1
		 -> SPI1_Close(), 

    SPI1.Close	PTR FTN()void  size(2) Largest target is 1
		 -> SPI1_Close(), 

    S1285SPI_INTERFACE$Initialize	PTR FTN()void  size(2) Largest target is 1
		 -> SPI1_Initialize(), 

    SPI1.Initialize	PTR FTN()void  size(2) Largest target is 1
		 -> SPI1_Initialize(), 

    I2C2_Callback	PTR FTN()void  size(2) Largest target is 1
		 -> I2C2_DefaultCallback(), Absolute function(), 

    I2C2_CallbackRegister@callbackHandler	PTR FTN()void  size(2) Largest target is 1
		 -> I2C2_DefaultCallback(), 

    S651$readPtr	PTR unsigned char  size(2) Largest target is 0
		 -> NULL(NULL[0]), 

    i2c2Status.readPtr	PTR unsigned char  size(2) Largest target is 0
		 -> NULL(NULL[0]), 

    S651$writePtr	PTR unsigned char  size(2) Largest target is 0
		 -> NULL(NULL[0]), 

    i2c2Status.writePtr	PTR unsigned char  size(2) Largest target is 0
		 -> NULL(NULL[0]), 

    S562$Tasks	PTR FTN()void  size(2) Largest target is 1
		 -> Absolute function(), 

    I2C_Host.Tasks	PTR FTN()void  size(2) Largest target is 1
		 -> Absolute function(), 

    S562$CallbackRegister	PTR FTN(PTR FTN()void ,)void  size(2) Largest target is 1
		 -> I2C2_CallbackRegister(), 

    I2C_Host.CallbackRegister	PTR FTN(PTR FTN()void ,)void  size(2) Largest target is 1
		 -> I2C2_CallbackRegister(), 

    S562$IsBusy	PTR FTN()_Bool  size(2) Largest target is 1
		 -> I2C2_IsBusy(), 

    I2C_Host.IsBusy	PTR FTN()_Bool  size(2) Largest target is 1
		 -> I2C2_IsBusy(), 

    S562$ErrorGet	PTR FTN()enum E16163 size(2) Largest target is 1
		 -> I2C2_ErrorGet(), 

    I2C_Host.ErrorGet	PTR FTN()enum E16163 size(2) Largest target is 1
		 -> I2C2_ErrorGet(), 

    S562$TransferSetup	PTR FTN(PTR struct .,unsigned long ,)_Bool  size(2) Largest target is 1
		 -> Absolute function(), 

    I2C_Host.TransferSetup	PTR FTN(PTR struct .,unsigned long ,)_Bool  size(2) Largest target is 1
		 -> Absolute function(), 

    S562$WriteRead	PTR FTN(unsigned short ,PTR unsigned char ,unsigned int ,PTR unsigned char ,unsigned int ,)_Bool  size(2) Largest target is 1
		 -> I2C2_WriteRead(), 

    I2C_Host.WriteRead	PTR FTN(unsigned short ,PTR unsigned char ,unsigned int ,PTR unsigned char ,unsigned int ,)_Bool  size(2) Largest target is 1
		 -> I2C2_WriteRead(), 

    S562$Read	PTR FTN(unsigned short ,PTR unsigned char ,unsigned int ,)_Bool  size(2) Largest target is 1
		 -> I2C2_Read(), 

    I2C_Host.Read	PTR FTN(unsigned short ,PTR unsigned char ,unsigned int ,)_Bool  size(2) Largest target is 1
		 -> I2C2_Read(), 

    S562$Write	PTR FTN(unsigned short ,PTR unsigned char ,unsigned int ,)_Bool  size(2) Largest target is 1
		 -> I2C2_Write(), 

    I2C_Host.Write	PTR FTN(unsigned short ,PTR unsigned char ,unsigned int ,)_Bool  size(2) Largest target is 1
		 -> I2C2_Write(), 

    S562$Deinitialize	PTR FTN()void  size(2) Largest target is 1
		 -> I2C2_Deinitialize(), 

    I2C_Host.Deinitialize	PTR FTN()void  size(2) Largest target is 1
		 -> I2C2_Deinitialize(), 

    S562$Initialize	PTR FTN()void  size(2) Largest target is 1
		 -> I2C2_Initialize(), 

    I2C_Host.Initialize	PTR FTN()void  size(2) Largest target is 1
		 -> I2C2_Initialize(), 

    ADCC_SetADIInterruptHandler@InterruptHandler	PTR FTN()void  size(2) Largest target is 1
		 -> ADC_int(), ADCC_DefaultADI_ISR(), 

    ADCC_ADI_InterruptHandler	PTR FTN()void  size(2) Largest target is 1
		 -> ADC_int(), Absolute function(), ADCC_DefaultADI_ISR(), 


Critical Paths under _main in COMRAM

    None.

Critical Paths under _ADCC_ISR in COMRAM

    _ADCC_ISR->_ADC_int
    _ADC_int->_UART1_Write

Critical Paths under _I2C2_ISR in COMRAM

    _I2C2_ReadStart->_I2C2_AddrTransmit

Critical Paths under _I2C2_ERROR_ISR in COMRAM

    None.

Critical Paths under _I2C2_RX_ISR in COMRAM

    None.

Critical Paths under _I2C2_TX_ISR in COMRAM

    None.

Critical Paths under _IOC_ISR in COMRAM

    None.

Critical Paths under _INT0_ISR in COMRAM

    None.

Critical Paths under _INT1_ISR in COMRAM

    None.

Critical Paths under _INT2_ISR in COMRAM

    None.

Critical Paths under _Timer1_GateISR in COMRAM

    None.

Critical Paths under _Default_ISR in COMRAM

    None.

Critical Paths under _Timer_OverflowISR in COMRAM

    _Timer_int->i2_ADCC_StartConversion

Critical Paths under _Timer2_ISR in COMRAM

    _Timer_int->i2_ADCC_StartConversion

Critical Paths under _Timer1_OverflowISR in COMRAM

    _Timer1_OverflowISR->_Timer1_Write
    _Timer1_OverflowISR->_Timer_int
    _Timer_int->i2_ADCC_StartConversion

Critical Paths under _UART1_Receive_Vector_ISR in COMRAM

    None.

Critical Paths under _UART1_Transmit_Vector_ISR in COMRAM

    _UART1_Transmit_Vector_ISR->_UART1_TransmitISR

Critical Paths under _main in BANK0

    _SYSTEM_Initialize->_Timer1_Initialize
    _SYSTEM_Initialize->_Timer_Initialize
    _UART1_Initialize->_UART1_FramingErrorCallbackRegister
    _UART1_Initialize->_UART1_OverrunErrorCallbackRegister
    _UART1_Initialize->_UART1_ParityErrorCallbackRegister
    _Timer_Initialize->_Timer_OverflowCallbackRegister
    _Timer2_Initialize->_Timer2_OverflowCallbackRegister
    _Timer1_Initialize->_Timer1_OverflowCallbackRegister
    _INTERRUPT_Initialize->_INT0_SetInterruptHandler
    _INTERRUPT_Initialize->_INT1_SetInterruptHandler
    _INTERRUPT_Initialize->_INT2_SetInterruptHandler
    _I2C2_Initialize->_I2C2_CallbackRegister
    _ADCC_Initialize->_ADCC_SetADIInterruptHandler

Critical Paths under _ADCC_ISR in BANK0

    None.

Critical Paths under _I2C2_ISR in BANK0

    _I2C2_StopSend->_I2C2_CounterSet

Critical Paths under _I2C2_ERROR_ISR in BANK0

    _I2C2_StopSend->_I2C2_CounterSet

Critical Paths under _I2C2_RX_ISR in BANK0

    None.

Critical Paths under _I2C2_TX_ISR in BANK0

    _I2C2_TX_ISR->_I2C2_DataTransmit

Critical Paths under _IOC_ISR in BANK0

    None.

Critical Paths under _INT0_ISR in BANK0

    None.

Critical Paths under _INT1_ISR in BANK0

    None.

Critical Paths under _INT2_ISR in BANK0

    None.

Critical Paths under _Timer1_GateISR in BANK0

    None.

Critical Paths under _Default_ISR in BANK0

    None.

Critical Paths under _Timer_OverflowISR in BANK0

    None.

Critical Paths under _Timer2_ISR in BANK0

    None.

Critical Paths under _Timer1_OverflowISR in BANK0

    None.

Critical Paths under _UART1_Receive_Vector_ISR in BANK0

    None.

Critical Paths under _UART1_Transmit_Vector_ISR in BANK0

    None.

Critical Paths under _main in BANK1

    None.

Critical Paths under _ADCC_ISR in BANK1

    None.

Critical Paths under _I2C2_ISR in BANK1

    None.

Critical Paths under _I2C2_ERROR_ISR in BANK1

    None.

Critical Paths under _I2C2_RX_ISR in BANK1

    None.

Critical Paths under _I2C2_TX_ISR in BANK1

    None.

Critical Paths under _IOC_ISR in BANK1

    None.

Critical Paths under _INT0_ISR in BANK1

    None.

Critical Paths under _INT1_ISR in BANK1

    None.

Critical Paths under _INT2_ISR in BANK1

    None.

Critical Paths under _Timer1_GateISR in BANK1

    None.

Critical Paths under _Default_ISR in BANK1

    None.

Critical Paths under _Timer_OverflowISR in BANK1

    None.

Critical Paths under _Timer2_ISR in BANK1

    None.

Critical Paths under _Timer1_OverflowISR in BANK1

    None.

Critical Paths under _UART1_Receive_Vector_ISR in BANK1

    None.

Critical Paths under _UART1_Transmit_Vector_ISR in BANK1

    None.

Critical Paths under _main in BANK2

    None.

Critical Paths under _ADCC_ISR in BANK2

    None.

Critical Paths under _I2C2_ISR in BANK2

    None.

Critical Paths under _I2C2_ERROR_ISR in BANK2

    None.

Critical Paths under _I2C2_RX_ISR in BANK2

    None.

Critical Paths under _I2C2_TX_ISR in BANK2

    None.

Critical Paths under _IOC_ISR in BANK2

    None.

Critical Paths under _INT0_ISR in BANK2

    None.

Critical Paths under _INT1_ISR in BANK2

    None.

Critical Paths under _INT2_ISR in BANK2

    None.

Critical Paths under _Timer1_GateISR in BANK2

    None.

Critical Paths under _Default_ISR in BANK2

    None.

Critical Paths under _Timer_OverflowISR in BANK2

    None.

Critical Paths under _Timer2_ISR in BANK2

    None.

Critical Paths under _Timer1_OverflowISR in BANK2

    None.

Critical Paths under _UART1_Receive_Vector_ISR in BANK2

    None.

Critical Paths under _UART1_Transmit_Vector_ISR in BANK2

    None.

Critical Paths under _main in BANK3

    None.

Critical Paths under _ADCC_ISR in BANK3

    None.

Critical Paths under _I2C2_ISR in BANK3

    None.

Critical Paths under _I2C2_ERROR_ISR in BANK3

    None.

Critical Paths under _I2C2_RX_ISR in BANK3

    None.

Critical Paths under _I2C2_TX_ISR in BANK3

    None.

Critical Paths under _IOC_ISR in BANK3

    None.

Critical Paths under _INT0_ISR in BANK3

    None.

Critical Paths under _INT1_ISR in BANK3

    None.

Critical Paths under _INT2_ISR in BANK3

    None.

Critical Paths under _Timer1_GateISR in BANK3

    None.

Critical Paths under _Default_ISR in BANK3

    None.

Critical Paths under _Timer_OverflowISR in BANK3

    None.

Critical Paths under _Timer2_ISR in BANK3

    None.

Critical Paths under _Timer1_OverflowISR in BANK3

    None.

Critical Paths under _UART1_Receive_Vector_ISR in BANK3

    None.

Critical Paths under _UART1_Transmit_Vector_ISR in BANK3

    None.

Critical Paths under _main in BANK4

    None.

Critical Paths under _ADCC_ISR in BANK4

    None.

Critical Paths under _I2C2_ISR in BANK4

    None.

Critical Paths under _I2C2_ERROR_ISR in BANK4

    None.

Critical Paths under _I2C2_RX_ISR in BANK4

    None.

Critical Paths under _I2C2_TX_ISR in BANK4

    None.

Critical Paths under _IOC_ISR in BANK4

    None.

Critical Paths under _INT0_ISR in BANK4

    None.

Critical Paths under _INT1_ISR in BANK4

    None.

Critical Paths under _INT2_ISR in BANK4

    None.

Critical Paths under _Timer1_GateISR in BANK4

    None.

Critical Paths under _Default_ISR in BANK4

    None.

Critical Paths under _Timer_OverflowISR in BANK4

    None.

Critical Paths under _Timer2_ISR in BANK4

    None.

Critical Paths under _Timer1_OverflowISR in BANK4

    None.

Critical Paths under _UART1_Receive_Vector_ISR in BANK4

    None.

Critical Paths under _UART1_Transmit_Vector_ISR in BANK4

    None.

Critical Paths under _main in BANK5

    None.

Critical Paths under _ADCC_ISR in BANK5

    None.

Critical Paths under _I2C2_ISR in BANK5

    None.

Critical Paths under _I2C2_ERROR_ISR in BANK5

    None.

Critical Paths under _I2C2_RX_ISR in BANK5

    None.

Critical Paths under _I2C2_TX_ISR in BANK5

    None.

Critical Paths under _IOC_ISR in BANK5

    None.

Critical Paths under _INT0_ISR in BANK5

    None.

Critical Paths under _INT1_ISR in BANK5

    None.

Critical Paths under _INT2_ISR in BANK5

    None.

Critical Paths under _Timer1_GateISR in BANK5

    None.

Critical Paths under _Default_ISR in BANK5

    None.

Critical Paths under _Timer_OverflowISR in BANK5

    None.

Critical Paths under _Timer2_ISR in BANK5

    None.

Critical Paths under _Timer1_OverflowISR in BANK5

    None.

Critical Paths under _UART1_Receive_Vector_ISR in BANK5

    None.

Critical Paths under _UART1_Transmit_Vector_ISR in BANK5

    None.

Critical Paths under _main in BANK6

    None.

Critical Paths under _ADCC_ISR in BANK6

    None.

Critical Paths under _I2C2_ISR in BANK6

    None.

Critical Paths under _I2C2_ERROR_ISR in BANK6

    None.

Critical Paths under _I2C2_RX_ISR in BANK6

    None.

Critical Paths under _I2C2_TX_ISR in BANK6

    None.

Critical Paths under _IOC_ISR in BANK6

    None.

Critical Paths under _INT0_ISR in BANK6

    None.

Critical Paths under _INT1_ISR in BANK6

    None.

Critical Paths under _INT2_ISR in BANK6

    None.

Critical Paths under _Timer1_GateISR in BANK6

    None.

Critical Paths under _Default_ISR in BANK6

    None.

Critical Paths under _Timer_OverflowISR in BANK6

    None.

Critical Paths under _Timer2_ISR in BANK6

    None.

Critical Paths under _Timer1_OverflowISR in BANK6

    None.

Critical Paths under _UART1_Receive_Vector_ISR in BANK6

    None.

Critical Paths under _UART1_Transmit_Vector_ISR in BANK6

    None.

Critical Paths under _main in BANK7

    None.

Critical Paths under _ADCC_ISR in BANK7

    None.

Critical Paths under _I2C2_ISR in BANK7

    None.

Critical Paths under _I2C2_ERROR_ISR in BANK7

    None.

Critical Paths under _I2C2_RX_ISR in BANK7

    None.

Critical Paths under _I2C2_TX_ISR in BANK7

    None.

Critical Paths under _IOC_ISR in BANK7

    None.

Critical Paths under _INT0_ISR in BANK7

    None.

Critical Paths under _INT1_ISR in BANK7

    None.

Critical Paths under _INT2_ISR in BANK7

    None.

Critical Paths under _Timer1_GateISR in BANK7

    None.

Critical Paths under _Default_ISR in BANK7

    None.

Critical Paths under _Timer_OverflowISR in BANK7

    None.

Critical Paths under _Timer2_ISR in BANK7

    None.

Critical Paths under _Timer1_OverflowISR in BANK7

    None.

Critical Paths under _UART1_Receive_Vector_ISR in BANK7

    None.

Critical Paths under _UART1_Transmit_Vector_ISR in BANK7

    None.

Critical Paths under _main in BANK8

    None.

Critical Paths under _ADCC_ISR in BANK8

    None.

Critical Paths under _I2C2_ISR in BANK8

    None.

Critical Paths under _I2C2_ERROR_ISR in BANK8

    None.

Critical Paths under _I2C2_RX_ISR in BANK8

    None.

Critical Paths under _I2C2_TX_ISR in BANK8

    None.

Critical Paths under _IOC_ISR in BANK8

    None.

Critical Paths under _INT0_ISR in BANK8

    None.

Critical Paths under _INT1_ISR in BANK8

    None.

Critical Paths under _INT2_ISR in BANK8

    None.

Critical Paths under _Timer1_GateISR in BANK8

    None.

Critical Paths under _Default_ISR in BANK8

    None.

Critical Paths under _Timer_OverflowISR in BANK8

    None.

Critical Paths under _Timer2_ISR in BANK8

    None.

Critical Paths under _Timer1_OverflowISR in BANK8

    None.

Critical Paths under _UART1_Receive_Vector_ISR in BANK8

    None.

Critical Paths under _UART1_Transmit_Vector_ISR in BANK8

    None.

Critical Paths under _main in BANK9

    None.

Critical Paths under _ADCC_ISR in BANK9

    None.

Critical Paths under _I2C2_ISR in BANK9

    None.

Critical Paths under _I2C2_ERROR_ISR in BANK9

    None.

Critical Paths under _I2C2_RX_ISR in BANK9

    None.

Critical Paths under _I2C2_TX_ISR in BANK9

    None.

Critical Paths under _IOC_ISR in BANK9

    None.

Critical Paths under _INT0_ISR in BANK9

    None.

Critical Paths under _INT1_ISR in BANK9

    None.

Critical Paths under _INT2_ISR in BANK9

    None.

Critical Paths under _Timer1_GateISR in BANK9

    None.

Critical Paths under _Default_ISR in BANK9

    None.

Critical Paths under _Timer_OverflowISR in BANK9

    None.

Critical Paths under _Timer2_ISR in BANK9

    None.

Critical Paths under _Timer1_OverflowISR in BANK9

    None.

Critical Paths under _UART1_Receive_Vector_ISR in BANK9

    None.

Critical Paths under _UART1_Transmit_Vector_ISR in BANK9

    None.

Critical Paths under _main in BANK10

    None.

Critical Paths under _ADCC_ISR in BANK10

    None.

Critical Paths under _I2C2_ISR in BANK10

    None.

Critical Paths under _I2C2_ERROR_ISR in BANK10

    None.

Critical Paths under _I2C2_RX_ISR in BANK10

    None.

Critical Paths under _I2C2_TX_ISR in BANK10

    None.

Critical Paths under _IOC_ISR in BANK10

    None.

Critical Paths under _INT0_ISR in BANK10

    None.

Critical Paths under _INT1_ISR in BANK10

    None.

Critical Paths under _INT2_ISR in BANK10

    None.

Critical Paths under _Timer1_GateISR in BANK10

    None.

Critical Paths under _Default_ISR in BANK10

    None.

Critical Paths under _Timer_OverflowISR in BANK10

    None.

Critical Paths under _Timer2_ISR in BANK10

    None.

Critical Paths under _Timer1_OverflowISR in BANK10

    None.

Critical Paths under _UART1_Receive_Vector_ISR in BANK10

    None.

Critical Paths under _UART1_Transmit_Vector_ISR in BANK10

    None.

Critical Paths under _main in BANK11

    None.

Critical Paths under _ADCC_ISR in BANK11

    None.

Critical Paths under _I2C2_ISR in BANK11

    None.

Critical Paths under _I2C2_ERROR_ISR in BANK11

    None.

Critical Paths under _I2C2_RX_ISR in BANK11

    None.

Critical Paths under _I2C2_TX_ISR in BANK11

    None.

Critical Paths under _IOC_ISR in BANK11

    None.

Critical Paths under _INT0_ISR in BANK11

    None.

Critical Paths under _INT1_ISR in BANK11

    None.

Critical Paths under _INT2_ISR in BANK11

    None.

Critical Paths under _Timer1_GateISR in BANK11

    None.

Critical Paths under _Default_ISR in BANK11

    None.

Critical Paths under _Timer_OverflowISR in BANK11

    None.

Critical Paths under _Timer2_ISR in BANK11

    None.

Critical Paths under _Timer1_OverflowISR in BANK11

    None.

Critical Paths under _UART1_Receive_Vector_ISR in BANK11

    None.

Critical Paths under _UART1_Transmit_Vector_ISR in BANK11

    None.

Critical Paths under _main in BANK12

    None.

Critical Paths under _ADCC_ISR in BANK12

    None.

Critical Paths under _I2C2_ISR in BANK12

    None.

Critical Paths under _I2C2_ERROR_ISR in BANK12

    None.

Critical Paths under _I2C2_RX_ISR in BANK12

    None.

Critical Paths under _I2C2_TX_ISR in BANK12

    None.

Critical Paths under _IOC_ISR in BANK12

    None.

Critical Paths under _INT0_ISR in BANK12

    None.

Critical Paths under _INT1_ISR in BANK12

    None.

Critical Paths under _INT2_ISR in BANK12

    None.

Critical Paths under _Timer1_GateISR in BANK12

    None.

Critical Paths under _Default_ISR in BANK12

    None.

Critical Paths under _Timer_OverflowISR in BANK12

    None.

Critical Paths under _Timer2_ISR in BANK12

    None.

Critical Paths under _Timer1_OverflowISR in BANK12

    None.

Critical Paths under _UART1_Receive_Vector_ISR in BANK12

    None.

Critical Paths under _UART1_Transmit_Vector_ISR in BANK12

    None.

Critical Paths under _main in BANK13

    None.

Critical Paths under _ADCC_ISR in BANK13

    None.

Critical Paths under _I2C2_ISR in BANK13

    None.

Critical Paths under _I2C2_ERROR_ISR in BANK13

    None.

Critical Paths under _I2C2_RX_ISR in BANK13

    None.

Critical Paths under _I2C2_TX_ISR in BANK13

    None.

Critical Paths under _IOC_ISR in BANK13

    None.

Critical Paths under _INT0_ISR in BANK13

    None.

Critical Paths under _INT1_ISR in BANK13

    None.

Critical Paths under _INT2_ISR in BANK13

    None.

Critical Paths under _Timer1_GateISR in BANK13

    None.

Critical Paths under _Default_ISR in BANK13

    None.

Critical Paths under _Timer_OverflowISR in BANK13

    None.

Critical Paths under _Timer2_ISR in BANK13

    None.

Critical Paths under _Timer1_OverflowISR in BANK13

    None.

Critical Paths under _UART1_Receive_Vector_ISR in BANK13

    None.

Critical Paths under _UART1_Transmit_Vector_ISR in BANK13

    None.

Critical Paths under _main in BANK14

    None.

Critical Paths under _ADCC_ISR in BANK14

    None.

Critical Paths under _I2C2_ISR in BANK14

    None.

Critical Paths under _I2C2_ERROR_ISR in BANK14

    None.

Critical Paths under _I2C2_RX_ISR in BANK14

    None.

Critical Paths under _I2C2_TX_ISR in BANK14

    None.

Critical Paths under _IOC_ISR in BANK14

    None.

Critical Paths under _INT0_ISR in BANK14

    None.

Critical Paths under _INT1_ISR in BANK14

    None.

Critical Paths under _INT2_ISR in BANK14

    None.

Critical Paths under _Timer1_GateISR in BANK14

    None.

Critical Paths under _Default_ISR in BANK14

    None.

Critical Paths under _Timer_OverflowISR in BANK14

    None.

Critical Paths under _Timer2_ISR in BANK14

    None.

Critical Paths under _Timer1_OverflowISR in BANK14

    None.

Critical Paths under _UART1_Receive_Vector_ISR in BANK14

    None.

Critical Paths under _UART1_Transmit_Vector_ISR in BANK14

    None.

Critical Paths under _main in BANK15

    None.

Critical Paths under _ADCC_ISR in BANK15

    None.

Critical Paths under _I2C2_ISR in BANK15

    None.

Critical Paths under _I2C2_ERROR_ISR in BANK15

    None.

Critical Paths under _I2C2_RX_ISR in BANK15

    None.

Critical Paths under _I2C2_TX_ISR in BANK15

    None.

Critical Paths under _IOC_ISR in BANK15

    None.

Critical Paths under _INT0_ISR in BANK15

    None.

Critical Paths under _INT1_ISR in BANK15

    None.

Critical Paths under _INT2_ISR in BANK15

    None.

Critical Paths under _Timer1_GateISR in BANK15

    None.

Critical Paths under _Default_ISR in BANK15

    None.

Critical Paths under _Timer_OverflowISR in BANK15

    None.

Critical Paths under _Timer2_ISR in BANK15

    None.

Critical Paths under _Timer1_OverflowISR in BANK15

    None.

Critical Paths under _UART1_Receive_Vector_ISR in BANK15

    None.

Critical Paths under _UART1_Transmit_Vector_ISR in BANK15

    None.

Call Graph Tables:

 ---------------------------------------------------------------------------------
 (Depth) Function   	        Calls       Base Space   Used Autos Params    Refs
 ---------------------------------------------------------------------------------
 (0) _main                                                 0     0      0    1776
        _ADCC_SetADIInterruptHandler
                          _SPI1_Open
                  _SYSTEM_Initialize
     _Timer_OverflowCallbackRegister
 ---------------------------------------------------------------------------------
 (1) _SYSTEM_Initialize                                    0     0      0    1428
                    _ADCC_Initialize
                   _CLOCK_Initialize
                     _FVR_Initialize
                    _I2C1_Initialize
                    _I2C2_Initialize
               _INTERRUPT_Initialize
             _PIN_MANAGER_Initialize
                    _SPI1_Initialize
                  _Timer1_Initialize
                  _Timer2_Initialize
                   _Timer_Initialize
                   _UART1_Initialize
                   _UART2_Initialize
 ---------------------------------------------------------------------------------
 (2) _UART2_Initialize                                     0     0      0       0
 ---------------------------------------------------------------------------------
 (2) _UART1_Initialize                                     0     0      0     360
 _UART1_FramingErrorCallbackRegister
 _UART1_OverrunErrorCallbackRegister
  _UART1_ParityErrorCallbackRegister
 ---------------------------------------------------------------------------------
 (3) _UART1_ParityErrorCallbackRegister                    2     0      2     120
                                             17 BANK0      2     0      2
 ---------------------------------------------------------------------------------
 (3) _UART1_OverrunErrorCallbackRegister                   2     0      2     120
                                             17 BANK0      2     0      2
 ---------------------------------------------------------------------------------
 (3) _UART1_FramingErrorCallbackRegister                   2     0      2     120
                                             17 BANK0      2     0      2
 ---------------------------------------------------------------------------------
 (2) _Timer_Initialize                                     2     2      0     174
                                             19 BANK0      2     2      0
     _Timer_OverflowCallbackRegister
 ---------------------------------------------------------------------------------
 (1) _Timer_OverflowCallbackRegister                       2     0      2     174
                                             17 BANK0      2     0      2
 ---------------------------------------------------------------------------------
 (2) _Timer2_Initialize                                    0     0      0      98
    _Timer2_OverflowCallbackRegister
 ---------------------------------------------------------------------------------
 (3) _Timer2_OverflowCallbackRegister                      2     0      2      98
                                             17 BANK0      2     0      2
 ---------------------------------------------------------------------------------
 (2) _Timer1_Initialize                                    2     2      0      98
                                             19 BANK0      2     2      0
    _Timer1_OverflowCallbackRegister
 ---------------------------------------------------------------------------------
 (3) _Timer1_OverflowCallbackRegister                      2     0      2      98
                                             17 BANK0      2     0      2
 ---------------------------------------------------------------------------------
 (2) _SPI1_Initialize                                      0     0      0       0
 ---------------------------------------------------------------------------------
 (2) _PIN_MANAGER_Initialize                               0     0      0       0
 ---------------------------------------------------------------------------------
 (2) _INTERRUPT_Initialize                                 1     1      0     328
                                             19 BANK0      1     1      0
           _INT0_SetInterruptHandler
           _INT1_SetInterruptHandler
           _INT2_SetInterruptHandler
 ---------------------------------------------------------------------------------
 (3) _INT2_SetInterruptHandler                             2     0      2      98
                                             17 BANK0      2     0      2
 ---------------------------------------------------------------------------------
 (3) _INT1_SetInterruptHandler                             2     0      2      98
                                             17 BANK0      2     0      2
 ---------------------------------------------------------------------------------
 (3) _INT0_SetInterruptHandler                             2     0      2      98
                                             17 BANK0      2     0      2
 ---------------------------------------------------------------------------------
 (2) _I2C2_Initialize                                      0     0      0     196
              _I2C2_CallbackRegister
              _I2C2_InterruptsEnable
 ---------------------------------------------------------------------------------
 (3) _I2C2_InterruptsEnable                                0     0      0       0
 ---------------------------------------------------------------------------------
 (3) _I2C2_CallbackRegister                                2     0      2     196
                                             17 BANK0      2     0      2
 ---------------------------------------------------------------------------------
 (2) _I2C1_Initialize                                      0     0      0       0
 ---------------------------------------------------------------------------------
 (2) _FVR_Initialize                                       0     0      0       0
 ---------------------------------------------------------------------------------
 (2) _CLOCK_Initialize                                     0     0      0       0
 ---------------------------------------------------------------------------------
 (2) _ADCC_Initialize                                      0     0      0     174
        _ADCC_SetADIInterruptHandler
 ---------------------------------------------------------------------------------
 (3) _ADCC_SetADIInterruptHandler                          2     0      2     174
                                             17 BANK0      2     0      2
 ---------------------------------------------------------------------------------
 (1) _SPI1_Open                                            1     1      0       0
 ---------------------------------------------------------------------------------
 Estimated maximum stack depth 3
 ---------------------------------------------------------------------------------
 (Depth) Function   	        Calls       Base Space   Used Autos Params    Refs
 ---------------------------------------------------------------------------------
 (4) _ADCC_ISR                                             3     3      0     111
                                             20 COMRAM     3     3      0
                   Absolute function *
                _ADCC_DefaultADI_ISR *
                            _ADC_int *
 ---------------------------------------------------------------------------------
 (5) _ADC_int                                              2     2      0     111
                                             18 COMRAM     2     2      0
               _ADCC_StartConversion
                     _SPI1_ByteWrite
                       _Timer2_Start
                        _UART1_Write
 ---------------------------------------------------------------------------------
 (6) _UART1_Write                                          2     2      0      67
                                             16 COMRAM     2     2      0
 ---------------------------------------------------------------------------------
 (6) _Timer2_Start                                         0     0      0       0
 ---------------------------------------------------------------------------------
 (6) _SPI1_ByteWrite                                       1     1      0      22
                                             16 COMRAM     1     1      0
 ---------------------------------------------------------------------------------
 (6) _ADCC_StartConversion                                 1     1      0      22
                                             16 COMRAM     1     1      0
 ---------------------------------------------------------------------------------
 (5) _ADCC_DefaultADI_ISR                                  0     0      0       0
 ---------------------------------------------------------------------------------
 (8) Absolute function(Fake)                               0     0      0       0
 ---------------------------------------------------------------------------------
 Estimated maximum stack depth 8
 ---------------------------------------------------------------------------------
 (Depth) Function   	        Calls       Base Space   Used Autos Params    Refs
 ---------------------------------------------------------------------------------
 (4) _I2C2_ISR                                             1     1      0     225
                                             24 COMRAM     1     1      0
                         _I2C2_Close
                     _I2C2_ReadStart
                _I2C2_RestartDisable
                      _I2C2_StopSend
 ---------------------------------------------------------------------------------
 (5) _I2C2_StopSend                                        0     0      0     140
                    _I2C2_CounterGet
                    _I2C2_CounterSet
                  _I2C2_DataTransmit
                _I2C2_RestartDisable
 ---------------------------------------------------------------------------------
 (6) _I2C2_RestartDisable                                  0     0      0       0
 ---------------------------------------------------------------------------------
 (5) _I2C2_DataTransmit                                    1     1      0      70
                                              6 BANK0      1     1      0
 ---------------------------------------------------------------------------------
 (6) _I2C2_CounterGet                                      0     0      0       0
 ---------------------------------------------------------------------------------
 (5) _I2C2_ReadStart                                       0     0      0      85
                  _I2C2_AddrTransmit
                    _I2C2_CounterSet
                     _I2C2_StartSend
 ---------------------------------------------------------------------------------
 (6) _I2C2_StartSend                                       0     0      0       0
 ---------------------------------------------------------------------------------
 (6) _I2C2_CounterSet                                      1     1      0      70
                                              1 BANK0      1     1      0
 ---------------------------------------------------------------------------------
 (6) _I2C2_AddrTransmit                                    1     1      0      15
                                             23 COMRAM     1     1      0
 ---------------------------------------------------------------------------------
 (5) _I2C2_Close                                           0     0      0       0
                   _I2C2_BufferClear
               _I2C2_ErrorFlagsClear
               _I2C2_InterruptsClear
 ---------------------------------------------------------------------------------
 (6) _I2C2_InterruptsClear                                 0     0      0       0
 ---------------------------------------------------------------------------------
 (6) _I2C2_ErrorFlagsClear                                 0     0      0       0
 ---------------------------------------------------------------------------------
 (6) _I2C2_BufferClear                                     0     0      0       0
 ---------------------------------------------------------------------------------
 Estimated maximum stack depth 6
 ---------------------------------------------------------------------------------
 (Depth) Function   	        Calls       Base Space   Used Autos Params    Refs
 ---------------------------------------------------------------------------------
 (4) _I2C2_ERROR_ISR                                       3     3      0     140
                                              2 BANK0      3     3      0
                   Absolute function *
                      _I2C2_BusReset
               _I2C2_DefaultCallback *
                        _I2C2_IsAddr
                      _I2C2_IsBusCol
                  _I2C2_IsBusTimeOut
                        _I2C2_IsData
                        _I2C2_IsNack
                      _I2C2_StopSend
 ---------------------------------------------------------------------------------
 (5) _I2C2_StopSend                                        0     0      0     140
                    _I2C2_CounterGet
                    _I2C2_CounterSet
                  _I2C2_DataTransmit
                _I2C2_RestartDisable
 ---------------------------------------------------------------------------------
 (6) _I2C2_RestartDisable                                  0     0      0       0
 ---------------------------------------------------------------------------------
 (5) _I2C2_DataTransmit                                    1     1      0      70
                                              6 BANK0      1     1      0
 ---------------------------------------------------------------------------------
 (6) _I2C2_CounterSet                                      1     1      0      70
                                              1 BANK0      1     1      0
 ---------------------------------------------------------------------------------
 (6) _I2C2_CounterGet                                      0     0      0       0
 ---------------------------------------------------------------------------------
 (5) _I2C2_IsNack                                          0     0      0       0
 ---------------------------------------------------------------------------------
 (5) _I2C2_IsData                                          0     0      0       0
 ---------------------------------------------------------------------------------
 (5) _I2C2_IsBusTimeOut                                    0     0      0       0
 ---------------------------------------------------------------------------------
 (5) _I2C2_IsBusCol                                        0     0      0       0
 ---------------------------------------------------------------------------------
 (5) _I2C2_IsAddr                                          0     0      0       0
 ---------------------------------------------------------------------------------
 (5) _I2C2_DefaultCallback                                 0     0      0       0
 ---------------------------------------------------------------------------------
 (5) _I2C2_BusReset                                        0     0      0       0
                   _I2C2_BufferClear
               _I2C2_ErrorFlagsClear
               _I2C2_InterruptsClear
             _I2C2_InterruptsDisable
            i1_I2C2_InterruptsEnable
 ---------------------------------------------------------------------------------
 (6) i1_I2C2_InterruptsEnable                              0     0      0       0
 ---------------------------------------------------------------------------------
 (6) _I2C2_InterruptsDisable                               0     0      0       0
 ---------------------------------------------------------------------------------
 (6) _I2C2_InterruptsClear                                 0     0      0       0
 ---------------------------------------------------------------------------------
 (6) _I2C2_ErrorFlagsClear                                 0     0      0       0
 ---------------------------------------------------------------------------------
 (6) _I2C2_BufferClear                                     0     0      0       0
 ---------------------------------------------------------------------------------
 (8) Absolute function(Fake)                               0     0      0       0
 ---------------------------------------------------------------------------------
 Estimated maximum stack depth 8
 ---------------------------------------------------------------------------------
 (Depth) Function   	        Calls       Base Space   Used Autos Params    Refs
 ---------------------------------------------------------------------------------
 (4) _I2C2_RX_ISR                                          1     1      0       0
                                              5 BANK0      1     1      0
                   _I2C2_DataReceive
 ---------------------------------------------------------------------------------
 (5) _I2C2_DataReceive                                     0     0      0       0
 ---------------------------------------------------------------------------------
 Estimated maximum stack depth 5
 ---------------------------------------------------------------------------------
 (Depth) Function   	        Calls       Base Space   Used Autos Params    Refs
 ---------------------------------------------------------------------------------
 (4) _I2C2_TX_ISR                                          1     1      0      70
                                              7 BANK0      1     1      0
                  _I2C2_DataTransmit
 ---------------------------------------------------------------------------------
 (5) _I2C2_DataTransmit                                    1     1      0      70
                                              6 BANK0      1     1      0
 ---------------------------------------------------------------------------------
 Estimated maximum stack depth 5
 ---------------------------------------------------------------------------------
 (Depth) Function   	        Calls       Base Space   Used Autos Params    Refs
 ---------------------------------------------------------------------------------
 (4) _IOC_ISR                                              0     0      0       0
                    _PIN_MANAGER_IOC
 ---------------------------------------------------------------------------------
 (5) _PIN_MANAGER_IOC                                      0     0      0       0
 ---------------------------------------------------------------------------------
 Estimated maximum stack depth 5
 ---------------------------------------------------------------------------------
 (Depth) Function   	        Calls       Base Space   Used Autos Params    Refs
 ---------------------------------------------------------------------------------
 (4) _INT0_ISR                                             3     3      0       0
                                              8 BANK0      3     3      0
                      _INT0_CallBack
 ---------------------------------------------------------------------------------
 (5) _INT0_CallBack                                        0     0      0       0
                   Absolute function *
       _INT0_DefaultInterruptHandler *
 ---------------------------------------------------------------------------------
 (6) _INT0_DefaultInterruptHandler                         0     0      0       0
 ---------------------------------------------------------------------------------
 (8) Absolute function(Fake)                               0     0      0       0
 ---------------------------------------------------------------------------------
 Estimated maximum stack depth 8
 ---------------------------------------------------------------------------------
 (Depth) Function   	        Calls       Base Space   Used Autos Params    Refs
 ---------------------------------------------------------------------------------
 (4) _INT1_ISR                                             3     3      0       0
                                             11 BANK0      3     3      0
                      _INT1_CallBack
 ---------------------------------------------------------------------------------
 (5) _INT1_CallBack                                        0     0      0       0
                   Absolute function *
       _INT1_DefaultInterruptHandler *
 ---------------------------------------------------------------------------------
 (6) _INT1_DefaultInterruptHandler                         0     0      0       0
 ---------------------------------------------------------------------------------
 (8) Absolute function(Fake)                               0     0      0       0
 ---------------------------------------------------------------------------------
 Estimated maximum stack depth 8
 ---------------------------------------------------------------------------------
 (Depth) Function   	        Calls       Base Space   Used Autos Params    Refs
 ---------------------------------------------------------------------------------
 (4) _INT2_ISR                                             3     3      0       0
                                             14 BANK0      3     3      0
                      _INT2_CallBack
 ---------------------------------------------------------------------------------
 (5) _INT2_CallBack                                        0     0      0       0
                   Absolute function *
       _INT2_DefaultInterruptHandler *
 ---------------------------------------------------------------------------------
 (6) _INT2_DefaultInterruptHandler                         0     0      0       0
 ---------------------------------------------------------------------------------
 (8) Absolute function(Fake)                               0     0      0       0
 ---------------------------------------------------------------------------------
 Estimated maximum stack depth 8
 ---------------------------------------------------------------------------------
 (Depth) Function   	        Calls       Base Space   Used Autos Params    Refs
 ---------------------------------------------------------------------------------
 (4) _Timer1_GateISR                                       0     0      0       0
 ---------------------------------------------------------------------------------
 Estimated maximum stack depth 4
 ---------------------------------------------------------------------------------
 (Depth) Function   	        Calls       Base Space   Used Autos Params    Refs
 ---------------------------------------------------------------------------------
 (7) _Default_ISR                                          0     0      0       0
 ---------------------------------------------------------------------------------
 Estimated maximum stack depth 7
 ---------------------------------------------------------------------------------
 (Depth) Function   	        Calls       Base Space   Used Autos Params    Refs
 ---------------------------------------------------------------------------------
 (7) _Timer_OverflowISR                                    2     2      0      22
                                              2 COMRAM     2     2      0
                   Absolute function *
     _Timer1_DefaultOverflowCallback *
     _Timer2_DefaultOverflowCallback *
      _Timer_DefaultOverflowCallback *
                          _Timer_int *
 ---------------------------------------------------------------------------------
 (8) _Timer_int                                            1     1      0      22
                                              9 COMRAM     1     1      0
             i2_ADCC_StartConversion
 ---------------------------------------------------------------------------------
 (9) i2_ADCC_StartConversion                               1     1      0      22
                                              8 COMRAM     1     1      0
 ---------------------------------------------------------------------------------
 (8) _Timer_DefaultOverflowCallback                        0     0      0       0
 ---------------------------------------------------------------------------------
 (8) _Timer2_DefaultOverflowCallback                       0     0      0       0
 ---------------------------------------------------------------------------------
 (8) _Timer1_DefaultOverflowCallback                       0     0      0       0
 ---------------------------------------------------------------------------------
 (8) Absolute function(Fake)                               0     0      0       0
 ---------------------------------------------------------------------------------
 Estimated maximum stack depth 9
 ---------------------------------------------------------------------------------
 (Depth) Function   	        Calls       Base Space   Used Autos Params    Refs
 ---------------------------------------------------------------------------------
 (7) _Timer2_ISR                                           2     2      0      22
                                              6 COMRAM     2     2      0
                   Absolute function *
     _Timer1_DefaultOverflowCallback *
     _Timer2_DefaultOverflowCallback *
                        _Timer2_Stop
      _Timer_DefaultOverflowCallback *
                          _Timer_int *
 ---------------------------------------------------------------------------------
 (8) _Timer_int                                            1     1      0      22
                                              9 COMRAM     1     1      0
             i2_ADCC_StartConversion
 ---------------------------------------------------------------------------------
 (9) i2_ADCC_StartConversion                               1     1      0      22
                                              8 COMRAM     1     1      0
 ---------------------------------------------------------------------------------
 (8) _Timer_DefaultOverflowCallback                        0     0      0       0
 ---------------------------------------------------------------------------------
 (8) _Timer2_Stop                                          0     0      0       0
 ---------------------------------------------------------------------------------
 (8) _Timer2_DefaultOverflowCallback                       0     0      0       0
 ---------------------------------------------------------------------------------
 (8) _Timer1_DefaultOverflowCallback                       0     0      0       0
 ---------------------------------------------------------------------------------
 (8) Absolute function(Fake)                               0     0      0       0
 ---------------------------------------------------------------------------------
 Estimated maximum stack depth 9
 ---------------------------------------------------------------------------------
 (Depth) Function   	        Calls       Base Space   Used Autos Params    Refs
 ---------------------------------------------------------------------------------
 (7) _Timer1_OverflowISR                                   3     3      0     262
                                             10 COMRAM     3     3      0
                   Absolute function *
     _Timer1_DefaultOverflowCallback *
                       _Timer1_Write
     _Timer2_DefaultOverflowCallback *
      _Timer_DefaultOverflowCallback *
                          _Timer_int *
 ---------------------------------------------------------------------------------
 (8) _Timer_int                                            1     1      0      22
                                              9 COMRAM     1     1      0
             i2_ADCC_StartConversion
 ---------------------------------------------------------------------------------
 (9) i2_ADCC_StartConversion                               1     1      0      22
                                              8 COMRAM     1     1      0
 ---------------------------------------------------------------------------------
 (8) _Timer_DefaultOverflowCallback                        0     0      0       0
 ---------------------------------------------------------------------------------
 (8) _Timer2_DefaultOverflowCallback                       0     0      0       0
 ---------------------------------------------------------------------------------
 (8) _Timer1_Write                                         2     0      2     240
                                              8 COMRAM     2     0      2
 ---------------------------------------------------------------------------------
 (8) _Timer1_DefaultOverflowCallback                       0     0      0       0
 ---------------------------------------------------------------------------------
 (8) Absolute function(Fake)                               0     0      0       0
 ---------------------------------------------------------------------------------
 Estimated maximum stack depth 9
 ---------------------------------------------------------------------------------
 (Depth) Function   	        Calls       Base Space   Used Autos Params    Refs
 ---------------------------------------------------------------------------------
 (7) _UART1_Receive_Vector_ISR                             2     2      0       0
                                             13 COMRAM     2     2      0
 ---------------------------------------------------------------------------------
 Estimated maximum stack depth 7
 ---------------------------------------------------------------------------------
 (Depth) Function   	        Calls       Base Space   Used Autos Params    Refs
 ---------------------------------------------------------------------------------
 (7) _UART1_Transmit_Vector_ISR                            0     0      0      23
                  _UART1_TransmitISR
 ---------------------------------------------------------------------------------
 (8) _UART1_TransmitISR                                    1     1      0      23
                                             15 COMRAM     1     1      0
 ---------------------------------------------------------------------------------
 Estimated maximum stack depth 8
 ---------------------------------------------------------------------------------

 Call Graph Graphs:

 _main (ROOT)
   _ADCC_SetADIInterruptHandler
   _SPI1_Open
   _SYSTEM_Initialize
     _ADCC_Initialize
       _ADCC_SetADIInterruptHandler
     _CLOCK_Initialize
     _FVR_Initialize
     _I2C1_Initialize
     _I2C2_Initialize
       _I2C2_CallbackRegister
       _I2C2_InterruptsEnable
     _INTERRUPT_Initialize
       _INT0_SetInterruptHandler
       _INT1_SetInterruptHandler
       _INT2_SetInterruptHandler
     _PIN_MANAGER_Initialize
     _SPI1_Initialize
     _Timer1_Initialize
       _Timer1_OverflowCallbackRegister
     _Timer2_Initialize
       _Timer2_OverflowCallbackRegister
     _Timer_Initialize
       _Timer_OverflowCallbackRegister
     _UART1_Initialize
       _UART1_FramingErrorCallbackRegister
       _UART1_OverrunErrorCallbackRegister
       _UART1_ParityErrorCallbackRegister
     _UART2_Initialize
   _Timer_OverflowCallbackRegister

 _ADCC_ISR (ROOT)
   Absolute function(Fake) *
   _ADCC_DefaultADI_ISR *
   _ADC_int *
     _ADCC_StartConversion
     _SPI1_ByteWrite
     _Timer2_Start
     _UART1_Write

 _I2C2_ISR (ROOT)
   _I2C2_Close
     _I2C2_BufferClear
     _I2C2_ErrorFlagsClear
     _I2C2_InterruptsClear
   _I2C2_ReadStart
     _I2C2_AddrTransmit
     _I2C2_CounterSet
     _I2C2_StartSend
   _I2C2_RestartDisable
   _I2C2_StopSend
     _I2C2_CounterGet
     _I2C2_CounterSet
     _I2C2_DataTransmit
     _I2C2_RestartDisable

 _I2C2_ERROR_ISR (ROOT)
   Absolute function(Fake) *
   _I2C2_BusReset *
     _I2C2_BufferClear
     _I2C2_ErrorFlagsClear
     _I2C2_InterruptsClear
     _I2C2_InterruptsDisable
     i1_I2C2_InterruptsEnable
   _I2C2_DefaultCallback *
   _I2C2_IsAddr *
   _I2C2_IsBusCol *
   _I2C2_IsBusTimeOut *
   _I2C2_IsData *
   _I2C2_IsNack *
   _I2C2_StopSend *
     _I2C2_CounterGet
     _I2C2_CounterSet
     _I2C2_DataTransmit
     _I2C2_RestartDisable

 _I2C2_RX_ISR (ROOT)
   _I2C2_DataReceive

 _I2C2_TX_ISR (ROOT)
   _I2C2_DataTransmit

 _IOC_ISR (ROOT)
   _PIN_MANAGER_IOC

 _INT0_ISR (ROOT)
   _INT0_CallBack
     Absolute function(Fake) *
     _INT0_DefaultInterruptHandler *

 _INT1_ISR (ROOT)
   _INT1_CallBack
     Absolute function(Fake) *
     _INT1_DefaultInterruptHandler *

 _INT2_ISR (ROOT)
   _INT2_CallBack
     Absolute function(Fake) *
     _INT2_DefaultInterruptHandler *

 _Timer1_GateISR (ROOT)

 _Default_ISR (ROOT)

 _Timer_OverflowISR (ROOT)
   Absolute function(Fake) *
   _Timer1_DefaultOverflowCallback *
   _Timer2_DefaultOverflowCallback *
   _Timer_DefaultOverflowCallback *
   _Timer_int *
     i2_ADCC_StartConversion

 _Timer2_ISR (ROOT)
   Absolute function(Fake) *
   _Timer1_DefaultOverflowCallback *
   _Timer2_DefaultOverflowCallback *
   _Timer2_Stop *
   _Timer_DefaultOverflowCallback *
   _Timer_int *
     i2_ADCC_StartConversion

 _Timer1_OverflowISR (ROOT)
   Absolute function(Fake) *
   _Timer1_DefaultOverflowCallback *
   _Timer1_Write *
   _Timer2_DefaultOverflowCallback *
   _Timer_DefaultOverflowCallback *
   _Timer_int *
     i2_ADCC_StartConversion

 _UART1_Receive_Vector_ISR (ROOT)

 _UART1_Transmit_Vector_ISR (ROOT)
   _UART1_TransmitISR

 Address spaces:
Name               Size   Autos  Total    Cost      Usage
BIGRAM             FFF      0       0      82        0.0%
EEDATA             400      0       0       0        0.0%
BITBIGSFRlhlllh    22A      0       0      58        0.0%
BITBIGSFRlllll     180      0       0      80        0.0%
BITBANK15          100      0       0      34        0.0%
BANK15             100      0       0      35        0.0%
BITBANK14          100      0       0      32        0.0%
BANK14             100      0       0      33        0.0%
BITBANK13          100      0       0      30        0.0%
BANK13             100      0       0      31        0.0%
BITBANK12          100      0       0      28        0.0%
BANK12             100      0       0      29        0.0%
BITBANK11          100      0       0      26        0.0%
BANK11             100      0       0      27        0.0%
BITBANK10          100      0       0      24        0.0%
BANK10             100      0       0      25        0.0%
BITBANK9           100      0       0      22        0.0%
BANK9              100      0       0      23        0.0%
BITBANK8           100      0       0      20        0.0%
BANK8              100      0       0      21        0.0%
BITBANK7           100      0       0      18        0.0%
BANK7              100      0       0      19        0.0%
BITBANK6           100      0       0      16        0.0%
BANK6              100      0       0      17        0.0%
BITBANK5           100      0       0      14        0.0%
BANK5              100      0       0      15        0.0%
BITBANK4           100      0       0      12        0.0%
BANK4              100      0       0      13        0.0%
BITBANK3           100      0       0      10        0.0%
BANK3              100      0       0      11        0.0%
BITBANK2           100      0       0       8        0.0%
BANK2              100      0       0       9        0.0%
BITBANK1           100      0       0       6        0.0%
BANK1              100      0       0       7        0.0%
BITBIGSFRlhlhhh     C6      0       0      43        0.0%
BITBIGSFRhhhhhh     AA      0       0      40        0.0%
BITBANK0            A0      0       0       4        0.0%
BANK0               A0     15      65       5       63.1%
BITCOMRAM           5F      0       0       0        0.0%
COMRAM              5F     19      47       1       74.7%
BITBIGSFRlhlllh     56      0       0      60        0.0%
BITBIGSFRlhlhhh     55      0       0      49        0.0%
BITBIGSFRlhlllh     37      0       0      54        0.0%
BITBIGSFRlhllll     31      0       0      74        0.0%
BITBIGSFRlhllll     29      0       0      71        0.0%
BITBIGSFRlhllll     29      0       0      68        0.0%
BITBIGSFRhhhhhh     28      0       0      36        0.0%
BITBIGSFRlhh        1C      0       0      42        0.0%
BITBIGSFRhhhhhh      B      0       0      38        0.0%
BITBIGSFRlllh        A      0       0      78        0.0%
BITBIGSFRllhh        A      0       0      76        0.0%
BITBIGSFRlhllll      8      0       0      70        0.0%
BITBIGSFRlhllll      8      0       0      67        0.0%
BITBIGSFRlhlllh      5      0       0      62        0.0%
BITBIGSFRlhlhhh      5      0       0      44        0.0%
BITBIGSFRlhlhhl      5      0       0      51        0.0%
BITBIGSFRlhlllh      4      0       0      61        0.0%
BITBIGSFRlhllll      4      0       0      65        0.0%
BITBIGSFRlhllhh      4      0       0      52        0.0%
BITBIGSFRlhlllh      4      0       0      63        0.0%
BITBIGSFRlhlllh      3      0       0      59        0.0%
BITBIGSFRhhhhhh      3      0       0      39        0.0%
BITBIGSFRlhllll      2      0       0      64        0.0%
BITBIGSFRlhllll      2      0       0      66        0.0%
BITBIGSFRlhlllh      2      0       0      55        0.0%
BITBIGSFRlhlllh      2      0       0      56        0.0%
BITBIGSFRlhllll      1      0       0      75        0.0%
BITBIGSFRllllh       1      0       0      79        0.0%
BITBIGSFRhhhhhh      1      0       0      37        0.0%
BITBIGSFRlhllll      1      0       0      72        0.0%
BITBIGSFRlhllll      1      0       0      73        0.0%
BITBIGSFRlhllll      1      0       0      69        0.0%
BITBIGSFRlhlllh      1      0       0      57        0.0%
BITBIGSFRlhlhhh      1      0       0      45        0.0%
BITBIGSFRlhlhhh      1      0       0      46        0.0%
BITBIGSFRlhlhhh      1      0       0      47        0.0%
BITBIGSFRlhlhhh      1      0       0      48        0.0%
BITBIGSFRlhlhhh      1      0       0      50        0.0%
BITBIGSFRlhllhl      1      0       0      53        0.0%
BITBIGSFRllhll       1      0       0      77        0.0%
BITBIGSFRhhhhhl      1      0       0      41        0.0%
BIGSFR               0      0       0     200        0.0%
BITSFR_8             0      0       0     200        0.0%
SFR_8                0      0       0     200        0.0%
BITSFR_7             0      0       0     200        0.0%
SFR_7                0      0       0     200        0.0%
BITSFR_6             0      0       0     200        0.0%
SFR_6                0      0       0     200        0.0%
BITSFR_5             0      0       0     200        0.0%
SFR_5                0      0       0     200        0.0%
BITSFR_4             0      0       0     200        0.0%
SFR_4                0      0       0     200        0.0%
BITSFR_3             0      0       0     200        0.0%
SFR_3                0      0       0     200        0.0%
BITSFR_2             0      0       0     200        0.0%
SFR_2                0      0       0     200        0.0%
BITSFR_1             0      0       0     200        0.0%
SFR_1                0      0       0     200        0.0%
BITSFR               0      0       0     200        0.0%
SFR                  0      0       0     200        0.0%
STACK                0      0       0       2        0.0%
NULL                 0      0       0       0        0.0%
ABS                  0      0      AC      81        0.0%
DATA                 0      0      AC       3        0.0%
CODE                 0      0       0       0        0.0%


Microchip Technology PIC18 Macro Assembler V2.40 build 20220703182018 
Symbol Table                                                                                   Wed Mar 15 22:55:41 2023

                                _SPI1_ByteExchange 000000                                                 l89 155C  
                           __end_of_FVR_Initialize 1EC4                                ??_I2C2_AddrTransmit 0042  
                      UART1_TransmitISR@tempTxTail 003A                             ?_I2C2_CallbackRegister 00AF  
                                  ??_I2C2_IsBusCol 009F                                                l313 16A4  
                                              l340 1D26                                                l440 1D6E  
                                              l179 1E92                                                l189 1EC2  
                                              l518 1980                                                l801 1D58  
                                              l565 1D40                                                l903 1E7E  
                                              l656 1A24                                                l569 1BF0  
                                              l489 1888                                                l918 1E74  
                                              l785 1276                                                l866 14E8  
                                              l956 1A56                                                l983 1E56  
                                              l888 1E88                                                _GIE 01FE97  
                                  ??_I2C2_BusReset 009F                                                _PR2 003FAB  
                                              u830 1D1E                                                u831 1D1A  
                                              u840 1D00                                                u841 1CFC  
                                              u850 1CE2                                                u851 1CDE  
                                              u860 1CC4                                                u861 1CC0  
                                              u980 1BD8                                                u981 1BD4  
                       ??_INT0_SetInterruptHandler 00B1                                    _timer1ReloadVal 0020  
                                              tosl 003FFD                                                wreg 003FE8  
                                  __end_of_ADC_int 145E                                      _INT0_CallBack 1AB6  
                                   _UART1_IsTxDone 000000                                 _Timer1_OverflowISR 1560  
                     ?_ADCC_SetADIInterruptHandler 00AF             __end_of_Timer1_DefaultOverflowCallback 1F18  
                   _Timer1_DefaultOverflowCallback 1F16                                      _INT1_CallBack 1B12  
                         _UART1_ParityErrorHandler 0088                                     _UART1_ErrorGet 000000  
                                  __end_of_IOC_ISR 1EEA                                   __end_of_I2C2_ISR 13D0  
                                             l1113 18CE                                               l1035 1A84  
                                             l1150 1E6A                                               l1065 1E60  
                                             l1422 1D08                                               l1430 1CCC  
                                             l1426 1CEA                                               l3300 1E4E  
                                             l3302 1E58                                               l3310 1CCE  
                                             l3320 1544                                               l4120 1460  
                                             l3400 1206                                               l3304 1E62  
                                             l3312 1CE2                                               l3322 1548  
                                             l4130 1496                                               l4122 146A  
                                             l3410 1214                                               l3402 1208  
                                             l3306 1CEC                                               l3314 1CB0  
                                             l1298 1332                                               l1467 19E8  
                                             l3324 1556                                               l3332 1EBC  
                                             l4140 14A2                                               l4132 149A  
                                             l4124 1474                                               l3412 1216  
                                             l3404 120A                                               l3420 1A4C  
                                             l3308 1D00                                               l3316 1CC4  
                                             l3500 1316                                               l1468 19E8  
                                             l3326 155A                                               l3318 14EA  
                                             l4070 1672                                               l4150 14AC  
                                             l4142 14A4                                               l4134 149C  
                                             l4126 148A                                               l4118 145E  
                                             l3414 1218                                               l3406 120C  
                                             l3430 18B8                                               l3422 1A50  
                                             l3510 132A                                               l3502 131A  
                                             l4080 1684                                               l4072 1676  
                                             l4160 14C4                                               l4152 14AE  
                                             l4144 14A6                                               l4136 149E  
                                             l4128 148C                                               l3408 1212  
                                             l3432 18C4                                               l3440 1A6C  
                                             l3424 1A52                                               l3416 1A26  
                                             l3512 132E                                               l3504 131E  
                                             l3290 1D0A                                               l4090 168E  
                                             l4082 1686                                               l4074 1678  
                                             l4066 1642                                               l4162 14C6  
                                             l4154 14B0                                               l4146 14A8  
                                             l4138 14A0                                               l3434 18C8  
                                             l3426 188A                                               l3442 1A7A  
                                             l3418 1A40                                               l3506 1322  
                                             l3450 127C                                               l3292 1D1E  
                                             l4092 1692                                               l4084 1688  
                                             l4076 167A                                               l4068 166E  
                                             l4164 14D4                                               l4156 14B2  
                                             l4148 14AA                                               l3436 18CA  
                                             l3428 189E                                               l3444 1A7E  
                                             l3508 1326                                               l3460 12A2  
                                             l3452 1286                                               l4260 19F0  
                                             l3286 1E8A                                               l4094 1694  
                                             l4086 168A                                               l4078 1682  
                                             l3294 1E80                                               l4166 14D8  
                                             l4158 14C0                                               l3390 1D28  
                                             l3446 1A80                                               l3438 1A58  
                                             l3470 12B6                                               l3462 12A6  
                                             l3454 1294                                               l4270 1A1C  
                                             l4262 19F8                               _ADCC_StartConversion 1E1A  
                                             l3288 1D5A                                               l4096 1696  
                                             l4088 168C                                               l3296 1E76  
                                             l4168 14DA                                               l3392 1D3A  
                                             l3480 12CA                                               l3472 12BA  
                                             l3464 12AA                                               l3456 129A  
                                             l3448 1278                                               l4272 1A20  
                                             l4264 19FC                                               l3386 1842  
                                             l3298 1E6C                                               l3490 12DE  
                                             l3482 12CE                                               l3474 12BE  
                                             l3466 12AE                                               l3458 129E  
                                             l4266 1A04                                               l4450 19E2  
                                             l3396 1D42                                               l3492 12E2  
                                             l3484 12D2                                               l3476 12C2  
                                             l3468 12B2                                               l3388 194A  
                                             l4268 1A08                                               l4452 19E4  
                                             l4444 19BA                                               l3398 1188  
                                             l3494 12F0                                               l3486 12D6  
                                             l3478 12C6                                               l4454 19E6  
                                             l4446 19DA                                               l3680 1BEE  
                                             l3496 12FE                                               l3488 12DA  
                                             l4448 19E0                                               l3674 1BC8  
                                             l3498 130C                                               l3676 1BD8  
                                             l3678 1BEC                                               _LATA 003FBA  
                                             _LATB 003FBB                                               _LATC 003FBC  
                                             _LATD 003FBD                                               _LATE 003FBE  
                                             u1535 1494                                               u1536 1496  
                                             _T2PR 003FAB                                               u2527 167C  
                                ?_I2C2_DataReceive 002B                                               i1l92 1E26  
                                             i2l92 1E34                                               _SPI1 1045  
                                             _UART 1001                                               _TMR2 003FAA  
                                             _WPUA 003A41                                               _WPUB 003A51  
                                             _WPUC 003A61                                               _WPUD 003A71  
                                             _WPUE 003A81                                      _INT2_CallBack 1B6E  
                        __end_of_I2C2_AddrTransmit 1EA8                                   __end_of_ADCC_ISR 16FE  
                              ?_Timer1_OverflowISR 002B                                               _main 19BA  
                            _Timer2_PeriodCountSet 000000                                 ??_I2C2_DataReceive 00A3  
                                             _valp 00B3                                   __end_of_I2C_Host 1045  
                                             fsr2h 003FDA                                               indf2 003FDF  
                                             fsr1l 003FE1                                               fsr2l 003FD9  
                            ??_ADCC_DefaultADI_ISR 003B                          ?_INT2_SetInterruptHandler 00AF  
                                fp__SPI1_ByteWrite 0000                                               start 00AE  
                                  ??_I2C2_StopSend 00A0                                    _UART1_IsRxReady 000000  
                            ??_I2C2_RestartDisable 009F                                   ??_I2C2_ReadStart 0043  
                           ??_I2C2_ErrorFlagsClear 009F                                    _UART1_IsTxReady 000000  
                                     ___param_bank 000000                                         _i2c2Status 0001  
                          _Timer1_OverflowCallback 001C                                  _Timer_OverflowISR 1700  
                                 __end_of_INT0_ISR 1AB6                                   __end_of_INT1_ISR 1B12  
                                 __end_of_INT2_ISR 1B6E                                    ?_FVR_Initialize 002B  
                             ??_Timer1_OverflowISR 0035                  fp__Timer2_DefaultOverflowCallback 0000  
                 ??_Timer2_DefaultOverflowCallback 0033                    ?_Timer2_DefaultOverflowCallback 002B  
                                            _ADACT 003EFE                                              _ADCAP 003EF5  
                                            ?_main 002B                                              _ADCLK 003EFF  
                               ?_Timer_OverflowISR 002B                                              _ADCNT 003EEB  
                                            _ADPCH 003EF1                                              _ADREF 003EFD  
                                            _ADRPT 003EEC                   _UART1_TxCompleteCallbackRegister 000000  
                                            _T1CLK 003FB5                                              _T1CON 003FB2  
                                            _U1P1H 003DED                                              _U1P2H 003DEF  
                                            _U1P1L 003DEC                                              _U1P3H 003DF1  
                                            _U1P2L 003DEE                                              _T2CON 003FAC  
                                            _U1P3L 003DF0                                              _U2P1L 003DD4  
                                            _U2P2L 003DD6                                              _U2P3L 003DD8  
                                            _IOCAF 003A47                                              _T2HLT 003FAD  
                                            _IOCBF 003A57                                              _IOCCF 003A67  
                                            _IOCEF 003A87                                              _IOCAN 003A46  
                                            _IOCBN 003A56                                              _IOCAP 003A45  
                                            _IOCCN 003A66                                              _IOCBP 003A55  
                                            _IOCCP 003A65                                              _IOCEN 003A86  
                                            _IOCEP 003A85                                              _T2TMR 003FAA  
                                            i1l400 1E40                                              _U1UIR 003DF8  
                                            _U1RXB 003DE8                                              _T2RST 003FAF  
                                            i1l403 1EE2                                              i1l412 190C  
                                            i1l406 1E4C                                              i1l422 1C3E  
                                            i1l182 1F06                                              i1l431 1DB0  
                                            i1l440 1DF2                                              i1l352 13C8  
                                            i1l176 16EA                             ??_I2C2_DefaultCallback 009F  
                                            _U2UIR 003DE0                                              i1l425 1D84  
                                            i1l409 1ED6                                              i1l345 1360  
                                            i1l434 1D9A                                              i1l418 1ED0  
                                            i1l602 1E9C                                              _U1TXB 003DEA  
                                            i1l371 1C84                                              i1l443 1E08  
                                            i1l363 1146                                              i1l347 13A4  
                                            i1l428 1DC6                                              i1l452 1EBA  
                                            i1l380 1C64                                              i1l437 1DDC  
                                            i1l366 1174                                              i1l446 1ECA  
                                            i1l391 1F08                                              i1l376 1CA8  
                                            i1l449 1EB0                                              i1l394 1EDC  
                                            _U2TXB 003DD2                                              i1l900 1B3E  
                                            i1l388 1C18                                              i1l397 1EA6  
                                            i1l911 1B5A                                              i1l921 1F10  
                                            i1l906 1F0E                                              i1l915 1B9A  
                                            i1l881 1AA2                                              i1l891 1F0C  
                                            i1l788 1F0A                                              i1l876 1EE8  
                                            i1l885 1AE2                                              i1l896 1AFE  
                                            i2l871 1F14                                              i2l980 1746  
                                            i2l986 1F1A                                              _OSCEN 0039DD  
                                            _TMR0H 003FB7                                              _TMR1H 003FB1  
                                            _TMR0L 003FB6                                              _TMR1L 003FB0  
                                            _TRISA 003FC2                                              _TRISB 003FC3  
                                   ?_INT0_CallBack 002B                                              _TRISC 003FC4  
                                            _TRISD 003FC5                                              _TRISE 003FC6  
                                      _Default_ISR 1F14                                  ??_I2C1_Initialize 00AF  
            fp__UART1_FramingErrorCallbackRegister 0000         __end_of_UART1_FramingErrorCallbackRegister 1D0A  
             ??_UART1_FramingErrorCallbackRegister 00B1                ?_UART1_FramingErrorCallbackRegister 00AF  
               _UART1_FramingErrorCallbackRegister 1CEC                                              _Timer 106F  
                                   ?_INT1_CallBack 002B                                ??_Timer_OverflowISR 002D  
                                _I2C2_DataTransmit 1E36                            __end_of_PIN_MANAGER_IOC 1F0C  
                   ??_INT1_DefaultInterruptHandler 00A9                              ?_ADCC_StartConversion 002B  
                                   fp__UART1_Write 0000                                     ?_INT2_CallBack 002B  
                                ??_I2C2_CounterGet 009F                                 ?_I2C2_DataTransmit 002B  
                         _INT1_SetInterruptHandler 1E76                                  ??_I2C2_CounterSet 009F  
                                 ??_I2C2_StartSend 0042                                              pclath 003FFA  
                                            pclatu 003FFB                                              tablat 003FF5  
                                            status 003FD8                                       ??_I2C2_Close 0042  
                              ??_I2C2_DataTransmit 00A4                                 fp__SPI1_Initialize 0000  
                      ??_UART1_Transmit_Vector_ISR 003B                                       __end_of_SPI1 1057  
                                     __end_of_UART 1031                                  ??_I2C2_Initialize 00B1  
                                  __initialization 15D4                               _UART1_TransmitEnable 000000  
                        __end_of_Timer_OverflowISR 1754                                       __end_of_main 19F0  
                 _UART1_RxCompleteInterruptHandler 0012                                          ??_ADC_int 003D  
                                     ?_UART1_Write 002B                                  ?_I2C2_BufferClear 002B  
                                           ??_main 00B3                      i2ADCC_StartConversion@channel 0033  
                                    __activetblptr 000003                   __end_of_UART1_Receive_Vector_ISR 194A  
                               ??_I2C2_BufferClear 009F                                          ??_IOC_ISR 00A6  
                        __end_of_I2C2_DataTransmit 1E42                                   _UART1_Initialize 1278  
 UART1_ParityErrorCallbackRegister@callbackHandler 00AF  UART1_OverrunErrorCallbackRegister@callbackHandler 00AF  
UART1_FramingErrorCallbackRegister@callbackHandler 00AF               I2C2_CallbackRegister@callbackHandler 00AF  
                                   _Timer1_GateISR 1EEC                                 __end_of_I2C2_Close 1C1A  
                                           _ADACCH 003EE9                                             _ADACCL 003EE8  
                                           _ADACCU 003EEA                                             _ADACQH 003EF4  
                                           _ADACQL 003EF3                                             _ADCON0 003EF8  
                                           _ADCON1 003EF9                                             _ADCON2 003EFA  
                                           _ADCON3 003EFB                                             _ADERRH 003EE3  
                                           _ADERRL 003EE2                                             _ADLTHH 003EDF  
                                           _ADLTHL 003EDE                                             _ADRESH 003EF0  
                                           _ADRESL 003EEF                                             _ADPREH 003EF7  
                                           _ADPREL 003EF6                                             _ADSTAT 003EFC  
                                           _ADUTHH 003EE1                                             _ADUTHL 003EE0  
                                 _UART1_ReceiveISR 000000                                             _ANSELA 003A40  
                                           _ANSELB 003A50                                             _ANSELC 003A60  
                                           _ANSELD 003A70                                             _ANSELE 003A80  
                                           _T0CON0 003FB8                                             _T0CON1 003FB9  
                                           _RB1I2C 003A5A                                             _T1GATE 003FB4  
                                           _RB2I2C 003A5B                                             _T1GCON 003FB3  
                                           _RD0I2C 003A7A                                             _U1CON0 003DF2  
                                           _U1CON1 003DF3                                             _U1CON2 003DF4  
                                           _RD1I2C 003A7B                                             _RC3I2C 003A6A  
                                           _RC4I2C 003A6B                                             _U1BRGH 003DF6  
                                           _U1FIFO 003DF7                                             _U2CON0 003DDA  
                                           _U2CON1 003DDB                                             _U1BRGL 003DF5  
                                           _U2CON2 003DDC                                             _U2BRGH 003DDE  
                                           _U2FIFO 003DDF                                             _U2BRGL 003DDD  
                                           _RB1PPS 003A09                                             _RB2PPS 003A0A  
                                           _RC3PPS 003A13                                             i1l1044 1F00  
                                           i1l1161 1EF0                                             _RC5PPS 003A15  
                                           i1l2300 1EA0                                             i1l2302 1ED8  
                                           _ODCONA 003A42                                             _ODCONB 003A52  
                                           _ODCONC 003A62                                             _RC6PPS 003A16  
                                           i1l4100 1DFE                                             _ODCOND 003A72  
                                _I2C2_Deinitialize 000000                                             _ODCONE 003A82  
                                           i1l3330 1E22                                             i1l1395 17F4  
                                           i1l5100 10F2                                             i1l5102 1106  
                                           i1l5110 1126                                             i1l1398 17F6  
                                           i1l5120 1C92                                             i1l5112 113A  
                                           i1l5104 111A                                             i1l3328 1E1C  
                                           i1l4170 1DDE                                             i1l4250 1D9C  
                                           i1l4242 1D70                                             i1l5114 113E  
                                           i1l5106 111E                                             i1l1498 145C  
                                           i1l5116 114A                                             i1l5060 136E  
                                           i2l1062 179A                                             i1l4254 1EDE  
                                           i1l4430 1C80                                             i1l4238 1DC8  
                                           i1l4246 1D86                                             i1l5118 115A  
                                           i1l5070 1394                                             i1l5062 137C  
                                           i1l5054 133A                                             i2l1127 1BC6  
                                           i2l1047 1F04                                             i1l4280 1B26  
                                           i1l4440 1AF6                                             i1l5080 13C4  
                                           i1l5064 138C                                             i1l5072 139C  
                                           i1l5056 134A                                             i2l1153 1F16  
                                           i1l3706 1B6E                                             i1l4442 1AFA  
                                           i1l4274 1AB6                                             i1l4434 1EE4  
                                           i1l4098 1DF4                                             i1l5090 10BA  
                                           i1l5082 1096                                             i1l5066 1390  
                                           i1l5058 1358                                             i1l3394 1E96  
                                           i1l3570 17BA                                             i2l1403 1EF8  
                                           i2l1147 15C6                                             i2l1068 1F18  
                                           i1l3708 1B82                                             i1l4276 1ACA  
                                           i1l4436 1A9A                                             i1l4428 1C6E  
                                           i1l4196 1DB2                                             i1l5092 10CE  
                                           i1l5084 10AA                                             i1l5076 13B2  
                                           i1l5068 1392                                             i1l3580 17F0  
                                           i1l3572 17C4                                             i2l1406 19B4  
                                           i1l4278 1B12                                             i1l4438 1A9E  
                                           i1l5094 10E2                                             i1l5086 10AE  
                                           i1l5078 13C0                                             i1l3566 1EFE  
                                           i1l3582 17F2                                             i1l3574 17D4  
                                           i2l3200 1910                                             i1l5096 10E6  
                                           i1l5088 10B2                                             i1l3576 17E6  
                                           i1l3568 17AA                                             i1l3760 13E2  
                                           i2l1409 19B8                                             i2l3202 1920  
                                           i1l5098 10EA                                             i1l3578 17EC  
                                           i1l3770 1400                                             i1l3762 13E4  
                                           i2l3204 1922                                             i1l4900 1ECC  
                                           i1l3772 141C                                             i1l3764 13EA  
                                           i2l1381 1948                                             i2l4030 1EF4  
                                           i2l3206 192E                                             i1l4910 1EB8  
                                           i1l4902 1E46                                             i1l3774 143A  
                                           i1l3766 13EE                                             i1l3758 13D0  
                                           i1l3790 16BE                                             i2l3208 1940  
                                           i2l1536 1840                                             i1l3952 1B52  
                                           i1l4904 1EC4                                             i1l4920 1C58  
                                           i1l4912 1ED2                                             i1l3776 1456  
                                           i1l3768 13F8                                             i1l3792 16D2  
                                           i1l3954 1B56                                             i1l4906 1EA8  
                                           i1l4930 1C0C                                             i1l4922 1C60  
                                           i1l4940 18D0                                             i1l4908 1EB2  
                                           i1l4932 1C14                                             i1l4924 1BF2  
                                           i1l4916 1C40                                             i1l3788 16BA  
                                           i1l4950 18E4                                             i1l4942 18D4  
                                           i1l4926 1BFC                                             i1l4918 1C52  
                                           i1l4934 1C1A                                             i1l3992 1EEC  
                                           i1l4960 18F8                                             i1l4952 18E8  
                                           i1l4944 18D8                                             i1l4928 1C04  
                                           i1l4936 1C1E                                             i1l4970 1902  
                                           i1l4962 18FA                                             i1l4954 18EC  
                                           i1l4946 18DC                                             i1l4938 1C32  
                                           i1l4972 1904                                             i1l4964 18FC  
                                           i1l4956 18EE                                             i1l4948 18E0  
                                           i2l3710 1F02                                             i1l4974 1908  
                                           i1l4966 18FE                                             i1l4958 18F0  
                                           i2l3720 1BB6                                             i2l3712 1B9C  
                                           i1l4976 190A                                             i1l4968 1900  
                                           i2l3714 1BAA                                             i2l3722 1BBC  
                                           i1l4978 1E3A                                             i2l3724 1BC0  
                                           i2l3716 1BAC                                             i2l3750 19A4  
                                           i2l3718 1BB0                                             i2l3752 19AA  
                                           i2l3584 1E2A                                             _INLVLA 003A44  
                                           i2l3754 19AE                                             i2l3746 1982  
                                           i2l3586 1E30                                             _INLVLB 003A54  
                                           _INLVLC 003A64                                             i2l3748 1992  
                                           i2l3780 1816                                             _INLVLD 003A74  
                                           _INLVLE 003A84                                             i2l3782 181A  
                                           i2l3784 1832                                             i2l3786 183A  
                                           i2l3778 17F8                                             i2l3970 172E  
                                           i2l3962 170C                                             i2l3972 1760  
                                           i2l3964 1710                                             i2l3990 15AE  
                                           i2l3982 156C                                             i2l3974 176A  
                                           i2l3966 1716                                             i2l3984 1570  
                                           i2l3976 177E                                             i2l3968 171C  
                                           i2l3986 157C                                             i2l3978 1796  
                                           i2l3988 159C                                             _FVRCON 003EC1  
                                           _PERIOD 0046                                             _OSCFRQ 0039DF  
                                    ??_Timer2_Stop 002F                                         _Timer2_ISR 1754  
                          i1_I2C2_InterruptsEnable 1DDE                                  __end_of_SPI1_Open 1BF2  
                                 _UART2_Initialize 194A                                             _Timer1 1057  
                                           _Timer2 1063                                         _Timer_Stop 000000  
                                        ?_I2C2_ISR 002B                                             clear_0 161E  
                                           clear_1 162A                                             isa$std 000001  
                                  ??_INT0_CallBack 00A6                                  ?_CLOCK_Initialize 002B  
                                        ?_ADCC_ISR 002B                                    _ADCC_Initialize 14EA  
                        _UART1_Transmit_Vector_ISR 1EF4               __end_of_INT2_DefaultInterruptHandler 1F12  
                     _INT2_DefaultInterruptHandler 1F10                                       __pdataCOMRAM 0044  
                           __end_of_Timer1_GateISR 1EF2                                    ??_INT1_CallBack 00A9  
                               ??_CLOCK_Initialize 00AF                                       __mediumconst 0000  
                                           tblptrh 003FF7                                             tblptrl 003FF6  
                                           tblptru 003FF8              fp__UART1_OverrunErrorCallbackRegister 0000  
       __end_of_UART1_OverrunErrorCallbackRegister 1CEC               ??_UART1_OverrunErrorCallbackRegister 00B1  
              ?_UART1_OverrunErrorCallbackRegister 00AF                 _UART1_OverrunErrorCallbackRegister 1CCE  
                           ??_ADCC_StartConversion 003B                                    ??_INT2_CallBack 00AC  
         INT2_SetInterruptHandler@InterruptHandler 00AF           INT1_SetInterruptHandler@InterruptHandler 00AF  
         INT0_SetInterruptHandler@InterruptHandler 00AF        ADCC_SetADIInterruptHandler@InterruptHandler 00AF  
                                 ?_PIN_MANAGER_IOC 002B                            _Timer2_OverflowCallback 008C  
                                _UART1_AutoBaudSet 000000                                  _SYSTEM_Initialize 19F0  
                                  fp__Timer2_Start 0000                                         __accesstop 0060  
                          __end_of__initialization 163C                                      ??_I2C2_RX_ISR 00A3  
                                        ?_INT0_ISR 002B                                          ?_INT1_ISR 002B  
                                        ?_INT2_ISR 002B                                      ??_I2C2_TX_ISR 00A5  
                                    ??_I2C2_IsAddr 009F                                      ??_I2C2_IsData 009F  
                                    ??_I2C2_IsNack 009F                                     _SPI1_ByteWrite 1E94  
                               ?_SYSTEM_Initialize 002B                                      ___rparam_used 000001  
                   UART1_Receive_Vector_ISR@mesage 0044                     UART1_Receive_Vector_ISR@status 0024  
                                   __pcstackCOMRAM 002B                                      __end_of_Timer 107B  
                                     __pidataBANK0 1E0A                                ??_SYSTEM_Initialize 00B3  
                          ??_I2C2_CallbackRegister 00B1                              _UART1_TransmitDisable 000000  
                                _I2C2_IsBusTimeOut 1D9C                                     ivt0x8_undefint 00AC  
                                ??_SPI1_Initialize 00AF                                         ??_I2C2_ISR 0043  
                               ?_I2C2_IsBusTimeOut 002B                                __end_of_Timer2_Stop 1F06  
                                       ??_ADCC_ISR 003F                                 _spi1_configuration 107B  
                                  ?_Timer1_GateISR 002B                                ??_I2C2_IsBusTimeOut 009F  
                 __end_of_INT2_SetInterruptHandler 1E76                          _UART1_FramingErrorHandler 0018  
                  fp__INT2_DefaultInterruptHandler 0000                      ?_INT2_DefaultInterruptHandler 002B  
                          fp__I2C2_DefaultCallback 0000                        ADCC_StartConversion@channel 003B  
                         _UART1_Receive_Vector_ISR 1910                          __end_of_SYSTEM_Initialize 1A26  
                                       __pbssBANK0 0060                             __end_of_SPI1_ByteWrite 1E9E  
                            _INT0_InterruptHandler 0096                                         ??_INT0_ISR 00A6  
                                       ??_INT1_ISR 00A9                                         ??_INT2_ISR 00AC  
                        ??i1_I2C2_InterruptsEnable 009F                                            IVTBASEH 003FD6  
                                          IVTBASEL 003FD5                                            IVTBASEU 003FD7  
                               _UART1_Deinitialize 000000                                  __end_of_Timer_int 1842  
                                      ?_Timer2_ISR 002B                                      ?_Timer2_Start 002B  
                                    ?_Timer1_Write 0033                          __end_of_I2C2_IsBusTimeOut 1DB2  
                                 ??_FVR_Initialize 00AF                                __end_of_I2C2_RX_ISR 1C8C  
                              __end_of_I2C2_TX_ISR 1CB0                                __end_of_I2C2_IsAddr 1DDE  
                                          _I2C1CLK 003D7B                                __end_of_I2C2_IsData 1D9C  
                                          _I2C2CLK 003D65                                            _I2C1CNT 003D6C  
                                          _I2C1BTO 003D7C                                            _I2C2CNT 003D56  
                                          _I2C1ERR 003D76                              _I2C2_InterruptsEnable 1D5A  
                                          _I2C2ERR 003D60                                            _I2C1PIE 003D7A  
                                          _I2C2PIE 003D64                                            _I2C1PIR 003D79  
                                          _I2C2PIR 003D63                                __end_of_I2C2_IsNack 1D86  
                                          _I2C2RXB 003D54                                            _I2C1TXB 003D6B  
                                          _I2C2TXB 003D55                            __end_of_ADCC_Initialize 155E  
                                  _I2C1_Initialize 1842                                            _ADFLTRH 003EE7  
                                          _ADFLTRL 003EE6                                            _ADPREVH 003EEE  
                                          _ADPREVL 003EED                                            _ADSTPTH 003EE5  
                                          _ADSTPTL 003EE4                                            _ADC_int 13D0  
                                  _I2C2_CounterGet 1ED2                                    _I2C2_CounterSet 1E42  
                                          _U1ERRIE 003DFA                                            _U1ERRIR 003DF9  
                                          _U2ERRIE 003DE2                                            _U2ERRIR 003DE1  
                            __end_of_I2C2_IsBusCol 1DC8                                          _I2C1STAT1 003D78  
                       ??_INT1_SetInterruptHandler 00B1                                          _I2C2STAT1 003D62  
                                     ?_Default_ISR 002B                                            _U1RXCHK 003DE9  
                                          _U1TXCHK 003DEB                                            _IOC_ISR 1EE4  
                                          _U1RXPPS 003AE5                              __end_of_I2C2_BusReset 190E  
                                        _I2C2_Read 000000                                            _OSCCON1 0039D9  
                                          _OSCCON3 0039DB                                            _IVTLOCK 003FD4  
                                          _SPI1CLK 003D1C                             I2C2_CounterSet@counter 009F  
                                          _SPI1RXB 003D10                                            _SPI1TXB 003D11  
                                          _OSCTUNE 0039DE                                            i1u88_20 17BA  
                                          i1u88_21 17B6                                            i1u89_20 17D4  
                                          i1u89_21 17D0                                            i2u69_40 1920  
                                          i2u69_41 191C                                            _SLRCONA 003A43  
                                          _SLRCONB 003A53                                            _SLRCONC 003A63  
                                          _SLRCOND 003A73                                            _SLRCONE 003A83  
                      __end_of_ADCC_DefaultADI_ISR 1F08                                fp__UART1_Initialize 0000  
                                  _I2C2_Initialize 1642             __end_of_Timer2_DefaultOverflowCallback 1F1A  
                   _Timer2_DefaultOverflowCallback 1F18                                    ?_SPI1_ByteWrite 002B  
                      __end_of_I2C2_RestartDisable 1ED2                          ?_INT0_SetInterruptHandler 00AF  
                        INTERRUPT_Initialize@state 00B1                                     Timer_int@count 000E  
                                   ??_Timer2_Start 003B                                     ??_Timer1_Write 0035  
                                          __Hparam 0000                                            __Lparam 0000  
                         __end_of_UART1_Initialize 1334                                        _Timer1_Stop 000000  
                                      _Timer2_Stop 1F02                              __end_of_I2C2_StopSend 1C40  
                         ??i2_ADCC_StartConversion 0033                                       __psmallconst 1000  
                          _Timer1_InterruptHandler 001E                                            __pcinit 15D4  
                              Timer1_OverflowISR@a 001A                                            __ramtop 1000  
                                          __ptext0 19BA                                            __ptext1 19F0  
                                          __ptext2 194A                                            __ptext3 1278  
                                          __ptext4 1CB0                                            __ptext5 1CCE  
                                          __ptext6 1CEC                                            __ptext7 1A26  
                                          __ptext8 1E4E                                            __ptext9 1A58  
                                      _Timer_Start 000000                                          _T1CONbits 003FB2  
                                        _T2CONbits 003FAC                                         fp__ADC_int 0000  
                          _timerTMR0ReloadVal16bit 0090                                        _I2C2ERRbits 003D60  
                         ??_PIN_MANAGER_Initialize 00AF                                          _T2HLTbits 003FAD  
                         __end_of_UART2_Initialize 1982                                        _I2C2PIEbits 003D64  
                                      _I2C2PIRbits 003D63    Timer2_OverflowCallbackRegister@InterruptHandler 00AF  
                                _Timer1_Initialize 188A                               end_of_initialization 163C  
                                        _U1UIRbits 003DF8                                          _T2RSTbits 003FAF  
                         ??_I2C2_InterruptsDisable 009F                           _INT2_SetInterruptHandler 1E6C  
                            I2C2_DataTransmit@data 00A4                     ??_INT2_DefaultInterruptHandler 00AC  
                               ?_Timer1_Initialize 002B                                        _I2C2_RX_ISR 1C68  
                                      _I2C2_TX_ISR 1C8C                                        _I2C2_IsAddr 1DC8  
                                      _I2C2_IsData 1D86                                        _I2C2_IsNack 1D70  
                                      _I2C2_IsBusy 000000                            __end_of_I2C1_Initialize 188A  
                                 _Timer_Initialize 1A26                                ??_Timer1_Initialize 00B1  
                           ?_I2C2_InterruptsEnable 002B                                    _SPI1_BufferRead 000000  
                                        _SPI1TCNTL 003D12                                            postdec1 003FE5  
                          __end_of_I2C2_CounterGet 1ED8                                            postinc0 003FEE  
                          __end_of_I2C2_CounterSet 1E4E                                  _Timer2_Initialize 1A58  
                                 ?_ADCC_Initialize 002B                                          _SPI1_Open 1BC8  
                                UART1_Write@txData 003C                   _UART1_DefaultParityErrorCallback 000000  
                               ?_Timer2_Initialize 002B                              _INT1_InterruptHandler 0094  
                              _SPI1_BufferExchange 000000                  fp__Timer_OverflowCallbackRegister 0000  
                 ??_Timer_OverflowCallbackRegister 00B1                    ?_Timer_OverflowCallbackRegister 00AF  
                          __end_of_I2C2_Initialize 16A6                __end_of_ADCC_SetADIInterruptHandler 1E94  
                      _ADCC_SetADIInterruptHandler 1E8A                       __end_of_I2C2_InterruptsClear 1ECC  
   Timer1_OverflowCallbackRegister@CallbackHandler 00AF      Timer_OverflowCallbackRegister@CallbackHandler 00AF  
                                        _TRISCbits 003FC4                                ??_Timer2_Initialize 00B1  
                        __end_of_Timer1_Initialize 18D0                   _UART1_TxCompleteInterruptHandler 0014  
                            _Timer1_PeriodCountSet 000000                                  _UART1_TransmitISR 1982  
                    ??_ADCC_SetADIInterruptHandler 00B1                                    _SPI1_Initialize 1D28  
                  ??_Timer_DefaultOverflowCallback 0033                                 ?_UART1_TransmitISR 002B  
                           _Timer_OverflowCallback 008E                          __end_of_Timer2_Initialize 1A86  
                              ??_UART1_TransmitISR 003A                                     __end_of_Timer1 1063  
                                   __end_of_Timer2 106F                       __end_of_INTERRUPT_Initialize 14EA  
                                 _I2C2_DataReceive 1EDE               __end_of_INT0_DefaultInterruptHandler 1F0E  
                     _INT0_DefaultInterruptHandler 1F0C                                         ?_SPI1_Open 002B  
                                UART_RX_int@mesage 0010                                  UART_RX_int@opcode 0022  
                                 ??_Timer1_GateISR 00AF                      __end_of_I2C2_CallbackRegister 1D28  
                                    __pidataCOMRAM 1EFA                                  UART_RX_int@status 0023  
                       ??_UART1_Receive_Vector_ISR 0038                                     _I2C2_ERROR_ISR 1084  
                            __end_of_INT0_CallBack 1AE4                                start_initialization 15D4  
                             __end_of_Timer2_Start 1F02                               __end_of_Timer1_Write 1BC8  
                            __end_of_INT1_CallBack 1B40                          __end_of_UART1_TransmitISR 19BA  
                                       ivt0x8_base 0008                              __end_of_INT2_CallBack 1B9C  
                                    _uart1RxBuffer 0080                                      _uart1TxBuffer 0070  
                                 ?_I2C1_Initialize 002B                                       ??_Timer2_ISR 0031  
                                 ?_I2C2_CounterGet 002B                                          _Timer_int 17F8  
                                 ?_I2C2_CounterSet 002B                                        __pdataBANK0 00B3  
               fp__Timer2_OverflowCallbackRegister 0000            __end_of_Timer2_OverflowCallbackRegister 1E62  
                ??_Timer2_OverflowCallbackRegister 00B1                   ?_Timer2_OverflowCallbackRegister 00AF  
                  _Timer2_OverflowCallbackRegister 1E58                                           ?_ADC_int 002B  
                  fp__INT0_DefaultInterruptHandler 0000                             __end_of_I2C2_ERROR_ISR 1188  
                    ?_INT0_DefaultInterruptHandler 002B                                     fp__Timer2_Stop 0000  
                                    _SPI1_ByteRead 000000                                           ?_IOC_ISR 002B  
                                      __pbssCOMRAM 0001                                   ?_I2C2_Initialize 002B  
                 __end_of_INT0_SetInterruptHandler 1E8A                                      __pcstackBANK0 009E  
                                 ??_SPI1_ByteWrite 003B                            __end_of_SPI1_Initialize 1D42  
                         _UART1_RxInterruptHandler 0098                                 __end_of_Timer2_ISR 17A8  
                           i2_ADCC_StartConversion 1E28                               Timer1_Write@timerVal 0033  
                                 _I2C2_BufferClear 1EB2                              _INT2_InterruptHandler 0092  
                                        __pnvBANK0 00C3                             fp__ADCC_DefaultADI_ISR 0000  
                           _PIN_MANAGER_Initialize 1188                                       ?_Timer2_Stop 002B  
                                ?_UART1_Initialize 002B                               _I2C2_InterruptsClear 1EC4  
            __end_of_Timer_DefaultOverflowCallback 1F1C                      _Timer_DefaultOverflowCallback 1F1A  
                                       ?_Timer_int 002B                                           _I2C1ADB0 003D6D  
                                         _I2C1ADB1 003D6E                                           _I2C2ADB1 003D58  
                            UART1_Write@tempTxHead 003B                                           _I2C1ADR0 003D6F  
                                         _I2C1ADR1 003D70                                           _I2C1ADR2 003D71  
                                         _I2C1ADR3 003D72                                 ??_UART1_Initialize 00B1  
                                      ??_SPI1_Open 00AF                                           _I2C1CON0 003D73  
                                         _I2C1CON1 003D74                                           _I2C1CON2 003D75  
                                         _I2C2CON0 003D5D                                           _I2C2CON1 003D5E  
                                         _I2C2CON2 003D5F                                fp__Timer_Initialize 0000  
                           _I2C2_InterruptsDisable 1DF4                                   _uart1RxLastError 008A  
                                         _I2C2_ISR 1334                                      ??_UART1_Write 003B  
                                  ?_I2C2_ERROR_ISR 002B                                     _I2C2_ReadStart 1C40  
                                         _ADCC_ISR 16A8                                        __smallconst 1000  
                       ??_INT2_SetInterruptHandler 00B1                                           _I2C_Host 1031  
                         fp__I2C2_CallbackRegister 0000                           __end_of_Timer_Initialize 1A58  
                                ?_UART2_Initialize 002B                       __end_of_I2C2_ErrorFlagsClear 1EB2  
                                         _T2CLKCON 003FAE                           ?i1_I2C2_InterruptsEnable 002B  
                                      _U1ERRIRbits 003DF9                                 ??_UART2_Initialize 00AF  
                             _INTERRUPT_Initialize 145E                                         _I2C2SDAPPS 003AE4  
                                       _I2C2SCLPPS 003AE3                                   _CLOCK_Initialize 1D42  
                                         _INT0_ISR 1A88                                           _INT1_ISR 1AE4  
                                         _INT2_ISR 1B40                                       ?_I2C2_RX_ISR 002B  
                                         _LATBbits 003FBB                                           _LATDbits 003FBD  
                                     ?_I2C2_TX_ISR 002B                                           _LATEbits 003FBE  
                                     ?_I2C2_IsAddr 002B                   _UART1_RxCompleteCallbackRegister 000000  
                                     ?_I2C2_IsData 002B                            ??_I2C2_InterruptsEnable 00AF  
                                     ?_I2C2_IsNack 002B                          ?_INT1_SetInterruptHandler 00AF  
                                         _IPR0bits 003980                                           _IPR1bits 003981  
                                         _PIE1bits 003991                                           _IPR3bits 003983  
                                         _IPR4bits 003984                                           _IPR5bits 003985  
                                         _PIE3bits 003993                                           _IPR6bits 003986  
                                         _PIE4bits 003994                                           _PIE5bits 003995  
                                         _PIE6bits 003996                                           i1u103_20 1B82  
                                         i1u103_21 1B7E                       __end_of_I2C2_DefaultCallback 1F0A  
                                         i1u112_20 16D2                                           i1u112_21 16CE  
                                         i1u104_28 1B88                                           i1u104_29 1B9A  
                                         i1u113_28 16D8                                           i1u113_29 16EA  
                                         i1u108_20 13E2                                           i1u108_21 13DE  
                                         i1u230_20 1C52                                       _SPI1CON0bits 003D14  
                                         i1u230_21 1C4E                                           _IVTBASEH 003FD6  
                                         i1u231_20 1C32                                           i1u231_21 1C2E  
                                         _IVTBASEL 003FD5                                           i1u160_20 1D98  
                                         i1u240_20 137C                                           i1u160_21 1D92  
                                         i1u240_21 1378                                           _IVTBASEU 003FD7  
                                         i1u160_26 1D9A                                           i1u161_20 1DAE  
                                         i1u241_20 138C                                           i1u161_21 1DA8  
                                         i1u241_21 1388                                         _I2C2_Close 1BF2  
                                         i1u161_26 1DB0                                           i1u162_20 1ACA  
                                         i1u250_20 115A                                           i1u242_20 13B2  
                                         i1u162_21 1AC6                                           i1u250_21 1156  
                                         i1u242_21 13AE                                           i1u243_20 13C0  
                                         i1u243_21 13BC                                           i1u164_20 1B26  
                                         i1u163_28 1AD0                                           i1u156_20 1DC4  
                                         i1u251_28 1160                                           i1u244_20 10AA  
                                         i1u164_21 1B22                                           i1u163_29 1AE2  
                                         i1u156_21 1DBE                                           i1u251_29 1174  
                                         i1u244_21 10A6                                           i1u156_26 1DC6  
                                         i1u157_20 1DDA                                           i1u245_20 10CE  
                                         i1u237_20 134A                                           i1u157_21 1DD4  
                                         i1u245_21 10CA                                           i1u237_21 1346  
                                         i1u253_27 18F2                                           i1u165_28 1B2C  
                                         i1u158_20 1DDC                                           i1u246_20 10E2  
                                         i1u238_20 1358                                           i1u165_29 1B3E  
                                         i1u246_21 10DE                                           i1u238_21 1354  
                                         i1u159_20 1D82                                           i1u247_20 1106  
                                         i1u239_20 136E                                           i1u159_21 1D7C  
                                         i1u247_21 1102                                           i1u239_21 136A  
                                         i2u111_40 1832                                           i2u110_48 180C  
                                         i2u111_41 182E                                           i1u159_26 1D84  
                                         i1u248_20 111A                                           i1u248_21 1116  
                                         i1u249_20 113A                                           i1u249_21 1136  
                                         i2u105_40 1BAA                                           i2u105_41 1BA6  
                                         i2u107_40 1992                                           i2u107_41 198E  
                                         i2u140_40 15AE                                           i2u140_41 15AA  
                                         i2u109_40 180A                                           i2u109_41 1802  
                                         i2u141_48 15B4                                           i2u134_40 172E  
                                         i2u141_49 15C6                                           i2u134_41 172A  
                                         i2u136_40 177E                                           i2u135_48 1734  
                                         i2u136_41 177A                                           i2u135_49 1746  
                                         i2u138_40 158E                                           i2u137_48 1784  
                                         i2u138_41 1586                                           i2u137_49 1796  
                                         i2u139_48 1590                                           _PIR1bits 0039A1  
                                         _PIR2bits 0039A2                                           _SPI1BAUD 003D19  
                                         _PIR3bits 0039A3                                           _PIR4bits 0039A4  
                                         _SPI1CON0 003D14                                           _SPI1CON1 003D15  
                                         _SPI1CON2 003D16                              ?_I2C2_InterruptsClear 002B  
                                         _PIR5bits 0039A5                                           _PIR7bits 0039A7  
                                       _I2C2_Write 000000                                     _I2C2_StartSend 1ED8  
                                    _I2C2STAT0bits 003D61                         __end_of_Timer1_OverflowISR 15D4  
                                    _I2C2STAT1bits 003D62                  fp__Timer1_DefaultOverflowCallback 0000  
                 ??_Timer1_DefaultOverflowCallback 0033                    ?_Timer1_DefaultOverflowCallback 002B  
                                ??_PIN_MANAGER_IOC 00A6                             __end_of_I2C2_ReadStart 1C66  
                                   _I2C2_WriteRead 000000                                         _ADCON0bits 003EF8  
                                       _ADCON1bits 003EF9                                         _ADCON2bits 003EFA  
                                       _ADCON3bits 003EFB                     ??_INT0_DefaultInterruptHandler 00A6  
                              __end_of_UART1_Write 17F8                                   ?_SPI1_Initialize 002B  
                                      _INTCON0bits 003FD2                                          copy_data0 15E8  
                                        copy_data1 160A                           __end_of_I2C2_DataReceive 1EE4  
                            ?_INTERRUPT_Initialize 002B                           _INT0_SetInterruptHandler 1E80  
                           _uart1TxBufferRemaining 0028                                       fp__SPI1_Open 0000  
           __end_of_Timer_OverflowCallbackRegister 1E58                     _Timer_OverflowCallbackRegister 1E4E  
                            I2C2_AddrTransmit@addr 0042                                       _uart1RxCount 0025  
                           __end_of_I2C2_StartSend 1EDE                                         _ADSTATbits 003EFC  
                                         __Hrparam 0000                                       _Timer1_Start 000000  
                                     _Timer2_Start 1EFE                                       _Timer1_Write 1B9C  
                                         __Lrparam 0000                                 SPI1_ByteWrite@byte 003B  
                                      ??_Timer_int 0034                                    ?_I2C2_ReadStart 002B  
                                    _I2C2_Callback 009C                   fp__Timer_DefaultOverflowCallback 0000  
                   ?_Timer_DefaultOverflowCallback 002B                  _UART1_DefaultFramingErrorCallback 000000  
                                    _I2C2_IsBusCol 1DB2                                         _T0CON0bits 003FB8  
                  __end_ofi1_I2C2_InterruptsEnable 1DF4                                           __pivt0x8 0008  
                                    _I2C2_BusReset 18D0                                       _I2C2CON0bits 003D5D  
                                     _I2C2CON1bits 003D5E                                           __ptext10 1E58  
                                         __ptext11 188A                                           __ptext20 1D5A  
                                         __ptext12 1E62                                           __ptext21 1D0A  
                                         __ptext13 1D28                                         _T1GCONbits 003FB3  
                                         __ptext30 13D0                                           __ptext22 1842  
                                         __ptext14 1188                                           __ptext31 17A8  
                                         __ptext23 1EBC                                           __ptext15 145E  
                                         __ptext40 1C40                                           __ptext32 1EFE  
                                         __ptext24 1D42                                           __ptext16 1E6C  
                                         __ptext41 1ED8                                           __ptext33 1E94  
                                         __ptext25 14EA                                           __ptext17 1E76  
                                         __ptext50 1D86                                           __ptext42 1E42  
                                         __ptext34 1E1A                                           __ptext26 1E8A  
                                         __ptext18 1E80                                           __ptext51 1D9C  
                                         __ptext43 1E9E                                           __ptext35 1334  
                                         __ptext27 1BC8                                           __ptext19 1642  
                                         __ptext60 1C8C                                           __ptext52 1DB2  
                                         __ptext44 1BF2                                           __ptext36 1C1A  
                                         __ptext28 16A8                                           __ptext61 1EE4  
                                         __ptext53 1DC8                                           __ptext45 1EC4  
                                         __ptext37 1ECC                                           __ptext29 1F06  
                                         __ptext70 1B6E                                           __ptext62 1F0A  
                                         __ptext54 1F08                                           __ptext46 1EA8  
                                         __ptext38 1E36                                           __ptext71 1F10  
                                         __ptext63 1A88                                           __ptext55 18D0  
                                         __ptext47 1EB2                                           __ptext39 1ED2  
                                         __ptext80 1754                                           __ptext72 1EEC  
                                         __ptext64 1AB6                                           __ptext56 1DDE  
                                         __ptext48 1084                                           __ptext81 1F02  
                                         __ptext73 1F14                                           __ptext65 1F0C  
                                         __ptext57 1DF4                                           __ptext49 1D70  
                                         __ptext82 1560                                           __ptext74 1700  
                                         __ptext66 1AE4                                           __ptext58 1C68  
                                         __ptext83 1B9C                                           __ptext75 1F16  
                                         __ptext67 1B12                                           __ptext59 1EDE  
                                         __ptext84 1910                                           __ptext76 1F18  
                                         __ptext68 1F0E                                           __ptext85 1EF4  
                                         __ptext77 1F1A                                           __ptext69 1B40  
                                         __ptext86 1982                                           __ptext78 17F8  
                                         __ptext87 0000                                           __ptext79 1E28  
                                       _U1CON0bits 003DF2                                         _U1CON1bits 003DF3  
                                    _I2C2_ErrorGet 000000                         ?_UART1_Transmit_Vector_ISR 002B  
                                  ?_I2C2_StartSend 002B                             ??_I2C2_InterruptsClear 009F  
                                      ?_I2C2_Close 002B                                        _IVTLOCKbits 003FD4  
                             fp__Timer1_Initialize 0000                          _UART1_OverrunErrorHandler 0016  
                        _ADCC_ADI_InterruptHandler 00C3                                           isa$xinst 000000  
                                    _I2C2_StopSend 1C1A                       __end_of_ADCC_StartConversion 1E28  
                             _Timer_PeriodCountSet 000000                               _I2C2_ErrorFlagsClear 1EA8  
                         __end_of_I2C2_BufferClear 1EBC                                        _UART1_Write 17A8  
             __end_of_INT1_DefaultInterruptHandler 1F10                       _INT1_DefaultInterruptHandler 1F0E  
                            _I2C2_CallbackRegister 1D0A                                      ??_Default_ISR 002B  
                                   ?_I2C2_IsBusCol 002B                                        _uart1RxHead 0027  
                          ?i2_ADCC_StartConversion 002B                                        _uart1TxHead 002A  
                                   ?_I2C2_BusReset 002B                                        _uart1RxTail 0026  
                                      _uart1TxTail 0029                                         _FVRCONbits 003EC1  
                             _I2C2_DefaultCallback 1F08                               fp__Timer2_Initialize 0000  
                           ??_INTERRUPT_Initialize 00B1                                           intlevel1 0000  
                                         intlevel2 0000                                       fp__Timer_int 0000  
                        ?_UART1_Receive_Vector_ISR 002B                            ?_PIN_MANAGER_Initialize 002B  
                __end_of_UART1_Transmit_Vector_ISR 1EFA                                _uart1RxStatusBuffer 0060  
               fp__Timer1_OverflowCallbackRegister 0000            __end_of_Timer1_OverflowCallbackRegister 1E6C  
                ??_Timer1_OverflowCallbackRegister 00B1                   ?_Timer1_OverflowCallbackRegister 00AF  
                  _Timer1_OverflowCallbackRegister 1E62                                     ?_I2C2_StopSend 002B  
                          ?_I2C2_InterruptsDisable 002B                                   ??_I2C2_ERROR_ISR 00A0  
                                       _SPI1SDIPPS 003ADF                                         _SPI1SCKPPS 003ADE  
                            ?_I2C2_ErrorFlagsClear 002B                                         _UART1_Read 000000  
                                 _SPI1_BufferWrite 000000                               fp__UART1_TransmitISR 0000  
                         __end_of_CLOCK_Initialize 1D5A                                         _SPI1_Close 000000  
                                   _FVR_Initialize 1EBC                     __end_ofi2_ADCC_StartConversion 1E36  
                  fp__INT1_DefaultInterruptHandler 0000                      ?_INT1_DefaultInterruptHandler 002B  
                              _ADCC_DefaultADI_ISR 1F06                              ?_I2C2_DefaultCallback 002B  
                 __end_of_INT1_SetInterruptHandler 1E80                  _UART1_DefaultOverrunErrorCallback 000000  
                                ?_Timer_Initialize 002B                                _I2C2_RestartDisable 1ECC  
                         _UART1_TxInterruptHandler 009A                                __end_of_Default_ISR 1F16  
                               ??_Timer_Initialize 00B1                     __end_of_PIN_MANAGER_Initialize 1278  
                                ??_ADCC_Initialize 00B1                                 fp__I2C2_Initialize 0000  
             fp__UART1_ParityErrorCallbackRegister 0000          __end_of_UART1_ParityErrorCallbackRegister 1CCE  
              ??_UART1_ParityErrorCallbackRegister 00B1                 ?_UART1_ParityErrorCallbackRegister 00AF  
                _UART1_ParityErrorCallbackRegister 1CB0                                    _PIN_MANAGER_IOC 1F0A  
                                _I2C2_AddrTransmit 1E9E                                _UART1_AutoBaudQuery 000000  
                          SPI1_Open@spiConfigIndex 002B                               ?_ADCC_DefaultADI_ISR 002B  
                   __end_of_I2C2_InterruptsDisable 1E0A                      __end_of_I2C2_InterruptsEnable 1D70  
                               ?_I2C2_AddrTransmit 002B                         __end_of_spi1_configuration 1080  
                             ?_I2C2_RestartDisable 002B  
