

Microchip MPLAB XC8 Assembler V2.40 build 20220703182018 
                                                                                               Fri Mar 10 12:02:41 2023

Microchip MPLAB XC8 C Compiler v2.40 (Free license) build 20220703182018 Og1 
     1                           	processor	18F46K42
     2                           	fnconf	rparam,??,?,0
     3                           	pagewidth 120
     4                           	opt	flic
     5                           	psect	idataCOMRAM,global,class=CODE,delta=1,noexec
     6                           	psect	smallconst,global,reloc=2,class=SMALLCONST,delta=1,noexec
     7                           	psect	nvBANK0,global,class=BANK0,space=1,delta=1,lowdata,noexec
     8                           	psect	cinit,global,reloc=2,class=CODE,delta=1
     9                           	psect	bssCOMRAM,global,class=COMRAM,space=1,delta=1,lowdata,noexec
    10                           	psect	dataCOMRAM,global,class=COMRAM,space=1,delta=1,lowdata,noexec
    11                           	psect	bssBANK0,global,class=BANK0,space=1,delta=1,lowdata,noexec
    12                           	psect	cstackBANK0,global,class=BANK0,space=1,delta=1,lowdata,noexec
    13                           	psect	cstackCOMRAM,global,class=COMRAM,space=1,delta=1,lowdata,noexec
    14                           	psect	text0,global,reloc=2,class=CODE,delta=1
    15                           	psect	text1,global,reloc=2,class=CODE,delta=1
    16                           	psect	text2,global,reloc=2,class=CODE,delta=1
    17                           	psect	text3,global,reloc=2,class=CODE,delta=1
    18                           	psect	text4,global,reloc=2,class=CODE,delta=1
    19                           	psect	text5,global,reloc=2,class=CODE,delta=1
    20                           	psect	text6,global,reloc=2,class=CODE,delta=1
    21                           	psect	text7,global,reloc=2,class=CODE,delta=1
    22                           	psect	text8,global,reloc=2,class=CODE,delta=1
    23                           	psect	text9,global,reloc=2,class=CODE,delta=1
    24                           	psect	text10,global,reloc=2,class=CODE,delta=1
    25                           	psect	text11,global,reloc=2,class=CODE,delta=1
    26                           	psect	text12,global,reloc=2,class=CODE,delta=1
    27                           	psect	text13,global,reloc=2,class=CODE,delta=1
    28                           	psect	text14,global,reloc=2,class=CODE,delta=1
    29                           	psect	text15,global,reloc=2,class=CODE,delta=1
    30                           	psect	text16,global,reloc=2,class=CODE,delta=1,inline
    31                           	psect	text17,global,reloc=2,class=CODE,delta=1
    32                           	psect	text18,global,reloc=2,class=CODE,delta=1
    33                           	psect	text19,global,reloc=2,class=CODE,delta=1
    34                           	psect	text20,global,reloc=2,class=CODE,delta=1
    35                           	psect	text21,global,reloc=2,class=CODE,delta=1
    36                           	psect	text22,global,reloc=2,class=CODE,delta=1
    37                           	psect	text23,global,reloc=4,class=CODE,delta=1
    38                           	psect	text24,global,reloc=2,class=CODE,delta=1
    39                           	psect	text25,global,reloc=2,class=CODE,delta=1,inline
    40                           	psect	text26,global,reloc=2,class=CODE,delta=1
    41                           	psect	text27,global,reloc=2,class=CODE,delta=1
    42                           	psect	text28,global,reloc=2,class=CODE,delta=1
    43                           	psect	text29,global,reloc=2,class=CODE,delta=1
    44                           	psect	text30,global,reloc=2,class=CODE,delta=1
    45                           	psect	text31,global,reloc=2,class=CODE,delta=1
    46                           	psect	text32,global,reloc=2,class=CODE,delta=1
    47                           	psect	text33,global,reloc=2,class=CODE,delta=1,inline
    48                           	psect	text34,global,reloc=2,class=CODE,delta=1,inline
    49                           	psect	text35,global,reloc=2,class=CODE,delta=1,inline
    50                           	psect	text36,global,reloc=4,class=CODE,delta=1
    51                           	psect	text37,global,reloc=2,class=CODE,delta=1
    52                           	psect	text38,global,reloc=2,class=CODE,delta=1
    53                           	psect	text39,global,reloc=2,class=CODE,delta=1
    54                           	psect	text40,global,reloc=2,class=CODE,delta=1
    55                           	psect	text41,global,reloc=2,class=CODE,delta=1
    56                           	psect	text42,global,reloc=2,class=CODE,delta=1
    57                           	psect	text43,global,reloc=2,class=CODE,delta=1,inline
    58                           	psect	text44,global,reloc=2,class=CODE,delta=1,inline
    59                           	psect	text45,global,reloc=2,class=CODE,delta=1,inline
    60                           	psect	text46,global,reloc=4,class=CODE,delta=1
    61                           	psect	text47,global,reloc=2,class=CODE,delta=1
    62                           	psect	text48,global,reloc=4,class=CODE,delta=1
    63                           	psect	text49,global,reloc=4,class=CODE,delta=1
    64                           	psect	text50,global,reloc=2,class=CODE,delta=1
    65                           	psect	text51,global,reloc=4,class=CODE,delta=1
    66                           	psect	text52,global,reloc=2,class=CODE,delta=1
    67                           	psect	text53,global,reloc=2,class=CODE,delta=1
    68                           	psect	text54,global,reloc=4,class=CODE,delta=1
    69                           	psect	text55,global,reloc=2,class=CODE,delta=1
    70                           	psect	text56,global,reloc=2,class=CODE,delta=1
    71                           	psect	text57,global,reloc=4,class=CODE,delta=1
    72                           	psect	text58,global,reloc=2,class=CODE,delta=1
    73                           	psect	text59,global,reloc=2,class=CODE,delta=1
    74                           	psect	text60,global,reloc=4,class=CODE,delta=1
    75                           	psect	text61,global,reloc=2,class=CODE,delta=1
    76                           	psect	text62,global,reloc=4,class=CODE,delta=1
    77                           	psect	text63,global,reloc=2,class=CODE,delta=1
    78                           	psect	text64,global,reloc=2,class=CODE,delta=1
    79                           	psect	text65,global,reloc=2,class=CODE,delta=1
    80                           	psect	text66,global,reloc=2,class=CODE,delta=1
    81                           	psect	text67,global,reloc=4,class=CODE,delta=1
    82                           	psect	text68,global,reloc=4,class=CODE,delta=1
    83                           	psect	text69,global,reloc=2,class=CODE,delta=1
    84                           	psect	text70,global,reloc=2,class=CODE,delta=1
    85                           	psect	text71,global,reloc=4,class=CODE,delta=1
    86                           	psect	text72,global,reloc=2,class=CODE,delta=1
    87                           	psect	text73,global,reloc=2,class=CODE,delta=1
    88                           	psect	text74,global,reloc=2,class=CODE,delta=1
    89                           	psect	ivt0x8,global,reloc=2,class=CODE,delta=1,noexec,keep,optim=
    90                           	psect	intsave_regs,global,class=BIGRAM,space=1,delta=1,noexec
    91                           	psect	text75,global,reloc=2,class=CODE,delta=1
    92                           	psect	rparam,global,class=COMRAM,space=1,delta=1,noexec
    93                           	psect	idloc,global,abs,ovrld,class=IDLOC,space=5,delta=1,noexec
    94                           	psect	config,global,abs,ovrld,class=CONFIG,space=4,delta=1,noexec
    95   000000                     
    96                           ; Generated 06/04/2022 GMT
    97                           ; 
    98                           ; Copyright © 2022, Microchip Technology Inc. and its subsidiaries ("Microchip")
    99                           ; All rights reserved.
   100                           ; 
   101                           ; This software is developed by Microchip Technology Inc. and its subsidiaries ("Microch
      +                          ip").
   102                           ; 
   103                           ; Redistribution and use in source and binary forms, with or without modification, are
   104                           ; permitted provided that the following conditions are met:
   105                           ; 
   106                           ;     1. Redistributions of source code must retain the above copyright notice, this lis
      +                          t of
   107                           ;        conditions and the following disclaimer.
   108                           ; 
   109                           ;     2. Redistributions in binary form must reproduce the above copyright notice, this 
      +                          list
   110                           ;        of conditions and the following disclaimer in the documentation and/or other
   111                           ;        materials provided with the distribution. Publication is not required when
   112                           ;        this file is used in an embedded application.
   113                           ; 
   114                           ;     3. Microchip's name may not be used to endorse or promote products derived from th
      +                          is
   115                           ;        software without specific prior written permission.
   116                           ; 
   117                           ; THIS SOFTWARE IS PROVIDED BY MICROCHIP "AS IS" AND ANY EXPRESS OR IMPLIED WARRANTIES,
   118                           ; INCLUDING, BUT NOT LIMITED TO, THE IMPLIED WARRANTIES OF MERCHANTABILITY AND FITNESS F
      +                          OR
   119                           ; PURPOSE ARE DISCLAIMED.  IN NO EVENT SHALL MICROCHIP BE LIABLE FOR ANY DIRECT, INDIREC
      +                          T,
   120                           ; INCIDENTAL, SPECIAL, EXEMPLARY, OR CONSEQUENTIAL DAMAGES (INCLUDING BUT NOT LIMITED TO
   121                           ; PROCUREMENT OF SUBSTITUTE GOODS OR SERVICES; LOSS OF USE, DATA OR PROFITS; OR BUSINESS
   122                           ; INTERRUPTION) HOWSOEVER CAUSED AND ON ANY THEORY OF LIABILITY, WHETHER IN CONTRACT, ST
      +                          RICT
   123                           ; LIABILITY, OR TORT (INCLUDING NEGLIGENCE OR OTHERWISE) ARISING IN ANY WAY OUT OF THE U
      +                          SE OF
   124                           ; THIS SOFTWARE, EVEN IF ADVISED OF THE POSSIBILITY OF SUCH DAMAGE.
   125                           ; 
   126                           ; 
   127                           ; Code-generator required, PIC18F46K42 Definitions
   128                           ; 
   129                           ; SFR Addresses
   130   000000                     
   131 ;; Function _I2C2_Deinitialize is unused but had its address taken
   132   000000                     
   133 ;; Function _I2C2_Write is unused but had its address taken
   134   000000                     
   135 ;; Function _I2C2_Read is unused but had its address taken
   136   000000                     
   137 ;; Function _I2C2_WriteRead is unused but had its address taken
   138   000000                     
   139 ;; Function _I2C2_ErrorGet is unused but had its address taken
   140   000000                     
   141 ;; Function _I2C2_IsBusy is unused but had its address taken
   142   000000                     
   143 ;; Function _SPI_Open is unused but had its address taken
   144   000000                     
   145 ;; Function _SPI_Close is unused but had its address taken
   146   000000                     
   147 ;; Function _SPI_ByteExchange is unused but had its address taken
   148   000000                     
   149 ;; Function _SPI_BufferExchange is unused but had its address taken
   150   000000                     
   151 ;; Function _SPI_BufferWrite is unused but had its address taken
   152   000000                     
   153 ;; Function _SPI_BufferRead is unused but had its address taken
   154   000000                     
   155 ;; Function _SPI_ByteWrite is unused but had its address taken
   156   000000                     
   157 ;; Function _SPI_ByteRead is unused but had its address taken
   158   000000                     
   159 ;; Function _Timer_Start is unused but had its address taken
   160   000000                     
   161 ;; Function _Timer_Stop is unused but had its address taken
   162   000000                     
   163 ;; Function _Timer_PeriodCountSet is unused but had its address taken
   164   000000                     
   165 ;; Function _UART1_Deinitialize is unused but had its address taken
   166   000000                     
   167 ;; Function _UART1_TransmitEnable is unused but had its address taken
   168   000000                     
   169 ;; Function _UART1_TransmitDisable is unused but had its address taken
   170   000000                     
   171 ;; Function _UART1_AutoBaudSet is unused but had its address taken
   172   000000                     
   173 ;; Function _UART1_AutoBaudQuery is unused but had its address taken
   174   000000                     
   175 ;; Function _UART1_IsRxReady is unused but had its address taken
   176   000000                     
   177 ;; Function _UART1_IsTxReady is unused but had its address taken
   178   000000                     
   179 ;; Function _UART1_IsTxDone is unused but had its address taken
   180   000000                     
   181 ;; Function _UART1_ErrorGet is unused but had its address taken
   182   000000                     
   183 ;; Function _UART1_Read is unused but had its address taken
   184   000000                     
   185 ;; Function _UART1_DefaultParityErrorCallback is unused but had its address taken
   186   000000                     
   187 ;; Function _UART1_RxCompleteCallbackRegister is unused but had its address taken
   188   000000                     
   189 ;; Function _UART1_TxCompleteCallbackRegister is unused but had its address taken
   190   000000                     
   191                           	psect	idataCOMRAM
   192   001DDA                     __pidataCOMRAM:
   193                           	callstack 0
   194                           
   195                           ;initializer for _PERIOD
   196   001DDA  0001               	dw	1
   197                           
   198                           	psect	smallconst
   199   001000                     __psmallconst:
   200                           	callstack 0
   201   001000  00                 	db	0
   202   001001                     _UART:
   203                           	callstack 0
   204   001001  60                 	db	low _UART1_Initialize
   205   001002  14                 	db	high _UART1_Initialize
   206   001003  00                 	db	0
   207   001004  00                 	db	0
   208   001005  00                 	db	0
   209   001006  00                 	db	0
   210   001007  4E                 	db	low _UART1_Write
   211   001008  17                 	db	high _UART1_Write
   212   001009  00                 	db	0
   213   00100A  00                 	db	0
   214   00100B  00                 	db	0
   215   00100C  00                 	db	0
   216   00100D  00                 	db	0
   217   00100E  00                 	db	0
   218   00100F  00                 	db	0
   219   001010  00                 	db	0
   220   001011  00                 	db	0
   221   001012  00                 	db	0
   222   001013  00                 	db	0
   223   001014  00                 	db	0
   224   001015  00                 	db	0
   225   001016  00                 	db	0
   226   001017  00                 	db	0
   227   001018  00                 	db	0
   228   001019  00                 	db	0
   229   00101A  00                 	db	0
   230   00101B  00                 	db	0
   231   00101C  00                 	db	0
   232   00101D  00                 	db	0
   233   00101E  00                 	db	0
   234   00101F  00                 	db	0
   235   001020  00                 	db	0
   236   001021  00                 	db	0
   237   001022  00                 	db	0
   238   001023  00                 	db	0
   239   001024  00                 	db	0
   240   001025  00                 	db	0
   241   001026  00                 	db	0
   242   001027  00                 	db	0
   243   001028  00                 	db	0
   244   001029  EC                 	db	low _UART1_FramingErrorCallbackRegister
   245   00102A  1B                 	db	high _UART1_FramingErrorCallbackRegister
   246   00102B  CE                 	db	low _UART1_OverrunErrorCallbackRegister
   247   00102C  1B                 	db	high _UART1_OverrunErrorCallbackRegister
   248   00102D  B0                 	db	low _UART1_ParityErrorCallbackRegister
   249   00102E  1B                 	db	high _UART1_ParityErrorCallbackRegister
   250   00102F  00                 	db	0
   251   001030  00                 	db	0
   252   001031                     __end_of_UART:
   253                           	callstack 0
   254   001031                     _I2C_Host:
   255                           	callstack 0
   256   001031  96                 	db	low _I2C2_Initialize
   257   001032  16                 	db	high _I2C2_Initialize
   258   001033  00                 	db	0
   259   001034  00                 	db	0
   260   001035  00                 	db	0
   261   001036  00                 	db	0
   262   001037  00                 	db	0
   263   001038  00                 	db	0
   264   001039  00                 	db	0
   265   00103A  00                 	db	0
   266   00103B  00                 	db	0
   267   00103C  00                 	db	0
   268   00103D  00                 	db	0
   269   00103E  00                 	db	0
   270   00103F  00                 	db	0
   271   001040  00                 	db	0
   272   001041  0A                 	db	low _I2C2_CallbackRegister
   273   001042  1C                 	db	high _I2C2_CallbackRegister
   274   001043  00                 	db	0
   275   001044  00                 	db	0
   276   001045                     __end_of_I2C_Host:
   277                           	callstack 0
   278   001045                     _SPI:
   279                           	callstack 0
   280   001045  46                 	db	low _SPI_Initialize
   281   001046  1C                 	db	high _SPI_Initialize
   282   001047  00                 	db	0
   283   001048  00                 	db	0
   284   001049  00                 	db	0
   285   00104A  00                 	db	0
   286   00104B  00                 	db	0
   287   00104C  00                 	db	0
   288   00104D  00                 	db	0
   289   00104E  00                 	db	0
   290   00104F  00                 	db	0
   291   001050  00                 	db	0
   292   001051  00                 	db	0
   293   001052  00                 	db	0
   294   001053  00                 	db	0
   295   001054  00                 	db	0
   296   001055  00                 	db	0
   297   001056  00                 	db	0
   298   001057                     __end_of_SPI:
   299                           	callstack 0
   300   001057                     _Timer:
   301                           	callstack 0
   302   001057  28                 	db	low _Timer_Initialize
   303   001058  19                 	db	high _Timer_Initialize
   304   001059  00                 	db	0
   305   00105A  00                 	db	0
   306   00105B  00                 	db	0
   307   00105C  00                 	db	0
   308   00105D  00                 	db	0
   309   00105E  00                 	db	0
   310   00105F  48                 	db	low _Timer_OverflowCallbackRegister
   311   001060  1D                 	db	high _Timer_OverflowCallbackRegister
   312   001061  00                 	db	0
   313   001062  00                 	db	0
   314   001063                     __end_of_Timer:
   315                           	callstack 0
   316   001063                     _spi1_configuration:
   317                           	callstack 0
   318   001063  02                 	db	2
   319   001064  40                 	db	64
   320   001065  00                 	db	0
   321   001066  1F                 	db	31
   322   001067  00                 	db	0
   323   001068                     __end_of_spi1_configuration:
   324                           	callstack 0
   325   000000                     _T0CON0	set	16312
   326   000000                     _T0CON1	set	16313
   327   000000                     _IVTBASEL	set	16341
   328   000000                     _IVTBASEH	set	16342
   329   000000                     _IVTBASEU	set	16343
   330   000000                     _OSCTUNE	set	14814
   331   000000                     _OSCFRQ	set	14815
   332   000000                     _I2C2SDAPPS	set	15076
   333   000000                     _TRISB	set	16323
   334   000000                     _I2C2STAT1	set	15714
   335   000000                     _I2C2STAT0bits	set	15713
   336   000000                     _I2C2ERR	set	15712
   337   000000                     _I2C2PIE	set	15716
   338   000000                     _I2C2PIR	set	15715
   339   000000                     _I2C2CLK	set	15717
   340   000000                     _I2C2CON2	set	15711
   341   000000                     _I2C2CON1	set	15710
   342   000000                     _ADERRL	set	16098
   343   000000                     _ADERRH	set	16099
   344   000000                     _ADPREVL	set	16109
   345   000000                     _ADPREVH	set	16110
   346   000000                     _ADFLTRL	set	16102
   347   000000                     _ADFLTRH	set	16103
   348   000000                     _ADACCL	set	16104
   349   000000                     _ADACCH	set	16105
   350   000000                     _ADCNT	set	16107
   351   000000                     _ADRESL	set	16111
   352   000000                     _ADRESH	set	16112
   353   000000                     _ADCON0	set	16120
   354   000000                     _ADCON1	set	16121
   355   000000                     _ADPREH	set	16119
   356   000000                     _ADPREL	set	16118
   357   000000                     _ADCAP	set	16117
   358   000000                     _ADACQH	set	16116
   359   000000                     _ADPCH	set	16113
   360   000000                     _ADRPT	set	16108
   361   000000                     _ADACCU	set	16106
   362   000000                     _ADSTPTH	set	16101
   363   000000                     _ADSTPTL	set	16100
   364   000000                     _ADUTHH	set	16097
   365   000000                     _ADUTHL	set	16096
   366   000000                     _ADLTHH	set	16095
   367   001068  00                 	db	0	; dummy byte at the end
   368   000000                     
   369                           	psect	nvBANK0
   370   00009C                     __pnvBANK0:
   371                           	callstack 0
   372   00009C                     _ADCC_ADI_InterruptHandler:
   373                           	callstack 0
   374   00009C                     	ds	2
   375   000000                     _U1ERRIRbits	set	15865
   376   000000                     _U1UIRbits	set	15864
   377   000000                     _U1CON0bits	set	15858
   378   000000                     _U1CON1bits	set	15859
   379   000000                     _SPI1CON0bits	set	15636
   380   000000                     _I2C2STAT1bits	set	15714
   381   000000                     _I2C2CON1bits	set	15710
   382   000000                     _I2C2ERRbits	set	15712
   383   000000                     _I2C2PIRbits	set	15715
   384   000000                     _I2C2CON0bits	set	15709
   385   000000                     _I2C2PIEbits	set	15716
   386   000000                     _FVRCONbits	set	16065
   387   000000                     _ADCON1bits	set	16121
   388   000000                     _ADSTATbits	set	16124
   389   000000                     _ADCON2bits	set	16122
   390   000000                     _ADCON3bits	set	16123
   391   000000                     _ADCON0bits	set	16120
   392   000000                     _LATDbits	set	16317
   393   000000                     _T0CON0bits	set	16312
   394   000000                     _IVTLOCKbits	set	16340
   395   000000                     _TRISC	set	16324
   396   000000                     _GIE	set	130711
   397   000000                     _IPR0bits	set	14720
   398   000000                     _IPR1bits	set	14721
   399   000000                     _PIE1bits	set	14737
   400   000000                     _PIR1bits	set	14753
   401   000000                     _ADLTHL	set	16094
   402   000000                     _ADACQL	set	16115
   403   000000                     _TMR0L	set	16310
   404   000000                     _TMR0H	set	16311
   405   000000                     _LATA	set	16314
   406   000000                     _TRISCbits	set	16324
   407   000000                     _ADCLK	set	16127
   408   000000                     _ADACT	set	16126
   409   000000                     _ADREF	set	16125
   410   000000                     _ADSTAT	set	16124
   411   000000                     _ADCON3	set	16123
   412   000000                     _ADCON2	set	16122
   413   000000                     _PIR3bits	set	14755
   414   000000                     _PIR5bits	set	14757
   415   000000                     _OSCCON1	set	14809
   416   000000                     _RB1PPS	set	14857
   417   000000                     _RC3PPS	set	14867
   418   000000                     _RC6PPS	set	14870
   419   000000                     _ANSELA	set	14912
   420   000000                     _PIR2bits	set	14754
   421   000000                     _RC3I2C	set	14954
   422   000000                     _I2C2CNT	set	15702
   423   000000                     _I2C2CON0	set	15709
   424   000000                     _FVRCON	set	16065
   425   000000                     _PIE3bits	set	14739
   426   000000                     _PIE5bits	set	14741
   427   000000                     _PIE6bits	set	14742
   428   000000                     _I2C1TXB	set	15723
   429   000000                     _I2C2ADB1	set	15704
   430   000000                     _ANSELD	set	14960
   431   000000                     _SPI1RXB	set	15632
   432   000000                     _SPI1TXB	set	15633
   433   000000                     _SPI1TCNTL	set	15634
   434   000000                     _SPI1CON0	set	15636
   435   000000                     _SPI1CON1	set	15637
   436   000000                     _I2C2RXB	set	15700
   437   000000                     _I2C2TXB	set	15701
   438   000000                     _RC4I2C	set	14955
   439   000000                     _I2C1STAT1	set	15736
   440   000000                     _I2C1ERR	set	15734
   441   000000                     _I2C1CON2	set	15733
   442   000000                     _I2C1CON1	set	15732
   443   000000                     _I2C1CON0	set	15731
   444   000000                     _I2C1ADR3	set	15730
   445   000000                     _I2C1ADR2	set	15729
   446   000000                     _I2C1ADR1	set	15728
   447   000000                     _I2C1ADR0	set	15727
   448   000000                     _I2C1ADB1	set	15726
   449   000000                     _I2C1ADB0	set	15725
   450   000000                     _I2C1CNT	set	15724
   451   000000                     _U2TXB	set	15826
   452   000000                     _I2C1BTO	set	15740
   453   000000                     _I2C1CLK	set	15739
   454   000000                     _I2C1PIE	set	15738
   455   000000                     _I2C1PIR	set	15737
   456   000000                     _U2P1L	set	15828
   457   000000                     _U2P2L	set	15830
   458   000000                     _U2P3L	set	15832
   459   000000                     _U2CON0	set	15834
   460   000000                     _U1RXB	set	15848
   461   000000                     _U2ERRIE	set	15842
   462   000000                     _U2ERRIR	set	15841
   463   000000                     _U2UIR	set	15840
   464   000000                     _U2FIFO	set	15839
   465   000000                     _U2BRGH	set	15838
   466   000000                     _U2BRGL	set	15837
   467   000000                     _U2CON2	set	15836
   468   000000                     _U2CON1	set	15835
   469   000000                     _SPI1BAUD	set	15641
   470   000000                     _SPI1CLK	set	15644
   471   000000                     _SPI1CON2	set	15638
   472   000000                     _INTCON0bits	set	16338
   473   000000                     _TRISE	set	16326
   474   000000                     _TRISD	set	16325
   475   000000                     _TRISA	set	16322
   476   000000                     _LATE	set	16318
   477   000000                     _LATD	set	16317
   478   000000                     _LATC	set	16316
   479   000000                     _LATB	set	16315
   480   000000                     _IOCAF	set	14919
   481   000000                     _IOCAN	set	14918
   482   000000                     _IOCAP	set	14917
   483   000000                     _INLVLA	set	14916
   484   000000                     _SLRCONA	set	14915
   485   000000                     _ODCONA	set	14914
   486   000000                     _WPUA	set	14913
   487   000000                     _ANSELB	set	14928
   488   000000                     _IOCBF	set	14935
   489   000000                     _IOCBN	set	14934
   490   000000                     _IOCBP	set	14933
   491   000000                     _INLVLB	set	14932
   492   000000                     _SLRCONB	set	14931
   493   000000                     _ODCONB	set	14930
   494   000000                     _RB1I2C	set	14938
   495   000000                     _WPUB	set	14929
   496   000000                     _ANSELC	set	14944
   497   000000                     _IOCCF	set	14951
   498   000000                     _IOCCN	set	14950
   499   000000                     _IOCCP	set	14949
   500   000000                     _INLVLC	set	14948
   501   000000                     _SLRCONC	set	14947
   502   000000                     _ODCONC	set	14946
   503   000000                     _WPUC	set	14945
   504   000000                     _INLVLD	set	14964
   505   000000                     _SLRCOND	set	14963
   506   000000                     _ODCOND	set	14962
   507   000000                     _RD0I2C	set	14970
   508   000000                     _WPUD	set	14961
   509   000000                     _ANSELE	set	14976
   510   000000                     _IOCEF	set	14983
   511   000000                     _IOCEN	set	14982
   512   000000                     _IOCEP	set	14981
   513   000000                     _SPI1SCKPPS	set	15070
   514   000000                     _SPI1SDIPPS	set	15071
   515   000000                     _INLVLE	set	14980
   516   000000                     _SLRCONE	set	14979
   517   000000                     _ODCONE	set	14978
   518   000000                     _WPUE	set	14977
   519   000000                     _RB2I2C	set	14939
   520   000000                     _RD1I2C	set	14971
   521   000000                     _I2C2SCLPPS	set	15075
   522   000000                     _U1RXPPS	set	15077
   523   000000                     _RB2PPS	set	14858
   524   000000                     _OSCCON3	set	14811
   525   000000                     _OSCEN	set	14813
   526   000000                     _IVTLOCK	set	16340
   527   000000                     _IPR3bits	set	14723
   528   000000                     _IPR5bits	set	14725
   529   000000                     _IPR6bits	set	14726
   530   000000                     _PIR7bits	set	14759
   531   000000                     _U1ERRIE	set	15866
   532   000000                     _U1ERRIR	set	15865
   533   000000                     _U1UIR	set	15864
   534   000000                     _U1FIFO	set	15863
   535   000000                     _U1BRGH	set	15862
   536   000000                     _U1BRGL	set	15861
   537   000000                     _U1CON2	set	15860
   538   000000                     _U1CON1	set	15859
   539   000000                     _U1CON0	set	15858
   540   000000                     _U1P3H	set	15857
   541   000000                     _U1P3L	set	15856
   542   000000                     _U1P2H	set	15855
   543   000000                     _U1P2L	set	15854
   544   000000                     _U1P1H	set	15853
   545   000000                     _U1P1L	set	15852
   546   000000                     _U1TXCHK	set	15851
   547   000000                     _U1TXB	set	15850
   548   000000                     _U1RXCHK	set	15849
   549                           
   550                           ; #config settings
   551                           
   552                           	psect	cinit
   553   001832                     __pcinit:
   554                           	callstack 0
   555   001832                     start_initialization:
   556                           	callstack 0
   557   001832                     __initialization:
   558                           	callstack 0
   559                           
   560                           ; Initialize objects allocated to COMRAM (2 bytes)
   561                           ; load TBLPTR registers with __pidataCOMRAM
   562   001832  0EDA               	movlw	low __pidataCOMRAM
   563   001834  6EF6               	movwf	tblptrl,c
   564   001836  0E1D               	movlw	high __pidataCOMRAM
   565   001838  6EF7               	movwf	tblptrh,c
   566   00183A  0E00               	movlw	low (__pidataCOMRAM shr (0+16))
   567   00183C  6EF8               	movwf	tblptru,c
   568   00183E  0009               	tblrd		*+	;fetch initializer
   569   001840  006F FFD4  F048    	movff	tablat,__pdataCOMRAM
   570   001846  0009               	tblrd		*+	;fetch initializer
   571   001848  006F FFD4  F049    	movff	tablat,__pdataCOMRAM+1
   572                           
   573                           ; Clear objects allocated to BANK0 (38 bytes)
   574   00184E  EE00  F060         	lfsr	0,__pbssBANK0
   575   001852  0E26               	movlw	38
   576   001854                     clear_0:
   577   001854  6AEE               	clrf	postinc0,c
   578   001856  06E8               	decf	wreg,f,c
   579   001858  E1FD               	bnz	clear_0
   580                           
   581                           ; Clear objects allocated to COMRAM (47 bytes)
   582   00185A  EE00  F001         	lfsr	0,__pbssCOMRAM
   583   00185E  0E2F               	movlw	47
   584   001860                     clear_1:
   585   001860  6AEE               	clrf	postinc0,c
   586   001862  06E8               	decf	wreg,f,c
   587   001864  E1FD               	bnz	clear_1
   588                           
   589                           ;
   590                           ; Setup IVTBASE
   591                           ;
   592   001866  0E08               	movlw	(ivt0x8_base shr 0)& (0+255)
   593   001868  6ED5               	movwf	213,c
   594   00186A  0E00               	movlw	(ivt0x8_base shr (0+8))& (0+255)
   595   00186C  6ED6               	movwf	214,c
   596   00186E  0E00               	movlw	(ivt0x8_base shr (0+16))& (0+255)
   597   001870  6ED7               	movwf	215,c
   598   001872                     end_of_initialization:
   599                           	callstack 0
   600   001872                     __end_of__initialization:
   601                           	callstack 0
   602   001872  0100               	movlb	0
   603   001874  EF0B  F00D         	goto	_main	;jump to C main() function
   604                           
   605                           	psect	bssCOMRAM
   606   000001                     __pbssCOMRAM:
   607                           	callstack 0
   608   000001                     _i2c2Status:
   609                           	callstack 0
   610   000001                     	ds	13
   611   00000E                     Timer_int@count:
   612                           	callstack 0
   613   00000E                     	ds	2
   614   000010                     UART_RX_int@mesage:
   615                           	callstack 0
   616   000010                     	ds	2
   617   000012                     _UART1_RxCompleteInterruptHandler:
   618                           	callstack 0
   619   000012                     	ds	2
   620   000014                     _UART1_TxCompleteInterruptHandler:
   621                           	callstack 0
   622   000014                     	ds	2
   623   000016                     _UART1_OverrunErrorHandler:
   624                           	callstack 0
   625   000016                     	ds	2
   626   000018                     _UART1_FramingErrorHandler:
   627                           	callstack 0
   628   000018                     	ds	2
   629   00001A                     _Timer_OverflowCallback:
   630                           	callstack 0
   631   00001A                     	ds	2
   632   00001C                     _timerTMR0ReloadVal16bit:
   633                           	callstack 0
   634   00001C                     	ds	2
   635   00001E                     _INT2_InterruptHandler:
   636                           	callstack 0
   637   00001E                     	ds	2
   638   000020                     _INT1_InterruptHandler:
   639                           	callstack 0
   640   000020                     	ds	2
   641   000022                     _INT0_InterruptHandler:
   642                           	callstack 0
   643   000022                     	ds	2
   644   000024                     _UART1_TxInterruptHandler:
   645                           	callstack 0
   646   000024                     	ds	2
   647   000026                     _I2C2_Callback:
   648                           	callstack 0
   649   000026                     	ds	2
   650   000028                     UART_RX_int@opcode:
   651                           	callstack 0
   652   000028                     	ds	1
   653   000029                     UART_RX_int@status:
   654                           	callstack 0
   655   000029                     	ds	1
   656   00002A                     _uart1RxCount:
   657                           	callstack 0
   658   00002A                     	ds	1
   659   00002B                     _uart1RxTail:
   660                           	callstack 0
   661   00002B                     	ds	1
   662   00002C                     _uart1RxHead:
   663                           	callstack 0
   664   00002C                     	ds	1
   665   00002D                     _uart1TxBufferRemaining:
   666                           	callstack 0
   667   00002D                     	ds	1
   668   00002E                     _uart1TxTail:
   669                           	callstack 0
   670   00002E                     	ds	1
   671   00002F                     _uart1TxHead:
   672                           	callstack 0
   673   00002F                     	ds	1
   674                           
   675                           	psect	dataCOMRAM
   676   000048                     __pdataCOMRAM:
   677                           	callstack 0
   678   000048                     _PERIOD:
   679                           	callstack 0
   680   000048                     	ds	2
   681                           
   682                           	psect	bssBANK0
   683   000060                     __pbssBANK0:
   684                           	callstack 0
   685   000060                     _uart1RxStatusBuffer:
   686                           	callstack 0
   687   000060                     	ds	16
   688   000070                     _uart1RxBuffer:
   689                           	callstack 0
   690   000070                     	ds	8
   691   000078                     _uart1TxBuffer:
   692                           	callstack 0
   693   000078                     	ds	8
   694   000080                     _UART1_ParityErrorHandler:
   695                           	callstack 0
   696   000080                     	ds	2
   697   000082                     _uart1RxLastError:
   698                           	callstack 0
   699   000082                     	ds	2
   700   000084                     _UART1_RxInterruptHandler:
   701                           	callstack 0
   702   000084                     	ds	2
   703                           
   704                           	psect	cstackBANK0
   705   000086                     __pcstackBANK0:
   706                           	callstack 0
   707   000086                     ??_I2C2_ERROR_ISR:
   708                           
   709                           ; 1 bytes @ 0x0
   710   000086                     	ds	7
   711   00008D                     ??_INT0_ISR:
   712                           
   713                           ; 1 bytes @ 0x7
   714   00008D                     	ds	3
   715   000090                     ??_INT1_ISR:
   716                           
   717                           ; 1 bytes @ 0xA
   718   000090                     	ds	3
   719   000093                     ??_INT2_ISR:
   720                           
   721                           ; 1 bytes @ 0xD
   722   000093                     	ds	3
   723   000096                     UART1_TransmitISR@tempTxTail:
   724                           	callstack 0
   725                           
   726                           ; 1 bytes @ 0x10
   727   000096                     	ds	1
   728   000097                     ??_UART1_Transmit_Vector_ISR:
   729                           
   730                           ; 1 bytes @ 0x11
   731   000097                     	ds	1
   732   000098                     ADCC_SetADIInterruptHandler@InterruptHandler:
   733                           	callstack 0
   734   000098                     I2C2_CallbackRegister@callbackHandler:
   735                           	callstack 0
   736   000098                     INT0_SetInterruptHandler@InterruptHandler:
   737                           	callstack 0
   738   000098                     INT1_SetInterruptHandler@InterruptHandler:
   739                           	callstack 0
   740   000098                     INT2_SetInterruptHandler@InterruptHandler:
   741                           	callstack 0
   742   000098                     Timer_OverflowCallbackRegister@CallbackHandler:
   743                           	callstack 0
   744   000098                     UART1_FramingErrorCallbackRegister@callbackHandler:
   745                           	callstack 0
   746   000098                     UART1_OverrunErrorCallbackRegister@callbackHandler:
   747                           	callstack 0
   748   000098                     UART1_ParityErrorCallbackRegister@callbackHandler:
   749                           	callstack 0
   750                           
   751                           ; 2 bytes @ 0x12
   752   000098                     	ds	2
   753   00009A                     ??_Timer_Initialize:
   754   00009A                     INTERRUPT_Initialize@state:
   755                           	callstack 0
   756                           
   757                           ; 1 bytes @ 0x14
   758   00009A                     	ds	2
   759   00009C                     
   760                           ; 1 bytes @ 0x16
   761                           
   762                           	psect	cstackCOMRAM
   763   000030                     __pcstackCOMRAM:
   764                           	callstack 0
   765   000030                     UART1_Write@tempTxHead:
   766                           	callstack 0
   767                           
   768                           ; 1 bytes @ 0x0
   769   000030                     	ds	1
   770   000031                     UART1_Write@txData:
   771                           	callstack 0
   772                           
   773                           ; 1 bytes @ 0x1
   774   000031                     	ds	1
   775   000032                     ??_ADC_int:
   776                           
   777                           ; 1 bytes @ 0x2
   778   000032                     	ds	1
   779   000033                     ??_ADCC_ISR:
   780                           
   781                           ; 1 bytes @ 0x3
   782   000033                     	ds	2
   783   000035                     ADCC_StartConversion@channel:
   784                           	callstack 0
   785                           
   786                           ; 1 bytes @ 0x5
   787   000035                     	ds	1
   788   000036                     ??_Timer_OverflowISR:
   789                           
   790                           ; 1 bytes @ 0x6
   791   000036                     	ds	2
   792   000038                     UART1_ReceiveISR@regValue:
   793                           	callstack 0
   794                           
   795                           ; 1 bytes @ 0x8
   796   000038                     	ds	1
   797   000039                     UART1_ReceiveISR@tempRxHead:
   798                           	callstack 0
   799                           
   800                           ; 1 bytes @ 0x9
   801   000039                     	ds	1
   802   00003A                     ??_UART1_Receive_Vector_ISR:
   803                           
   804                           ; 1 bytes @ 0xA
   805   00003A                     	ds	2
   806   00003C                     I2C2_AddrTransmit@addr:
   807                           	callstack 0
   808                           
   809                           ; 1 bytes @ 0xC
   810   00003C                     	ds	1
   811   00003D                     ??_I2C2_ISR:
   812                           
   813                           ; 1 bytes @ 0xD
   814   00003D                     	ds	7
   815   000044                     I2C2_CounterSet@counter:
   816                           	callstack 0
   817                           
   818                           ; 1 bytes @ 0x14
   819   000044                     	ds	1
   820   000045                     ??_I2C2_RX_ISR:
   821                           
   822                           ; 1 bytes @ 0x15
   823   000045                     	ds	1
   824   000046                     I2C2_DataTransmit@data:
   825                           	callstack 0
   826                           
   827                           ; 1 bytes @ 0x16
   828   000046                     	ds	1
   829   000047                     ??_I2C2_TX_ISR:
   830                           
   831                           ; 1 bytes @ 0x17
   832   000047                     	ds	1
   833                           
   834 ;;
   835 ;;Main: autosize = 0, tempsize = 0, incstack = 0, save=0
   836 ;;
   837 ;; *************** function _main *****************
   838 ;; Defined at:
   839 ;;		line 42 in file "main.c"
   840 ;; Parameters:    Size  Location     Type
   841 ;;		None
   842 ;; Auto vars:     Size  Location     Type
   843 ;;		None
   844 ;; Return value:  Size  Location     Type
   845 ;;                  2  1269[None  ] int 
   846 ;; Registers used:
   847 ;;		wreg, status,2, status,0, cstack
   848 ;; Tracked objects:
   849 ;;		On entry : 0/0
   850 ;;		On exit  : 0/0
   851 ;;		Unchanged: 0/0
   852 ;; Data sizes:     COMRAM   BANK0   BANK1   BANK2   BANK3   BANK4   BANK5   BANK6   BANK7   BANK8   BANK9  BANK10  BANK1
      +1  BANK12  BANK13  BANK14  BANK15
   853 ;;      Params:         0       0       0       0       0       0       0       0       0       0       0       0       
      +0       0       0       0       0
   854 ;;      Locals:         0       0       0       0       0       0       0       0       0       0       0       0       
      +0       0       0       0       0
   855 ;;      Temps:          0       0       0       0       0       0       0       0       0       0       0       0       
      +0       0       0       0       0
   856 ;;      Totals:         0       0       0       0       0       0       0       0       0       0       0       0       
      +0       0       0       0       0
   857 ;;Total ram usage:        0 bytes
   858 ;; Hardware stack levels required when called: 9
   859 ;; This function calls:
   860 ;;		_ADCC_SetADIInterruptHandler
   861 ;;		_SYSTEM_Initialize
   862 ;;		_Timer_OverflowCallbackRegister
   863 ;; This function is called by:
   864 ;;		Startup code after reset
   865 ;; This function uses a non-reentrant model
   866 ;;
   867                           
   868                           	psect	text0
   869   001A16                     __ptext0:
   870                           	callstack 0
   871   001A16                     _main:
   872                           	callstack 22
   873   001A16                     
   874                           ;main.c: 45:     SYSTEM_Initialize();
   875   001A16  ECAD  F00C         	call	_SYSTEM_Initialize	;wreg free
   876                           
   877                           ;main.c: 48:     ADCC_SetADIInterruptHandler(ADC_int);
   878   001A1A  0EA2               	movlw	low _ADC_int
   879   001A1C  0100               	movlb	0	; () banked
   880   001A1E  6F98               	movwf	ADCC_SetADIInterruptHandler@InterruptHandler& (0+255),b
   881   001A20  0E15               	movlw	high _ADC_int
   882   001A22  6F99               	movwf	(ADCC_SetADIInterruptHandler@InterruptHandler+1)& (0+255),b
   883   001A24  ECB8  F00E         	call	_ADCC_SetADIInterruptHandler	;wreg free
   884                           
   885                           ;main.c: 49:     Timer_OverflowCallbackRegister(Timer_int);
   886   001A28  0EC6               	movlw	low _Timer_int
   887   001A2A  0100               	movlb	0	; () banked
   888   001A2C  6F98               	movwf	Timer_OverflowCallbackRegister@CallbackHandler& (0+255),b
   889   001A2E  0E1A               	movlw	high _Timer_int
   890   001A30  6F99               	movwf	(Timer_OverflowCallbackRegister@CallbackHandler+1)& (0+255),b
   891   001A32  ECA4  F00E         	call	_Timer_OverflowCallbackRegister	;wreg free
   892   001A36                     
   893                           ;main.c: 58:     (INTCON0bits.GIE = 1);
   894   001A36  8ED2               	bsf	210,7,c	;volatile
   895   001A38                     
   896                           ;main.c: 64:     (INTCON0bits.GIEL = 1);
   897   001A38  8CD2               	bsf	210,6,c	;volatile
   898   001A3A                     l1270:
   899   001A3A  EF1D  F00D         	goto	l1270
   900   001A3E  EF57  F000         	goto	start
   901   001A42                     __end_of_main:
   902                           	callstack 0
   903                           
   904 ;; *************** function _SYSTEM_Initialize *****************
   905 ;; Defined at:
   906 ;;		line 36 in file "mcc_generated_files/system/src/system.c"
   907 ;; Parameters:    Size  Location     Type
   908 ;;		None
   909 ;; Auto vars:     Size  Location     Type
   910 ;;		None
   911 ;; Return value:  Size  Location     Type
   912 ;;                  1    wreg      void 
   913 ;; Registers used:
   914 ;;		wreg, status,2, status,0, cstack
   915 ;; Tracked objects:
   916 ;;		On entry : 0/0
   917 ;;		On exit  : 0/0
   918 ;;		Unchanged: 0/0
   919 ;; Data sizes:     COMRAM   BANK0   BANK1   BANK2   BANK3   BANK4   BANK5   BANK6   BANK7   BANK8   BANK9  BANK10  BANK1
      +1  BANK12  BANK13  BANK14  BANK15
   920 ;;      Params:         0       0       0       0       0       0       0       0       0       0       0       0       
      +0       0       0       0       0
   921 ;;      Locals:         0       0       0       0       0       0       0       0       0       0       0       0       
      +0       0       0       0       0
   922 ;;      Temps:          0       0       0       0       0       0       0       0       0       0       0       0       
      +0       0       0       0       0
   923 ;;      Totals:         0       0       0       0       0       0       0       0       0       0       0       0       
      +0       0       0       0       0
   924 ;;Total ram usage:        0 bytes
   925 ;; Hardware stack levels used: 1
   926 ;; Hardware stack levels required when called: 8
   927 ;; This function calls:
   928 ;;		_ADCC_Initialize
   929 ;;		_CLOCK_Initialize
   930 ;;		_FVR_Initialize
   931 ;;		_I2C1_Initialize
   932 ;;		_I2C2_Initialize
   933 ;;		_INTERRUPT_Initialize
   934 ;;		_PIN_MANAGER_Initialize
   935 ;;		_SPI_Initialize
   936 ;;		_Timer_Initialize
   937 ;;		_UART1_Initialize
   938 ;;		_UART2_Initialize
   939 ;; This function is called by:
   940 ;;		_main
   941 ;; This function uses a non-reentrant model
   942 ;;
   943                           
   944                           	psect	text1
   945   00195A                     __ptext1:
   946                           	callstack 0
   947   00195A                     _SYSTEM_Initialize:
   948                           	callstack 22
   949   00195A                     
   950                           ;mcc_generated_files/system/src/system.c: 38:     CLOCK_Initialize();
   951   00195A  EC30  F00E         	call	_CLOCK_Initialize	;wreg free
   952                           
   953                           ;mcc_generated_files/system/src/system.c: 39:     PIN_MANAGER_Initialize();
   954   00195E  EC47  F009         	call	_PIN_MANAGER_Initialize	;wreg free
   955   001962                     
   956                           ;mcc_generated_files/system/src/system.c: 40:     ADCC_Initialize();
   957   001962  EC11  F00B         	call	_ADCC_Initialize	;wreg free
   958   001966                     
   959                           ;mcc_generated_files/system/src/system.c: 41:     FVR_Initialize();
   960   001966  ECD6  F00E         	call	_FVR_Initialize	;wreg free
   961                           
   962                           ;mcc_generated_files/system/src/system.c: 42:     I2C2_Initialize();
   963   00196A  EC4B  F00B         	call	_I2C2_Initialize	;wreg free
   964   00196E                     
   965                           ;mcc_generated_files/system/src/system.c: 43:     I2C1_Initialize();
   966   00196E  ECF5  F00B         	call	_I2C1_Initialize	;wreg free
   967   001972                     
   968                           ;mcc_generated_files/system/src/system.c: 44:     SPI_Initialize();
   969   001972  EC23  F00E         	call	_SPI_Initialize	;wreg free
   970                           
   971                           ;mcc_generated_files/system/src/system.c: 45:     Timer_Initialize();
   972   001976  EC94  F00C         	call	_Timer_Initialize	;wreg free
   973                           
   974                           ;mcc_generated_files/system/src/system.c: 46:     UART1_Initialize();
   975   00197A  EC30  F00A         	call	_UART1_Initialize	;wreg free
   976   00197E                     
   977                           ;mcc_generated_files/system/src/system.c: 47:     UART2_Initialize();
   978   00197E  EC78  F00C         	call	_UART2_Initialize	;wreg free
   979   001982                     
   980                           ;mcc_generated_files/system/src/system.c: 48:     INTERRUPT_Initialize();
   981   001982  EC8D  F00A         	call	_INTERRUPT_Initialize	;wreg free
   982   001986  0012               	return		;funcret
   983   001988                     __end_of_SYSTEM_Initialize:
   984                           	callstack 0
   985                           
   986 ;; *************** function _UART2_Initialize *****************
   987 ;; Defined at:
   988 ;;		line 26 in file "mcc_generated_files/peripheral/src/uart2.c"
   989 ;; Parameters:    Size  Location     Type
   990 ;;		None
   991 ;; Auto vars:     Size  Location     Type
   992 ;;		None
   993 ;; Return value:  Size  Location     Type
   994 ;;                  1    wreg      void 
   995 ;; Registers used:
   996 ;;		wreg, status,2
   997 ;; Tracked objects:
   998 ;;		On entry : 0/0
   999 ;;		On exit  : 0/0
  1000 ;;		Unchanged: 0/0
  1001 ;; Data sizes:     COMRAM   BANK0   BANK1   BANK2   BANK3   BANK4   BANK5   BANK6   BANK7   BANK8   BANK9  BANK10  BANK1
      +1  BANK12  BANK13  BANK14  BANK15
  1002 ;;      Params:         0       0       0       0       0       0       0       0       0       0       0       0       
      +0       0       0       0       0
  1003 ;;      Locals:         0       0       0       0       0       0       0       0       0       0       0       0       
      +0       0       0       0       0
  1004 ;;      Temps:          0       0       0       0       0       0       0       0       0       0       0       0       
      +0       0       0       0       0
  1005 ;;      Totals:         0       0       0       0       0       0       0       0       0       0       0       0       
      +0       0       0       0       0
  1006 ;;Total ram usage:        0 bytes
  1007 ;; Hardware stack levels used: 1
  1008 ;; Hardware stack levels required when called: 6
  1009 ;; This function calls:
  1010 ;;		Nothing
  1011 ;; This function is called by:
  1012 ;;		_SYSTEM_Initialize
  1013 ;; This function uses a non-reentrant model
  1014 ;;
  1015                           
  1016                           	psect	text2
  1017   0018F0                     __ptext2:
  1018                           	callstack 0
  1019   0018F0                     _UART2_Initialize:
  1020                           	callstack 23
  1021   0018F0                     
  1022                           ;mcc_generated_files/peripheral/src/uart2.c: 28:     U2TXB = 0x0;
  1023   0018F0  0E00               	movlw	0
  1024   0018F2  013D               	movlb	61	; () banked
  1025   0018F4  6FD2               	movwf	210,b	;volatile
  1026                           
  1027                           ;mcc_generated_files/peripheral/src/uart2.c: 30:     U2P1L = 0x0;
  1028   0018F6  0E00               	movlw	0
  1029   0018F8  6FD4               	movwf	212,b	;volatile
  1030                           
  1031                           ;mcc_generated_files/peripheral/src/uart2.c: 32:     U2P2L = 0x0;
  1032   0018FA  0E00               	movlw	0
  1033   0018FC  6FD6               	movwf	214,b	;volatile
  1034                           
  1035                           ;mcc_generated_files/peripheral/src/uart2.c: 34:     U2P3L = 0x0;
  1036   0018FE  0E00               	movlw	0
  1037   001900  6FD8               	movwf	216,b	;volatile
  1038                           
  1039                           ;mcc_generated_files/peripheral/src/uart2.c: 36:     U2CON0 = 0x0;
  1040   001902  0E00               	movlw	0
  1041   001904  6FDA               	movwf	218,b	;volatile
  1042                           
  1043                           ;mcc_generated_files/peripheral/src/uart2.c: 38:     U2CON1 = 0x0;
  1044   001906  0E00               	movlw	0
  1045   001908  6FDB               	movwf	219,b	;volatile
  1046                           
  1047                           ;mcc_generated_files/peripheral/src/uart2.c: 40:     U2CON2 = 0x0;
  1048   00190A  0E00               	movlw	0
  1049   00190C  6FDC               	movwf	220,b	;volatile
  1050                           
  1051                           ;mcc_generated_files/peripheral/src/uart2.c: 42:     U2BRGL = 0x0;
  1052   00190E  0E00               	movlw	0
  1053   001910  6FDD               	movwf	221,b	;volatile
  1054                           
  1055                           ;mcc_generated_files/peripheral/src/uart2.c: 44:     U2BRGH = 0x0;
  1056   001912  0E00               	movlw	0
  1057   001914  6FDE               	movwf	222,b	;volatile
  1058                           
  1059                           ;mcc_generated_files/peripheral/src/uart2.c: 46:     U2FIFO = 0x20;
  1060   001916  0E20               	movlw	32
  1061   001918  6FDF               	movwf	223,b	;volatile
  1062                           
  1063                           ;mcc_generated_files/peripheral/src/uart2.c: 48:     U2UIR = 0x0;
  1064   00191A  0E00               	movlw	0
  1065   00191C  6FE0               	movwf	224,b	;volatile
  1066                           
  1067                           ;mcc_generated_files/peripheral/src/uart2.c: 50:     U2ERRIR = 0x80;
  1068   00191E  0E80               	movlw	128
  1069   001920  6FE1               	movwf	225,b	;volatile
  1070                           
  1071                           ;mcc_generated_files/peripheral/src/uart2.c: 52:     U2ERRIE = 0x0;
  1072   001922  0E00               	movlw	0
  1073   001924  6FE2               	movwf	226,b	;volatile
  1074   001926                     
  1075                           ; BSR set to: 61
  1076   001926  0012               	return		;funcret
  1077   001928                     __end_of_UART2_Initialize:
  1078                           	callstack 0
  1079                           
  1080 ;; *************** function _UART1_Initialize *****************
  1081 ;; Defined at:
  1082 ;;		line 118 in file "mcc_generated_files/uart/src/uart1.c"
  1083 ;; Parameters:    Size  Location     Type
  1084 ;;		None
  1085 ;; Auto vars:     Size  Location     Type
  1086 ;;		None
  1087 ;; Return value:  Size  Location     Type
  1088 ;;                  1    wreg      void 
  1089 ;; Registers used:
  1090 ;;		wreg, status,2, status,0, cstack
  1091 ;; Tracked objects:
  1092 ;;		On entry : 0/0
  1093 ;;		On exit  : 0/0
  1094 ;;		Unchanged: 0/0
  1095 ;; Data sizes:     COMRAM   BANK0   BANK1   BANK2   BANK3   BANK4   BANK5   BANK6   BANK7   BANK8   BANK9  BANK10  BANK1
      +1  BANK12  BANK13  BANK14  BANK15
  1096 ;;      Params:         0       0       0       0       0       0       0       0       0       0       0       0       
      +0       0       0       0       0
  1097 ;;      Locals:         0       0       0       0       0       0       0       0       0       0       0       0       
      +0       0       0       0       0
  1098 ;;      Temps:          0       0       0       0       0       0       0       0       0       0       0       0       
      +0       0       0       0       0
  1099 ;;      Totals:         0       0       0       0       0       0       0       0       0       0       0       0       
      +0       0       0       0       0
  1100 ;;Total ram usage:        0 bytes
  1101 ;; Hardware stack levels used: 1
  1102 ;; Hardware stack levels required when called: 7
  1103 ;; This function calls:
  1104 ;;		_UART1_FramingErrorCallbackRegister
  1105 ;;		_UART1_OverrunErrorCallbackRegister
  1106 ;;		_UART1_ParityErrorCallbackRegister
  1107 ;; This function is called by:
  1108 ;;		_SYSTEM_Initialize
  1109 ;; This function uses a non-reentrant model
  1110 ;;
  1111                           
  1112                           	psect	text3
  1113   001460                     __ptext3:
  1114                           	callstack 0
  1115   001460                     _UART1_Initialize:
  1116                           	callstack 22
  1117   001460                     
  1118                           ;mcc_generated_files/uart/src/uart1.c: 120:     PIE3bits.U1RXIE = 0;
  1119   001460  0139               	movlb	57	; () banked
  1120   001462  9793               	bcf	147,3,b	;volatile
  1121   001464                     
  1122                           ; BSR set to: 57
  1123                           ;mcc_generated_files/uart/src/uart1.c: 121:     UART1_RxInterruptHandler = UART1_Receive
      +                          ISR;
  1124   001464  0E9E               	movlw	low _UART1_ReceiveISR
  1125   001466  0100               	movlb	0	; () banked
  1126   001468  6F84               	movwf	_UART1_RxInterruptHandler& (0+255),b
  1127   00146A  0E11               	movlw	high _UART1_ReceiveISR
  1128   00146C  6F85               	movwf	(_UART1_RxInterruptHandler+1)& (0+255),b
  1129   00146E                     
  1130                           ; BSR set to: 0
  1131                           ;mcc_generated_files/uart/src/uart1.c: 122:     PIE3bits.U1TXIE = 0;
  1132   00146E  0139               	movlb	57	; () banked
  1133   001470  9993               	bcf	147,4,b	;volatile
  1134                           
  1135                           ;mcc_generated_files/uart/src/uart1.c: 123:     UART1_TxInterruptHandler = UART1_Transmi
      +                          tISR;
  1136   001472  0EB6               	movlw	low _UART1_TransmitISR
  1137   001474  6E24               	movwf	_UART1_TxInterruptHandler^0,c
  1138   001476  0E18               	movlw	high _UART1_TransmitISR
  1139   001478  6E25               	movwf	(_UART1_TxInterruptHandler+1)^0,c
  1140   00147A                     
  1141                           ; BSR set to: 57
  1142                           ;mcc_generated_files/uart/src/uart1.c: 128:     U1RXB = 0x0;
  1143   00147A  0E00               	movlw	0
  1144   00147C  013D               	movlb	61	; () banked
  1145   00147E  6FE8               	movwf	232,b	;volatile
  1146   001480                     
  1147                           ; BSR set to: 61
  1148                           ;mcc_generated_files/uart/src/uart1.c: 130:     U1RXCHK = 0x0;
  1149   001480  0E00               	movlw	0
  1150   001482  6FE9               	movwf	233,b	;volatile
  1151   001484                     
  1152                           ; BSR set to: 61
  1153                           ;mcc_generated_files/uart/src/uart1.c: 132:     U1TXB = 0x0;
  1154   001484  0E00               	movlw	0
  1155   001486  6FEA               	movwf	234,b	;volatile
  1156   001488                     
  1157                           ; BSR set to: 61
  1158                           ;mcc_generated_files/uart/src/uart1.c: 134:     U1TXCHK = 0x0;
  1159   001488  0E00               	movlw	0
  1160   00148A  6FEB               	movwf	235,b	;volatile
  1161   00148C                     
  1162                           ; BSR set to: 61
  1163                           ;mcc_generated_files/uart/src/uart1.c: 136:     U1P1L = 0x0;
  1164   00148C  0E00               	movlw	0
  1165   00148E  6FEC               	movwf	236,b	;volatile
  1166   001490                     
  1167                           ; BSR set to: 61
  1168                           ;mcc_generated_files/uart/src/uart1.c: 138:     U1P1H = 0x0;
  1169   001490  0E00               	movlw	0
  1170   001492  6FED               	movwf	237,b	;volatile
  1171   001494                     
  1172                           ; BSR set to: 61
  1173                           ;mcc_generated_files/uart/src/uart1.c: 140:     U1P2L = 0x0;
  1174   001494  0E00               	movlw	0
  1175   001496  6FEE               	movwf	238,b	;volatile
  1176   001498                     
  1177                           ; BSR set to: 61
  1178                           ;mcc_generated_files/uart/src/uart1.c: 142:     U1P2H = 0x0;
  1179   001498  0E00               	movlw	0
  1180   00149A  6FEF               	movwf	239,b	;volatile
  1181   00149C                     
  1182                           ; BSR set to: 61
  1183                           ;mcc_generated_files/uart/src/uart1.c: 144:     U1P3L = 0x0;
  1184   00149C  0E00               	movlw	0
  1185   00149E  6FF0               	movwf	240,b	;volatile
  1186   0014A0                     
  1187                           ; BSR set to: 61
  1188                           ;mcc_generated_files/uart/src/uart1.c: 146:     U1P3H = 0x0;
  1189   0014A0  0E00               	movlw	0
  1190   0014A2  6FF1               	movwf	241,b	;volatile
  1191   0014A4                     
  1192                           ; BSR set to: 61
  1193                           ;mcc_generated_files/uart/src/uart1.c: 148:     U1CON0 = 0xB0;
  1194   0014A4  0EB0               	movlw	176
  1195   0014A6  6FF2               	movwf	242,b	;volatile
  1196   0014A8                     
  1197                           ; BSR set to: 61
  1198                           ;mcc_generated_files/uart/src/uart1.c: 150:     U1CON1 = 0x80;
  1199   0014A8  0E80               	movlw	128
  1200   0014AA  6FF3               	movwf	243,b	;volatile
  1201   0014AC                     
  1202                           ; BSR set to: 61
  1203                           ;mcc_generated_files/uart/src/uart1.c: 152:     U1CON2 = 0x8;
  1204   0014AC  0E08               	movlw	8
  1205   0014AE  6FF4               	movwf	244,b	;volatile
  1206   0014B0                     
  1207                           ; BSR set to: 61
  1208                           ;mcc_generated_files/uart/src/uart1.c: 154:     U1BRGL = 0x7;
  1209   0014B0  0E07               	movlw	7
  1210   0014B2  6FF5               	movwf	245,b	;volatile
  1211   0014B4                     
  1212                           ; BSR set to: 61
  1213                           ;mcc_generated_files/uart/src/uart1.c: 156:     U1BRGH = 0x0;
  1214   0014B4  0E00               	movlw	0
  1215   0014B6  6FF6               	movwf	246,b	;volatile
  1216   0014B8                     
  1217                           ; BSR set to: 61
  1218                           ;mcc_generated_files/uart/src/uart1.c: 158:     U1FIFO = 0x20;
  1219   0014B8  0E20               	movlw	32
  1220   0014BA  6FF7               	movwf	247,b	;volatile
  1221   0014BC                     
  1222                           ; BSR set to: 61
  1223                           ;mcc_generated_files/uart/src/uart1.c: 160:     U1UIR = 0x0;
  1224   0014BC  0E00               	movlw	0
  1225   0014BE  6FF8               	movwf	248,b	;volatile
  1226   0014C0                     
  1227                           ; BSR set to: 61
  1228                           ;mcc_generated_files/uart/src/uart1.c: 162:     U1ERRIR = 0x80;
  1229   0014C0  0E80               	movlw	128
  1230   0014C2  6FF9               	movwf	249,b	;volatile
  1231   0014C4                     
  1232                           ; BSR set to: 61
  1233                           ;mcc_generated_files/uart/src/uart1.c: 164:     U1ERRIE = 0x0;
  1234   0014C4  0E00               	movlw	0
  1235   0014C6  6FFA               	movwf	250,b	;volatile
  1236   0014C8                     
  1237                           ; BSR set to: 61
  1238                           ;mcc_generated_files/uart/src/uart1.c: 166:     UART1_FramingErrorCallbackRegister(UART1
      +                          _DefaultFramingErrorCallback);
  1239   0014C8  0EEE               	movlw	low _UART1_DefaultFramingErrorCallback
  1240   0014CA  0100               	movlb	0	; () banked
  1241   0014CC  6F98               	movwf	UART1_FramingErrorCallbackRegister@callbackHandler& (0+255),b
  1242   0014CE  0E1D               	movlw	high _UART1_DefaultFramingErrorCallback
  1243   0014D0  6F99               	movwf	(UART1_FramingErrorCallbackRegister@callbackHandler+1)& (0+255),b
  1244   0014D2  ECF6  F00D         	call	_UART1_FramingErrorCallbackRegister	;wreg free
  1245   0014D6                     
  1246                           ;mcc_generated_files/uart/src/uart1.c: 167:     UART1_OverrunErrorCallbackRegister(UART1
      +                          _DefaultOverrunErrorCallback);
  1247   0014D6  0EEC               	movlw	low _UART1_DefaultOverrunErrorCallback
  1248   0014D8  0100               	movlb	0	; () banked
  1249   0014DA  6F98               	movwf	UART1_OverrunErrorCallbackRegister@callbackHandler& (0+255),b
  1250   0014DC  0E1D               	movlw	high _UART1_DefaultOverrunErrorCallback
  1251   0014DE  6F99               	movwf	(UART1_OverrunErrorCallbackRegister@callbackHandler+1)& (0+255),b
  1252   0014E0  ECE7  F00D         	call	_UART1_OverrunErrorCallbackRegister	;wreg free
  1253   0014E4                     
  1254                           ;mcc_generated_files/uart/src/uart1.c: 168:     UART1_ParityErrorCallbackRegister(UART1_
      +                          DefaultParityErrorCallback);
  1255   0014E4  0E00               	movlw	0
  1256   0014E6  0100               	movlb	0	; () banked
  1257   0014E8  6F98               	movwf	UART1_ParityErrorCallbackRegister@callbackHandler& (0+255),b
  1258   0014EA  0E00               	movlw	0
  1259   0014EC  6F99               	movwf	(UART1_ParityErrorCallbackRegister@callbackHandler+1)& (0+255),b
  1260   0014EE  ECD8  F00D         	call	_UART1_ParityErrorCallbackRegister	;wreg free
  1261   0014F2                     
  1262                           ;mcc_generated_files/uart/src/uart1.c: 170:     uart1RxLastError.status = 0;
  1263   0014F2  0E00               	movlw	0
  1264   0014F4  0100               	movlb	0	; () banked
  1265   0014F6  6F83               	movwf	(_uart1RxLastError+1)& (0+255),b	;volatile
  1266   0014F8  0E00               	movlw	0
  1267   0014FA  6F82               	movwf	_uart1RxLastError& (0+255),b	;volatile
  1268   0014FC                     
  1269                           ; BSR set to: 0
  1270                           ;mcc_generated_files/uart/src/uart1.c: 171:     uart1TxHead = 0;
  1271   0014FC  0E00               	movlw	0
  1272   0014FE  6E2F               	movwf	_uart1TxHead^0,c	;volatile
  1273   001500                     
  1274                           ; BSR set to: 0
  1275                           ;mcc_generated_files/uart/src/uart1.c: 172:     uart1TxTail = 0;
  1276   001500  0E00               	movlw	0
  1277   001502  6E2E               	movwf	_uart1TxTail^0,c	;volatile
  1278   001504                     
  1279                           ; BSR set to: 0
  1280                           ;mcc_generated_files/uart/src/uart1.c: 173:     uart1TxBufferRemaining = sizeof(uart1TxB
      +                          uffer);
  1281   001504  0E08               	movlw	8
  1282   001506  6E2D               	movwf	_uart1TxBufferRemaining^0,c	;volatile
  1283   001508                     
  1284                           ; BSR set to: 0
  1285                           ;mcc_generated_files/uart/src/uart1.c: 174:     uart1RxHead = 0;
  1286   001508  0E00               	movlw	0
  1287   00150A  6E2C               	movwf	_uart1RxHead^0,c	;volatile
  1288   00150C                     
  1289                           ; BSR set to: 0
  1290                           ;mcc_generated_files/uart/src/uart1.c: 175:     uart1RxTail = 0;
  1291   00150C  0E00               	movlw	0
  1292   00150E  6E2B               	movwf	_uart1RxTail^0,c	;volatile
  1293   001510                     
  1294                           ; BSR set to: 0
  1295                           ;mcc_generated_files/uart/src/uart1.c: 176:     uart1RxCount = 0;
  1296   001510  0E00               	movlw	0
  1297   001512  6E2A               	movwf	_uart1RxCount^0,c	;volatile
  1298   001514                     
  1299                           ; BSR set to: 0
  1300                           ;mcc_generated_files/uart/src/uart1.c: 177:     PIE3bits.U1RXIE = 1;
  1301   001514  0139               	movlb	57	; () banked
  1302   001516  8793               	bsf	147,3,b	;volatile
  1303   001518                     
  1304                           ; BSR set to: 57
  1305   001518  0012               	return		;funcret
  1306   00151A                     __end_of_UART1_Initialize:
  1307                           	callstack 0
  1308                           
  1309 ;; *************** function _UART1_ParityErrorCallbackRegister *****************
  1310 ;; Defined at:
  1311 ;;		line 472 in file "mcc_generated_files/uart/src/uart1.c"
  1312 ;; Parameters:    Size  Location     Type
  1313 ;;  callbackHand    2   18[BANK0 ] PTR FTN()void 
  1314 ;;		 -> UART1_DefaultParityErrorCallback(1), 
  1315 ;; Auto vars:     Size  Location     Type
  1316 ;;		None
  1317 ;; Return value:  Size  Location     Type
  1318 ;;                  1    wreg      void 
  1319 ;; Registers used:
  1320 ;;		wreg, status,2, status,0
  1321 ;; Tracked objects:
  1322 ;;		On entry : 0/0
  1323 ;;		On exit  : 0/0
  1324 ;;		Unchanged: 0/0
  1325 ;; Data sizes:     COMRAM   BANK0   BANK1   BANK2   BANK3   BANK4   BANK5   BANK6   BANK7   BANK8   BANK9  BANK10  BANK1
      +1  BANK12  BANK13  BANK14  BANK15
  1326 ;;      Params:         0       2       0       0       0       0       0       0       0       0       0       0       
      +0       0       0       0       0
  1327 ;;      Locals:         0       0       0       0       0       0       0       0       0       0       0       0       
      +0       0       0       0       0
  1328 ;;      Temps:          0       0       0       0       0       0       0       0       0       0       0       0       
      +0       0       0       0       0
  1329 ;;      Totals:         0       2       0       0       0       0       0       0       0       0       0       0       
      +0       0       0       0       0
  1330 ;;Total ram usage:        2 bytes
  1331 ;; Hardware stack levels used: 1
  1332 ;; Hardware stack levels required when called: 6
  1333 ;; This function calls:
  1334 ;;		Nothing
  1335 ;; This function is called by:
  1336 ;;		_UART1_Initialize
  1337 ;; This function uses a non-reentrant model
  1338 ;;
  1339                           
  1340                           	psect	text4
  1341   001BB0                     __ptext4:
  1342                           	callstack 0
  1343   001BB0                     _UART1_ParityErrorCallbackRegister:
  1344                           	callstack 22
  1345   001BB0                     
  1346                           ;mcc_generated_files/uart/src/uart1.c: 472: void UART1_ParityErrorCallbackRegister(void 
      +                          (* callbackHandler)(void));mcc_generated_files/uart/src/uart1.c: 473: {;mcc_generated_fi
      +                          les/uart/src/uart1.c: 474:     if(((void*)0) != callbackHandler)
  1347   001BB0  0100               	movlb	0	; () banked
  1348   001BB2  5198               	movf	UART1_ParityErrorCallbackRegister@callbackHandler& (0+255),w,b
  1349   001BB4  1199               	iorwf	(UART1_ParityErrorCallbackRegister@callbackHandler+1)& (0+255),w,b
  1350   001BB6  B4D8               	btfsc	status,2,c
  1351   001BB8  EFE0  F00D         	goto	u1101
  1352   001BBC  EFE2  F00D         	goto	u1100
  1353   001BC0                     u1101:
  1354   001BC0  EFE6  F00D         	goto	l1239
  1355   001BC4                     u1100:
  1356   001BC4                     
  1357                           ; BSR set to: 0
  1358                           ;mcc_generated_files/uart/src/uart1.c: 475:     {;mcc_generated_files/uart/src/uart1.c: 
      +                          476:         UART1_ParityErrorHandler = callbackHandler;
  1359   001BC4  C098  F080         	movff	UART1_ParityErrorCallbackRegister@callbackHandler,_UART1_ParityErrorHandler
  1360   001BC8  C099  F081         	movff	UART1_ParityErrorCallbackRegister@callbackHandler+1,_UART1_ParityErrorHandler+1
  1361   001BCC                     l1239:
  1362                           
  1363                           ; BSR set to: 0
  1364   001BCC  0012               	return		;funcret
  1365   001BCE                     __end_of_UART1_ParityErrorCallbackRegister:
  1366                           	callstack 0
  1367                           
  1368 ;; *************** function _UART1_OverrunErrorCallbackRegister *****************
  1369 ;; Defined at:
  1370 ;;		line 464 in file "mcc_generated_files/uart/src/uart1.c"
  1371 ;; Parameters:    Size  Location     Type
  1372 ;;  callbackHand    2   18[BANK0 ] PTR FTN()void 
  1373 ;;		 -> UART1_DefaultOverrunErrorCallback(1), 
  1374 ;; Auto vars:     Size  Location     Type
  1375 ;;		None
  1376 ;; Return value:  Size  Location     Type
  1377 ;;                  1    wreg      void 
  1378 ;; Registers used:
  1379 ;;		wreg, status,2, status,0
  1380 ;; Tracked objects:
  1381 ;;		On entry : 0/0
  1382 ;;		On exit  : 0/0
  1383 ;;		Unchanged: 0/0
  1384 ;; Data sizes:     COMRAM   BANK0   BANK1   BANK2   BANK3   BANK4   BANK5   BANK6   BANK7   BANK8   BANK9  BANK10  BANK1
      +1  BANK12  BANK13  BANK14  BANK15
  1385 ;;      Params:         0       2       0       0       0       0       0       0       0       0       0       0       
      +0       0       0       0       0
  1386 ;;      Locals:         0       0       0       0       0       0       0       0       0       0       0       0       
      +0       0       0       0       0
  1387 ;;      Temps:          0       0       0       0       0       0       0       0       0       0       0       0       
      +0       0       0       0       0
  1388 ;;      Totals:         0       2       0       0       0       0       0       0       0       0       0       0       
      +0       0       0       0       0
  1389 ;;Total ram usage:        2 bytes
  1390 ;; Hardware stack levels used: 1
  1391 ;; Hardware stack levels required when called: 6
  1392 ;; This function calls:
  1393 ;;		Nothing
  1394 ;; This function is called by:
  1395 ;;		_UART1_Initialize
  1396 ;; This function uses a non-reentrant model
  1397 ;;
  1398                           
  1399                           	psect	text5
  1400   001BCE                     __ptext5:
  1401                           	callstack 0
  1402   001BCE                     _UART1_OverrunErrorCallbackRegister:
  1403                           	callstack 22
  1404   001BCE                     
  1405                           ;mcc_generated_files/uart/src/uart1.c: 464: void UART1_OverrunErrorCallbackRegister(void
      +                           (* callbackHandler)(void));mcc_generated_files/uart/src/uart1.c: 465: {;mcc_generated_f
      +                          iles/uart/src/uart1.c: 466:     if(((void*)0) != callbackHandler)
  1406   001BCE  0100               	movlb	0	; () banked
  1407   001BD0  5198               	movf	UART1_OverrunErrorCallbackRegister@callbackHandler& (0+255),w,b
  1408   001BD2  1199               	iorwf	(UART1_OverrunErrorCallbackRegister@callbackHandler+1)& (0+255),w,b
  1409   001BD4  B4D8               	btfsc	status,2,c
  1410   001BD6  EFEF  F00D         	goto	u1091
  1411   001BDA  EFF1  F00D         	goto	u1090
  1412   001BDE                     u1091:
  1413   001BDE  EFF5  F00D         	goto	l1235
  1414   001BE2                     u1090:
  1415   001BE2                     
  1416                           ; BSR set to: 0
  1417                           ;mcc_generated_files/uart/src/uart1.c: 467:     {;mcc_generated_files/uart/src/uart1.c: 
      +                          468:         UART1_OverrunErrorHandler = callbackHandler;
  1418   001BE2  C098  F016         	movff	UART1_OverrunErrorCallbackRegister@callbackHandler,_UART1_OverrunErrorHandler
  1419   001BE6  C099  F017         	movff	UART1_OverrunErrorCallbackRegister@callbackHandler+1,_UART1_OverrunErrorHandler+1
  1420   001BEA                     l1235:
  1421                           
  1422                           ; BSR set to: 0
  1423   001BEA  0012               	return		;funcret
  1424   001BEC                     __end_of_UART1_OverrunErrorCallbackRegister:
  1425                           	callstack 0
  1426                           
  1427 ;; *************** function _UART1_FramingErrorCallbackRegister *****************
  1428 ;; Defined at:
  1429 ;;		line 456 in file "mcc_generated_files/uart/src/uart1.c"
  1430 ;; Parameters:    Size  Location     Type
  1431 ;;  callbackHand    2   18[BANK0 ] PTR FTN()void 
  1432 ;;		 -> UART1_DefaultFramingErrorCallback(1), 
  1433 ;; Auto vars:     Size  Location     Type
  1434 ;;		None
  1435 ;; Return value:  Size  Location     Type
  1436 ;;                  1    wreg      void 
  1437 ;; Registers used:
  1438 ;;		wreg, status,2, status,0
  1439 ;; Tracked objects:
  1440 ;;		On entry : 0/0
  1441 ;;		On exit  : 0/0
  1442 ;;		Unchanged: 0/0
  1443 ;; Data sizes:     COMRAM   BANK0   BANK1   BANK2   BANK3   BANK4   BANK5   BANK6   BANK7   BANK8   BANK9  BANK10  BANK1
      +1  BANK12  BANK13  BANK14  BANK15
  1444 ;;      Params:         0       2       0       0       0       0       0       0       0       0       0       0       
      +0       0       0       0       0
  1445 ;;      Locals:         0       0       0       0       0       0       0       0       0       0       0       0       
      +0       0       0       0       0
  1446 ;;      Temps:          0       0       0       0       0       0       0       0       0       0       0       0       
      +0       0       0       0       0
  1447 ;;      Totals:         0       2       0       0       0       0       0       0       0       0       0       0       
      +0       0       0       0       0
  1448 ;;Total ram usage:        2 bytes
  1449 ;; Hardware stack levels used: 1
  1450 ;; Hardware stack levels required when called: 6
  1451 ;; This function calls:
  1452 ;;		Nothing
  1453 ;; This function is called by:
  1454 ;;		_UART1_Initialize
  1455 ;; This function uses a non-reentrant model
  1456 ;;
  1457                           
  1458                           	psect	text6
  1459   001BEC                     __ptext6:
  1460                           	callstack 0
  1461   001BEC                     _UART1_FramingErrorCallbackRegister:
  1462                           	callstack 22
  1463   001BEC                     
  1464                           ;mcc_generated_files/uart/src/uart1.c: 456: void UART1_FramingErrorCallbackRegister(void
      +                           (* callbackHandler)(void));mcc_generated_files/uart/src/uart1.c: 457: {;mcc_generated_f
      +                          iles/uart/src/uart1.c: 458:     if(((void*)0) != callbackHandler)
  1465   001BEC  0100               	movlb	0	; () banked
  1466   001BEE  5198               	movf	UART1_FramingErrorCallbackRegister@callbackHandler& (0+255),w,b
  1467   001BF0  1199               	iorwf	(UART1_FramingErrorCallbackRegister@callbackHandler+1)& (0+255),w,b
  1468   001BF2  B4D8               	btfsc	status,2,c
  1469   001BF4  EFFE  F00D         	goto	u1081
  1470   001BF8  EF00  F00E         	goto	u1080
  1471   001BFC                     u1081:
  1472   001BFC  EF04  F00E         	goto	l1231
  1473   001C00                     u1080:
  1474   001C00                     
  1475                           ; BSR set to: 0
  1476                           ;mcc_generated_files/uart/src/uart1.c: 459:     {;mcc_generated_files/uart/src/uart1.c: 
      +                          460:         UART1_FramingErrorHandler = callbackHandler;
  1477   001C00  C098  F018         	movff	UART1_FramingErrorCallbackRegister@callbackHandler,_UART1_FramingErrorHandler
  1478   001C04  C099  F019         	movff	UART1_FramingErrorCallbackRegister@callbackHandler+1,_UART1_FramingErrorHandler+1
  1479   001C08                     l1231:
  1480                           
  1481                           ; BSR set to: 0
  1482   001C08  0012               	return		;funcret
  1483   001C0A                     __end_of_UART1_FramingErrorCallbackRegister:
  1484                           	callstack 0
  1485                           
  1486 ;; *************** function _Timer_Initialize *****************
  1487 ;; Defined at:
  1488 ;;		line 51 in file "mcc_generated_files/timer/src/tmr0.c"
  1489 ;; Parameters:    Size  Location     Type
  1490 ;;		None
  1491 ;; Auto vars:     Size  Location     Type
  1492 ;;		None
  1493 ;; Return value:  Size  Location     Type
  1494 ;;                  1    wreg      void 
  1495 ;; Registers used:
  1496 ;;		wreg, status,2, status,0, cstack
  1497 ;; Tracked objects:
  1498 ;;		On entry : 0/0
  1499 ;;		On exit  : 0/0
  1500 ;;		Unchanged: 0/0
  1501 ;; Data sizes:     COMRAM   BANK0   BANK1   BANK2   BANK3   BANK4   BANK5   BANK6   BANK7   BANK8   BANK9  BANK10  BANK1
      +1  BANK12  BANK13  BANK14  BANK15
  1502 ;;      Params:         0       0       0       0       0       0       0       0       0       0       0       0       
      +0       0       0       0       0
  1503 ;;      Locals:         0       0       0       0       0       0       0       0       0       0       0       0       
      +0       0       0       0       0
  1504 ;;      Temps:          0       2       0       0       0       0       0       0       0       0       0       0       
      +0       0       0       0       0
  1505 ;;      Totals:         0       2       0       0       0       0       0       0       0       0       0       0       
      +0       0       0       0       0
  1506 ;;Total ram usage:        2 bytes
  1507 ;; Hardware stack levels used: 1
  1508 ;; Hardware stack levels required when called: 7
  1509 ;; This function calls:
  1510 ;;		_Timer_OverflowCallbackRegister
  1511 ;; This function is called by:
  1512 ;;		_SYSTEM_Initialize
  1513 ;; This function uses a non-reentrant model
  1514 ;;
  1515                           
  1516                           	psect	text7
  1517   001928                     __ptext7:
  1518                           	callstack 0
  1519   001928                     _Timer_Initialize:
  1520                           	callstack 22
  1521   001928                     
  1522                           ;mcc_generated_files/timer/src/tmr0.c: 54:     TMR0H = 0xE7;
  1523   001928  0EE7               	movlw	231
  1524   00192A  6EB7               	movwf	183,c	;volatile
  1525                           
  1526                           ;mcc_generated_files/timer/src/tmr0.c: 57:     TMR0L = 0x5F;
  1527   00192C  0E5F               	movlw	95
  1528   00192E  6EB6               	movwf	182,c	;volatile
  1529                           
  1530                           ;mcc_generated_files/timer/src/tmr0.c: 60:     T0CON1 = 0x70;
  1531   001930  0E70               	movlw	112
  1532   001932  6EB9               	movwf	185,c	;volatile
  1533                           
  1534                           ;mcc_generated_files/timer/src/tmr0.c: 63:     timerTMR0ReloadVal16bit = ((uint16_t)TMR0
      +                          H << 8) | TMR0L;
  1535   001934  50B7               	movf	183,w,c	;volatile
  1536   001936  0100               	movlb	0	; () banked
  1537   001938  6F9A               	movwf	??_Timer_Initialize& (0+255),b
  1538   00193A  50B6               	movf	182,w,c	;volatile
  1539   00193C  6E1C               	movwf	_timerTMR0ReloadVal16bit^0,c	;volatile
  1540   00193E  C09A  F01D         	movff	??_Timer_Initialize,_timerTMR0ReloadVal16bit+1	;volatile
  1541   001942                     
  1542                           ; BSR set to: 0
  1543                           ;mcc_generated_files/timer/src/tmr0.c: 66:     Timer_OverflowCallbackRegister(Timer_Defa
      +                          ultOverflowCallback);
  1544   001942  0EEA               	movlw	low _Timer_DefaultOverflowCallback
  1545   001944  6F98               	movwf	Timer_OverflowCallbackRegister@CallbackHandler& (0+255),b
  1546   001946  0E1D               	movlw	high _Timer_DefaultOverflowCallback
  1547   001948  6F99               	movwf	(Timer_OverflowCallbackRegister@CallbackHandler+1)& (0+255),b
  1548   00194A  ECA4  F00E         	call	_Timer_OverflowCallbackRegister	;wreg free
  1549   00194E                     
  1550                           ;mcc_generated_files/timer/src/tmr0.c: 69:     PIR3bits.TMR0IF = 0;
  1551   00194E  0139               	movlb	57	; () banked
  1552   001950  9FA3               	bcf	163,7,b	;volatile
  1553   001952                     
  1554                           ; BSR set to: 57
  1555                           ;mcc_generated_files/timer/src/tmr0.c: 72:     PIE3bits.TMR0IE = 1;
  1556   001952  8F93               	bsf	147,7,b	;volatile
  1557   001954                     
  1558                           ; BSR set to: 57
  1559                           ;mcc_generated_files/timer/src/tmr0.c: 75:     T0CON0 = 0x90;
  1560   001954  0E90               	movlw	144
  1561   001956  6EB8               	movwf	184,c	;volatile
  1562   001958                     
  1563                           ; BSR set to: 57
  1564   001958  0012               	return		;funcret
  1565   00195A                     __end_of_Timer_Initialize:
  1566                           	callstack 0
  1567                           
  1568 ;; *************** function _Timer_OverflowCallbackRegister *****************
  1569 ;; Defined at:
  1570 ;;		line 132 in file "mcc_generated_files/timer/src/tmr0.c"
  1571 ;; Parameters:    Size  Location     Type
  1572 ;;  CallbackHand    2   18[BANK0 ] PTR FTN()void 
  1573 ;;		 -> Timer_int(1), Timer_DefaultOverflowCallback(1), 
  1574 ;; Auto vars:     Size  Location     Type
  1575 ;;		None
  1576 ;; Return value:  Size  Location     Type
  1577 ;;                  1    wreg      void 
  1578 ;; Registers used:
  1579 ;;		wreg, status,2, status,0
  1580 ;; Tracked objects:
  1581 ;;		On entry : 0/0
  1582 ;;		On exit  : 0/0
  1583 ;;		Unchanged: 0/0
  1584 ;; Data sizes:     COMRAM   BANK0   BANK1   BANK2   BANK3   BANK4   BANK5   BANK6   BANK7   BANK8   BANK9  BANK10  BANK1
      +1  BANK12  BANK13  BANK14  BANK15
  1585 ;;      Params:         0       2       0       0       0       0       0       0       0       0       0       0       
      +0       0       0       0       0
  1586 ;;      Locals:         0       0       0       0       0       0       0       0       0       0       0       0       
      +0       0       0       0       0
  1587 ;;      Temps:          0       0       0       0       0       0       0       0       0       0       0       0       
      +0       0       0       0       0
  1588 ;;      Totals:         0       2       0       0       0       0       0       0       0       0       0       0       
      +0       0       0       0       0
  1589 ;;Total ram usage:        2 bytes
  1590 ;; Hardware stack levels used: 1
  1591 ;; Hardware stack levels required when called: 6
  1592 ;; This function calls:
  1593 ;;		Nothing
  1594 ;; This function is called by:
  1595 ;;		_Timer_Initialize
  1596 ;;		_main
  1597 ;; This function uses a non-reentrant model
  1598 ;;
  1599                           
  1600                           	psect	text8
  1601   001D48                     __ptext8:
  1602                           	callstack 0
  1603   001D48                     _Timer_OverflowCallbackRegister:
  1604                           	callstack 24
  1605   001D48                     
  1606                           ;mcc_generated_files/timer/src/tmr0.c: 132: void Timer_OverflowCallbackRegister(void (* 
      +                          CallbackHandler)(void));mcc_generated_files/timer/src/tmr0.c: 133: {;mcc_generated_files
      +                          /timer/src/tmr0.c: 134:     Timer_OverflowCallback = CallbackHandler;
  1607   001D48  C098  F01A         	movff	Timer_OverflowCallbackRegister@CallbackHandler,_Timer_OverflowCallback
  1608   001D4C  C099  F01B         	movff	Timer_OverflowCallbackRegister@CallbackHandler+1,_Timer_OverflowCallback+1
  1609   001D50  0012               	return		;funcret
  1610   001D52                     __end_of_Timer_OverflowCallbackRegister:
  1611                           	callstack 0
  1612                           
  1613 ;; *************** function _SPI_Initialize *****************
  1614 ;; Defined at:
  1615 ;;		line 70 in file "mcc_generated_files/spi/src/spi1.c"
  1616 ;; Parameters:    Size  Location     Type
  1617 ;;		None
  1618 ;; Auto vars:     Size  Location     Type
  1619 ;;		None
  1620 ;; Return value:  Size  Location     Type
  1621 ;;                  1    wreg      void 
  1622 ;; Registers used:
  1623 ;;		wreg, status,2
  1624 ;; Tracked objects:
  1625 ;;		On entry : 0/0
  1626 ;;		On exit  : 0/0
  1627 ;;		Unchanged: 0/0
  1628 ;; Data sizes:     COMRAM   BANK0   BANK1   BANK2   BANK3   BANK4   BANK5   BANK6   BANK7   BANK8   BANK9  BANK10  BANK1
      +1  BANK12  BANK13  BANK14  BANK15
  1629 ;;      Params:         0       0       0       0       0       0       0       0       0       0       0       0       
      +0       0       0       0       0
  1630 ;;      Locals:         0       0       0       0       0       0       0       0       0       0       0       0       
      +0       0       0       0       0
  1631 ;;      Temps:          0       0       0       0       0       0       0       0       0       0       0       0       
      +0       0       0       0       0
  1632 ;;      Totals:         0       0       0       0       0       0       0       0       0       0       0       0       
      +0       0       0       0       0
  1633 ;;Total ram usage:        0 bytes
  1634 ;; Hardware stack levels used: 1
  1635 ;; Hardware stack levels required when called: 6
  1636 ;; This function calls:
  1637 ;;		Nothing
  1638 ;; This function is called by:
  1639 ;;		_SYSTEM_Initialize
  1640 ;; This function uses a non-reentrant model
  1641 ;;
  1642                           
  1643                           	psect	text9
  1644   001C46                     __ptext9:
  1645                           	callstack 0
  1646   001C46                     _SPI_Initialize:
  1647                           	callstack 23
  1648   001C46                     
  1649                           ;mcc_generated_files/spi/src/spi1.c: 73:     SPI1CON1 = 0x40;
  1650   001C46  0E40               	movlw	64
  1651   001C48  013D               	movlb	61	; () banked
  1652   001C4A  6F15               	movwf	21,b	;volatile
  1653                           
  1654                           ;mcc_generated_files/spi/src/spi1.c: 75:     SPI1CON2 = 0x0;
  1655   001C4C  0E00               	movlw	0
  1656   001C4E  6F16               	movwf	22,b	;volatile
  1657                           
  1658                           ;mcc_generated_files/spi/src/spi1.c: 77:     SPI1CLK = 0x0;
  1659   001C50  0E00               	movlw	0
  1660   001C52  6F1C               	movwf	28,b	;volatile
  1661                           
  1662                           ;mcc_generated_files/spi/src/spi1.c: 79:     SPI1BAUD = 0x1F;
  1663   001C54  0E1F               	movlw	31
  1664   001C56  6F19               	movwf	25,b	;volatile
  1665   001C58                     
  1666                           ; BSR set to: 61
  1667                           ;mcc_generated_files/spi/src/spi1.c: 80:     TRISCbits.TRISC3 = 0;
  1668   001C58  96C4               	bcf	196,3,c	;volatile
  1669                           
  1670                           ;mcc_generated_files/spi/src/spi1.c: 82:     SPI1CON0 = 0x2;
  1671   001C5A  0E02               	movlw	2
  1672   001C5C  6F14               	movwf	20,b	;volatile
  1673   001C5E                     
  1674                           ; BSR set to: 61
  1675   001C5E  0012               	return		;funcret
  1676   001C60                     __end_of_SPI_Initialize:
  1677                           	callstack 0
  1678                           
  1679 ;; *************** function _PIN_MANAGER_Initialize *****************
  1680 ;; Defined at:
  1681 ;;		line 38 in file "mcc_generated_files/system/src/pins.c"
  1682 ;; Parameters:    Size  Location     Type
  1683 ;;		None
  1684 ;; Auto vars:     Size  Location     Type
  1685 ;;		None
  1686 ;; Return value:  Size  Location     Type
  1687 ;;                  1    wreg      void 
  1688 ;; Registers used:
  1689 ;;		wreg, status,2
  1690 ;; Tracked objects:
  1691 ;;		On entry : 0/0
  1692 ;;		On exit  : 0/0
  1693 ;;		Unchanged: 0/0
  1694 ;; Data sizes:     COMRAM   BANK0   BANK1   BANK2   BANK3   BANK4   BANK5   BANK6   BANK7   BANK8   BANK9  BANK10  BANK1
      +1  BANK12  BANK13  BANK14  BANK15
  1695 ;;      Params:         0       0       0       0       0       0       0       0       0       0       0       0       
      +0       0       0       0       0
  1696 ;;      Locals:         0       0       0       0       0       0       0       0       0       0       0       0       
      +0       0       0       0       0
  1697 ;;      Temps:          0       0       0       0       0       0       0       0       0       0       0       0       
      +0       0       0       0       0
  1698 ;;      Totals:         0       0       0       0       0       0       0       0       0       0       0       0       
      +0       0       0       0       0
  1699 ;;Total ram usage:        0 bytes
  1700 ;; Hardware stack levels used: 1
  1701 ;; Hardware stack levels required when called: 6
  1702 ;; This function calls:
  1703 ;;		Nothing
  1704 ;; This function is called by:
  1705 ;;		_SYSTEM_Initialize
  1706 ;; This function uses a non-reentrant model
  1707 ;;
  1708                           
  1709                           	psect	text10
  1710   00128E                     __ptext10:
  1711                           	callstack 0
  1712   00128E                     _PIN_MANAGER_Initialize:
  1713                           	callstack 23
  1714   00128E                     
  1715                           ;mcc_generated_files/system/src/pins.c: 43:     LATA = 0x0;
  1716   00128E  0E00               	movlw	0
  1717   001290  6EBA               	movwf	186,c	;volatile
  1718                           
  1719                           ;mcc_generated_files/system/src/pins.c: 44:     LATB = 0x6;
  1720   001292  0E06               	movlw	6
  1721   001294  6EBB               	movwf	187,c	;volatile
  1722                           
  1723                           ;mcc_generated_files/system/src/pins.c: 45:     LATC = 0x0;
  1724   001296  0E00               	movlw	0
  1725   001298  6EBC               	movwf	188,c	;volatile
  1726                           
  1727                           ;mcc_generated_files/system/src/pins.c: 46:     LATD = 0x0;
  1728   00129A  0E00               	movlw	0
  1729   00129C  6EBD               	movwf	189,c	;volatile
  1730                           
  1731                           ;mcc_generated_files/system/src/pins.c: 47:     LATE = 0x0;
  1732   00129E  0E00               	movlw	0
  1733   0012A0  6EBE               	movwf	190,c	;volatile
  1734                           
  1735                           ;mcc_generated_files/system/src/pins.c: 52:     TRISA = 0xC3;
  1736   0012A2  0EC3               	movlw	195
  1737   0012A4  6EC2               	movwf	194,c	;volatile
  1738                           
  1739                           ;mcc_generated_files/system/src/pins.c: 53:     TRISB = 0x0;
  1740   0012A6  0E00               	movlw	0
  1741   0012A8  6EC3               	movwf	195,c	;volatile
  1742                           
  1743                           ;mcc_generated_files/system/src/pins.c: 54:     TRISC = 0xB8;
  1744   0012AA  0EB8               	movlw	184
  1745   0012AC  6EC4               	movwf	196,c	;volatile
  1746                           
  1747                           ;mcc_generated_files/system/src/pins.c: 55:     TRISD = 0x0;
  1748   0012AE  0E00               	movlw	0
  1749   0012B0  6EC5               	movwf	197,c	;volatile
  1750                           
  1751                           ;mcc_generated_files/system/src/pins.c: 56:     TRISE = 0x0;
  1752   0012B2  0E00               	movlw	0
  1753   0012B4  6EC6               	movwf	198,c	;volatile
  1754                           
  1755                           ;mcc_generated_files/system/src/pins.c: 61:     ANSELA = 0xC3;
  1756   0012B6  0EC3               	movlw	195
  1757   0012B8  013A               	movlb	58	; () banked
  1758   0012BA  6F40               	movwf	64,b	;volatile
  1759                           
  1760                           ;mcc_generated_files/system/src/pins.c: 62:     ANSELB = 0x0;
  1761   0012BC  0E00               	movlw	0
  1762   0012BE  6F50               	movwf	80,b	;volatile
  1763                           
  1764                           ;mcc_generated_files/system/src/pins.c: 63:     ANSELC = 0x20;
  1765   0012C0  0E20               	movlw	32
  1766   0012C2  6F60               	movwf	96,b	;volatile
  1767                           
  1768                           ;mcc_generated_files/system/src/pins.c: 64:     ANSELD = 0x0;
  1769   0012C4  0E00               	movlw	0
  1770   0012C6  6F70               	movwf	112,b	;volatile
  1771                           
  1772                           ;mcc_generated_files/system/src/pins.c: 65:     ANSELE = 0x0;
  1773   0012C8  0E00               	movlw	0
  1774   0012CA  6F80               	movwf	128,b	;volatile
  1775                           
  1776                           ;mcc_generated_files/system/src/pins.c: 70:     WPUA = 0x0;
  1777   0012CC  0E00               	movlw	0
  1778   0012CE  6F41               	movwf	65,b	;volatile
  1779                           
  1780                           ;mcc_generated_files/system/src/pins.c: 71:     WPUB = 0x0;
  1781   0012D0  0E00               	movlw	0
  1782   0012D2  6F51               	movwf	81,b	;volatile
  1783                           
  1784                           ;mcc_generated_files/system/src/pins.c: 72:     WPUC = 0x0;
  1785   0012D4  0E00               	movlw	0
  1786   0012D6  6F61               	movwf	97,b	;volatile
  1787                           
  1788                           ;mcc_generated_files/system/src/pins.c: 73:     WPUD = 0x0;
  1789   0012D8  0E00               	movlw	0
  1790   0012DA  6F71               	movwf	113,b	;volatile
  1791                           
  1792                           ;mcc_generated_files/system/src/pins.c: 74:     WPUE = 0x0;
  1793   0012DC  0E00               	movlw	0
  1794   0012DE  6F81               	movwf	129,b	;volatile
  1795                           
  1796                           ;mcc_generated_files/system/src/pins.c: 79:     RB1I2C = 0x0;
  1797   0012E0  0E00               	movlw	0
  1798   0012E2  6F5A               	movwf	90,b	;volatile
  1799                           
  1800                           ;mcc_generated_files/system/src/pins.c: 80:     RB2I2C = 0x0;
  1801   0012E4  0E00               	movlw	0
  1802   0012E6  6F5B               	movwf	91,b	;volatile
  1803                           
  1804                           ;mcc_generated_files/system/src/pins.c: 81:     RC3I2C = 0x0;
  1805   0012E8  0E00               	movlw	0
  1806   0012EA  6F6A               	movwf	106,b	;volatile
  1807                           
  1808                           ;mcc_generated_files/system/src/pins.c: 82:     RC4I2C = 0x0;
  1809   0012EC  0E00               	movlw	0
  1810   0012EE  6F6B               	movwf	107,b	;volatile
  1811                           
  1812                           ;mcc_generated_files/system/src/pins.c: 83:     RD0I2C = 0x0;
  1813   0012F0  0E00               	movlw	0
  1814   0012F2  6F7A               	movwf	122,b	;volatile
  1815                           
  1816                           ;mcc_generated_files/system/src/pins.c: 84:     RD1I2C = 0x0;
  1817   0012F4  0E00               	movlw	0
  1818   0012F6  6F7B               	movwf	123,b	;volatile
  1819                           
  1820                           ;mcc_generated_files/system/src/pins.c: 89:     ODCONA = 0x0;
  1821   0012F8  0E00               	movlw	0
  1822   0012FA  6F42               	movwf	66,b	;volatile
  1823                           
  1824                           ;mcc_generated_files/system/src/pins.c: 90:     ODCONB = 0x6;
  1825   0012FC  0E06               	movlw	6
  1826   0012FE  6F52               	movwf	82,b	;volatile
  1827                           
  1828                           ;mcc_generated_files/system/src/pins.c: 91:     ODCONC = 0x0;
  1829   001300  0E00               	movlw	0
  1830   001302  6F62               	movwf	98,b	;volatile
  1831                           
  1832                           ;mcc_generated_files/system/src/pins.c: 92:     ODCOND = 0x0;
  1833   001304  0E00               	movlw	0
  1834   001306  6F72               	movwf	114,b	;volatile
  1835                           
  1836                           ;mcc_generated_files/system/src/pins.c: 93:     ODCONE = 0x0;
  1837   001308  0E00               	movlw	0
  1838   00130A  6F82               	movwf	130,b	;volatile
  1839   00130C                     
  1840                           ; BSR set to: 58
  1841                           ;mcc_generated_files/system/src/pins.c: 98:     SLRCONA = 0xFF;
  1842   00130C  6943               	setf	67,b	;volatile
  1843   00130E                     
  1844                           ; BSR set to: 58
  1845                           ;mcc_generated_files/system/src/pins.c: 99:     SLRCONB = 0xFF;
  1846   00130E  6953               	setf	83,b	;volatile
  1847   001310                     
  1848                           ; BSR set to: 58
  1849                           ;mcc_generated_files/system/src/pins.c: 100:     SLRCONC = 0xFF;
  1850   001310  6963               	setf	99,b	;volatile
  1851   001312                     
  1852                           ; BSR set to: 58
  1853                           ;mcc_generated_files/system/src/pins.c: 101:     SLRCOND = 0xFF;
  1854   001312  6973               	setf	115,b	;volatile
  1855                           
  1856                           ;mcc_generated_files/system/src/pins.c: 102:     SLRCONE = 0x7;
  1857   001314  0E07               	movlw	7
  1858   001316  6F83               	movwf	131,b	;volatile
  1859   001318                     
  1860                           ; BSR set to: 58
  1861                           ;mcc_generated_files/system/src/pins.c: 107:     INLVLA = 0xFF;
  1862   001318  6944               	setf	68,b	;volatile
  1863   00131A                     
  1864                           ; BSR set to: 58
  1865                           ;mcc_generated_files/system/src/pins.c: 108:     INLVLB = 0xFF;
  1866   00131A  6954               	setf	84,b	;volatile
  1867   00131C                     
  1868                           ; BSR set to: 58
  1869                           ;mcc_generated_files/system/src/pins.c: 109:     INLVLC = 0xFF;
  1870   00131C  6964               	setf	100,b	;volatile
  1871   00131E                     
  1872                           ; BSR set to: 58
  1873                           ;mcc_generated_files/system/src/pins.c: 110:     INLVLD = 0xFF;
  1874   00131E  6974               	setf	116,b	;volatile
  1875                           
  1876                           ;mcc_generated_files/system/src/pins.c: 111:     INLVLE = 0xF;
  1877   001320  0E0F               	movlw	15
  1878   001322  6F84               	movwf	132,b	;volatile
  1879                           
  1880                           ;mcc_generated_files/system/src/pins.c: 115:     SPI1SDIPPS = 0x14;
  1881   001324  0E14               	movlw	20
  1882   001326  6FDF               	movwf	223,b	;volatile
  1883                           
  1884                           ;mcc_generated_files/system/src/pins.c: 116:     U1RXPPS = 0x17;
  1885   001328  0E17               	movlw	23
  1886   00132A  6FE5               	movwf	229,b	;volatile
  1887                           
  1888                           ;mcc_generated_files/system/src/pins.c: 117:     RC6PPS = 0x13;
  1889   00132C  0E13               	movlw	19
  1890   00132E  6F16               	movwf	22,b	;volatile
  1891                           
  1892                           ;mcc_generated_files/system/src/pins.c: 118:     SPI1SCKPPS = 0x13;
  1893   001330  0E13               	movlw	19
  1894   001332  6FDE               	movwf	222,b	;volatile
  1895                           
  1896                           ;mcc_generated_files/system/src/pins.c: 119:     RC3PPS = 0x1E;
  1897   001334  0E1E               	movlw	30
  1898   001336  6F13               	movwf	19,b	;volatile
  1899                           
  1900                           ;mcc_generated_files/system/src/pins.c: 120:     I2C2SCLPPS = 0x9;
  1901   001338  0E09               	movlw	9
  1902   00133A  6FE3               	movwf	227,b	;volatile
  1903                           
  1904                           ;mcc_generated_files/system/src/pins.c: 121:     RB1PPS = 0x23;
  1905   00133C  0E23               	movlw	35
  1906   00133E  6F09               	movwf	9,b	;volatile
  1907                           
  1908                           ;mcc_generated_files/system/src/pins.c: 122:     I2C2SDAPPS = 0xA;
  1909   001340  0E0A               	movlw	10
  1910   001342  6FE4               	movwf	228,b	;volatile
  1911                           
  1912                           ;mcc_generated_files/system/src/pins.c: 123:     RB2PPS = 0x24;
  1913   001344  0E24               	movlw	36
  1914   001346  6F0A               	movwf	10,b	;volatile
  1915                           
  1916                           ;mcc_generated_files/system/src/pins.c: 128:     IOCAP = 0x0;
  1917   001348  0E00               	movlw	0
  1918   00134A  6F45               	movwf	69,b	;volatile
  1919                           
  1920                           ;mcc_generated_files/system/src/pins.c: 129:     IOCAN = 0x0;
  1921   00134C  0E00               	movlw	0
  1922   00134E  6F46               	movwf	70,b	;volatile
  1923                           
  1924                           ;mcc_generated_files/system/src/pins.c: 130:     IOCAF = 0x0;
  1925   001350  0E00               	movlw	0
  1926   001352  6F47               	movwf	71,b	;volatile
  1927                           
  1928                           ;mcc_generated_files/system/src/pins.c: 131:     IOCBP = 0x0;
  1929   001354  0E00               	movlw	0
  1930   001356  6F55               	movwf	85,b	;volatile
  1931                           
  1932                           ;mcc_generated_files/system/src/pins.c: 132:     IOCBN = 0x0;
  1933   001358  0E00               	movlw	0
  1934   00135A  6F56               	movwf	86,b	;volatile
  1935                           
  1936                           ;mcc_generated_files/system/src/pins.c: 133:     IOCBF = 0x0;
  1937   00135C  0E00               	movlw	0
  1938   00135E  6F57               	movwf	87,b	;volatile
  1939                           
  1940                           ;mcc_generated_files/system/src/pins.c: 134:     IOCCP = 0x0;
  1941   001360  0E00               	movlw	0
  1942   001362  6F65               	movwf	101,b	;volatile
  1943                           
  1944                           ;mcc_generated_files/system/src/pins.c: 135:     IOCCN = 0x0;
  1945   001364  0E00               	movlw	0
  1946   001366  6F66               	movwf	102,b	;volatile
  1947                           
  1948                           ;mcc_generated_files/system/src/pins.c: 136:     IOCCF = 0x0;
  1949   001368  0E00               	movlw	0
  1950   00136A  6F67               	movwf	103,b	;volatile
  1951                           
  1952                           ;mcc_generated_files/system/src/pins.c: 137:     IOCEP = 0x0;
  1953   00136C  0E00               	movlw	0
  1954   00136E  6F85               	movwf	133,b	;volatile
  1955                           
  1956                           ;mcc_generated_files/system/src/pins.c: 138:     IOCEN = 0x0;
  1957   001370  0E00               	movlw	0
  1958   001372  6F86               	movwf	134,b	;volatile
  1959                           
  1960                           ;mcc_generated_files/system/src/pins.c: 139:     IOCEF = 0x0;
  1961   001374  0E00               	movlw	0
  1962   001376  6F87               	movwf	135,b	;volatile
  1963   001378                     
  1964                           ; BSR set to: 58
  1965   001378  0012               	return		;funcret
  1966   00137A                     __end_of_PIN_MANAGER_Initialize:
  1967                           	callstack 0
  1968                           
  1969 ;; *************** function _INTERRUPT_Initialize *****************
  1970 ;; Defined at:
  1971 ;;		line 42 in file "mcc_generated_files/system/src/interrupt.c"
  1972 ;; Parameters:    Size  Location     Type
  1973 ;;		None
  1974 ;; Auto vars:     Size  Location     Type
  1975 ;;  state           1   20[BANK0 ] _Bool 
  1976 ;; Return value:  Size  Location     Type
  1977 ;;                  1    wreg      void 
  1978 ;; Registers used:
  1979 ;;		wreg, status,2, status,0, cstack
  1980 ;; Tracked objects:
  1981 ;;		On entry : 0/0
  1982 ;;		On exit  : 0/0
  1983 ;;		Unchanged: 0/0
  1984 ;; Data sizes:     COMRAM   BANK0   BANK1   BANK2   BANK3   BANK4   BANK5   BANK6   BANK7   BANK8   BANK9  BANK10  BANK1
      +1  BANK12  BANK13  BANK14  BANK15
  1985 ;;      Params:         0       0       0       0       0       0       0       0       0       0       0       0       
      +0       0       0       0       0
  1986 ;;      Locals:         0       1       0       0       0       0       0       0       0       0       0       0       
      +0       0       0       0       0
  1987 ;;      Temps:          0       0       0       0       0       0       0       0       0       0       0       0       
      +0       0       0       0       0
  1988 ;;      Totals:         0       1       0       0       0       0       0       0       0       0       0       0       
      +0       0       0       0       0
  1989 ;;Total ram usage:        1 bytes
  1990 ;; Hardware stack levels used: 1
  1991 ;; Hardware stack levels required when called: 7
  1992 ;; This function calls:
  1993 ;;		_INT0_SetInterruptHandler
  1994 ;;		_INT1_SetInterruptHandler
  1995 ;;		_INT2_SetInterruptHandler
  1996 ;; This function is called by:
  1997 ;;		_SYSTEM_Initialize
  1998 ;; This function uses a non-reentrant model
  1999 ;;
  2000                           
  2001                           	psect	text11
  2002   00151A                     __ptext11:
  2003                           	callstack 0
  2004   00151A                     _INTERRUPT_Initialize:
  2005                           	callstack 22
  2006   00151A                     
  2007                           ;mcc_generated_files/system/src/interrupt.c: 44:     INTCON0bits.IPEN = 1;
  2008   00151A  8AD2               	bsf	210,5,c	;volatile
  2009   00151C                     
  2010                           ;mcc_generated_files/system/src/interrupt.c: 46:     _Bool state = (unsigned char)GIE;
  2011   00151C  0E00               	movlw	0
  2012   00151E  BED2               	btfsc	16338,7,c	;volatile
  2013   001520  0E01               	movlw	1
  2014   001522  0100               	movlb	0	; () banked
  2015   001524  6F9A               	movwf	INTERRUPT_Initialize@state& (0+255),b
  2016   001526                     
  2017                           ; BSR set to: 0
  2018                           ;mcc_generated_files/system/src/interrupt.c: 47:     GIE = 0;
  2019   001526  9ED2               	bcf	16338,7,c	;volatile
  2020                           
  2021                           ;mcc_generated_files/system/src/interrupt.c: 48:     IVTLOCK = 0x55;
  2022   001528  0E55               	movlw	85
  2023   00152A  6ED4               	movwf	212,c	;volatile
  2024                           
  2025                           ;mcc_generated_files/system/src/interrupt.c: 49:     IVTLOCK = 0xAA;
  2026   00152C  0EAA               	movlw	170
  2027   00152E  6ED4               	movwf	212,c	;volatile
  2028   001530                     
  2029                           ; BSR set to: 0
  2030                           ;mcc_generated_files/system/src/interrupt.c: 50:     IVTLOCKbits.IVTLOCKED = 0x00;
  2031   001530  90D4               	bcf	212,0,c	;volatile
  2032                           
  2033                           ;mcc_generated_files/system/src/interrupt.c: 52:     IVTBASEU = 0;
  2034   001532  0E00               	movlw	0
  2035   001534  6ED7               	movwf	215,c	;volatile
  2036                           
  2037                           ;mcc_generated_files/system/src/interrupt.c: 53:     IVTBASEH = 0;
  2038   001536  0E00               	movlw	0
  2039   001538  6ED6               	movwf	214,c	;volatile
  2040                           
  2041                           ;mcc_generated_files/system/src/interrupt.c: 54:     IVTBASEL = 8;
  2042   00153A  0E08               	movlw	8
  2043   00153C  6ED5               	movwf	213,c	;volatile
  2044                           
  2045                           ;mcc_generated_files/system/src/interrupt.c: 56:     IVTLOCK = 0x55;
  2046   00153E  0E55               	movlw	85
  2047   001540  6ED4               	movwf	212,c	;volatile
  2048                           
  2049                           ;mcc_generated_files/system/src/interrupt.c: 57:     IVTLOCK = 0xAA;
  2050   001542  0EAA               	movlw	170
  2051   001544  6ED4               	movwf	212,c	;volatile
  2052   001546                     
  2053                           ; BSR set to: 0
  2054                           ;mcc_generated_files/system/src/interrupt.c: 58:     IVTLOCKbits.IVTLOCKED = 0x01;
  2055   001546  80D4               	bsf	212,0,c	;volatile
  2056   001548                     
  2057                           ; BSR set to: 0
  2058                           ;mcc_generated_files/system/src/interrupt.c: 60:     GIE = state;
  2059   001548  B19A               	btfsc	INTERRUPT_Initialize@state& (0+255),0,b
  2060   00154A  D002               	bra	u1115
  2061   00154C  9ED2               	bcf	16338,7,c	;volatile
  2062   00154E  D001               	bra	u1116
  2063   001550                     u1115:
  2064   001550  8ED2               	bsf	16338,7,c	;volatile
  2065   001552                     u1116:
  2066   001552                     
  2067                           ;mcc_generated_files/system/src/interrupt.c: 62:     IPR1bits.ADIP = 1;
  2068   001552  0139               	movlb	57	; () banked
  2069   001554  8581               	bsf	129,2,b	;volatile
  2070   001556                     
  2071                           ; BSR set to: 57
  2072                           ;mcc_generated_files/system/src/interrupt.c: 63:     IPR3bits.U1RXIP = 1;
  2073   001556  8783               	bsf	131,3,b	;volatile
  2074   001558                     
  2075                           ; BSR set to: 57
  2076                           ;mcc_generated_files/system/src/interrupt.c: 64:     IPR3bits.TMR0IP = 1;
  2077   001558  8F83               	bsf	131,7,b	;volatile
  2078   00155A                     
  2079                           ; BSR set to: 57
  2080                           ;mcc_generated_files/system/src/interrupt.c: 65:     IPR0bits.IOCIP = 0;
  2081   00155A  9F80               	bcf	128,7,b	;volatile
  2082   00155C                     
  2083                           ; BSR set to: 57
  2084                           ;mcc_generated_files/system/src/interrupt.c: 66:     IPR3bits.U1TXIP = 0;
  2085   00155C  9983               	bcf	131,4,b	;volatile
  2086   00155E                     
  2087                           ; BSR set to: 57
  2088                           ;mcc_generated_files/system/src/interrupt.c: 67:     IPR5bits.I2C2RXIP = 0;
  2089   00155E  9D85               	bcf	133,6,b	;volatile
  2090   001560                     
  2091                           ; BSR set to: 57
  2092                           ;mcc_generated_files/system/src/interrupt.c: 68:     IPR5bits.I2C2TXIP = 0;
  2093   001560  9F85               	bcf	133,7,b	;volatile
  2094   001562                     
  2095                           ; BSR set to: 57
  2096                           ;mcc_generated_files/system/src/interrupt.c: 69:     IPR6bits.I2C2IP = 0;
  2097   001562  9186               	bcf	134,0,b	;volatile
  2098   001564                     
  2099                           ; BSR set to: 57
  2100                           ;mcc_generated_files/system/src/interrupt.c: 70:     IPR6bits.I2C2EIP = 0;
  2101   001564  9386               	bcf	134,1,b	;volatile
  2102   001566                     
  2103                           ; BSR set to: 57
  2104                           ;mcc_generated_files/system/src/interrupt.c: 74:     (PIR1bits.INT0IF = 0);
  2105   001566  91A1               	bcf	161,0,b	;volatile
  2106   001568                     
  2107                           ; BSR set to: 57
  2108                           ;mcc_generated_files/system/src/interrupt.c: 75:     (INTCON0bits.INT0EDG = 1);
  2109   001568  80D2               	bsf	210,0,c	;volatile
  2110   00156A                     
  2111                           ; BSR set to: 57
  2112                           ;mcc_generated_files/system/src/interrupt.c: 77:     INT0_SetInterruptHandler(INT0_Defau
      +                          ltInterruptHandler);
  2113   00156A  0EE0               	movlw	low _INT0_DefaultInterruptHandler
  2114   00156C  0100               	movlb	0	; () banked
  2115   00156E  6F98               	movwf	INT0_SetInterruptHandler@InterruptHandler& (0+255),b
  2116   001570  0E1D               	movlw	high _INT0_DefaultInterruptHandler
  2117   001572  6F99               	movwf	(INT0_SetInterruptHandler@InterruptHandler+1)& (0+255),b
  2118   001574  ECB3  F00E         	call	_INT0_SetInterruptHandler	;wreg free
  2119   001578                     
  2120                           ;mcc_generated_files/system/src/interrupt.c: 82:     (PIR5bits.INT1IF = 0);
  2121   001578  0139               	movlb	57	; () banked
  2122   00157A  91A5               	bcf	165,0,b	;volatile
  2123   00157C                     
  2124                           ; BSR set to: 57
  2125                           ;mcc_generated_files/system/src/interrupt.c: 83:     (INTCON0bits.INT1EDG = 1);
  2126   00157C  82D2               	bsf	210,1,c	;volatile
  2127   00157E                     
  2128                           ; BSR set to: 57
  2129                           ;mcc_generated_files/system/src/interrupt.c: 85:     INT1_SetInterruptHandler(INT1_Defau
      +                          ltInterruptHandler);
  2130   00157E  0EE2               	movlw	low _INT1_DefaultInterruptHandler
  2131   001580  0100               	movlb	0	; () banked
  2132   001582  6F98               	movwf	INT1_SetInterruptHandler@InterruptHandler& (0+255),b
  2133   001584  0E1D               	movlw	high _INT1_DefaultInterruptHandler
  2134   001586  6F99               	movwf	(INT1_SetInterruptHandler@InterruptHandler+1)& (0+255),b
  2135   001588  ECAE  F00E         	call	_INT1_SetInterruptHandler	;wreg free
  2136   00158C                     
  2137                           ;mcc_generated_files/system/src/interrupt.c: 90:     (PIR7bits.INT2IF = 0);
  2138   00158C  0139               	movlb	57	; () banked
  2139   00158E  9BA7               	bcf	167,5,b	;volatile
  2140   001590                     
  2141                           ; BSR set to: 57
  2142                           ;mcc_generated_files/system/src/interrupt.c: 91:     (INTCON0bits.INT2EDG = 1);
  2143   001590  84D2               	bsf	210,2,c	;volatile
  2144   001592                     
  2145                           ; BSR set to: 57
  2146                           ;mcc_generated_files/system/src/interrupt.c: 93:     INT2_SetInterruptHandler(INT2_Defau
      +                          ltInterruptHandler);
  2147   001592  0EE4               	movlw	low _INT2_DefaultInterruptHandler
  2148   001594  0100               	movlb	0	; () banked
  2149   001596  6F98               	movwf	INT2_SetInterruptHandler@InterruptHandler& (0+255),b
  2150   001598  0E1D               	movlw	high _INT2_DefaultInterruptHandler
  2151   00159A  6F99               	movwf	(INT2_SetInterruptHandler@InterruptHandler+1)& (0+255),b
  2152   00159C  ECA9  F00E         	call	_INT2_SetInterruptHandler	;wreg free
  2153   0015A0  0012               	return		;funcret
  2154   0015A2                     __end_of_INTERRUPT_Initialize:
  2155                           	callstack 0
  2156                           
  2157 ;; *************** function _INT2_SetInterruptHandler *****************
  2158 ;; Defined at:
  2159 ;;		line 201 in file "mcc_generated_files/system/src/interrupt.c"
  2160 ;; Parameters:    Size  Location     Type
  2161 ;;  InterruptHan    2   18[BANK0 ] PTR FTN()void 
  2162 ;;		 -> INT2_DefaultInterruptHandler(1), 
  2163 ;; Auto vars:     Size  Location     Type
  2164 ;;		None
  2165 ;; Return value:  Size  Location     Type
  2166 ;;                  1    wreg      void 
  2167 ;; Registers used:
  2168 ;;		wreg, status,2, status,0
  2169 ;; Tracked objects:
  2170 ;;		On entry : 0/0
  2171 ;;		On exit  : 0/0
  2172 ;;		Unchanged: 0/0
  2173 ;; Data sizes:     COMRAM   BANK0   BANK1   BANK2   BANK3   BANK4   BANK5   BANK6   BANK7   BANK8   BANK9  BANK10  BANK1
      +1  BANK12  BANK13  BANK14  BANK15
  2174 ;;      Params:         0       2       0       0       0       0       0       0       0       0       0       0       
      +0       0       0       0       0
  2175 ;;      Locals:         0       0       0       0       0       0       0       0       0       0       0       0       
      +0       0       0       0       0
  2176 ;;      Temps:          0       0       0       0       0       0       0       0       0       0       0       0       
      +0       0       0       0       0
  2177 ;;      Totals:         0       2       0       0       0       0       0       0       0       0       0       0       
      +0       0       0       0       0
  2178 ;;Total ram usage:        2 bytes
  2179 ;; Hardware stack levels used: 1
  2180 ;; Hardware stack levels required when called: 6
  2181 ;; This function calls:
  2182 ;;		Nothing
  2183 ;; This function is called by:
  2184 ;;		_INTERRUPT_Initialize
  2185 ;; This function uses a non-reentrant model
  2186 ;;
  2187                           
  2188                           	psect	text12
  2189   001D52                     __ptext12:
  2190                           	callstack 0
  2191   001D52                     _INT2_SetInterruptHandler:
  2192                           	callstack 22
  2193   001D52                     
  2194                           ;mcc_generated_files/system/src/interrupt.c: 202:     INT2_InterruptHandler = InterruptH
      +                          andler;
  2195   001D52  C098  F01E         	movff	INT2_SetInterruptHandler@InterruptHandler,_INT2_InterruptHandler
  2196   001D56  C099  F01F         	movff	INT2_SetInterruptHandler@InterruptHandler+1,_INT2_InterruptHandler+1
  2197   001D5A  0012               	return		;funcret
  2198   001D5C                     __end_of_INT2_SetInterruptHandler:
  2199                           	callstack 0
  2200                           
  2201 ;; *************** function _INT1_SetInterruptHandler *****************
  2202 ;; Defined at:
  2203 ;;		line 167 in file "mcc_generated_files/system/src/interrupt.c"
  2204 ;; Parameters:    Size  Location     Type
  2205 ;;  InterruptHan    2   18[BANK0 ] PTR FTN()void 
  2206 ;;		 -> INT1_DefaultInterruptHandler(1), 
  2207 ;; Auto vars:     Size  Location     Type
  2208 ;;		None
  2209 ;; Return value:  Size  Location     Type
  2210 ;;                  1    wreg      void 
  2211 ;; Registers used:
  2212 ;;		wreg, status,2, status,0
  2213 ;; Tracked objects:
  2214 ;;		On entry : 0/0
  2215 ;;		On exit  : 0/0
  2216 ;;		Unchanged: 0/0
  2217 ;; Data sizes:     COMRAM   BANK0   BANK1   BANK2   BANK3   BANK4   BANK5   BANK6   BANK7   BANK8   BANK9  BANK10  BANK1
      +1  BANK12  BANK13  BANK14  BANK15
  2218 ;;      Params:         0       2       0       0       0       0       0       0       0       0       0       0       
      +0       0       0       0       0
  2219 ;;      Locals:         0       0       0       0       0       0       0       0       0       0       0       0       
      +0       0       0       0       0
  2220 ;;      Temps:          0       0       0       0       0       0       0       0       0       0       0       0       
      +0       0       0       0       0
  2221 ;;      Totals:         0       2       0       0       0       0       0       0       0       0       0       0       
      +0       0       0       0       0
  2222 ;;Total ram usage:        2 bytes
  2223 ;; Hardware stack levels used: 1
  2224 ;; Hardware stack levels required when called: 6
  2225 ;; This function calls:
  2226 ;;		Nothing
  2227 ;; This function is called by:
  2228 ;;		_INTERRUPT_Initialize
  2229 ;; This function uses a non-reentrant model
  2230 ;;
  2231                           
  2232                           	psect	text13
  2233   001D5C                     __ptext13:
  2234                           	callstack 0
  2235   001D5C                     _INT1_SetInterruptHandler:
  2236                           	callstack 22
  2237   001D5C                     
  2238                           ;mcc_generated_files/system/src/interrupt.c: 168:     INT1_InterruptHandler = InterruptH
      +                          andler;
  2239   001D5C  C098  F020         	movff	INT1_SetInterruptHandler@InterruptHandler,_INT1_InterruptHandler
  2240   001D60  C099  F021         	movff	INT1_SetInterruptHandler@InterruptHandler+1,_INT1_InterruptHandler+1
  2241   001D64  0012               	return		;funcret
  2242   001D66                     __end_of_INT1_SetInterruptHandler:
  2243                           	callstack 0
  2244                           
  2245 ;; *************** function _INT0_SetInterruptHandler *****************
  2246 ;; Defined at:
  2247 ;;		line 133 in file "mcc_generated_files/system/src/interrupt.c"
  2248 ;; Parameters:    Size  Location     Type
  2249 ;;  InterruptHan    2   18[BANK0 ] PTR FTN()void 
  2250 ;;		 -> INT0_DefaultInterruptHandler(1), 
  2251 ;; Auto vars:     Size  Location     Type
  2252 ;;		None
  2253 ;; Return value:  Size  Location     Type
  2254 ;;                  1    wreg      void 
  2255 ;; Registers used:
  2256 ;;		wreg, status,2, status,0
  2257 ;; Tracked objects:
  2258 ;;		On entry : 0/0
  2259 ;;		On exit  : 0/0
  2260 ;;		Unchanged: 0/0
  2261 ;; Data sizes:     COMRAM   BANK0   BANK1   BANK2   BANK3   BANK4   BANK5   BANK6   BANK7   BANK8   BANK9  BANK10  BANK1
      +1  BANK12  BANK13  BANK14  BANK15
  2262 ;;      Params:         0       2       0       0       0       0       0       0       0       0       0       0       
      +0       0       0       0       0
  2263 ;;      Locals:         0       0       0       0       0       0       0       0       0       0       0       0       
      +0       0       0       0       0
  2264 ;;      Temps:          0       0       0       0       0       0       0       0       0       0       0       0       
      +0       0       0       0       0
  2265 ;;      Totals:         0       2       0       0       0       0       0       0       0       0       0       0       
      +0       0       0       0       0
  2266 ;;Total ram usage:        2 bytes
  2267 ;; Hardware stack levels used: 1
  2268 ;; Hardware stack levels required when called: 6
  2269 ;; This function calls:
  2270 ;;		Nothing
  2271 ;; This function is called by:
  2272 ;;		_INTERRUPT_Initialize
  2273 ;; This function uses a non-reentrant model
  2274 ;;
  2275                           
  2276                           	psect	text14
  2277   001D66                     __ptext14:
  2278                           	callstack 0
  2279   001D66                     _INT0_SetInterruptHandler:
  2280                           	callstack 22
  2281   001D66                     
  2282                           ;mcc_generated_files/system/src/interrupt.c: 134:     INT0_InterruptHandler = InterruptH
      +                          andler;
  2283   001D66  C098  F022         	movff	INT0_SetInterruptHandler@InterruptHandler,_INT0_InterruptHandler
  2284   001D6A  C099  F023         	movff	INT0_SetInterruptHandler@InterruptHandler+1,_INT0_InterruptHandler+1
  2285   001D6E  0012               	return		;funcret
  2286   001D70                     __end_of_INT0_SetInterruptHandler:
  2287                           	callstack 0
  2288                           
  2289 ;; *************** function _I2C2_Initialize *****************
  2290 ;; Defined at:
  2291 ;;		line 91 in file "mcc_generated_files/i2c_host/src/i2c2.c"
  2292 ;; Parameters:    Size  Location     Type
  2293 ;;		None
  2294 ;; Auto vars:     Size  Location     Type
  2295 ;;		None
  2296 ;; Return value:  Size  Location     Type
  2297 ;;                  1    wreg      void 
  2298 ;; Registers used:
  2299 ;;		wreg, status,2, status,0, cstack
  2300 ;; Tracked objects:
  2301 ;;		On entry : 0/0
  2302 ;;		On exit  : 0/0
  2303 ;;		Unchanged: 0/0
  2304 ;; Data sizes:     COMRAM   BANK0   BANK1   BANK2   BANK3   BANK4   BANK5   BANK6   BANK7   BANK8   BANK9  BANK10  BANK1
      +1  BANK12  BANK13  BANK14  BANK15
  2305 ;;      Params:         0       0       0       0       0       0       0       0       0       0       0       0       
      +0       0       0       0       0
  2306 ;;      Locals:         0       0       0       0       0       0       0       0       0       0       0       0       
      +0       0       0       0       0
  2307 ;;      Temps:          0       0       0       0       0       0       0       0       0       0       0       0       
      +0       0       0       0       0
  2308 ;;      Totals:         0       0       0       0       0       0       0       0       0       0       0       0       
      +0       0       0       0       0
  2309 ;;Total ram usage:        0 bytes
  2310 ;; Hardware stack levels used: 1
  2311 ;; Hardware stack levels required when called: 7
  2312 ;; This function calls:
  2313 ;;		_I2C2_CallbackRegister
  2314 ;;		_I2C2_InterruptsEnable
  2315 ;; This function is called by:
  2316 ;;		_SYSTEM_Initialize
  2317 ;; This function uses a non-reentrant model
  2318 ;;
  2319                           
  2320                           	psect	text15
  2321   001696                     __ptext15:
  2322                           	callstack 0
  2323   001696                     _I2C2_Initialize:
  2324                           	callstack 22
  2325   001696                     
  2326                           ;mcc_generated_files/i2c_host/src/i2c2.c: 94:     I2C2CON0 = 0x4;
  2327   001696  0E04               	movlw	4
  2328   001698  013D               	movlb	61	; () banked
  2329   00169A  6F5D               	movwf	93,b	;volatile
  2330                           
  2331                           ;mcc_generated_files/i2c_host/src/i2c2.c: 96:     I2C2CON1 = 0x80;
  2332   00169C  0E80               	movlw	128
  2333   00169E  6F5E               	movwf	94,b	;volatile
  2334                           
  2335                           ;mcc_generated_files/i2c_host/src/i2c2.c: 98:     I2C2CON2 = 0x8;
  2336   0016A0  0E08               	movlw	8
  2337   0016A2  6F5F               	movwf	95,b	;volatile
  2338                           
  2339                           ;mcc_generated_files/i2c_host/src/i2c2.c: 100:     I2C2CLK = 0x3;
  2340   0016A4  0E03               	movlw	3
  2341   0016A6  6F65               	movwf	101,b	;volatile
  2342                           
  2343                           ;mcc_generated_files/i2c_host/src/i2c2.c: 102:     I2C2PIR = 0x0;
  2344   0016A8  0E00               	movlw	0
  2345   0016AA  6F63               	movwf	99,b	;volatile
  2346                           
  2347                           ;mcc_generated_files/i2c_host/src/i2c2.c: 104:     I2C2PIE = 0x0;
  2348   0016AC  0E00               	movlw	0
  2349   0016AE  6F64               	movwf	100,b	;volatile
  2350                           
  2351                           ;mcc_generated_files/i2c_host/src/i2c2.c: 106:     I2C2ERR = 0x0;
  2352   0016B0  0E00               	movlw	0
  2353   0016B2  6F60               	movwf	96,b	;volatile
  2354                           
  2355                           ;mcc_generated_files/i2c_host/src/i2c2.c: 108:     I2C2CNT = 0x0;
  2356   0016B4  0E00               	movlw	0
  2357   0016B6  6F56               	movwf	86,b	;volatile
  2358                           
  2359                           ;mcc_generated_files/i2c_host/src/i2c2.c: 110:     RC3I2C = 0x51;
  2360   0016B8  0E51               	movlw	81
  2361   0016BA  013A               	movlb	58	; () banked
  2362   0016BC  6F6A               	movwf	106,b	;volatile
  2363                           
  2364                           ;mcc_generated_files/i2c_host/src/i2c2.c: 112:     RC4I2C = 0x51;
  2365   0016BE  0E51               	movlw	81
  2366   0016C0  6F6B               	movwf	107,b	;volatile
  2367   0016C2                     
  2368                           ; BSR set to: 58
  2369                           ;mcc_generated_files/i2c_host/src/i2c2.c: 113:     I2C2_InterruptsEnable();
  2370   0016C2  EC3C  F00E         	call	_I2C2_InterruptsEnable	;wreg free
  2371   0016C6                     
  2372                           ;mcc_generated_files/i2c_host/src/i2c2.c: 117:     I2C2PIEbits.SCIE = 0;
  2373   0016C6  013D               	movlb	61	; () banked
  2374   0016C8  9164               	bcf	100,0,b	;volatile
  2375   0016CA                     
  2376                           ; BSR set to: 61
  2377                           ;mcc_generated_files/i2c_host/src/i2c2.c: 118:     I2C2PIEbits.PCIE = 0;
  2378   0016CA  9564               	bcf	100,2,b	;volatile
  2379   0016CC                     
  2380                           ; BSR set to: 61
  2381                           ;mcc_generated_files/i2c_host/src/i2c2.c: 119:     I2C2CON0bits.EN = 1;
  2382   0016CC  8F5D               	bsf	93,7,b	;volatile
  2383   0016CE                     
  2384                           ; BSR set to: 61
  2385                           ;mcc_generated_files/i2c_host/src/i2c2.c: 120:     _delay((unsigned long)((1)*(64000000/
      +                          4000000.0)));
  2386   0016CE  0E05               	movlw	5
  2387   0016D0                     u1277:
  2388   0016D0  2EE8               	decfsz	wreg,f,c
  2389   0016D2  D7FE               	bra	u1277
  2390   0016D4  F000               	nop	
  2391   0016D6                     
  2392                           ;mcc_generated_files/i2c_host/src/i2c2.c: 121:     __nop();
  2393   0016D6  F000               	nop	
  2394   0016D8                     
  2395                           ;mcc_generated_files/i2c_host/src/i2c2.c: 122:     __nop();
  2396   0016D8  F000               	nop	
  2397   0016DA                     
  2398                           ;mcc_generated_files/i2c_host/src/i2c2.c: 123:     __nop();
  2399   0016DA  F000               	nop	
  2400   0016DC                     
  2401                           ;mcc_generated_files/i2c_host/src/i2c2.c: 124:     __nop();
  2402   0016DC  F000               	nop	
  2403   0016DE                     
  2404                           ;mcc_generated_files/i2c_host/src/i2c2.c: 125:     __nop();
  2405   0016DE  F000               	nop	
  2406   0016E0                     
  2407                           ;mcc_generated_files/i2c_host/src/i2c2.c: 126:     __nop();
  2408   0016E0  F000               	nop	
  2409   0016E2                     
  2410                           ;mcc_generated_files/i2c_host/src/i2c2.c: 127:     I2C2PIRbits.SCIF = 0;
  2411   0016E2  013D               	movlb	61	; () banked
  2412   0016E4  9163               	bcf	99,0,b	;volatile
  2413   0016E6                     
  2414                           ; BSR set to: 61
  2415                           ;mcc_generated_files/i2c_host/src/i2c2.c: 128:     I2C2PIRbits.PCIF = 0;
  2416   0016E6  9563               	bcf	99,2,b	;volatile
  2417   0016E8                     
  2418                           ; BSR set to: 61
  2419                           ;mcc_generated_files/i2c_host/src/i2c2.c: 129:     I2C2PIEbits.PCIE = 1;
  2420   0016E8  8564               	bsf	100,2,b	;volatile
  2421   0016EA                     
  2422                           ; BSR set to: 61
  2423                           ;mcc_generated_files/i2c_host/src/i2c2.c: 130:     I2C2_CallbackRegister(I2C2_DefaultCal
      +                          lback);
  2424   0016EA  0EDC               	movlw	low _I2C2_DefaultCallback
  2425   0016EC  0100               	movlb	0	; () banked
  2426   0016EE  6F98               	movwf	I2C2_CallbackRegister@callbackHandler& (0+255),b
  2427   0016F0  0E1D               	movlw	high _I2C2_DefaultCallback
  2428   0016F2  6F99               	movwf	(I2C2_CallbackRegister@callbackHandler+1)& (0+255),b
  2429   0016F4  EC05  F00E         	call	_I2C2_CallbackRegister	;wreg free
  2430   0016F8  0012               	return		;funcret
  2431   0016FA                     __end_of_I2C2_Initialize:
  2432                           	callstack 0
  2433                           
  2434 ;; *************** function _I2C2_InterruptsEnable *****************
  2435 ;; Defined at:
  2436 ;;		line 448 in file "mcc_generated_files/i2c_host/src/i2c2.c"
  2437 ;; Parameters:    Size  Location     Type
  2438 ;;		None
  2439 ;; Auto vars:     Size  Location     Type
  2440 ;;		None
  2441 ;; Return value:  Size  Location     Type
  2442 ;;                  1    wreg      void 
  2443 ;; Registers used:
  2444 ;;		None
  2445 ;; Tracked objects:
  2446 ;;		On entry : 0/0
  2447 ;;		On exit  : 0/0
  2448 ;;		Unchanged: 0/0
  2449 ;; Data sizes:     COMRAM   BANK0   BANK1   BANK2   BANK3   BANK4   BANK5   BANK6   BANK7   BANK8   BANK9  BANK10  BANK1
      +1  BANK12  BANK13  BANK14  BANK15
  2450 ;;      Params:         0       0       0       0       0       0       0       0       0       0       0       0       
      +0       0       0       0       0
  2451 ;;      Locals:         0       0       0       0       0       0       0       0       0       0       0       0       
      +0       0       0       0       0
  2452 ;;      Temps:          0       0       0       0       0       0       0       0       0       0       0       0       
      +0       0       0       0       0
  2453 ;;      Totals:         0       0       0       0       0       0       0       0       0       0       0       0       
      +0       0       0       0       0
  2454 ;;Total ram usage:        0 bytes
  2455 ;; Hardware stack levels used: 1
  2456 ;; Hardware stack levels required when called: 6
  2457 ;; This function calls:
  2458 ;;		Nothing
  2459 ;; This function is called by:
  2460 ;;		_I2C2_Initialize
  2461 ;; This function uses a non-reentrant model
  2462 ;;
  2463                           
  2464                           	psect	text16
  2465   001C78                     __ptext16:
  2466                           	callstack 0
  2467   001C78                     _I2C2_InterruptsEnable:
  2468                           	callstack 22
  2469   001C78                     
  2470                           ;mcc_generated_files/i2c_host/src/i2c2.c: 450:     PIE6bits.I2C2IE = 1;
  2471   001C78  0139               	movlb	57	; () banked
  2472   001C7A  8196               	bsf	150,0,b	;volatile
  2473                           
  2474                           ;mcc_generated_files/i2c_host/src/i2c2.c: 451:     PIE6bits.I2C2EIE = 1;
  2475   001C7C  8396               	bsf	150,1,b	;volatile
  2476                           
  2477                           ;mcc_generated_files/i2c_host/src/i2c2.c: 452:     PIE5bits.I2C2RXIE = 1;
  2478   001C7E  8D95               	bsf	149,6,b	;volatile
  2479                           
  2480                           ;mcc_generated_files/i2c_host/src/i2c2.c: 453:     PIE5bits.I2C2TXIE = 1;
  2481   001C80  8F95               	bsf	149,7,b	;volatile
  2482                           
  2483                           ;mcc_generated_files/i2c_host/src/i2c2.c: 455:     I2C2PIEbits.PCIE = 1;
  2484   001C82  013D               	movlb	61	; () banked
  2485   001C84  8564               	bsf	100,2,b	;volatile
  2486                           
  2487                           ;mcc_generated_files/i2c_host/src/i2c2.c: 456:     I2C2PIEbits.RSCIE = 1;
  2488   001C86  8364               	bsf	100,1,b	;volatile
  2489                           
  2490                           ;mcc_generated_files/i2c_host/src/i2c2.c: 457:     I2C2PIEbits.CNTIE = 1;
  2491   001C88  8F64               	bsf	100,7,b	;volatile
  2492                           
  2493                           ;mcc_generated_files/i2c_host/src/i2c2.c: 458:     I2C2ERRbits.NACKIE = 1;
  2494   001C8A  8160               	bsf	96,0,b	;volatile
  2495   001C8C                     
  2496                           ; BSR set to: 61
  2497   001C8C  0012               	return		;funcret
  2498   001C8E                     __end_of_I2C2_InterruptsEnable:
  2499                           	callstack 0
  2500                           
  2501 ;; *************** function _I2C2_CallbackRegister *****************
  2502 ;; Defined at:
  2503 ;;		line 216 in file "mcc_generated_files/i2c_host/src/i2c2.c"
  2504 ;; Parameters:    Size  Location     Type
  2505 ;;  callbackHand    2   18[BANK0 ] PTR FTN()void 
  2506 ;;		 -> I2C2_DefaultCallback(1), 
  2507 ;; Auto vars:     Size  Location     Type
  2508 ;;		None
  2509 ;; Return value:  Size  Location     Type
  2510 ;;                  1    wreg      void 
  2511 ;; Registers used:
  2512 ;;		wreg, status,2, status,0
  2513 ;; Tracked objects:
  2514 ;;		On entry : 0/0
  2515 ;;		On exit  : 0/0
  2516 ;;		Unchanged: 0/0
  2517 ;; Data sizes:     COMRAM   BANK0   BANK1   BANK2   BANK3   BANK4   BANK5   BANK6   BANK7   BANK8   BANK9  BANK10  BANK1
      +1  BANK12  BANK13  BANK14  BANK15
  2518 ;;      Params:         0       2       0       0       0       0       0       0       0       0       0       0       
      +0       0       0       0       0
  2519 ;;      Locals:         0       0       0       0       0       0       0       0       0       0       0       0       
      +0       0       0       0       0
  2520 ;;      Temps:          0       0       0       0       0       0       0       0       0       0       0       0       
      +0       0       0       0       0
  2521 ;;      Totals:         0       2       0       0       0       0       0       0       0       0       0       0       
      +0       0       0       0       0
  2522 ;;Total ram usage:        2 bytes
  2523 ;; Hardware stack levels used: 1
  2524 ;; Hardware stack levels required when called: 6
  2525 ;; This function calls:
  2526 ;;		Nothing
  2527 ;; This function is called by:
  2528 ;;		_I2C2_Initialize
  2529 ;;		_I2C2_Deinitialize
  2530 ;; This function uses a non-reentrant model
  2531 ;;
  2532                           
  2533                           	psect	text17
  2534   001C0A                     __ptext17:
  2535                           	callstack 0
  2536   001C0A                     _I2C2_CallbackRegister:
  2537                           	callstack 22
  2538   001C0A                     
  2539                           ;mcc_generated_files/i2c_host/src/i2c2.c: 216: void I2C2_CallbackRegister(void (*callbac
      +                          kHandler)(void));mcc_generated_files/i2c_host/src/i2c2.c: 217: {;mcc_generated_files/i2c
      +                          _host/src/i2c2.c: 218:     if (callbackHandler != ((void*)0))
  2540   001C0A  0100               	movlb	0	; () banked
  2541   001C0C  5198               	movf	I2C2_CallbackRegister@callbackHandler& (0+255),w,b
  2542   001C0E  1199               	iorwf	(I2C2_CallbackRegister@callbackHandler+1)& (0+255),w,b
  2543   001C10  B4D8               	btfsc	status,2,c
  2544   001C12  EF0D  F00E         	goto	u1071
  2545   001C16  EF0F  F00E         	goto	u1070
  2546   001C1A                     u1071:
  2547   001C1A  EF13  F00E         	goto	l340
  2548   001C1E                     u1070:
  2549   001C1E                     
  2550                           ; BSR set to: 0
  2551                           ;mcc_generated_files/i2c_host/src/i2c2.c: 219:     {;mcc_generated_files/i2c_host/src/i2
      +                          c2.c: 220:         I2C2_Callback = callbackHandler;
  2552   001C1E  C098  F026         	movff	I2C2_CallbackRegister@callbackHandler,_I2C2_Callback
  2553   001C22  C099  F027         	movff	I2C2_CallbackRegister@callbackHandler+1,_I2C2_Callback+1
  2554   001C26                     l340:
  2555                           
  2556                           ; BSR set to: 0
  2557   001C26  0012               	return		;funcret
  2558   001C28                     __end_of_I2C2_CallbackRegister:
  2559                           	callstack 0
  2560                           
  2561 ;; *************** function _I2C1_Initialize *****************
  2562 ;; Defined at:
  2563 ;;		line 26 in file "mcc_generated_files/peripheral/src/i2c1.c"
  2564 ;; Parameters:    Size  Location     Type
  2565 ;;		None
  2566 ;; Auto vars:     Size  Location     Type
  2567 ;;		None
  2568 ;; Return value:  Size  Location     Type
  2569 ;;                  1    wreg      void 
  2570 ;; Registers used:
  2571 ;;		wreg, status,2
  2572 ;; Tracked objects:
  2573 ;;		On entry : 0/0
  2574 ;;		On exit  : 0/0
  2575 ;;		Unchanged: 0/0
  2576 ;; Data sizes:     COMRAM   BANK0   BANK1   BANK2   BANK3   BANK4   BANK5   BANK6   BANK7   BANK8   BANK9  BANK10  BANK1
      +1  BANK12  BANK13  BANK14  BANK15
  2577 ;;      Params:         0       0       0       0       0       0       0       0       0       0       0       0       
      +0       0       0       0       0
  2578 ;;      Locals:         0       0       0       0       0       0       0       0       0       0       0       0       
      +0       0       0       0       0
  2579 ;;      Temps:          0       0       0       0       0       0       0       0       0       0       0       0       
      +0       0       0       0       0
  2580 ;;      Totals:         0       0       0       0       0       0       0       0       0       0       0       0       
      +0       0       0       0       0
  2581 ;;Total ram usage:        0 bytes
  2582 ;; Hardware stack levels used: 1
  2583 ;; Hardware stack levels required when called: 6
  2584 ;; This function calls:
  2585 ;;		Nothing
  2586 ;; This function is called by:
  2587 ;;		_SYSTEM_Initialize
  2588 ;; This function uses a non-reentrant model
  2589 ;;
  2590                           
  2591                           	psect	text18
  2592   0017EA                     __ptext18:
  2593                           	callstack 0
  2594   0017EA                     _I2C1_Initialize:
  2595                           	callstack 23
  2596   0017EA                     
  2597                           ;mcc_generated_files/peripheral/src/i2c1.c: 28:     I2C1TXB = 0x0;
  2598   0017EA  0E00               	movlw	0
  2599   0017EC  013D               	movlb	61	; () banked
  2600   0017EE  6F6B               	movwf	107,b	;volatile
  2601                           
  2602                           ;mcc_generated_files/peripheral/src/i2c1.c: 30:     I2C1CNT = 0x0;
  2603   0017F0  0E00               	movlw	0
  2604   0017F2  6F6C               	movwf	108,b	;volatile
  2605                           
  2606                           ;mcc_generated_files/peripheral/src/i2c1.c: 32:     I2C1ADB0 = 0x0;
  2607   0017F4  0E00               	movlw	0
  2608   0017F6  6F6D               	movwf	109,b	;volatile
  2609                           
  2610                           ;mcc_generated_files/peripheral/src/i2c1.c: 34:     I2C1ADB1 = 0x0;
  2611   0017F8  0E00               	movlw	0
  2612   0017FA  6F6E               	movwf	110,b	;volatile
  2613                           
  2614                           ;mcc_generated_files/peripheral/src/i2c1.c: 36:     I2C1ADR0 = 0x0;
  2615   0017FC  0E00               	movlw	0
  2616   0017FE  6F6F               	movwf	111,b	;volatile
  2617                           
  2618                           ;mcc_generated_files/peripheral/src/i2c1.c: 38:     I2C1ADR1 = 0x0;
  2619   001800  0E00               	movlw	0
  2620   001802  6F70               	movwf	112,b	;volatile
  2621                           
  2622                           ;mcc_generated_files/peripheral/src/i2c1.c: 40:     I2C1ADR2 = 0x0;
  2623   001804  0E00               	movlw	0
  2624   001806  6F71               	movwf	113,b	;volatile
  2625                           
  2626                           ;mcc_generated_files/peripheral/src/i2c1.c: 42:     I2C1ADR3 = 0x0;
  2627   001808  0E00               	movlw	0
  2628   00180A  6F72               	movwf	114,b	;volatile
  2629                           
  2630                           ;mcc_generated_files/peripheral/src/i2c1.c: 44:     I2C1CON0 = 0x0;
  2631   00180C  0E00               	movlw	0
  2632   00180E  6F73               	movwf	115,b	;volatile
  2633                           
  2634                           ;mcc_generated_files/peripheral/src/i2c1.c: 46:     I2C1CON1 = 0x0;
  2635   001810  0E00               	movlw	0
  2636   001812  6F74               	movwf	116,b	;volatile
  2637                           
  2638                           ;mcc_generated_files/peripheral/src/i2c1.c: 48:     I2C1CON2 = 0x0;
  2639   001814  0E00               	movlw	0
  2640   001816  6F75               	movwf	117,b	;volatile
  2641                           
  2642                           ;mcc_generated_files/peripheral/src/i2c1.c: 50:     I2C1ERR = 0x0;
  2643   001818  0E00               	movlw	0
  2644   00181A  6F76               	movwf	118,b	;volatile
  2645                           
  2646                           ;mcc_generated_files/peripheral/src/i2c1.c: 52:     I2C1STAT1 = 0x0;
  2647   00181C  0E00               	movlw	0
  2648   00181E  6F78               	movwf	120,b	;volatile
  2649                           
  2650                           ;mcc_generated_files/peripheral/src/i2c1.c: 54:     I2C1PIR = 0x0;
  2651   001820  0E00               	movlw	0
  2652   001822  6F79               	movwf	121,b	;volatile
  2653                           
  2654                           ;mcc_generated_files/peripheral/src/i2c1.c: 56:     I2C1PIE = 0x0;
  2655   001824  0E00               	movlw	0
  2656   001826  6F7A               	movwf	122,b	;volatile
  2657                           
  2658                           ;mcc_generated_files/peripheral/src/i2c1.c: 58:     I2C1CLK = 0x0;
  2659   001828  0E00               	movlw	0
  2660   00182A  6F7B               	movwf	123,b	;volatile
  2661                           
  2662                           ;mcc_generated_files/peripheral/src/i2c1.c: 60:     I2C1BTO = 0x1;
  2663   00182C  0E01               	movlw	1
  2664   00182E  6F7C               	movwf	124,b	;volatile
  2665   001830                     
  2666                           ; BSR set to: 61
  2667   001830  0012               	return		;funcret
  2668   001832                     __end_of_I2C1_Initialize:
  2669                           	callstack 0
  2670                           
  2671 ;; *************** function _FVR_Initialize *****************
  2672 ;; Defined at:
  2673 ;;		line 43 in file "mcc_generated_files/fvr/src/fvr.c"
  2674 ;; Parameters:    Size  Location     Type
  2675 ;;		None
  2676 ;; Auto vars:     Size  Location     Type
  2677 ;;		None
  2678 ;; Return value:  Size  Location     Type
  2679 ;;                  1    wreg      void 
  2680 ;; Registers used:
  2681 ;;		wreg, status,2
  2682 ;; Tracked objects:
  2683 ;;		On entry : 0/0
  2684 ;;		On exit  : 0/0
  2685 ;;		Unchanged: 0/0
  2686 ;; Data sizes:     COMRAM   BANK0   BANK1   BANK2   BANK3   BANK4   BANK5   BANK6   BANK7   BANK8   BANK9  BANK10  BANK1
      +1  BANK12  BANK13  BANK14  BANK15
  2687 ;;      Params:         0       0       0       0       0       0       0       0       0       0       0       0       
      +0       0       0       0       0
  2688 ;;      Locals:         0       0       0       0       0       0       0       0       0       0       0       0       
      +0       0       0       0       0
  2689 ;;      Temps:          0       0       0       0       0       0       0       0       0       0       0       0       
      +0       0       0       0       0
  2690 ;;      Totals:         0       0       0       0       0       0       0       0       0       0       0       0       
      +0       0       0       0       0
  2691 ;;Total ram usage:        0 bytes
  2692 ;; Hardware stack levels used: 1
  2693 ;; Hardware stack levels required when called: 6
  2694 ;; This function calls:
  2695 ;;		Nothing
  2696 ;; This function is called by:
  2697 ;;		_SYSTEM_Initialize
  2698 ;; This function uses a non-reentrant model
  2699 ;;
  2700                           
  2701                           	psect	text19
  2702   001DAC                     __ptext19:
  2703                           	callstack 0
  2704   001DAC                     _FVR_Initialize:
  2705                           	callstack 23
  2706   001DAC                     
  2707                           ;mcc_generated_files/fvr/src/fvr.c: 46:     FVRCON = 0xC2;
  2708   001DAC  0EC2               	movlw	194
  2709   001DAE  013E               	movlb	62	; () banked
  2710   001DB0  6FC1               	movwf	193,b	;volatile
  2711   001DB2                     
  2712                           ; BSR set to: 62
  2713   001DB2  0012               	return		;funcret
  2714   001DB4                     __end_of_FVR_Initialize:
  2715                           	callstack 0
  2716                           
  2717 ;; *************** function _CLOCK_Initialize *****************
  2718 ;; Defined at:
  2719 ;;		line 37 in file "mcc_generated_files/system/src/clock.c"
  2720 ;; Parameters:    Size  Location     Type
  2721 ;;		None
  2722 ;; Auto vars:     Size  Location     Type
  2723 ;;		None
  2724 ;; Return value:  Size  Location     Type
  2725 ;;                  1    wreg      void 
  2726 ;; Registers used:
  2727 ;;		wreg, status,2
  2728 ;; Tracked objects:
  2729 ;;		On entry : 0/0
  2730 ;;		On exit  : 0/0
  2731 ;;		Unchanged: 0/0
  2732 ;; Data sizes:     COMRAM   BANK0   BANK1   BANK2   BANK3   BANK4   BANK5   BANK6   BANK7   BANK8   BANK9  BANK10  BANK1
      +1  BANK12  BANK13  BANK14  BANK15
  2733 ;;      Params:         0       0       0       0       0       0       0       0       0       0       0       0       
      +0       0       0       0       0
  2734 ;;      Locals:         0       0       0       0       0       0       0       0       0       0       0       0       
      +0       0       0       0       0
  2735 ;;      Temps:          0       0       0       0       0       0       0       0       0       0       0       0       
      +0       0       0       0       0
  2736 ;;      Totals:         0       0       0       0       0       0       0       0       0       0       0       0       
      +0       0       0       0       0
  2737 ;;Total ram usage:        0 bytes
  2738 ;; Hardware stack levels used: 1
  2739 ;; Hardware stack levels required when called: 6
  2740 ;; This function calls:
  2741 ;;		Nothing
  2742 ;; This function is called by:
  2743 ;;		_SYSTEM_Initialize
  2744 ;; This function uses a non-reentrant model
  2745 ;;
  2746                           
  2747                           	psect	text20
  2748   001C60                     __ptext20:
  2749                           	callstack 0
  2750   001C60                     _CLOCK_Initialize:
  2751                           	callstack 23
  2752   001C60                     
  2753                           ;mcc_generated_files/system/src/clock.c: 41:     OSCCON1 = 0x60;
  2754   001C60  0E60               	movlw	96
  2755   001C62  0139               	movlb	57	; () banked
  2756   001C64  6FD9               	movwf	217,b	;volatile
  2757                           
  2758                           ;mcc_generated_files/system/src/clock.c: 43:     OSCCON3 = 0x0;
  2759   001C66  0E00               	movlw	0
  2760   001C68  6FDB               	movwf	219,b	;volatile
  2761                           
  2762                           ;mcc_generated_files/system/src/clock.c: 45:     OSCEN = 0x0;
  2763   001C6A  0E00               	movlw	0
  2764   001C6C  6FDD               	movwf	221,b	;volatile
  2765                           
  2766                           ;mcc_generated_files/system/src/clock.c: 47:     OSCFRQ = 0x8;
  2767   001C6E  0E08               	movlw	8
  2768   001C70  6FDF               	movwf	223,b	;volatile
  2769                           
  2770                           ;mcc_generated_files/system/src/clock.c: 49:     OSCTUNE = 0x0;
  2771   001C72  0E00               	movlw	0
  2772   001C74  6FDE               	movwf	222,b	;volatile
  2773   001C76                     
  2774                           ; BSR set to: 57
  2775   001C76  0012               	return		;funcret
  2776   001C78                     __end_of_CLOCK_Initialize:
  2777                           	callstack 0
  2778                           
  2779 ;; *************** function _ADCC_Initialize *****************
  2780 ;; Defined at:
  2781 ;;		line 47 in file "mcc_generated_files/adc/src/adcc.c"
  2782 ;; Parameters:    Size  Location     Type
  2783 ;;		None
  2784 ;; Auto vars:     Size  Location     Type
  2785 ;;		None
  2786 ;; Return value:  Size  Location     Type
  2787 ;;                  1    wreg      void 
  2788 ;; Registers used:
  2789 ;;		wreg, status,2, status,0, cstack
  2790 ;; Tracked objects:
  2791 ;;		On entry : 0/0
  2792 ;;		On exit  : 0/0
  2793 ;;		Unchanged: 0/0
  2794 ;; Data sizes:     COMRAM   BANK0   BANK1   BANK2   BANK3   BANK4   BANK5   BANK6   BANK7   BANK8   BANK9  BANK10  BANK1
      +1  BANK12  BANK13  BANK14  BANK15
  2795 ;;      Params:         0       0       0       0       0       0       0       0       0       0       0       0       
      +0       0       0       0       0
  2796 ;;      Locals:         0       0       0       0       0       0       0       0       0       0       0       0       
      +0       0       0       0       0
  2797 ;;      Temps:          0       0       0       0       0       0       0       0       0       0       0       0       
      +0       0       0       0       0
  2798 ;;      Totals:         0       0       0       0       0       0       0       0       0       0       0       0       
      +0       0       0       0       0
  2799 ;;Total ram usage:        0 bytes
  2800 ;; Hardware stack levels used: 1
  2801 ;; Hardware stack levels required when called: 7
  2802 ;; This function calls:
  2803 ;;		_ADCC_SetADIInterruptHandler
  2804 ;; This function is called by:
  2805 ;;		_SYSTEM_Initialize
  2806 ;; This function uses a non-reentrant model
  2807 ;;
  2808                           
  2809                           	psect	text21
  2810   001622                     __ptext21:
  2811                           	callstack 0
  2812   001622                     _ADCC_Initialize:
  2813                           	callstack 22
  2814   001622                     
  2815                           ;mcc_generated_files/adc/src/adcc.c: 51:     ADLTHL = 0x0;
  2816   001622  0E00               	movlw	0
  2817   001624  013E               	movlb	62	; () banked
  2818   001626  6FDE               	movwf	222,b	;volatile
  2819                           
  2820                           ;mcc_generated_files/adc/src/adcc.c: 53:     ADLTHH = 0x0;
  2821   001628  0E00               	movlw	0
  2822   00162A  6FDF               	movwf	223,b	;volatile
  2823                           
  2824                           ;mcc_generated_files/adc/src/adcc.c: 55:     ADUTHL = 0x0;
  2825   00162C  0E00               	movlw	0
  2826   00162E  6FE0               	movwf	224,b	;volatile
  2827                           
  2828                           ;mcc_generated_files/adc/src/adcc.c: 57:     ADUTHH = 0x0;
  2829   001630  0E00               	movlw	0
  2830   001632  6FE1               	movwf	225,b	;volatile
  2831                           
  2832                           ;mcc_generated_files/adc/src/adcc.c: 59:     ADSTPTL = 0x0;
  2833   001634  0E00               	movlw	0
  2834   001636  6FE4               	movwf	228,b	;volatile
  2835                           
  2836                           ;mcc_generated_files/adc/src/adcc.c: 61:     ADSTPTH = 0x0;
  2837   001638  0E00               	movlw	0
  2838   00163A  6FE5               	movwf	229,b	;volatile
  2839                           
  2840                           ;mcc_generated_files/adc/src/adcc.c: 63:     ADACCU = 0x0;
  2841   00163C  0E00               	movlw	0
  2842   00163E  6FEA               	movwf	234,b	;volatile
  2843                           
  2844                           ;mcc_generated_files/adc/src/adcc.c: 65:     ADRPT = 0x0;
  2845   001640  0E00               	movlw	0
  2846   001642  6FEC               	movwf	236,b	;volatile
  2847                           
  2848                           ;mcc_generated_files/adc/src/adcc.c: 67:     ADPCH = 0x0;
  2849   001644  0E00               	movlw	0
  2850   001646  6FF1               	movwf	241,b	;volatile
  2851                           
  2852                           ;mcc_generated_files/adc/src/adcc.c: 69:     ADACQL = 0x1;
  2853   001648  0E01               	movlw	1
  2854   00164A  6FF3               	movwf	243,b	;volatile
  2855                           
  2856                           ;mcc_generated_files/adc/src/adcc.c: 71:     ADACQH = 0x0;
  2857   00164C  0E00               	movlw	0
  2858   00164E  6FF4               	movwf	244,b	;volatile
  2859                           
  2860                           ;mcc_generated_files/adc/src/adcc.c: 73:     ADCAP = 0x0;
  2861   001650  0E00               	movlw	0
  2862   001652  6FF5               	movwf	245,b	;volatile
  2863                           
  2864                           ;mcc_generated_files/adc/src/adcc.c: 75:     ADPREL = 0x0;
  2865   001654  0E00               	movlw	0
  2866   001656  6FF6               	movwf	246,b	;volatile
  2867                           
  2868                           ;mcc_generated_files/adc/src/adcc.c: 77:     ADPREH = 0x0;
  2869   001658  0E00               	movlw	0
  2870   00165A  6FF7               	movwf	247,b	;volatile
  2871                           
  2872                           ;mcc_generated_files/adc/src/adcc.c: 79:     ADCON1 = 0x0;
  2873   00165C  0E00               	movlw	0
  2874   00165E  6FF9               	movwf	249,b	;volatile
  2875                           
  2876                           ;mcc_generated_files/adc/src/adcc.c: 81:     ADCON2 = 0x10;
  2877   001660  0E10               	movlw	16
  2878   001662  6FFA               	movwf	250,b	;volatile
  2879                           
  2880                           ;mcc_generated_files/adc/src/adcc.c: 83:     ADCON3 = 0x0;
  2881   001664  0E00               	movlw	0
  2882   001666  6FFB               	movwf	251,b	;volatile
  2883                           
  2884                           ;mcc_generated_files/adc/src/adcc.c: 85:     ADSTAT = 0x0;
  2885   001668  0E00               	movlw	0
  2886   00166A  6FFC               	movwf	252,b	;volatile
  2887                           
  2888                           ;mcc_generated_files/adc/src/adcc.c: 87:     ADREF = 0x3;
  2889   00166C  0E03               	movlw	3
  2890   00166E  6FFD               	movwf	253,b	;volatile
  2891                           
  2892                           ;mcc_generated_files/adc/src/adcc.c: 89:     ADACT = 0x0;
  2893   001670  0E00               	movlw	0
  2894   001672  6FFE               	movwf	254,b	;volatile
  2895                           
  2896                           ;mcc_generated_files/adc/src/adcc.c: 91:     ADCLK = 0x1F;
  2897   001674  0E1F               	movlw	31
  2898   001676  6FFF               	movwf	255,b	;volatile
  2899                           
  2900                           ;mcc_generated_files/adc/src/adcc.c: 93:     ADCON0 = 0x84;
  2901   001678  0E84               	movlw	132
  2902   00167A  6FF8               	movwf	248,b	;volatile
  2903   00167C                     
  2904                           ; BSR set to: 62
  2905                           ;mcc_generated_files/adc/src/adcc.c: 96:     PIR1bits.ADIF = 0;
  2906   00167C  0139               	movlb	57	; () banked
  2907   00167E  95A1               	bcf	161,2,b	;volatile
  2908   001680                     
  2909                           ; BSR set to: 57
  2910                           ;mcc_generated_files/adc/src/adcc.c: 98:     ADCC_SetADIInterruptHandler(ADCC_DefaultADI
      +                          _ISR);
  2911   001680  0EE6               	movlw	low _ADCC_DefaultADI_ISR
  2912   001682  0100               	movlb	0	; () banked
  2913   001684  6F98               	movwf	ADCC_SetADIInterruptHandler@InterruptHandler& (0+255),b
  2914   001686  0E1D               	movlw	high _ADCC_DefaultADI_ISR
  2915   001688  6F99               	movwf	(ADCC_SetADIInterruptHandler@InterruptHandler+1)& (0+255),b
  2916   00168A  ECB8  F00E         	call	_ADCC_SetADIInterruptHandler	;wreg free
  2917   00168E                     
  2918                           ;mcc_generated_files/adc/src/adcc.c: 100:     PIE1bits.ADIE = 1;
  2919   00168E  0139               	movlb	57	; () banked
  2920   001690  8591               	bsf	145,2,b	;volatile
  2921   001692                     
  2922                           ; BSR set to: 57
  2923                           ;mcc_generated_files/adc/src/adcc.c: 103:     PIR1bits.ADTIF = 0;
  2924   001692  97A1               	bcf	161,3,b	;volatile
  2925   001694                     
  2926                           ; BSR set to: 57
  2927   001694  0012               	return		;funcret
  2928   001696                     __end_of_ADCC_Initialize:
  2929                           	callstack 0
  2930                           
  2931 ;; *************** function _ADCC_SetADIInterruptHandler *****************
  2932 ;; Defined at:
  2933 ;;		line 297 in file "mcc_generated_files/adc/src/adcc.c"
  2934 ;; Parameters:    Size  Location     Type
  2935 ;;  InterruptHan    2   18[BANK0 ] PTR FTN()void 
  2936 ;;		 -> ADC_int(1), ADCC_DefaultADI_ISR(1), 
  2937 ;; Auto vars:     Size  Location     Type
  2938 ;;		None
  2939 ;; Return value:  Size  Location     Type
  2940 ;;                  1    wreg      void 
  2941 ;; Registers used:
  2942 ;;		wreg, status,2, status,0
  2943 ;; Tracked objects:
  2944 ;;		On entry : 0/0
  2945 ;;		On exit  : 0/0
  2946 ;;		Unchanged: 0/0
  2947 ;; Data sizes:     COMRAM   BANK0   BANK1   BANK2   BANK3   BANK4   BANK5   BANK6   BANK7   BANK8   BANK9  BANK10  BANK1
      +1  BANK12  BANK13  BANK14  BANK15
  2948 ;;      Params:         0       2       0       0       0       0       0       0       0       0       0       0       
      +0       0       0       0       0
  2949 ;;      Locals:         0       0       0       0       0       0       0       0       0       0       0       0       
      +0       0       0       0       0
  2950 ;;      Temps:          0       0       0       0       0       0       0       0       0       0       0       0       
      +0       0       0       0       0
  2951 ;;      Totals:         0       2       0       0       0       0       0       0       0       0       0       0       
      +0       0       0       0       0
  2952 ;;Total ram usage:        2 bytes
  2953 ;; Hardware stack levels used: 1
  2954 ;; Hardware stack levels required when called: 6
  2955 ;; This function calls:
  2956 ;;		Nothing
  2957 ;; This function is called by:
  2958 ;;		_ADCC_Initialize
  2959 ;;		_main
  2960 ;; This function uses a non-reentrant model
  2961 ;;
  2962                           
  2963                           	psect	text22
  2964   001D70                     __ptext22:
  2965                           	callstack 0
  2966   001D70                     _ADCC_SetADIInterruptHandler:
  2967                           	callstack 22
  2968   001D70                     
  2969                           ;mcc_generated_files/adc/src/adcc.c: 297: void ADCC_SetADIInterruptHandler(void (* Inter
      +                          ruptHandler)(void));mcc_generated_files/adc/src/adcc.c: 298: {;mcc_generated_files/adc/s
      +                          rc/adcc.c: 299:     ADCC_ADI_InterruptHandler = InterruptHandler;
  2970   001D70  C098  F09C         	movff	ADCC_SetADIInterruptHandler@InterruptHandler,_ADCC_ADI_InterruptHandler
  2971   001D74  C099  F09D         	movff	ADCC_SetADIInterruptHandler@InterruptHandler+1,_ADCC_ADI_InterruptHandler+1
  2972   001D78  0012               	return		;funcret
  2973   001D7A                     __end_of_ADCC_SetADIInterruptHandler:
  2974                           	callstack 0
  2975                           
  2976 ;; *************** function _I2C2_ISR *****************
  2977 ;; Defined at:
  2978 ;;		line 224 in file "mcc_generated_files/i2c_host/src/i2c2.c"
  2979 ;; Parameters:    Size  Location     Type
  2980 ;;		None
  2981 ;; Auto vars:     Size  Location     Type
  2982 ;;		None
  2983 ;; Return value:  Size  Location     Type
  2984 ;;                  1    wreg      void 
  2985 ;; Registers used:
  2986 ;;		wreg, fsr0l, fsr0h, fsr1l, fsr1h, fsr1l, fsr1h, fsr2l, fsr2h, bsr, status,2, status,0, pcl, pclath, pclatu, btemp, b
      +temp+1, btemp+2, btemp+3, btemp+4, btemp+5, btemp+6, btemp+7, btemp+8, btemp+9, btemp+10, btemp+11, btemp+12, btemp+13, 
      +btemp+14, btemp+15, btemp+16, btemp+17, btemp+18, btemp+19, btemp+20, btemp+21, btemp+22, btemp+23, btemp+24, btemp+25, 
      +btemp+26, btemp+27, btemp+28, btemp+29, btemp+30, btemp+31, tosl, structret, tblptrl, tblptrh, tblptru, prodl, prodh, cs
      +tack
  2987 ;; Tracked objects:
  2988 ;;		On entry : 0/0
  2989 ;;		On exit  : 0/0
  2990 ;;		Unchanged: 0/0
  2991 ;; Data sizes:     COMRAM   BANK0   BANK1   BANK2   BANK3   BANK4   BANK5   BANK6   BANK7   BANK8   BANK9  BANK10  BANK1
      +1  BANK12  BANK13  BANK14  BANK15
  2992 ;;      Params:         0       0       0       0       0       0       0       0       0       0       0       0       
      +0       0       0       0       0
  2993 ;;      Locals:         0       0       0       0       0       0       0       0       0       0       0       0       
      +0       0       0       0       0
  2994 ;;      Temps:          7       0       0       0       0       0       0       0       0       0       0       0       
      +0       0       0       0       0
  2995 ;;      Totals:         7       0       0       0       0       0       0       0       0       0       0       0       
      +0       0       0       0       0
  2996 ;;Total ram usage:        7 bytes
  2997 ;; Hardware stack levels used: 1
  2998 ;; Hardware stack levels required when called: 5
  2999 ;; This function calls:
  3000 ;;		_I2C2_Close
  3001 ;;		_I2C2_ReadStart
  3002 ;;		_I2C2_RestartDisable
  3003 ;;		_I2C2_StopSend
  3004 ;; This function is called by:
  3005 ;;		Interrupt level 1
  3006 ;; This function uses a non-reentrant model
  3007 ;;
  3008                           
  3009                           	psect	text23
  3010   00137C                     __ptext23:
  3011                           	callstack 0
  3012   00137C                     _I2C2_ISR:
  3013                           	callstack 22
  3014                           
  3015                           ;incstack = 0
  3016   00137C  006F FF60  F03D    	movff	status,??_I2C2_ISR
  3017   001382  006F FFE8  F03E    	movff	pclath,??_I2C2_ISR+1
  3018   001388  006F FFEC  F03F    	movff	pclatu,??_I2C2_ISR+2
  3019   00138E  006F FFD8  F040    	movff	tblptrl,??_I2C2_ISR+3
  3020   001394  006F FFDC  F041    	movff	tblptrh,??_I2C2_ISR+4
  3021   00139A  006F FFE0  F042    	movff	tblptru,??_I2C2_ISR+5
  3022   0013A0  006F FFD4  F043    	movff	tablat,??_I2C2_ISR+6
  3023   0013A6                     
  3024                           ;mcc_generated_files/i2c_host/src/i2c2.c: 226:     if (I2C2PIEbits.PCIE && I2C2PIRbits.P
      +                          CIF)
  3025   0013A6  013D               	movlb	61	; () banked
  3026   0013A8  A564               	btfss	100,2,b	;volatile
  3027   0013AA  EFD9  F009         	goto	i1u52_21
  3028   0013AE  EFDB  F009         	goto	i1u52_20
  3029   0013B2                     i1u52_21:
  3030   0013B2  EFE6  F009         	goto	i1l345
  3031   0013B6                     i1u52_20:
  3032   0013B6                     
  3033                           ; BSR set to: 61
  3034   0013B6  A563               	btfss	99,2,b	;volatile
  3035   0013B8  EFE0  F009         	goto	i1u53_21
  3036   0013BC  EFE2  F009         	goto	i1u53_20
  3037   0013C0                     i1u53_21:
  3038   0013C0  EFE6  F009         	goto	i1l345
  3039   0013C4                     i1u53_20:
  3040   0013C4                     i1l2718:
  3041                           
  3042                           ;mcc_generated_files/i2c_host/src/i2c2.c: 227:     {;mcc_generated_files/i2c_host/src/i2
      +                          c2.c: 228:         I2C2_Close();
  3043   0013C4  EC79  F00D         	call	_I2C2_Close	;wreg free
  3044                           
  3045                           ;mcc_generated_files/i2c_host/src/i2c2.c: 229:     }
  3046   0013C8  EF1A  F00A         	goto	i1l352
  3047   0013CC                     i1l345:
  3048                           
  3049                           ; BSR set to: 61
  3050   0013CC  AF64               	btfss	100,7,b	;volatile
  3051   0013CE  EFEB  F009         	goto	i1u54_21
  3052   0013D2  EFED  F009         	goto	i1u54_20
  3053   0013D6                     i1u54_21:
  3054   0013D6  EF08  F00A         	goto	i1l347
  3055   0013DA                     i1u54_20:
  3056   0013DA                     
  3057                           ; BSR set to: 61
  3058   0013DA  AF63               	btfss	99,7,b	;volatile
  3059   0013DC  EFF2  F009         	goto	i1u55_21
  3060   0013E0  EFF4  F009         	goto	i1u55_20
  3061   0013E4                     i1u55_21:
  3062   0013E4  EF08  F00A         	goto	i1l347
  3063   0013E8                     i1u55_20:
  3064   0013E8                     
  3065                           ; BSR set to: 61
  3066                           ;mcc_generated_files/i2c_host/src/i2c2.c: 231:     {;mcc_generated_files/i2c_host/src/i2
      +                          c2.c: 233:         if (i2c2Status.switchToRead)
  3067   0013E8  500C               	movf	(_i2c2Status+11)^0,w,c	;volatile
  3068   0013EA  B4D8               	btfsc	status,2,c
  3069   0013EC  EFFA  F009         	goto	i1u56_21
  3070   0013F0  EFFC  F009         	goto	i1u56_20
  3071   0013F4                     i1u56_21:
  3072   0013F4  EF04  F00A         	goto	i1l2732
  3073   0013F8                     i1u56_20:
  3074   0013F8                     
  3075                           ; BSR set to: 61
  3076                           ;mcc_generated_files/i2c_host/src/i2c2.c: 234:         {;mcc_generated_files/i2c_host/sr
      +                          c/i2c2.c: 235:             i2c2Status.switchToRead = 0;
  3077   0013F8  0E00               	movlw	0
  3078   0013FA  6E0C               	movwf	(_i2c2Status+11)^0,c	;volatile
  3079   0013FC                     
  3080                           ; BSR set to: 61
  3081                           ;mcc_generated_files/i2c_host/src/i2c2.c: 236:             I2C2PIRbits.SCIF = 0;
  3082   0013FC  9163               	bcf	99,0,b	;volatile
  3083   0013FE                     
  3084                           ; BSR set to: 61
  3085                           ;mcc_generated_files/i2c_host/src/i2c2.c: 237:             I2C2PIRbits.CNTIF = 0;
  3086   0013FE  9F63               	bcf	99,7,b	;volatile
  3087   001400                     
  3088                           ; BSR set to: 61
  3089                           ;mcc_generated_files/i2c_host/src/i2c2.c: 238:             I2C2_ReadStart();
  3090   001400  ECA0  F00D         	call	_I2C2_ReadStart	;wreg free
  3091                           
  3092                           ;mcc_generated_files/i2c_host/src/i2c2.c: 239:         }
  3093   001404  EF1A  F00A         	goto	i1l352
  3094   001408                     i1l2732:
  3095                           
  3096                           ; BSR set to: 61
  3097                           ;mcc_generated_files/i2c_host/src/i2c2.c: 241:         {;mcc_generated_files/i2c_host/sr
      +                          c/i2c2.c: 242:             I2C2_StopSend();
  3098   001408  EC8D  F00D         	call	_I2C2_StopSend	;wreg free
  3099   00140C  EFE2  F009         	goto	i1l2718
  3100   001410                     i1l347:
  3101                           
  3102                           ; BSR set to: 61
  3103   001410  A364               	btfss	100,1,b	;volatile
  3104   001412  EF0D  F00A         	goto	i1u57_21
  3105   001416  EF0F  F00A         	goto	i1u57_20
  3106   00141A                     i1u57_21:
  3107   00141A  EF1A  F00A         	goto	i1l352
  3108   00141E                     i1u57_20:
  3109   00141E                     
  3110                           ; BSR set to: 61
  3111   00141E  A363               	btfss	99,1,b	;volatile
  3112   001420  EF14  F00A         	goto	i1u58_21
  3113   001424  EF16  F00A         	goto	i1u58_20
  3114   001428                     i1u58_21:
  3115   001428  EF1A  F00A         	goto	i1l352
  3116   00142C                     i1u58_20:
  3117   00142C                     
  3118                           ; BSR set to: 61
  3119                           ;mcc_generated_files/i2c_host/src/i2c2.c: 247:     {;mcc_generated_files/i2c_host/src/i2
      +                          c2.c: 248:         I2C2_RestartDisable();
  3120   00142C  ECDE  F00E         	call	_I2C2_RestartDisable	;wreg free
  3121   001430                     
  3122                           ;mcc_generated_files/i2c_host/src/i2c2.c: 249:         I2C2PIRbits.RSCIF = 0;
  3123   001430  013D               	movlb	61	; () banked
  3124   001432  9363               	bcf	99,1,b	;volatile
  3125   001434                     i1l352:
  3126   001434  0060  F10F  FFF5   	movff	??_I2C2_ISR+6,tablat
  3127   00143A  0060  F10B  FFF8   	movff	??_I2C2_ISR+5,tblptru
  3128   001440  0060  F107  FFF7   	movff	??_I2C2_ISR+4,tblptrh
  3129   001446  0060  F103  FFF6   	movff	??_I2C2_ISR+3,tblptrl
  3130   00144C  0060  F0FF  FFFB   	movff	??_I2C2_ISR+2,pclatu
  3131   001452  0060  F0FB  FFFA   	movff	??_I2C2_ISR+1,pclath
  3132   001458  0060  F0F7  FFD8   	movff	??_I2C2_ISR,status
  3133   00145E  0011               	retfie		f
  3134   001460                     __end_of_I2C2_ISR:
  3135                           	callstack 0
  3136                           
  3137 ;; *************** function _I2C2_StopSend *****************
  3138 ;; Defined at:
  3139 ;;		line 413 in file "mcc_generated_files/i2c_host/src/i2c2.c"
  3140 ;; Parameters:    Size  Location     Type
  3141 ;;		None
  3142 ;; Auto vars:     Size  Location     Type
  3143 ;;		None
  3144 ;; Return value:  Size  Location     Type
  3145 ;;                  1    wreg      void 
  3146 ;; Registers used:
  3147 ;;		wreg, fsr0l, fsr0h, fsr1l, fsr1h, fsr1l, fsr1h, fsr2l, fsr2h, bsr, status,2, status,0, pcl, pclath, pclatu, btemp, b
      +temp+1, btemp+2, btemp+3, btemp+4, btemp+5, btemp+6, btemp+7, btemp+8, btemp+9, btemp+10, btemp+11, btemp+12, btemp+13, 
      +btemp+14, btemp+15, btemp+16, btemp+17, btemp+18, btemp+19, btemp+20, btemp+21, btemp+22, btemp+23, btemp+24, btemp+25, 
      +btemp+26, btemp+27, btemp+28, btemp+29, btemp+30, btemp+31, tosl, structret, tblptrl, tblptrh, tblptru, prodl, prodh, cs
      +tack
  3148 ;; Tracked objects:
  3149 ;;		On entry : 0/0
  3150 ;;		On exit  : 0/0
  3151 ;;		Unchanged: 0/0
  3152 ;; Data sizes:     COMRAM   BANK0   BANK1   BANK2   BANK3   BANK4   BANK5   BANK6   BANK7   BANK8   BANK9  BANK10  BANK1
      +1  BANK12  BANK13  BANK14  BANK15
  3153 ;;      Params:         0       0       0       0       0       0       0       0       0       0       0       0       
      +0       0       0       0       0
  3154 ;;      Locals:         0       0       0       0       0       0       0       0       0       0       0       0       
      +0       0       0       0       0
  3155 ;;      Temps:          0       0       0       0       0       0       0       0       0       0       0       0       
      +0       0       0       0       0
  3156 ;;      Totals:         0       0       0       0       0       0       0       0       0       0       0       0       
      +0       0       0       0       0
  3157 ;;Total ram usage:        0 bytes
  3158 ;; Hardware stack levels used: 1
  3159 ;; Hardware stack levels required when called: 4
  3160 ;; This function calls:
  3161 ;;		_I2C2_CounterGet
  3162 ;;		_I2C2_CounterSet
  3163 ;;		_I2C2_DataTransmit
  3164 ;;		_I2C2_RestartDisable
  3165 ;; This function is called by:
  3166 ;;		_I2C2_ISR
  3167 ;;		_I2C2_ERROR_ISR
  3168 ;; This function uses a non-reentrant model
  3169 ;;
  3170                           
  3171                           	psect	text24
  3172   001B1A                     __ptext24:
  3173                           	callstack 0
  3174   001B1A                     _I2C2_StopSend:
  3175                           	callstack 22
  3176   001B1A                     
  3177                           ;mcc_generated_files/i2c_host/src/i2c2.c: 415:     I2C2_RestartDisable();
  3178   001B1A  ECDE  F00E         	call	_I2C2_RestartDisable	;wreg free
  3179   001B1E                     
  3180                           ;mcc_generated_files/i2c_host/src/i2c2.c: 416:     if (I2C2_CounterGet())
  3181   001B1E  ECE1  F00E         	call	_I2C2_CounterGet	;wreg free
  3182   001B22  0900               	iorlw	0
  3183   001B24  B4D8               	btfsc	status,2,c
  3184   001B26  EF97  F00D         	goto	i1u10_21
  3185   001B2A  EF99  F00D         	goto	i1u10_20
  3186   001B2E                     i1u10_21:
  3187   001B2E  EF9F  F00D         	goto	i1l422
  3188   001B32                     i1u10_20:
  3189   001B32                     
  3190                           ;mcc_generated_files/i2c_host/src/i2c2.c: 417:     {;mcc_generated_files/i2c_host/src/i2
      +                          c2.c: 418:         I2C2_CounterSet(0);
  3191   001B32  0E00               	movlw	0
  3192   001B34  ECC2  F00E         	call	_I2C2_CounterSet
  3193   001B38                     
  3194                           ;mcc_generated_files/i2c_host/src/i2c2.c: 419:         I2C2_DataTransmit(0);
  3195   001B38  0E00               	movlw	0
  3196   001B3A  ECBD  F00E         	call	_I2C2_DataTransmit
  3197   001B3E                     i1l422:
  3198   001B3E  0012               	return		;funcret
  3199   001B40                     __end_of_I2C2_StopSend:
  3200                           	callstack 0
  3201                           
  3202 ;; *************** function _I2C2_RestartDisable *****************
  3203 ;; Defined at:
  3204 ;;		line 408 in file "mcc_generated_files/i2c_host/src/i2c2.c"
  3205 ;; Parameters:    Size  Location     Type
  3206 ;;		None
  3207 ;; Auto vars:     Size  Location     Type
  3208 ;;		None
  3209 ;; Return value:  Size  Location     Type
  3210 ;;                  1    wreg      void 
  3211 ;; Registers used:
  3212 ;;		None
  3213 ;; Tracked objects:
  3214 ;;		On entry : 0/0
  3215 ;;		On exit  : 0/0
  3216 ;;		Unchanged: 0/0
  3217 ;; Data sizes:     COMRAM   BANK0   BANK1   BANK2   BANK3   BANK4   BANK5   BANK6   BANK7   BANK8   BANK9  BANK10  BANK1
      +1  BANK12  BANK13  BANK14  BANK15
  3218 ;;      Params:         0       0       0       0       0       0       0       0       0       0       0       0       
      +0       0       0       0       0
  3219 ;;      Locals:         0       0       0       0       0       0       0       0       0       0       0       0       
      +0       0       0       0       0
  3220 ;;      Temps:          0       0       0       0       0       0       0       0       0       0       0       0       
      +0       0       0       0       0
  3221 ;;      Totals:         0       0       0       0       0       0       0       0       0       0       0       0       
      +0       0       0       0       0
  3222 ;;Total ram usage:        0 bytes
  3223 ;; Hardware stack levels used: 1
  3224 ;; Hardware stack levels required when called: 3
  3225 ;; This function calls:
  3226 ;;		Nothing
  3227 ;; This function is called by:
  3228 ;;		_I2C2_ISR
  3229 ;;		_I2C2_StopSend
  3230 ;; This function uses a non-reentrant model
  3231 ;;
  3232                           
  3233                           	psect	text25
  3234   001DBC                     __ptext25:
  3235                           	callstack 0
  3236   001DBC                     _I2C2_RestartDisable:
  3237                           	callstack 22
  3238   001DBC                     
  3239                           ;mcc_generated_files/i2c_host/src/i2c2.c: 410:     I2C2CON0bits.RSEN = 0;
  3240   001DBC  013D               	movlb	61	; () banked
  3241   001DBE  9D5D               	bcf	93,6,b	;volatile
  3242   001DC0                     
  3243                           ; BSR set to: 61
  3244   001DC0  0012               	return		;funcret
  3245   001DC2                     __end_of_I2C2_RestartDisable:
  3246                           	callstack 0
  3247                           
  3248 ;; *************** function _I2C2_DataTransmit *****************
  3249 ;; Defined at:
  3250 ;;		line 357 in file "mcc_generated_files/i2c_host/src/i2c2.c"
  3251 ;; Parameters:    Size  Location     Type
  3252 ;;  data            1    wreg     unsigned char 
  3253 ;; Auto vars:     Size  Location     Type
  3254 ;;  data            1   22[COMRAM] unsigned char 
  3255 ;; Return value:  Size  Location     Type
  3256 ;;                  1    wreg      void 
  3257 ;; Registers used:
  3258 ;;		wreg
  3259 ;; Tracked objects:
  3260 ;;		On entry : 0/0
  3261 ;;		On exit  : 0/0
  3262 ;;		Unchanged: 0/0
  3263 ;; Data sizes:     COMRAM   BANK0   BANK1   BANK2   BANK3   BANK4   BANK5   BANK6   BANK7   BANK8   BANK9  BANK10  BANK1
      +1  BANK12  BANK13  BANK14  BANK15
  3264 ;;      Params:         0       0       0       0       0       0       0       0       0       0       0       0       
      +0       0       0       0       0
  3265 ;;      Locals:         1       0       0       0       0       0       0       0       0       0       0       0       
      +0       0       0       0       0
  3266 ;;      Temps:          0       0       0       0       0       0       0       0       0       0       0       0       
      +0       0       0       0       0
  3267 ;;      Totals:         1       0       0       0       0       0       0       0       0       0       0       0       
      +0       0       0       0       0
  3268 ;;Total ram usage:        1 bytes
  3269 ;; Hardware stack levels used: 1
  3270 ;; Hardware stack levels required when called: 3
  3271 ;; This function calls:
  3272 ;;		Nothing
  3273 ;; This function is called by:
  3274 ;;		_I2C2_TX_ISR
  3275 ;;		_I2C2_StopSend
  3276 ;; This function uses a non-reentrant model
  3277 ;;
  3278                           
  3279                           	psect	text26
  3280   001D7A                     __ptext26:
  3281                           	callstack 0
  3282   001D7A                     _I2C2_DataTransmit:
  3283                           	callstack 23
  3284                           
  3285                           ; BSR set to: 61
  3286                           ;incstack = 0
  3287                           ;I2C2_DataTransmit@data stored from wreg
  3288   001D7A  6E46               	movwf	I2C2_DataTransmit@data^0,c
  3289   001D7C                     
  3290                           ;mcc_generated_files/i2c_host/src/i2c2.c: 357: static void I2C2_DataTransmit(uint8_t dat
      +                          a);mcc_generated_files/i2c_host/src/i2c2.c: 358: {;mcc_generated_files/i2c_host/src/i2c2
      +                          .c: 359:     I2C2TXB = data;
  3291   001D7C  0060  F11B  FD55   	movff	I2C2_DataTransmit@data,15701	;volatile
  3292   001D82  0012               	return		;funcret
  3293   001D84                     __end_of_I2C2_DataTransmit:
  3294                           	callstack 0
  3295                           
  3296 ;; *************** function _I2C2_CounterGet *****************
  3297 ;; Defined at:
  3298 ;;		line 372 in file "mcc_generated_files/i2c_host/src/i2c2.c"
  3299 ;; Parameters:    Size  Location     Type
  3300 ;;		None
  3301 ;; Auto vars:     Size  Location     Type
  3302 ;;		None
  3303 ;; Return value:  Size  Location     Type
  3304 ;;                  1    wreg      unsigned char 
  3305 ;; Registers used:
  3306 ;;		wreg, status,2
  3307 ;; Tracked objects:
  3308 ;;		On entry : 0/0
  3309 ;;		On exit  : 0/0
  3310 ;;		Unchanged: 0/0
  3311 ;; Data sizes:     COMRAM   BANK0   BANK1   BANK2   BANK3   BANK4   BANK5   BANK6   BANK7   BANK8   BANK9  BANK10  BANK1
      +1  BANK12  BANK13  BANK14  BANK15
  3312 ;;      Params:         0       0       0       0       0       0       0       0       0       0       0       0       
      +0       0       0       0       0
  3313 ;;      Locals:         0       0       0       0       0       0       0       0       0       0       0       0       
      +0       0       0       0       0
  3314 ;;      Temps:          0       0       0       0       0       0       0       0       0       0       0       0       
      +0       0       0       0       0
  3315 ;;      Totals:         0       0       0       0       0       0       0       0       0       0       0       0       
      +0       0       0       0       0
  3316 ;;Total ram usage:        0 bytes
  3317 ;; Hardware stack levels used: 1
  3318 ;; Hardware stack levels required when called: 3
  3319 ;; This function calls:
  3320 ;;		Nothing
  3321 ;; This function is called by:
  3322 ;;		_I2C2_StopSend
  3323 ;; This function uses a non-reentrant model
  3324 ;;
  3325                           
  3326                           	psect	text27
  3327   001DC2                     __ptext27:
  3328                           	callstack 0
  3329   001DC2                     _I2C2_CounterGet:
  3330                           	callstack 22
  3331   001DC2                     
  3332                           ;mcc_generated_files/i2c_host/src/i2c2.c: 374:     return (uint8_t) I2C2CNT;
  3333   001DC2  013D               	movlb	61	; () banked
  3334   001DC4  5156               	movf	86,w,b	;volatile
  3335   001DC6                     
  3336                           ; BSR set to: 61
  3337   001DC6  0012               	return		;funcret
  3338   001DC8                     __end_of_I2C2_CounterGet:
  3339                           	callstack 0
  3340                           
  3341 ;; *************** function _I2C2_ReadStart *****************
  3342 ;; Defined at:
  3343 ;;		line 302 in file "mcc_generated_files/i2c_host/src/i2c2.c"
  3344 ;; Parameters:    Size  Location     Type
  3345 ;;		None
  3346 ;; Auto vars:     Size  Location     Type
  3347 ;;		None
  3348 ;; Return value:  Size  Location     Type
  3349 ;;                  1    wreg      void 
  3350 ;; Registers used:
  3351 ;;		wreg, status,2, status,0, cstack
  3352 ;; Tracked objects:
  3353 ;;		On entry : 0/0
  3354 ;;		On exit  : 0/0
  3355 ;;		Unchanged: 0/0
  3356 ;; Data sizes:     COMRAM   BANK0   BANK1   BANK2   BANK3   BANK4   BANK5   BANK6   BANK7   BANK8   BANK9  BANK10  BANK1
      +1  BANK12  BANK13  BANK14  BANK15
  3357 ;;      Params:         0       0       0       0       0       0       0       0       0       0       0       0       
      +0       0       0       0       0
  3358 ;;      Locals:         0       0       0       0       0       0       0       0       0       0       0       0       
      +0       0       0       0       0
  3359 ;;      Temps:          0       0       0       0       0       0       0       0       0       0       0       0       
      +0       0       0       0       0
  3360 ;;      Totals:         0       0       0       0       0       0       0       0       0       0       0       0       
      +0       0       0       0       0
  3361 ;;Total ram usage:        0 bytes
  3362 ;; Hardware stack levels used: 1
  3363 ;; Hardware stack levels required when called: 4
  3364 ;; This function calls:
  3365 ;;		_I2C2_AddrTransmit
  3366 ;;		_I2C2_CounterSet
  3367 ;;		_I2C2_StartSend
  3368 ;; This function is called by:
  3369 ;;		_I2C2_ISR
  3370 ;;		_I2C2_Read
  3371 ;; This function uses a non-reentrant model
  3372 ;;
  3373                           
  3374                           	psect	text28
  3375   001B40                     __ptext28:
  3376                           	callstack 0
  3377   001B40                     _I2C2_ReadStart:
  3378                           	callstack 22
  3379   001B40                     
  3380                           ;mcc_generated_files/i2c_host/src/i2c2.c: 304:     if (i2c2Status.readLength)
  3381   001B40  500A               	movf	(_i2c2Status+9)^0,w,c	;volatile
  3382   001B42  100B               	iorwf	(_i2c2Status+10)^0,w,c	;volatile
  3383   001B44  B4D8               	btfsc	status,2,c
  3384   001B46  EFA7  F00D         	goto	i1u9_21
  3385   001B4A  EFA9  F00D         	goto	i1u9_20
  3386   001B4E                     i1u9_21:
  3387   001B4E  EFAC  F00D         	goto	i1l2280
  3388   001B52                     i1u9_20:
  3389   001B52                     
  3390                           ;mcc_generated_files/i2c_host/src/i2c2.c: 305:     {;mcc_generated_files/i2c_host/src/i2
      +                          c2.c: 306:         I2C2_CounterSet((uint8_t) i2c2Status.readLength);
  3391   001B52  500A               	movf	(_i2c2Status+9)^0,w,c	;volatile
  3392   001B54  ECC2  F00E         	call	_I2C2_CounterSet
  3393   001B58                     i1l2280:
  3394                           
  3395                           ;mcc_generated_files/i2c_host/src/i2c2.c: 309:     I2C2_AddrTransmit((uint8_t) (i2c2Stat
      +                          us.address << 1 | 1));
  3396   001B58  80D8               	bsf	status,0,c
  3397   001B5A  3402               	rlcf	(_i2c2Status+1)^0,w,c	;volatile
  3398   001B5C  ECC7  F00E         	call	_I2C2_AddrTransmit
  3399   001B60                     
  3400                           ;mcc_generated_files/i2c_host/src/i2c2.c: 310:     I2C2_StartSend();
  3401   001B60  ECE4  F00E         	call	_I2C2_StartSend	;wreg free
  3402   001B64  0012               	return		;funcret
  3403   001B66                     __end_of_I2C2_ReadStart:
  3404                           	callstack 0
  3405                           
  3406 ;; *************** function _I2C2_StartSend *****************
  3407 ;; Defined at:
  3408 ;;		line 347 in file "mcc_generated_files/i2c_host/src/i2c2.c"
  3409 ;; Parameters:    Size  Location     Type
  3410 ;;		None
  3411 ;; Auto vars:     Size  Location     Type
  3412 ;;		None
  3413 ;; Return value:  Size  Location     Type
  3414 ;;                  1    wreg      void 
  3415 ;; Registers used:
  3416 ;;		None
  3417 ;; Tracked objects:
  3418 ;;		On entry : 0/0
  3419 ;;		On exit  : 0/0
  3420 ;;		Unchanged: 0/0
  3421 ;; Data sizes:     COMRAM   BANK0   BANK1   BANK2   BANK3   BANK4   BANK5   BANK6   BANK7   BANK8   BANK9  BANK10  BANK1
      +1  BANK12  BANK13  BANK14  BANK15
  3422 ;;      Params:         0       0       0       0       0       0       0       0       0       0       0       0       
      +0       0       0       0       0
  3423 ;;      Locals:         0       0       0       0       0       0       0       0       0       0       0       0       
      +0       0       0       0       0
  3424 ;;      Temps:          0       0       0       0       0       0       0       0       0       0       0       0       
      +0       0       0       0       0
  3425 ;;      Totals:         0       0       0       0       0       0       0       0       0       0       0       0       
      +0       0       0       0       0
  3426 ;;Total ram usage:        0 bytes
  3427 ;; Hardware stack levels used: 1
  3428 ;; Hardware stack levels required when called: 3
  3429 ;; This function calls:
  3430 ;;		Nothing
  3431 ;; This function is called by:
  3432 ;;		_I2C2_ReadStart
  3433 ;;		_I2C2_WriteStart
  3434 ;; This function uses a non-reentrant model
  3435 ;;
  3436                           
  3437                           	psect	text29
  3438   001DC8                     __ptext29:
  3439                           	callstack 0
  3440   001DC8                     _I2C2_StartSend:
  3441                           	callstack 22
  3442   001DC8                     
  3443                           ;mcc_generated_files/i2c_host/src/i2c2.c: 349:     I2C2CON0bits.S = 1;
  3444   001DC8  013D               	movlb	61	; () banked
  3445   001DCA  8B5D               	bsf	93,5,b	;volatile
  3446   001DCC                     
  3447                           ; BSR set to: 61
  3448   001DCC  0012               	return		;funcret
  3449   001DCE                     __end_of_I2C2_StartSend:
  3450                           	callstack 0
  3451                           
  3452 ;; *************** function _I2C2_CounterSet *****************
  3453 ;; Defined at:
  3454 ;;		line 367 in file "mcc_generated_files/i2c_host/src/i2c2.c"
  3455 ;; Parameters:    Size  Location     Type
  3456 ;;  counter         1    wreg     unsigned char 
  3457 ;; Auto vars:     Size  Location     Type
  3458 ;;  counter         1   20[COMRAM] unsigned char 
  3459 ;; Return value:  Size  Location     Type
  3460 ;;                  1    wreg      void 
  3461 ;; Registers used:
  3462 ;;		wreg
  3463 ;; Tracked objects:
  3464 ;;		On entry : 0/0
  3465 ;;		On exit  : 0/0
  3466 ;;		Unchanged: 0/0
  3467 ;; Data sizes:     COMRAM   BANK0   BANK1   BANK2   BANK3   BANK4   BANK5   BANK6   BANK7   BANK8   BANK9  BANK10  BANK1
      +1  BANK12  BANK13  BANK14  BANK15
  3468 ;;      Params:         0       0       0       0       0       0       0       0       0       0       0       0       
      +0       0       0       0       0
  3469 ;;      Locals:         1       0       0       0       0       0       0       0       0       0       0       0       
      +0       0       0       0       0
  3470 ;;      Temps:          0       0       0       0       0       0       0       0       0       0       0       0       
      +0       0       0       0       0
  3471 ;;      Totals:         1       0       0       0       0       0       0       0       0       0       0       0       
      +0       0       0       0       0
  3472 ;;Total ram usage:        1 bytes
  3473 ;; Hardware stack levels used: 1
  3474 ;; Hardware stack levels required when called: 3
  3475 ;; This function calls:
  3476 ;;		Nothing
  3477 ;; This function is called by:
  3478 ;;		_I2C2_ReadStart
  3479 ;;		_I2C2_StopSend
  3480 ;;		_I2C2_WriteStart
  3481 ;; This function uses a non-reentrant model
  3482 ;;
  3483                           
  3484                           	psect	text30
  3485   001D84                     __ptext30:
  3486                           	callstack 0
  3487   001D84                     _I2C2_CounterSet:
  3488                           	callstack 22
  3489                           
  3490                           ; BSR set to: 61
  3491                           ;incstack = 0
  3492                           ;I2C2_CounterSet@counter stored from wreg
  3493   001D84  6E44               	movwf	I2C2_CounterSet@counter^0,c
  3494   001D86                     
  3495                           ;mcc_generated_files/i2c_host/src/i2c2.c: 367: static void I2C2_CounterSet(uint8_t count
      +                          er);mcc_generated_files/i2c_host/src/i2c2.c: 368: {;mcc_generated_files/i2c_host/src/i2c
      +                          2.c: 369:     I2C2CNT = counter;
  3496   001D86  0060  F113  FD56   	movff	I2C2_CounterSet@counter,15702	;volatile
  3497   001D8C  0012               	return		;funcret
  3498   001D8E                     __end_of_I2C2_CounterSet:
  3499                           	callstack 0
  3500                           
  3501 ;; *************** function _I2C2_AddrTransmit *****************
  3502 ;; Defined at:
  3503 ;;		line 352 in file "mcc_generated_files/i2c_host/src/i2c2.c"
  3504 ;; Parameters:    Size  Location     Type
  3505 ;;  addr            1    wreg     unsigned char 
  3506 ;; Auto vars:     Size  Location     Type
  3507 ;;  addr            1   12[COMRAM] unsigned char 
  3508 ;; Return value:  Size  Location     Type
  3509 ;;                  1    wreg      void 
  3510 ;; Registers used:
  3511 ;;		wreg
  3512 ;; Tracked objects:
  3513 ;;		On entry : 0/0
  3514 ;;		On exit  : 0/0
  3515 ;;		Unchanged: 0/0
  3516 ;; Data sizes:     COMRAM   BANK0   BANK1   BANK2   BANK3   BANK4   BANK5   BANK6   BANK7   BANK8   BANK9  BANK10  BANK1
      +1  BANK12  BANK13  BANK14  BANK15
  3517 ;;      Params:         0       0       0       0       0       0       0       0       0       0       0       0       
      +0       0       0       0       0
  3518 ;;      Locals:         1       0       0       0       0       0       0       0       0       0       0       0       
      +0       0       0       0       0
  3519 ;;      Temps:          0       0       0       0       0       0       0       0       0       0       0       0       
      +0       0       0       0       0
  3520 ;;      Totals:         1       0       0       0       0       0       0       0       0       0       0       0       
      +0       0       0       0       0
  3521 ;;Total ram usage:        1 bytes
  3522 ;; Hardware stack levels used: 1
  3523 ;; Hardware stack levels required when called: 3
  3524 ;; This function calls:
  3525 ;;		Nothing
  3526 ;; This function is called by:
  3527 ;;		_I2C2_ReadStart
  3528 ;;		_I2C2_WriteStart
  3529 ;; This function uses a non-reentrant model
  3530 ;;
  3531                           
  3532                           	psect	text31
  3533   001D8E                     __ptext31:
  3534                           	callstack 0
  3535   001D8E                     _I2C2_AddrTransmit:
  3536                           	callstack 22
  3537                           
  3538                           ;incstack = 0
  3539                           ;I2C2_AddrTransmit@addr stored from wreg
  3540   001D8E  6E3C               	movwf	I2C2_AddrTransmit@addr^0,c
  3541   001D90                     
  3542                           ;mcc_generated_files/i2c_host/src/i2c2.c: 352: static void I2C2_AddrTransmit(uint8_t add
      +                          r);mcc_generated_files/i2c_host/src/i2c2.c: 353: {;mcc_generated_files/i2c_host/src/i2c2
      +                          .c: 354:     I2C2ADB1 = addr;
  3543   001D90  0060  F0F3  FD58   	movff	I2C2_AddrTransmit@addr,15704	;volatile
  3544   001D96  0012               	return		;funcret
  3545   001D98                     __end_of_I2C2_AddrTransmit:
  3546                           	callstack 0
  3547                           
  3548 ;; *************** function _I2C2_Close *****************
  3549 ;; Defined at:
  3550 ;;		line 328 in file "mcc_generated_files/i2c_host/src/i2c2.c"
  3551 ;; Parameters:    Size  Location     Type
  3552 ;;		None
  3553 ;; Auto vars:     Size  Location     Type
  3554 ;;		None
  3555 ;; Return value:  Size  Location     Type
  3556 ;;                  1    wreg      void 
  3557 ;; Registers used:
  3558 ;;		wreg, status,2, status,0, cstack
  3559 ;; Tracked objects:
  3560 ;;		On entry : 0/0
  3561 ;;		On exit  : 0/0
  3562 ;;		Unchanged: 0/0
  3563 ;; Data sizes:     COMRAM   BANK0   BANK1   BANK2   BANK3   BANK4   BANK5   BANK6   BANK7   BANK8   BANK9  BANK10  BANK1
      +1  BANK12  BANK13  BANK14  BANK15
  3564 ;;      Params:         0       0       0       0       0       0       0       0       0       0       0       0       
      +0       0       0       0       0
  3565 ;;      Locals:         0       0       0       0       0       0       0       0       0       0       0       0       
      +0       0       0       0       0
  3566 ;;      Temps:          0       0       0       0       0       0       0       0       0       0       0       0       
      +0       0       0       0       0
  3567 ;;      Totals:         0       0       0       0       0       0       0       0       0       0       0       0       
      +0       0       0       0       0
  3568 ;;Total ram usage:        0 bytes
  3569 ;; Hardware stack levels used: 1
  3570 ;; Hardware stack levels required when called: 4
  3571 ;; This function calls:
  3572 ;;		_I2C2_BufferClear
  3573 ;;		_I2C2_ErrorFlagsClear
  3574 ;;		_I2C2_InterruptsClear
  3575 ;; This function is called by:
  3576 ;;		_I2C2_ISR
  3577 ;; This function uses a non-reentrant model
  3578 ;;
  3579                           
  3580                           	psect	text32
  3581   001AF2                     __ptext32:
  3582                           	callstack 0
  3583   001AF2                     _I2C2_Close:
  3584                           	callstack 22
  3585   001AF2                     
  3586                           ;mcc_generated_files/i2c_host/src/i2c2.c: 330:     i2c2Status.busy = 0;
  3587   001AF2  0E00               	movlw	0
  3588   001AF4  6E01               	movwf	_i2c2Status^0,c	;volatile
  3589                           
  3590                           ;mcc_generated_files/i2c_host/src/i2c2.c: 331:     i2c2Status.address = 0xFF;
  3591   001AF6  0E00               	movlw	0
  3592   001AF8  6E03               	movwf	(_i2c2Status+2)^0,c	;volatile
  3593   001AFA  6802               	setf	(_i2c2Status+1)^0,c	;volatile
  3594   001AFC                     
  3595                           ;mcc_generated_files/i2c_host/src/i2c2.c: 332:     i2c2Status.writePtr = ((void*)0);
  3596   001AFC  0E00               	movlw	0
  3597   001AFE  6E04               	movwf	(_i2c2Status+3)^0,c	;volatile
  3598   001B00  0E00               	movlw	0
  3599   001B02  6E05               	movwf	(_i2c2Status+4)^0,c	;volatile
  3600   001B04                     
  3601                           ;mcc_generated_files/i2c_host/src/i2c2.c: 333:     i2c2Status.readPtr = ((void*)0);
  3602   001B04  0E00               	movlw	0
  3603   001B06  6E08               	movwf	(_i2c2Status+7)^0,c	;volatile
  3604   001B08  0E00               	movlw	0
  3605   001B0A  6E09               	movwf	(_i2c2Status+8)^0,c	;volatile
  3606   001B0C                     
  3607                           ;mcc_generated_files/i2c_host/src/i2c2.c: 334:     I2C2_InterruptsClear();
  3608   001B0C  ECDA  F00E         	call	_I2C2_InterruptsClear	;wreg free
  3609                           
  3610                           ;mcc_generated_files/i2c_host/src/i2c2.c: 335:     I2C2_ErrorFlagsClear();
  3611   001B10  ECCC  F00E         	call	_I2C2_ErrorFlagsClear	;wreg free
  3612   001B14                     
  3613                           ;mcc_generated_files/i2c_host/src/i2c2.c: 336:     I2C2_BufferClear();
  3614   001B14  ECD1  F00E         	call	_I2C2_BufferClear	;wreg free
  3615   001B18  0012               	return		;funcret
  3616   001B1A                     __end_of_I2C2_Close:
  3617                           	callstack 0
  3618                           
  3619 ;; *************** function _I2C2_InterruptsClear *****************
  3620 ;; Defined at:
  3621 ;;		line 471 in file "mcc_generated_files/i2c_host/src/i2c2.c"
  3622 ;; Parameters:    Size  Location     Type
  3623 ;;		None
  3624 ;; Auto vars:     Size  Location     Type
  3625 ;;		None
  3626 ;; Return value:  Size  Location     Type
  3627 ;;                  1    wreg      void 
  3628 ;; Registers used:
  3629 ;;		wreg, status,2
  3630 ;; Tracked objects:
  3631 ;;		On entry : 0/0
  3632 ;;		On exit  : 0/0
  3633 ;;		Unchanged: 0/0
  3634 ;; Data sizes:     COMRAM   BANK0   BANK1   BANK2   BANK3   BANK4   BANK5   BANK6   BANK7   BANK8   BANK9  BANK10  BANK1
      +1  BANK12  BANK13  BANK14  BANK15
  3635 ;;      Params:         0       0       0       0       0       0       0       0       0       0       0       0       
      +0       0       0       0       0
  3636 ;;      Locals:         0       0       0       0       0       0       0       0       0       0       0       0       
      +0       0       0       0       0
  3637 ;;      Temps:          0       0       0       0       0       0       0       0       0       0       0       0       
      +0       0       0       0       0
  3638 ;;      Totals:         0       0       0       0       0       0       0       0       0       0       0       0       
      +0       0       0       0       0
  3639 ;;Total ram usage:        0 bytes
  3640 ;; Hardware stack levels used: 1
  3641 ;; Hardware stack levels required when called: 3
  3642 ;; This function calls:
  3643 ;;		Nothing
  3644 ;; This function is called by:
  3645 ;;		_I2C2_Close
  3646 ;;		_I2C2_BusReset
  3647 ;; This function uses a non-reentrant model
  3648 ;;
  3649                           
  3650                           	psect	text33
  3651   001DB4                     __ptext33:
  3652                           	callstack 0
  3653   001DB4                     _I2C2_InterruptsClear:
  3654                           	callstack 22
  3655   001DB4                     
  3656                           ;mcc_generated_files/i2c_host/src/i2c2.c: 473:     I2C2PIR = 0x00;
  3657   001DB4  0E00               	movlw	0
  3658   001DB6  013D               	movlb	61	; () banked
  3659   001DB8  6F63               	movwf	99,b	;volatile
  3660   001DBA                     
  3661                           ; BSR set to: 61
  3662   001DBA  0012               	return		;funcret
  3663   001DBC                     __end_of_I2C2_InterruptsClear:
  3664                           	callstack 0
  3665                           
  3666 ;; *************** function _I2C2_ErrorFlagsClear *****************
  3667 ;; Defined at:
  3668 ;;		line 476 in file "mcc_generated_files/i2c_host/src/i2c2.c"
  3669 ;; Parameters:    Size  Location     Type
  3670 ;;		None
  3671 ;; Auto vars:     Size  Location     Type
  3672 ;;		None
  3673 ;; Return value:  Size  Location     Type
  3674 ;;                  1    wreg      void 
  3675 ;; Registers used:
  3676 ;;		None
  3677 ;; Tracked objects:
  3678 ;;		On entry : 0/0
  3679 ;;		On exit  : 0/0
  3680 ;;		Unchanged: 0/0
  3681 ;; Data sizes:     COMRAM   BANK0   BANK1   BANK2   BANK3   BANK4   BANK5   BANK6   BANK7   BANK8   BANK9  BANK10  BANK1
      +1  BANK12  BANK13  BANK14  BANK15
  3682 ;;      Params:         0       0       0       0       0       0       0       0       0       0       0       0       
      +0       0       0       0       0
  3683 ;;      Locals:         0       0       0       0       0       0       0       0       0       0       0       0       
      +0       0       0       0       0
  3684 ;;      Temps:          0       0       0       0       0       0       0       0       0       0       0       0       
      +0       0       0       0       0
  3685 ;;      Totals:         0       0       0       0       0       0       0       0       0       0       0       0       
      +0       0       0       0       0
  3686 ;;Total ram usage:        0 bytes
  3687 ;; Hardware stack levels used: 1
  3688 ;; Hardware stack levels required when called: 3
  3689 ;; This function calls:
  3690 ;;		Nothing
  3691 ;; This function is called by:
  3692 ;;		_I2C2_Close
  3693 ;;		_I2C2_BusReset
  3694 ;; This function uses a non-reentrant model
  3695 ;;
  3696                           
  3697                           	psect	text34
  3698   001D98                     __ptext34:
  3699                           	callstack 0
  3700   001D98                     _I2C2_ErrorFlagsClear:
  3701                           	callstack 22
  3702   001D98                     
  3703                           ;mcc_generated_files/i2c_host/src/i2c2.c: 478:     I2C2ERRbits.BCLIF = 0;
  3704   001D98  013D               	movlb	61	; () banked
  3705   001D9A  9B60               	bcf	96,5,b	;volatile
  3706                           
  3707                           ;mcc_generated_files/i2c_host/src/i2c2.c: 479:     I2C2ERRbits.BTOIF = 0;
  3708   001D9C  9D60               	bcf	96,6,b	;volatile
  3709                           
  3710                           ;mcc_generated_files/i2c_host/src/i2c2.c: 480:     I2C2ERRbits.NACKIF = 0;
  3711   001D9E  9960               	bcf	96,4,b	;volatile
  3712   001DA0                     
  3713                           ; BSR set to: 61
  3714   001DA0  0012               	return		;funcret
  3715   001DA2                     __end_of_I2C2_ErrorFlagsClear:
  3716                           	callstack 0
  3717                           
  3718 ;; *************** function _I2C2_BufferClear *****************
  3719 ;; Defined at:
  3720 ;;		line 483 in file "mcc_generated_files/i2c_host/src/i2c2.c"
  3721 ;; Parameters:    Size  Location     Type
  3722 ;;		None
  3723 ;; Auto vars:     Size  Location     Type
  3724 ;;		None
  3725 ;; Return value:  Size  Location     Type
  3726 ;;                  1    wreg      void 
  3727 ;; Registers used:
  3728 ;;		wreg, status,2
  3729 ;; Tracked objects:
  3730 ;;		On entry : 0/0
  3731 ;;		On exit  : 0/0
  3732 ;;		Unchanged: 0/0
  3733 ;; Data sizes:     COMRAM   BANK0   BANK1   BANK2   BANK3   BANK4   BANK5   BANK6   BANK7   BANK8   BANK9  BANK10  BANK1
      +1  BANK12  BANK13  BANK14  BANK15
  3734 ;;      Params:         0       0       0       0       0       0       0       0       0       0       0       0       
      +0       0       0       0       0
  3735 ;;      Locals:         0       0       0       0       0       0       0       0       0       0       0       0       
      +0       0       0       0       0
  3736 ;;      Temps:          0       0       0       0       0       0       0       0       0       0       0       0       
      +0       0       0       0       0
  3737 ;;      Totals:         0       0       0       0       0       0       0       0       0       0       0       0       
      +0       0       0       0       0
  3738 ;;Total ram usage:        0 bytes
  3739 ;; Hardware stack levels used: 1
  3740 ;; Hardware stack levels required when called: 3
  3741 ;; This function calls:
  3742 ;;		Nothing
  3743 ;; This function is called by:
  3744 ;;		_I2C2_Close
  3745 ;;		_I2C2_BusReset
  3746 ;; This function uses a non-reentrant model
  3747 ;;
  3748                           
  3749                           	psect	text35
  3750   001DA2                     __ptext35:
  3751                           	callstack 0
  3752   001DA2                     _I2C2_BufferClear:
  3753                           	callstack 22
  3754   001DA2                     
  3755                           ;mcc_generated_files/i2c_host/src/i2c2.c: 485:     I2C2STAT1 = 0x00;
  3756   001DA2  0E00               	movlw	0
  3757   001DA4  013D               	movlb	61	; () banked
  3758   001DA6  6F62               	movwf	98,b	;volatile
  3759   001DA8                     
  3760                           ; BSR set to: 61
  3761                           ;mcc_generated_files/i2c_host/src/i2c2.c: 486:     I2C2STAT1bits.CLRBF = 1;
  3762   001DA8  8562               	bsf	98,2,b	;volatile
  3763   001DAA                     
  3764                           ; BSR set to: 61
  3765   001DAA  0012               	return		;funcret
  3766   001DAC                     __end_of_I2C2_BufferClear:
  3767                           	callstack 0
  3768                           
  3769 ;; *************** function _I2C2_ERROR_ISR *****************
  3770 ;; Defined at:
  3771 ;;		line 253 in file "mcc_generated_files/i2c_host/src/i2c2.c"
  3772 ;; Parameters:    Size  Location     Type
  3773 ;;		None
  3774 ;; Auto vars:     Size  Location     Type
  3775 ;;		None
  3776 ;; Return value:  Size  Location     Type
  3777 ;;                  1    wreg      void 
  3778 ;; Registers used:
  3779 ;;		wreg, fsr0l, fsr0h, fsr1l, fsr1h, fsr1l, fsr1h, fsr2l, fsr2h, bsr, status,2, status,0, pcl, pclath, pclatu, btemp, b
      +temp+1, btemp+2, btemp+3, btemp+4, btemp+5, btemp+6, btemp+7, btemp+8, btemp+9, btemp+10, btemp+11, btemp+12, btemp+13, 
      +btemp+14, btemp+15, btemp+16, btemp+17, btemp+18, btemp+19, btemp+20, btemp+21, btemp+22, btemp+23, btemp+24, btemp+25, 
      +btemp+26, btemp+27, btemp+28, btemp+29, btemp+30, btemp+31, tosl, structret, tblptrl, tblptrh, tblptru, prodl, prodh, cs
      +tack
  3780 ;; Tracked objects:
  3781 ;;		On entry : 0/0
  3782 ;;		On exit  : 0/0
  3783 ;;		Unchanged: 0/0
  3784 ;; Data sizes:     COMRAM   BANK0   BANK1   BANK2   BANK3   BANK4   BANK5   BANK6   BANK7   BANK8   BANK9  BANK10  BANK1
      +1  BANK12  BANK13  BANK14  BANK15
  3785 ;;      Params:         0       0       0       0       0       0       0       0       0       0       0       0       
      +0       0       0       0       0
  3786 ;;      Locals:         0       0       0       0       0       0       0       0       0       0       0       0       
      +0       0       0       0       0
  3787 ;;      Temps:          0       7       0       0       0       0       0       0       0       0       0       0       
      +0       0       0       0       0
  3788 ;;      Totals:         0       7       0       0       0       0       0       0       0       0       0       0       
      +0       0       0       0       0
  3789 ;;Total ram usage:        7 bytes
  3790 ;; Hardware stack levels used: 1
  3791 ;; Hardware stack levels required when called: 5
  3792 ;; This function calls:
  3793 ;;		Absolute function
  3794 ;;		_I2C2_BusReset
  3795 ;;		_I2C2_DefaultCallback
  3796 ;;		_I2C2_IsAddr
  3797 ;;		_I2C2_IsBusCol
  3798 ;;		_I2C2_IsBusTimeOut
  3799 ;;		_I2C2_IsData
  3800 ;;		_I2C2_IsNack
  3801 ;;		_I2C2_StopSend
  3802 ;; This function is called by:
  3803 ;;		Interrupt level 1
  3804 ;; This function uses a non-reentrant model
  3805 ;;
  3806                           
  3807                           	psect	text36
  3808   00106C                     __ptext36:
  3809                           	callstack 0
  3810   00106C                     _I2C2_ERROR_ISR:
  3811                           	callstack 22
  3812                           
  3813                           ; BSR set to: 61
  3814                           ;incstack = 0
  3815   00106C  006F FF60  F086    	movff	status,??_I2C2_ERROR_ISR
  3816   001072  006F FFE8  F087    	movff	pclath,??_I2C2_ERROR_ISR+1
  3817   001078  006F FFEC  F088    	movff	pclatu,??_I2C2_ERROR_ISR+2
  3818   00107E  006F FFD8  F089    	movff	tblptrl,??_I2C2_ERROR_ISR+3
  3819   001084  006F FFDC  F08A    	movff	tblptrh,??_I2C2_ERROR_ISR+4
  3820   00108A  006F FFE0  F08B    	movff	tblptru,??_I2C2_ERROR_ISR+5
  3821   001090  006F FFD4  F08C    	movff	tablat,??_I2C2_ERROR_ISR+6
  3822   001096                     
  3823                           ;mcc_generated_files/i2c_host/src/i2c2.c: 255:     if (I2C2_IsBusCol())
  3824   001096  EC68  F00E         	call	_I2C2_IsBusCol	;wreg free
  3825   00109A  0900               	iorlw	0
  3826   00109C  B4D8               	btfsc	status,2,c
  3827   00109E  EF53  F008         	goto	i1u119_21
  3828   0010A2  EF55  F008         	goto	i1u119_20
  3829   0010A6                     i1u119_21:
  3830   0010A6  EF5D  F008         	goto	i1l3614
  3831   0010AA                     i1u119_20:
  3832   0010AA                     
  3833                           ;mcc_generated_files/i2c_host/src/i2c2.c: 256:     {;mcc_generated_files/i2c_host/src/i2
      +                          c2.c: 257:         i2c2Status.errorState = I2C_ERROR_BUS_COLLISION;
  3834   0010AA  0E03               	movlw	3
  3835   0010AC  6E0D               	movwf	(_i2c2Status+12)^0,c	;volatile
  3836   0010AE                     
  3837                           ;mcc_generated_files/i2c_host/src/i2c2.c: 258:         I2C2ERRbits.BCLIF = 0;
  3838   0010AE  013D               	movlb	61	; () banked
  3839   0010B0  9B60               	bcf	96,5,b	;volatile
  3840   0010B2                     
  3841                           ; BSR set to: 61
  3842                           ;mcc_generated_files/i2c_host/src/i2c2.c: 259:         I2C2_BusReset();
  3843   0010B2  EC3C  F00C         	call	_I2C2_BusReset	;wreg free
  3844                           
  3845                           ;mcc_generated_files/i2c_host/src/i2c2.c: 260:     }
  3846   0010B6  EFA5  F008         	goto	i1l3640
  3847   0010BA                     i1l3614:
  3848   0010BA  EC73  F00E         	call	_I2C2_IsAddr	;wreg free
  3849   0010BE  0900               	iorlw	0
  3850   0010C0  B4D8               	btfsc	status,2,c
  3851   0010C2  EF65  F008         	goto	i1u120_21
  3852   0010C6  EF67  F008         	goto	i1u120_20
  3853   0010CA                     i1u120_21:
  3854   0010CA  EF79  F008         	goto	i1l3624
  3855   0010CE                     i1u120_20:
  3856   0010CE  EC47  F00E         	call	_I2C2_IsNack	;wreg free
  3857   0010D2  0900               	iorlw	0
  3858   0010D4  B4D8               	btfsc	status,2,c
  3859   0010D6  EF6F  F008         	goto	i1u121_21
  3860   0010DA  EF71  F008         	goto	i1u121_20
  3861   0010DE                     i1u121_21:
  3862   0010DE  EF79  F008         	goto	i1l3624
  3863   0010E2                     i1u121_20:
  3864   0010E2                     
  3865                           ;mcc_generated_files/i2c_host/src/i2c2.c: 262:     {;mcc_generated_files/i2c_host/src/i2
      +                          c2.c: 263:         i2c2Status.errorState = I2C_ERROR_ADDR_NACK;
  3866   0010E2  0E01               	movlw	1
  3867   0010E4  6E0D               	movwf	(_i2c2Status+12)^0,c	;volatile
  3868   0010E6                     
  3869                           ;mcc_generated_files/i2c_host/src/i2c2.c: 264:         I2C2ERRbits.NACKIF = 0;
  3870   0010E6  013D               	movlb	61	; () banked
  3871   0010E8  9960               	bcf	96,4,b	;volatile
  3872   0010EA                     i1l3622:
  3873                           
  3874                           ; BSR set to: 61
  3875                           ;mcc_generated_files/i2c_host/src/i2c2.c: 265:         I2C2_StopSend();
  3876   0010EA  EC8D  F00D         	call	_I2C2_StopSend	;wreg free
  3877                           
  3878                           ;mcc_generated_files/i2c_host/src/i2c2.c: 266:     }
  3879   0010EE  EFA5  F008         	goto	i1l3640
  3880   0010F2                     i1l3624:
  3881   0010F2  EC52  F00E         	call	_I2C2_IsData	;wreg free
  3882   0010F6  0900               	iorlw	0
  3883   0010F8  B4D8               	btfsc	status,2,c
  3884   0010FA  EF81  F008         	goto	i1u122_21
  3885   0010FE  EF83  F008         	goto	i1u122_20
  3886   001102                     i1u122_21:
  3887   001102  EF93  F008         	goto	i1l3634
  3888   001106                     i1u122_20:
  3889   001106  EC47  F00E         	call	_I2C2_IsNack	;wreg free
  3890   00110A  0900               	iorlw	0
  3891   00110C  B4D8               	btfsc	status,2,c
  3892   00110E  EF8B  F008         	goto	i1u123_21
  3893   001112  EF8D  F008         	goto	i1u123_20
  3894   001116                     i1u123_21:
  3895   001116  EF93  F008         	goto	i1l3634
  3896   00111A                     i1u123_20:
  3897   00111A                     
  3898                           ;mcc_generated_files/i2c_host/src/i2c2.c: 268:     {;mcc_generated_files/i2c_host/src/i2
      +                          c2.c: 269:         i2c2Status.errorState = I2C_ERROR_DATA_NACK;
  3899   00111A  0E02               	movlw	2
  3900   00111C  6E0D               	movwf	(_i2c2Status+12)^0,c	;volatile
  3901   00111E                     
  3902                           ;mcc_generated_files/i2c_host/src/i2c2.c: 270:         I2C2ERRbits.NACKIF = 0;
  3903   00111E  013D               	movlb	61	; () banked
  3904   001120  9960               	bcf	96,4,b	;volatile
  3905   001122  EF75  F008         	goto	i1l3622
  3906   001126                     i1l3634:
  3907   001126  EC5D  F00E         	call	_I2C2_IsBusTimeOut	;wreg free
  3908   00112A  0900               	iorlw	0
  3909   00112C  B4D8               	btfsc	status,2,c
  3910   00112E  EF9B  F008         	goto	i1u124_21
  3911   001132  EF9D  F008         	goto	i1u124_20
  3912   001136                     i1u124_21:
  3913   001136  EFA3  F008         	goto	i1l363
  3914   00113A                     i1u124_20:
  3915   00113A                     
  3916                           ;mcc_generated_files/i2c_host/src/i2c2.c: 274:     {;mcc_generated_files/i2c_host/src/i2
      +                          c2.c: 275:         i2c2Status.errorState = I2C_ERROR_BUS_COLLISION;
  3917   00113A  0E03               	movlw	3
  3918   00113C  6E0D               	movwf	(_i2c2Status+12)^0,c	;volatile
  3919   00113E                     
  3920                           ;mcc_generated_files/i2c_host/src/i2c2.c: 276:         I2C2ERRbits.BTOIF = 0;
  3921   00113E  013D               	movlb	61	; () banked
  3922   001140  9D60               	bcf	96,6,b	;volatile
  3923                           
  3924                           ;mcc_generated_files/i2c_host/src/i2c2.c: 277:     }
  3925   001142  EFA5  F008         	goto	i1l3640
  3926   001146                     i1l363:
  3927                           
  3928                           ;mcc_generated_files/i2c_host/src/i2c2.c: 279:     {;mcc_generated_files/i2c_host/src/i2
      +                          c2.c: 280:         I2C2ERRbits.NACKIF = 0;
  3929   001146  013D               	movlb	61	; () banked
  3930   001148  9960               	bcf	96,4,b	;volatile
  3931   00114A                     i1l3640:
  3932                           
  3933                           ;mcc_generated_files/i2c_host/src/i2c2.c: 283:     if (i2c2Status.errorState != I2C_ERRO
      +                          R_NONE)
  3934   00114A  500D               	movf	(_i2c2Status+12)^0,w,c	;volatile
  3935   00114C  B4D8               	btfsc	status,2,c
  3936   00114E  EFAB  F008         	goto	i1u125_21
  3937   001152  EFAD  F008         	goto	i1u125_20
  3938   001156                     i1u125_21:
  3939   001156  EFB9  F008         	goto	i1l366
  3940   00115A                     i1u125_20:
  3941   00115A                     
  3942                           ;mcc_generated_files/i2c_host/src/i2c2.c: 284:     {;mcc_generated_files/i2c_host/src/i2
      +                          c2.c: 285:         I2C2_Callback();
  3943   00115A  D802               	call	i1u126_28
  3944   00115C  EFB9  F008         	goto	i1u126_29
  3945   001160                     i1u126_28:
  3946   001160  0005               	push	
  3947   001162  6EFA               	movwf	pclath,c
  3948   001164  5026               	movf	_I2C2_Callback^0,w,c
  3949   001166  6EFD               	movwf	tosl,c
  3950   001168  5027               	movf	(_I2C2_Callback+1)^0,w,c
  3951   00116A  6EFE               	movwf	tosh,c
  3952   00116C  6AFF               	clrf	tosu,c
  3953   00116E  50FA               	movf	pclath,w,c
  3954   001170  0012               	return		;indir
  3955   001172                     i1u126_29:
  3956   001172                     i1l366:
  3957   001172  0060  F233  FFF5   	movff	??_I2C2_ERROR_ISR+6,tablat
  3958   001178  0060  F22F  FFF8   	movff	??_I2C2_ERROR_ISR+5,tblptru
  3959   00117E  0060  F22B  FFF7   	movff	??_I2C2_ERROR_ISR+4,tblptrh
  3960   001184  0060  F227  FFF6   	movff	??_I2C2_ERROR_ISR+3,tblptrl
  3961   00118A  0060  F223  FFFB   	movff	??_I2C2_ERROR_ISR+2,pclatu
  3962   001190  0060  F21F  FFFA   	movff	??_I2C2_ERROR_ISR+1,pclath
  3963   001196  0060  F21B  FFD8   	movff	??_I2C2_ERROR_ISR,status
  3964   00119C  0011               	retfie		f
  3965   00119E                     __end_of_I2C2_ERROR_ISR:
  3966                           	callstack 0
  3967                           
  3968 ;; *************** function _I2C2_IsNack *****************
  3969 ;; Defined at:
  3970 ;;		line 423 in file "mcc_generated_files/i2c_host/src/i2c2.c"
  3971 ;; Parameters:    Size  Location     Type
  3972 ;;		None
  3973 ;; Auto vars:     Size  Location     Type
  3974 ;;		None
  3975 ;; Return value:  Size  Location     Type
  3976 ;;                  1    wreg      _Bool 
  3977 ;; Registers used:
  3978 ;;		wreg
  3979 ;; Tracked objects:
  3980 ;;		On entry : 0/0
  3981 ;;		On exit  : 0/0
  3982 ;;		Unchanged: 0/0
  3983 ;; Data sizes:     COMRAM   BANK0   BANK1   BANK2   BANK3   BANK4   BANK5   BANK6   BANK7   BANK8   BANK9  BANK10  BANK1
      +1  BANK12  BANK13  BANK14  BANK15
  3984 ;;      Params:         0       0       0       0       0       0       0       0       0       0       0       0       
      +0       0       0       0       0
  3985 ;;      Locals:         0       0       0       0       0       0       0       0       0       0       0       0       
      +0       0       0       0       0
  3986 ;;      Temps:          0       0       0       0       0       0       0       0       0       0       0       0       
      +0       0       0       0       0
  3987 ;;      Totals:         0       0       0       0       0       0       0       0       0       0       0       0       
      +0       0       0       0       0
  3988 ;;Total ram usage:        0 bytes
  3989 ;; Hardware stack levels used: 1
  3990 ;; Hardware stack levels required when called: 3
  3991 ;; This function calls:
  3992 ;;		Nothing
  3993 ;; This function is called by:
  3994 ;;		_I2C2_ERROR_ISR
  3995 ;; This function uses a non-reentrant model
  3996 ;;
  3997                           
  3998                           	psect	text37
  3999   001C8E                     __ptext37:
  4000                           	callstack 0
  4001   001C8E                     _I2C2_IsNack:
  4002                           	callstack 23
  4003   001C8E                     
  4004                           ;mcc_generated_files/i2c_host/src/i2c2.c: 425:     return I2C2CON1bits.ACKSTAT;
  4005   001C8E  013D               	movlb	61	; () banked
  4006   001C90  BB5E               	btfsc	94,5,b	;volatile
  4007   001C92  EF4D  F00E         	goto	i1u14_21
  4008   001C96  EF50  F00E         	goto	i1u14_20
  4009   001C9A                     i1u14_21:
  4010   001C9A  0E01               	movlw	1
  4011   001C9C  EF51  F00E         	goto	i1u14_26
  4012   001CA0                     i1u14_20:
  4013   001CA0  0E00               	movlw	0
  4014   001CA2                     i1u14_26:
  4015   001CA2                     
  4016                           ; BSR set to: 61
  4017   001CA2  0012               	return		;funcret
  4018   001CA4                     __end_of_I2C2_IsNack:
  4019                           	callstack 0
  4020                           
  4021 ;; *************** function _I2C2_IsData *****************
  4022 ;; Defined at:
  4023 ;;		line 438 in file "mcc_generated_files/i2c_host/src/i2c2.c"
  4024 ;; Parameters:    Size  Location     Type
  4025 ;;		None
  4026 ;; Auto vars:     Size  Location     Type
  4027 ;;		None
  4028 ;; Return value:  Size  Location     Type
  4029 ;;                  1    wreg      _Bool 
  4030 ;; Registers used:
  4031 ;;		wreg
  4032 ;; Tracked objects:
  4033 ;;		On entry : 0/0
  4034 ;;		On exit  : 0/0
  4035 ;;		Unchanged: 0/0
  4036 ;; Data sizes:     COMRAM   BANK0   BANK1   BANK2   BANK3   BANK4   BANK5   BANK6   BANK7   BANK8   BANK9  BANK10  BANK1
      +1  BANK12  BANK13  BANK14  BANK15
  4037 ;;      Params:         0       0       0       0       0       0       0       0       0       0       0       0       
      +0       0       0       0       0
  4038 ;;      Locals:         0       0       0       0       0       0       0       0       0       0       0       0       
      +0       0       0       0       0
  4039 ;;      Temps:          0       0       0       0       0       0       0       0       0       0       0       0       
      +0       0       0       0       0
  4040 ;;      Totals:         0       0       0       0       0       0       0       0       0       0       0       0       
      +0       0       0       0       0
  4041 ;;Total ram usage:        0 bytes
  4042 ;; Hardware stack levels used: 1
  4043 ;; Hardware stack levels required when called: 3
  4044 ;; This function calls:
  4045 ;;		Nothing
  4046 ;; This function is called by:
  4047 ;;		_I2C2_ERROR_ISR
  4048 ;; This function uses a non-reentrant model
  4049 ;;
  4050                           
  4051                           	psect	text38
  4052   001CA4                     __ptext38:
  4053                           	callstack 0
  4054   001CA4                     _I2C2_IsData:
  4055                           	callstack 23
  4056   001CA4                     
  4057                           ;mcc_generated_files/i2c_host/src/i2c2.c: 440:     return I2C2STAT0bits.D;
  4058   001CA4  013D               	movlb	61	; () banked
  4059   001CA6  B761               	btfsc	97,3,b	;volatile
  4060   001CA8  EF58  F00E         	goto	i1u15_21
  4061   001CAC  EF5B  F00E         	goto	i1u15_20
  4062   001CB0                     i1u15_21:
  4063   001CB0  0E01               	movlw	1
  4064   001CB2  EF5C  F00E         	goto	i1u15_26
  4065   001CB6                     i1u15_20:
  4066   001CB6  0E00               	movlw	0
  4067   001CB8                     i1u15_26:
  4068   001CB8                     
  4069                           ; BSR set to: 61
  4070   001CB8  0012               	return		;funcret
  4071   001CBA                     __end_of_I2C2_IsData:
  4072                           	callstack 0
  4073                           
  4074 ;; *************** function _I2C2_IsBusTimeOut *****************
  4075 ;; Defined at:
  4076 ;;		line 433 in file "mcc_generated_files/i2c_host/src/i2c2.c"
  4077 ;; Parameters:    Size  Location     Type
  4078 ;;		None
  4079 ;; Auto vars:     Size  Location     Type
  4080 ;;		None
  4081 ;; Return value:  Size  Location     Type
  4082 ;;                  1    wreg      _Bool 
  4083 ;; Registers used:
  4084 ;;		wreg
  4085 ;; Tracked objects:
  4086 ;;		On entry : 0/0
  4087 ;;		On exit  : 0/0
  4088 ;;		Unchanged: 0/0
  4089 ;; Data sizes:     COMRAM   BANK0   BANK1   BANK2   BANK3   BANK4   BANK5   BANK6   BANK7   BANK8   BANK9  BANK10  BANK1
      +1  BANK12  BANK13  BANK14  BANK15
  4090 ;;      Params:         0       0       0       0       0       0       0       0       0       0       0       0       
      +0       0       0       0       0
  4091 ;;      Locals:         0       0       0       0       0       0       0       0       0       0       0       0       
      +0       0       0       0       0
  4092 ;;      Temps:          0       0       0       0       0       0       0       0       0       0       0       0       
      +0       0       0       0       0
  4093 ;;      Totals:         0       0       0       0       0       0       0       0       0       0       0       0       
      +0       0       0       0       0
  4094 ;;Total ram usage:        0 bytes
  4095 ;; Hardware stack levels used: 1
  4096 ;; Hardware stack levels required when called: 3
  4097 ;; This function calls:
  4098 ;;		Nothing
  4099 ;; This function is called by:
  4100 ;;		_I2C2_ERROR_ISR
  4101 ;; This function uses a non-reentrant model
  4102 ;;
  4103                           
  4104                           	psect	text39
  4105   001CBA                     __ptext39:
  4106                           	callstack 0
  4107   001CBA                     _I2C2_IsBusTimeOut:
  4108                           	callstack 23
  4109   001CBA                     
  4110                           ;mcc_generated_files/i2c_host/src/i2c2.c: 435:     return I2C2ERRbits.BTOIF;
  4111   001CBA  013D               	movlb	61	; () banked
  4112   001CBC  BD60               	btfsc	96,6,b	;volatile
  4113   001CBE  EF63  F00E         	goto	i1u16_21
  4114   001CC2  EF66  F00E         	goto	i1u16_20
  4115   001CC6                     i1u16_21:
  4116   001CC6  0E01               	movlw	1
  4117   001CC8  EF67  F00E         	goto	i1u16_26
  4118   001CCC                     i1u16_20:
  4119   001CCC  0E00               	movlw	0
  4120   001CCE                     i1u16_26:
  4121   001CCE                     
  4122                           ; BSR set to: 61
  4123   001CCE  0012               	return		;funcret
  4124   001CD0                     __end_of_I2C2_IsBusTimeOut:
  4125                           	callstack 0
  4126                           
  4127 ;; *************** function _I2C2_IsBusCol *****************
  4128 ;; Defined at:
  4129 ;;		line 428 in file "mcc_generated_files/i2c_host/src/i2c2.c"
  4130 ;; Parameters:    Size  Location     Type
  4131 ;;		None
  4132 ;; Auto vars:     Size  Location     Type
  4133 ;;		None
  4134 ;; Return value:  Size  Location     Type
  4135 ;;                  1    wreg      _Bool 
  4136 ;; Registers used:
  4137 ;;		wreg
  4138 ;; Tracked objects:
  4139 ;;		On entry : 0/0
  4140 ;;		On exit  : 0/0
  4141 ;;		Unchanged: 0/0
  4142 ;; Data sizes:     COMRAM   BANK0   BANK1   BANK2   BANK3   BANK4   BANK5   BANK6   BANK7   BANK8   BANK9  BANK10  BANK1
      +1  BANK12  BANK13  BANK14  BANK15
  4143 ;;      Params:         0       0       0       0       0       0       0       0       0       0       0       0       
      +0       0       0       0       0
  4144 ;;      Locals:         0       0       0       0       0       0       0       0       0       0       0       0       
      +0       0       0       0       0
  4145 ;;      Temps:          0       0       0       0       0       0       0       0       0       0       0       0       
      +0       0       0       0       0
  4146 ;;      Totals:         0       0       0       0       0       0       0       0       0       0       0       0       
      +0       0       0       0       0
  4147 ;;Total ram usage:        0 bytes
  4148 ;; Hardware stack levels used: 1
  4149 ;; Hardware stack levels required when called: 3
  4150 ;; This function calls:
  4151 ;;		Nothing
  4152 ;; This function is called by:
  4153 ;;		_I2C2_ERROR_ISR
  4154 ;; This function uses a non-reentrant model
  4155 ;;
  4156                           
  4157                           	psect	text40
  4158   001CD0                     __ptext40:
  4159                           	callstack 0
  4160   001CD0                     _I2C2_IsBusCol:
  4161                           	callstack 23
  4162   001CD0                     
  4163                           ;mcc_generated_files/i2c_host/src/i2c2.c: 430:     return I2C2ERRbits.BCLIF;
  4164   001CD0  013D               	movlb	61	; () banked
  4165   001CD2  BB60               	btfsc	96,5,b	;volatile
  4166   001CD4  EF6E  F00E         	goto	i1u11_21
  4167   001CD8  EF71  F00E         	goto	i1u11_20
  4168   001CDC                     i1u11_21:
  4169   001CDC  0E01               	movlw	1
  4170   001CDE  EF72  F00E         	goto	i1u11_26
  4171   001CE2                     i1u11_20:
  4172   001CE2  0E00               	movlw	0
  4173   001CE4                     i1u11_26:
  4174   001CE4                     
  4175                           ; BSR set to: 61
  4176   001CE4  0012               	return		;funcret
  4177   001CE6                     __end_of_I2C2_IsBusCol:
  4178                           	callstack 0
  4179                           
  4180 ;; *************** function _I2C2_IsAddr *****************
  4181 ;; Defined at:
  4182 ;;		line 443 in file "mcc_generated_files/i2c_host/src/i2c2.c"
  4183 ;; Parameters:    Size  Location     Type
  4184 ;;		None
  4185 ;; Auto vars:     Size  Location     Type
  4186 ;;		None
  4187 ;; Return value:  Size  Location     Type
  4188 ;;                  1    wreg      _Bool 
  4189 ;; Registers used:
  4190 ;;		wreg
  4191 ;; Tracked objects:
  4192 ;;		On entry : 0/0
  4193 ;;		On exit  : 0/0
  4194 ;;		Unchanged: 0/0
  4195 ;; Data sizes:     COMRAM   BANK0   BANK1   BANK2   BANK3   BANK4   BANK5   BANK6   BANK7   BANK8   BANK9  BANK10  BANK1
      +1  BANK12  BANK13  BANK14  BANK15
  4196 ;;      Params:         0       0       0       0       0       0       0       0       0       0       0       0       
      +0       0       0       0       0
  4197 ;;      Locals:         0       0       0       0       0       0       0       0       0       0       0       0       
      +0       0       0       0       0
  4198 ;;      Temps:          0       0       0       0       0       0       0       0       0       0       0       0       
      +0       0       0       0       0
  4199 ;;      Totals:         0       0       0       0       0       0       0       0       0       0       0       0       
      +0       0       0       0       0
  4200 ;;Total ram usage:        0 bytes
  4201 ;; Hardware stack levels used: 1
  4202 ;; Hardware stack levels required when called: 3
  4203 ;; This function calls:
  4204 ;;		Nothing
  4205 ;; This function is called by:
  4206 ;;		_I2C2_ERROR_ISR
  4207 ;; This function uses a non-reentrant model
  4208 ;;
  4209                           
  4210                           	psect	text41
  4211   001CE6                     __ptext41:
  4212                           	callstack 0
  4213   001CE6                     _I2C2_IsAddr:
  4214                           	callstack 23
  4215   001CE6                     
  4216                           ;mcc_generated_files/i2c_host/src/i2c2.c: 445:     return !I2C2STAT0bits.D;
  4217   001CE6  013D               	movlb	61	; () banked
  4218   001CE8  A761               	btfss	97,3,b	;volatile
  4219   001CEA  EF79  F00E         	goto	i1u12_21
  4220   001CEE  EF7C  F00E         	goto	i1u12_20
  4221   001CF2                     i1u12_21:
  4222   001CF2  0E01               	movlw	1
  4223   001CF4  EF7D  F00E         	goto	i1u13_20
  4224   001CF8                     i1u12_20:
  4225   001CF8  0E00               	movlw	0
  4226   001CFA                     i1u13_20:
  4227   001CFA                     
  4228                           ; BSR set to: 61
  4229   001CFA  0012               	return		;funcret
  4230   001CFC                     __end_of_I2C2_IsAddr:
  4231                           	callstack 0
  4232                           
  4233 ;; *************** function _I2C2_DefaultCallback *****************
  4234 ;; Defined at:
  4235 ;;		line 339 in file "mcc_generated_files/i2c_host/src/i2c2.c"
  4236 ;; Parameters:    Size  Location     Type
  4237 ;;		None
  4238 ;; Auto vars:     Size  Location     Type
  4239 ;;		None
  4240 ;; Return value:  Size  Location     Type
  4241 ;;                  1    wreg      void 
  4242 ;; Registers used:
  4243 ;;		None
  4244 ;; Tracked objects:
  4245 ;;		On entry : 0/0
  4246 ;;		On exit  : 0/0
  4247 ;;		Unchanged: 0/0
  4248 ;; Data sizes:     COMRAM   BANK0   BANK1   BANK2   BANK3   BANK4   BANK5   BANK6   BANK7   BANK8   BANK9  BANK10  BANK1
      +1  BANK12  BANK13  BANK14  BANK15
  4249 ;;      Params:         0       0       0       0       0       0       0       0       0       0       0       0       
      +0       0       0       0       0
  4250 ;;      Locals:         0       0       0       0       0       0       0       0       0       0       0       0       
      +0       0       0       0       0
  4251 ;;      Temps:          0       0       0       0       0       0       0       0       0       0       0       0       
      +0       0       0       0       0
  4252 ;;      Totals:         0       0       0       0       0       0       0       0       0       0       0       0       
      +0       0       0       0       0
  4253 ;;Total ram usage:        0 bytes
  4254 ;; Hardware stack levels used: 1
  4255 ;; Hardware stack levels required when called: 3
  4256 ;; This function calls:
  4257 ;;		Nothing
  4258 ;; This function is called by:
  4259 ;;		_I2C2_Initialize
  4260 ;;		_I2C2_Deinitialize
  4261 ;;		_I2C2_ERROR_ISR
  4262 ;; This function uses a non-reentrant model
  4263 ;;
  4264                           
  4265                           	psect	text42
  4266   001DDC                     __ptext42:
  4267                           	callstack 0
  4268   001DDC                     _I2C2_DefaultCallback:
  4269                           	callstack 23
  4270   001DDC  0012               	return		;funcret
  4271   001DDE                     __end_of_I2C2_DefaultCallback:
  4272                           	callstack 0
  4273                           
  4274 ;; *************** function _I2C2_BusReset *****************
  4275 ;; Defined at:
  4276 ;;		line 377 in file "mcc_generated_files/i2c_host/src/i2c2.c"
  4277 ;; Parameters:    Size  Location     Type
  4278 ;;		None
  4279 ;; Auto vars:     Size  Location     Type
  4280 ;;		None
  4281 ;; Return value:  Size  Location     Type
  4282 ;;                  1    wreg      void 
  4283 ;; Registers used:
  4284 ;;		wreg, status,2, cstack
  4285 ;; Tracked objects:
  4286 ;;		On entry : 0/0
  4287 ;;		On exit  : 0/0
  4288 ;;		Unchanged: 0/0
  4289 ;; Data sizes:     COMRAM   BANK0   BANK1   BANK2   BANK3   BANK4   BANK5   BANK6   BANK7   BANK8   BANK9  BANK10  BANK1
      +1  BANK12  BANK13  BANK14  BANK15
  4290 ;;      Params:         0       0       0       0       0       0       0       0       0       0       0       0       
      +0       0       0       0       0
  4291 ;;      Locals:         0       0       0       0       0       0       0       0       0       0       0       0       
      +0       0       0       0       0
  4292 ;;      Temps:          0       0       0       0       0       0       0       0       0       0       0       0       
      +0       0       0       0       0
  4293 ;;      Totals:         0       0       0       0       0       0       0       0       0       0       0       0       
      +0       0       0       0       0
  4294 ;;Total ram usage:        0 bytes
  4295 ;; Hardware stack levels used: 1
  4296 ;; Hardware stack levels required when called: 4
  4297 ;; This function calls:
  4298 ;;		_I2C2_BufferClear
  4299 ;;		_I2C2_ErrorFlagsClear
  4300 ;;		_I2C2_InterruptsClear
  4301 ;;		_I2C2_InterruptsDisable
  4302 ;;		i1_I2C2_InterruptsEnable
  4303 ;; This function is called by:
  4304 ;;		_I2C2_ERROR_ISR
  4305 ;; This function uses a non-reentrant model
  4306 ;;
  4307                           
  4308                           	psect	text43
  4309   001878                     __ptext43:
  4310                           	callstack 0
  4311   001878                     _I2C2_BusReset:
  4312                           	callstack 22
  4313   001878                     
  4314                           ;mcc_generated_files/i2c_host/src/i2c2.c: 379:     I2C2_InterruptsClear();
  4315   001878  ECDA  F00E         	call	_I2C2_InterruptsClear	;wreg free
  4316   00187C                     
  4317                           ;mcc_generated_files/i2c_host/src/i2c2.c: 380:     I2C2_ErrorFlagsClear();
  4318   00187C  ECCC  F00E         	call	_I2C2_ErrorFlagsClear	;wreg free
  4319   001880                     
  4320                           ;mcc_generated_files/i2c_host/src/i2c2.c: 381:     I2C2_InterruptsDisable();
  4321   001880  EC89  F00E         	call	_I2C2_InterruptsDisable	;wreg free
  4322   001884                     
  4323                           ;mcc_generated_files/i2c_host/src/i2c2.c: 382:     I2C2_BufferClear();
  4324   001884  ECD1  F00E         	call	_I2C2_BufferClear	;wreg free
  4325   001888                     
  4326                           ;mcc_generated_files/i2c_host/src/i2c2.c: 383:     I2C2CON0bits.EN = 0;
  4327   001888  013D               	movlb	61	; () banked
  4328   00188A  9F5D               	bcf	93,7,b	;volatile
  4329   00188C                     
  4330                           ; BSR set to: 61
  4331                           ;mcc_generated_files/i2c_host/src/i2c2.c: 384:     I2C2_InterruptsEnable();
  4332   00188C  EC7E  F00E         	call	i1_I2C2_InterruptsEnable	;wreg free
  4333   001890                     
  4334                           ;mcc_generated_files/i2c_host/src/i2c2.c: 388:     I2C2PIEbits.SCIE = 0;
  4335   001890  013D               	movlb	61	; () banked
  4336   001892  9164               	bcf	100,0,b	;volatile
  4337   001894                     
  4338                           ; BSR set to: 61
  4339                           ;mcc_generated_files/i2c_host/src/i2c2.c: 389:     I2C2PIEbits.PCIE = 0;
  4340   001894  9564               	bcf	100,2,b	;volatile
  4341   001896                     
  4342                           ; BSR set to: 61
  4343                           ;mcc_generated_files/i2c_host/src/i2c2.c: 390:     I2C2CON0bits.EN = 1;
  4344   001896  8F5D               	bsf	93,7,b	;volatile
  4345   001898                     
  4346                           ; BSR set to: 61
  4347                           ;mcc_generated_files/i2c_host/src/i2c2.c: 391:     _delay((unsigned long)((1)*(64000000/
      +                          4000000.0)));
  4348   001898  0E05               	movlw	5
  4349   00189A                     i1u128_27:
  4350   00189A  2EE8               	decfsz	wreg,f,c
  4351   00189C  D7FE               	bra	i1u128_27
  4352   00189E  F000               	nop	
  4353   0018A0                     
  4354                           ;mcc_generated_files/i2c_host/src/i2c2.c: 392:     __nop();
  4355   0018A0  F000               	nop	
  4356   0018A2                     
  4357                           ;mcc_generated_files/i2c_host/src/i2c2.c: 393:     __nop();
  4358   0018A2  F000               	nop	
  4359   0018A4                     
  4360                           ;mcc_generated_files/i2c_host/src/i2c2.c: 394:     __nop();
  4361   0018A4  F000               	nop	
  4362   0018A6                     
  4363                           ;mcc_generated_files/i2c_host/src/i2c2.c: 395:     __nop();
  4364   0018A6  F000               	nop	
  4365   0018A8                     
  4366                           ;mcc_generated_files/i2c_host/src/i2c2.c: 396:     __nop();
  4367   0018A8  F000               	nop	
  4368   0018AA                     
  4369                           ;mcc_generated_files/i2c_host/src/i2c2.c: 397:     __nop();
  4370   0018AA  F000               	nop	
  4371   0018AC                     
  4372                           ;mcc_generated_files/i2c_host/src/i2c2.c: 398:     I2C2PIRbits.SCIF = 0;
  4373   0018AC  013D               	movlb	61	; () banked
  4374   0018AE  9163               	bcf	99,0,b	;volatile
  4375   0018B0                     
  4376                           ; BSR set to: 61
  4377                           ;mcc_generated_files/i2c_host/src/i2c2.c: 399:     I2C2PIRbits.PCIF = 0;
  4378   0018B0  9563               	bcf	99,2,b	;volatile
  4379   0018B2                     
  4380                           ; BSR set to: 61
  4381                           ;mcc_generated_files/i2c_host/src/i2c2.c: 400:     I2C2PIEbits.PCIE = 1;
  4382   0018B2  8564               	bsf	100,2,b	;volatile
  4383   0018B4                     
  4384                           ; BSR set to: 61
  4385   0018B4  0012               	return		;funcret
  4386   0018B6                     __end_of_I2C2_BusReset:
  4387                           	callstack 0
  4388                           
  4389 ;; *************** function i1_I2C2_InterruptsEnable *****************
  4390 ;; Defined at:
  4391 ;;		line 448 in file "mcc_generated_files/i2c_host/src/i2c2.c"
  4392 ;; Parameters:    Size  Location     Type
  4393 ;;		None
  4394 ;; Auto vars:     Size  Location     Type
  4395 ;;		None
  4396 ;; Return value:  Size  Location     Type
  4397 ;;                  1    wreg      void 
  4398 ;; Registers used:
  4399 ;;		None
  4400 ;; Tracked objects:
  4401 ;;		On entry : 0/0
  4402 ;;		On exit  : 0/0
  4403 ;;		Unchanged: 0/0
  4404 ;; Data sizes:     COMRAM   BANK0   BANK1   BANK2   BANK3   BANK4   BANK5   BANK6   BANK7   BANK8   BANK9  BANK10  BANK1
      +1  BANK12  BANK13  BANK14  BANK15
  4405 ;;      Params:         0       0       0       0       0       0       0       0       0       0       0       0       
      +0       0       0       0       0
  4406 ;;      Locals:         0       0       0       0       0       0       0       0       0       0       0       0       
      +0       0       0       0       0
  4407 ;;      Temps:          0       0       0       0       0       0       0       0       0       0       0       0       
      +0       0       0       0       0
  4408 ;;      Totals:         0       0       0       0       0       0       0       0       0       0       0       0       
      +0       0       0       0       0
  4409 ;;Total ram usage:        0 bytes
  4410 ;; Hardware stack levels used: 1
  4411 ;; Hardware stack levels required when called: 3
  4412 ;; This function calls:
  4413 ;;		Nothing
  4414 ;; This function is called by:
  4415 ;;		_I2C2_BusReset
  4416 ;; This function uses a non-reentrant model
  4417 ;;
  4418                           
  4419                           	psect	text44
  4420   001CFC                     __ptext44:
  4421                           	callstack 0
  4422   001CFC                     i1_I2C2_InterruptsEnable:
  4423                           	callstack 22
  4424   001CFC                     
  4425                           ;mcc_generated_files/i2c_host/src/i2c2.c: 450:     PIE6bits.I2C2IE = 1;
  4426   001CFC  0139               	movlb	57	; () banked
  4427   001CFE  8196               	bsf	150,0,b	;volatile
  4428                           
  4429                           ;mcc_generated_files/i2c_host/src/i2c2.c: 451:     PIE6bits.I2C2EIE = 1;
  4430   001D00  8396               	bsf	150,1,b	;volatile
  4431                           
  4432                           ;mcc_generated_files/i2c_host/src/i2c2.c: 452:     PIE5bits.I2C2RXIE = 1;
  4433   001D02  8D95               	bsf	149,6,b	;volatile
  4434                           
  4435                           ;mcc_generated_files/i2c_host/src/i2c2.c: 453:     PIE5bits.I2C2TXIE = 1;
  4436   001D04  8F95               	bsf	149,7,b	;volatile
  4437                           
  4438                           ;mcc_generated_files/i2c_host/src/i2c2.c: 455:     I2C2PIEbits.PCIE = 1;
  4439   001D06  013D               	movlb	61	; () banked
  4440   001D08  8564               	bsf	100,2,b	;volatile
  4441                           
  4442                           ;mcc_generated_files/i2c_host/src/i2c2.c: 456:     I2C2PIEbits.RSCIE = 1;
  4443   001D0A  8364               	bsf	100,1,b	;volatile
  4444                           
  4445                           ;mcc_generated_files/i2c_host/src/i2c2.c: 457:     I2C2PIEbits.CNTIE = 1;
  4446   001D0C  8F64               	bsf	100,7,b	;volatile
  4447                           
  4448                           ;mcc_generated_files/i2c_host/src/i2c2.c: 458:     I2C2ERRbits.NACKIE = 1;
  4449   001D0E  8160               	bsf	96,0,b	;volatile
  4450   001D10                     
  4451                           ; BSR set to: 61
  4452   001D10  0012               	return		;funcret
  4453   001D12                     __end_ofi1_I2C2_InterruptsEnable:
  4454                           	callstack 0
  4455                           
  4456 ;; *************** function _I2C2_InterruptsDisable *****************
  4457 ;; Defined at:
  4458 ;;		line 461 in file "mcc_generated_files/i2c_host/src/i2c2.c"
  4459 ;; Parameters:    Size  Location     Type
  4460 ;;		None
  4461 ;; Auto vars:     Size  Location     Type
  4462 ;;		None
  4463 ;; Return value:  Size  Location     Type
  4464 ;;                  1    wreg      void 
  4465 ;; Registers used:
  4466 ;;		wreg, status,2
  4467 ;; Tracked objects:
  4468 ;;		On entry : 0/0
  4469 ;;		On exit  : 0/0
  4470 ;;		Unchanged: 0/0
  4471 ;; Data sizes:     COMRAM   BANK0   BANK1   BANK2   BANK3   BANK4   BANK5   BANK6   BANK7   BANK8   BANK9  BANK10  BANK1
      +1  BANK12  BANK13  BANK14  BANK15
  4472 ;;      Params:         0       0       0       0       0       0       0       0       0       0       0       0       
      +0       0       0       0       0
  4473 ;;      Locals:         0       0       0       0       0       0       0       0       0       0       0       0       
      +0       0       0       0       0
  4474 ;;      Temps:          0       0       0       0       0       0       0       0       0       0       0       0       
      +0       0       0       0       0
  4475 ;;      Totals:         0       0       0       0       0       0       0       0       0       0       0       0       
      +0       0       0       0       0
  4476 ;;Total ram usage:        0 bytes
  4477 ;; Hardware stack levels used: 1
  4478 ;; Hardware stack levels required when called: 3
  4479 ;; This function calls:
  4480 ;;		Nothing
  4481 ;; This function is called by:
  4482 ;;		_I2C2_BusReset
  4483 ;;		_I2C2_Deinitialize
  4484 ;; This function uses a non-reentrant model
  4485 ;;
  4486                           
  4487                           	psect	text45
  4488   001D12                     __ptext45:
  4489                           	callstack 0
  4490   001D12                     _I2C2_InterruptsDisable:
  4491                           	callstack 22
  4492   001D12                     
  4493                           ;mcc_generated_files/i2c_host/src/i2c2.c: 463:     PIE6bits.I2C2IE = 0;
  4494   001D12  0139               	movlb	57	; () banked
  4495   001D14  9196               	bcf	150,0,b	;volatile
  4496                           
  4497                           ;mcc_generated_files/i2c_host/src/i2c2.c: 464:     PIE6bits.I2C2EIE = 0;
  4498   001D16  9396               	bcf	150,1,b	;volatile
  4499                           
  4500                           ;mcc_generated_files/i2c_host/src/i2c2.c: 465:     PIE5bits.I2C2RXIE = 0;
  4501   001D18  9D95               	bcf	149,6,b	;volatile
  4502                           
  4503                           ;mcc_generated_files/i2c_host/src/i2c2.c: 466:     PIE5bits.I2C2TXIE = 0;
  4504   001D1A  9F95               	bcf	149,7,b	;volatile
  4505   001D1C                     
  4506                           ; BSR set to: 57
  4507                           ;mcc_generated_files/i2c_host/src/i2c2.c: 467:     I2C2PIE = 0x00;
  4508   001D1C  0E00               	movlw	0
  4509   001D1E  013D               	movlb	61	; () banked
  4510   001D20  6F64               	movwf	100,b	;volatile
  4511                           
  4512                           ;mcc_generated_files/i2c_host/src/i2c2.c: 468:     I2C2ERR = 0x00;
  4513   001D22  0E00               	movlw	0
  4514   001D24  6F60               	movwf	96,b	;volatile
  4515   001D26                     
  4516                           ; BSR set to: 61
  4517   001D26  0012               	return		;funcret
  4518   001D28                     __end_of_I2C2_InterruptsDisable:
  4519                           	callstack 0
  4520                           
  4521 ;; *************** function _I2C2_RX_ISR *****************
  4522 ;; Defined at:
  4523 ;;		line 289 in file "mcc_generated_files/i2c_host/src/i2c2.c"
  4524 ;; Parameters:    Size  Location     Type
  4525 ;;		None
  4526 ;; Auto vars:     Size  Location     Type
  4527 ;;		None
  4528 ;; Return value:  Size  Location     Type
  4529 ;;                  1    wreg      void 
  4530 ;; Registers used:
  4531 ;;		wreg, fsr2l, fsr2h, status,2, status,0, cstack
  4532 ;; Tracked objects:
  4533 ;;		On entry : 0/0
  4534 ;;		On exit  : 0/0
  4535 ;;		Unchanged: 0/0
  4536 ;; Data sizes:     COMRAM   BANK0   BANK1   BANK2   BANK3   BANK4   BANK5   BANK6   BANK7   BANK8   BANK9  BANK10  BANK1
      +1  BANK12  BANK13  BANK14  BANK15
  4537 ;;      Params:         0       0       0       0       0       0       0       0       0       0       0       0       
      +0       0       0       0       0
  4538 ;;      Locals:         0       0       0       0       0       0       0       0       0       0       0       0       
      +0       0       0       0       0
  4539 ;;      Temps:          1       0       0       0       0       0       0       0       0       0       0       0       
      +0       0       0       0       0
  4540 ;;      Totals:         1       0       0       0       0       0       0       0       0       0       0       0       
      +0       0       0       0       0
  4541 ;;Total ram usage:        1 bytes
  4542 ;; Hardware stack levels used: 1
  4543 ;; Hardware stack levels required when called: 4
  4544 ;; This function calls:
  4545 ;;		_I2C2_DataReceive
  4546 ;; This function is called by:
  4547 ;;		Interrupt level 1
  4548 ;; This function uses a non-reentrant model
  4549 ;;
  4550                           
  4551                           	psect	text46
  4552   001B68                     __ptext46:
  4553                           	callstack 0
  4554   001B68                     _I2C2_RX_ISR:
  4555                           	callstack 23
  4556                           
  4557                           ; BSR set to: 61
  4558                           ;incstack = 0
  4559   001B68  006F FF60  F045    	movff	status,??_I2C2_RX_ISR
  4560   001B6E                     
  4561                           ;mcc_generated_files/i2c_host/src/i2c2.c: 291:     *i2c2Status.readPtr++ = I2C2_DataRece
      +                          ive();
  4562   001B6E  ECE7  F00E         	call	_I2C2_DataReceive	;wreg free
  4563   001B72  0060  F023  FFD9   	movff	_i2c2Status+7,fsr2l	;volatile
  4564   001B78  0060  F027  FFDA   	movff	_i2c2Status+8,fsr2h	;volatile
  4565   001B7E  6EDF               	movwf	indf2,c
  4566   001B80  4A08               	infsnz	(_i2c2Status+7)^0,f,c	;volatile
  4567   001B82  2A09               	incf	(_i2c2Status+8)^0,f,c	;volatile
  4568   001B84  0060  F117  FFD8   	movff	??_I2C2_RX_ISR,status
  4569   001B8A  0011               	retfie		f
  4570   001B8C                     __end_of_I2C2_RX_ISR:
  4571                           	callstack 0
  4572                           
  4573 ;; *************** function _I2C2_DataReceive *****************
  4574 ;; Defined at:
  4575 ;;		line 362 in file "mcc_generated_files/i2c_host/src/i2c2.c"
  4576 ;; Parameters:    Size  Location     Type
  4577 ;;		None
  4578 ;; Auto vars:     Size  Location     Type
  4579 ;;		None
  4580 ;; Return value:  Size  Location     Type
  4581 ;;                  1    wreg      unsigned char 
  4582 ;; Registers used:
  4583 ;;		wreg, status,2
  4584 ;; Tracked objects:
  4585 ;;		On entry : 0/0
  4586 ;;		On exit  : 0/0
  4587 ;;		Unchanged: 0/0
  4588 ;; Data sizes:     COMRAM   BANK0   BANK1   BANK2   BANK3   BANK4   BANK5   BANK6   BANK7   BANK8   BANK9  BANK10  BANK1
      +1  BANK12  BANK13  BANK14  BANK15
  4589 ;;      Params:         0       0       0       0       0       0       0       0       0       0       0       0       
      +0       0       0       0       0
  4590 ;;      Locals:         0       0       0       0       0       0       0       0       0       0       0       0       
      +0       0       0       0       0
  4591 ;;      Temps:          0       0       0       0       0       0       0       0       0       0       0       0       
      +0       0       0       0       0
  4592 ;;      Totals:         0       0       0       0       0       0       0       0       0       0       0       0       
      +0       0       0       0       0
  4593 ;;Total ram usage:        0 bytes
  4594 ;; Hardware stack levels used: 1
  4595 ;; Hardware stack levels required when called: 3
  4596 ;; This function calls:
  4597 ;;		Nothing
  4598 ;; This function is called by:
  4599 ;;		_I2C2_RX_ISR
  4600 ;; This function uses a non-reentrant model
  4601 ;;
  4602                           
  4603                           	psect	text47
  4604   001DCE                     __ptext47:
  4605                           	callstack 0
  4606   001DCE                     _I2C2_DataReceive:
  4607                           	callstack 23
  4608   001DCE                     
  4609                           ;mcc_generated_files/i2c_host/src/i2c2.c: 364:     return I2C2RXB;
  4610   001DCE  013D               	movlb	61	; () banked
  4611   001DD0  5154               	movf	84,w,b	;volatile
  4612   001DD2                     
  4613                           ; BSR set to: 61
  4614   001DD2  0012               	return		;funcret
  4615   001DD4                     __end_of_I2C2_DataReceive:
  4616                           	callstack 0
  4617                           
  4618 ;; *************** function _I2C2_TX_ISR *****************
  4619 ;; Defined at:
  4620 ;;		line 294 in file "mcc_generated_files/i2c_host/src/i2c2.c"
  4621 ;; Parameters:    Size  Location     Type
  4622 ;;		None
  4623 ;; Auto vars:     Size  Location     Type
  4624 ;;		None
  4625 ;; Return value:  Size  Location     Type
  4626 ;;                  1    wreg      void 
  4627 ;; Registers used:
  4628 ;;		wreg, fsr2l, fsr2h, status,2, status,0, cstack
  4629 ;; Tracked objects:
  4630 ;;		On entry : 0/0
  4631 ;;		On exit  : 0/0
  4632 ;;		Unchanged: 0/0
  4633 ;; Data sizes:     COMRAM   BANK0   BANK1   BANK2   BANK3   BANK4   BANK5   BANK6   BANK7   BANK8   BANK9  BANK10  BANK1
      +1  BANK12  BANK13  BANK14  BANK15
  4634 ;;      Params:         0       0       0       0       0       0       0       0       0       0       0       0       
      +0       0       0       0       0
  4635 ;;      Locals:         0       0       0       0       0       0       0       0       0       0       0       0       
      +0       0       0       0       0
  4636 ;;      Temps:          1       0       0       0       0       0       0       0       0       0       0       0       
      +0       0       0       0       0
  4637 ;;      Totals:         1       0       0       0       0       0       0       0       0       0       0       0       
      +0       0       0       0       0
  4638 ;;Total ram usage:        1 bytes
  4639 ;; Hardware stack levels used: 1
  4640 ;; Hardware stack levels required when called: 4
  4641 ;; This function calls:
  4642 ;;		_I2C2_DataTransmit
  4643 ;; This function is called by:
  4644 ;;		Interrupt level 1
  4645 ;; This function uses a non-reentrant model
  4646 ;;
  4647                           
  4648                           	psect	text48
  4649   001B8C                     __ptext48:
  4650                           	callstack 0
  4651   001B8C                     _I2C2_TX_ISR:
  4652                           	callstack 23
  4653                           
  4654                           ; BSR set to: 61
  4655                           ;incstack = 0
  4656   001B8C  006F FF60  F047    	movff	status,??_I2C2_TX_ISR
  4657   001B92                     
  4658                           ;mcc_generated_files/i2c_host/src/i2c2.c: 296:     I2C2_DataTransmit(*i2c2Status.writePt
      +                          r++);
  4659   001B92  0060  F013  FFD9   	movff	_i2c2Status+3,fsr2l	;volatile
  4660   001B98  0060  F017  FFDA   	movff	_i2c2Status+4,fsr2h	;volatile
  4661   001B9E  4A04               	infsnz	(_i2c2Status+3)^0,f,c	;volatile
  4662   001BA0  2A05               	incf	(_i2c2Status+4)^0,f,c	;volatile
  4663   001BA2  50DF               	movf	indf2,w,c
  4664   001BA4  ECBD  F00E         	call	_I2C2_DataTransmit
  4665   001BA8  0060  F11F  FFD8   	movff	??_I2C2_TX_ISR,status
  4666   001BAE  0011               	retfie		f
  4667   001BB0                     __end_of_I2C2_TX_ISR:
  4668                           	callstack 0
  4669                           
  4670 ;; *************** function _IOC_ISR *****************
  4671 ;; Defined at:
  4672 ;;		line 102 in file "mcc_generated_files/system/src/interrupt.c"
  4673 ;; Parameters:    Size  Location     Type
  4674 ;;		None
  4675 ;; Auto vars:     Size  Location     Type
  4676 ;;		None
  4677 ;; Return value:  Size  Location     Type
  4678 ;;                  1    wreg      void 
  4679 ;; Registers used:
  4680 ;;		cstack
  4681 ;; Tracked objects:
  4682 ;;		On entry : 0/0
  4683 ;;		On exit  : 0/0
  4684 ;;		Unchanged: 0/0
  4685 ;; Data sizes:     COMRAM   BANK0   BANK1   BANK2   BANK3   BANK4   BANK5   BANK6   BANK7   BANK8   BANK9  BANK10  BANK1
      +1  BANK12  BANK13  BANK14  BANK15
  4686 ;;      Params:         0       0       0       0       0       0       0       0       0       0       0       0       
      +0       0       0       0       0
  4687 ;;      Locals:         0       0       0       0       0       0       0       0       0       0       0       0       
      +0       0       0       0       0
  4688 ;;      Temps:          0       0       0       0       0       0       0       0       0       0       0       0       
      +0       0       0       0       0
  4689 ;;      Totals:         0       0       0       0       0       0       0       0       0       0       0       0       
      +0       0       0       0       0
  4690 ;;Total ram usage:        0 bytes
  4691 ;; Hardware stack levels used: 1
  4692 ;; Hardware stack levels required when called: 4
  4693 ;; This function calls:
  4694 ;;		_PIN_MANAGER_IOC
  4695 ;; This function is called by:
  4696 ;;		Interrupt level 1
  4697 ;; This function uses a non-reentrant model
  4698 ;;
  4699                           
  4700                           	psect	text49
  4701   001DD4                     __ptext49:
  4702                           	callstack 0
  4703   001DD4                     _IOC_ISR:
  4704                           	callstack 23
  4705   001DD4                     
  4706                           ;mcc_generated_files/system/src/interrupt.c: 104:     PIN_MANAGER_IOC();
  4707   001DD4  ECEF  F00E         	call	_PIN_MANAGER_IOC	;wreg free
  4708   001DD8  0011               	retfie		f
  4709   001DDA                     __end_of_IOC_ISR:
  4710                           	callstack 0
  4711                           
  4712 ;; *************** function _PIN_MANAGER_IOC *****************
  4713 ;; Defined at:
  4714 ;;		line 144 in file "mcc_generated_files/system/src/pins.c"
  4715 ;; Parameters:    Size  Location     Type
  4716 ;;		None
  4717 ;; Auto vars:     Size  Location     Type
  4718 ;;		None
  4719 ;; Return value:  Size  Location     Type
  4720 ;;                  1    wreg      void 
  4721 ;; Registers used:
  4722 ;;		None
  4723 ;; Tracked objects:
  4724 ;;		On entry : 0/0
  4725 ;;		On exit  : 0/0
  4726 ;;		Unchanged: 0/0
  4727 ;; Data sizes:     COMRAM   BANK0   BANK1   BANK2   BANK3   BANK4   BANK5   BANK6   BANK7   BANK8   BANK9  BANK10  BANK1
      +1  BANK12  BANK13  BANK14  BANK15
  4728 ;;      Params:         0       0       0       0       0       0       0       0       0       0       0       0       
      +0       0       0       0       0
  4729 ;;      Locals:         0       0       0       0       0       0       0       0       0       0       0       0       
      +0       0       0       0       0
  4730 ;;      Temps:          0       0       0       0       0       0       0       0       0       0       0       0       
      +0       0       0       0       0
  4731 ;;      Totals:         0       0       0       0       0       0       0       0       0       0       0       0       
      +0       0       0       0       0
  4732 ;;Total ram usage:        0 bytes
  4733 ;; Hardware stack levels used: 1
  4734 ;; Hardware stack levels required when called: 3
  4735 ;; This function calls:
  4736 ;;		Nothing
  4737 ;; This function is called by:
  4738 ;;		_IOC_ISR
  4739 ;; This function uses a non-reentrant model
  4740 ;;
  4741                           
  4742                           	psect	text50
  4743   001DDE                     __ptext50:
  4744                           	callstack 0
  4745   001DDE                     _PIN_MANAGER_IOC:
  4746                           	callstack 23
  4747   001DDE  0012               	return		;funcret
  4748   001DE0                     __end_of_PIN_MANAGER_IOC:
  4749                           	callstack 0
  4750                           
  4751 ;; *************** function _INT0_ISR *****************
  4752 ;; Defined at:
  4753 ;;		line 115 in file "mcc_generated_files/system/src/interrupt.c"
  4754 ;; Parameters:    Size  Location     Type
  4755 ;;		None
  4756 ;; Auto vars:     Size  Location     Type
  4757 ;;		None
  4758 ;; Return value:  Size  Location     Type
  4759 ;;                  1    wreg      void 
  4760 ;; Registers used:
  4761 ;;		wreg, status,2, status,0, pcl, pclath, pclatu, tosl, cstack
  4762 ;; Tracked objects:
  4763 ;;		On entry : 0/0
  4764 ;;		On exit  : 0/0
  4765 ;;		Unchanged: 0/0
  4766 ;; Data sizes:     COMRAM   BANK0   BANK1   BANK2   BANK3   BANK4   BANK5   BANK6   BANK7   BANK8   BANK9  BANK10  BANK1
      +1  BANK12  BANK13  BANK14  BANK15
  4767 ;;      Params:         0       0       0       0       0       0       0       0       0       0       0       0       
      +0       0       0       0       0
  4768 ;;      Locals:         0       0       0       0       0       0       0       0       0       0       0       0       
      +0       0       0       0       0
  4769 ;;      Temps:          0       3       0       0       0       0       0       0       0       0       0       0       
      +0       0       0       0       0
  4770 ;;      Totals:         0       3       0       0       0       0       0       0       0       0       0       0       
      +0       0       0       0       0
  4771 ;;Total ram usage:        3 bytes
  4772 ;; Hardware stack levels used: 1
  4773 ;; Hardware stack levels required when called: 5
  4774 ;; This function calls:
  4775 ;;		_INT0_CallBack
  4776 ;; This function is called by:
  4777 ;;		Interrupt level 1
  4778 ;; This function uses a non-reentrant model
  4779 ;;
  4780                           
  4781                           	psect	text51
  4782   001988                     __ptext51:
  4783                           	callstack 0
  4784   001988                     _INT0_ISR:
  4785                           	callstack 22
  4786                           
  4787                           ;incstack = 0
  4788   001988  006F FF60  F08D    	movff	status,??_INT0_ISR
  4789   00198E  006F FFE8  F08E    	movff	pclath,??_INT0_ISR+1
  4790   001994  006F FFEC  F08F    	movff	pclatu,??_INT0_ISR+2
  4791   00199A                     
  4792                           ;mcc_generated_files/system/src/interrupt.c: 117:     (PIR1bits.INT0IF = 0);
  4793   00199A  0139               	movlb	57	; () banked
  4794   00199C  91A1               	bcf	161,0,b	;volatile
  4795   00199E                     
  4796                           ; BSR set to: 57
  4797                           ;mcc_generated_files/system/src/interrupt.c: 120:     INT0_CallBack();
  4798   00199E  EC21  F00D         	call	_INT0_CallBack	;wreg free
  4799   0019A2  0060  F23F  FFFB   	movff	??_INT0_ISR+2,pclatu
  4800   0019A8  0060  F23B  FFFA   	movff	??_INT0_ISR+1,pclath
  4801   0019AE  0060  F237  FFD8   	movff	??_INT0_ISR,status
  4802   0019B4  0011               	retfie		f
  4803   0019B6                     __end_of_INT0_ISR:
  4804                           	callstack 0
  4805                           
  4806 ;; *************** function _INT0_CallBack *****************
  4807 ;; Defined at:
  4808 ;;		line 124 in file "mcc_generated_files/system/src/interrupt.c"
  4809 ;; Parameters:    Size  Location     Type
  4810 ;;		None
  4811 ;; Auto vars:     Size  Location     Type
  4812 ;;		None
  4813 ;; Return value:  Size  Location     Type
  4814 ;;                  1    wreg      void 
  4815 ;; Registers used:
  4816 ;;		wreg, status,2, status,0, pcl, pclath, pclatu, tosl, cstack
  4817 ;; Tracked objects:
  4818 ;;		On entry : 0/0
  4819 ;;		On exit  : 0/0
  4820 ;;		Unchanged: 0/0
  4821 ;; Data sizes:     COMRAM   BANK0   BANK1   BANK2   BANK3   BANK4   BANK5   BANK6   BANK7   BANK8   BANK9  BANK10  BANK1
      +1  BANK12  BANK13  BANK14  BANK15
  4822 ;;      Params:         0       0       0       0       0       0       0       0       0       0       0       0       
      +0       0       0       0       0
  4823 ;;      Locals:         0       0       0       0       0       0       0       0       0       0       0       0       
      +0       0       0       0       0
  4824 ;;      Temps:          0       0       0       0       0       0       0       0       0       0       0       0       
      +0       0       0       0       0
  4825 ;;      Totals:         0       0       0       0       0       0       0       0       0       0       0       0       
      +0       0       0       0       0
  4826 ;;Total ram usage:        0 bytes
  4827 ;; Hardware stack levels used: 1
  4828 ;; Hardware stack levels required when called: 4
  4829 ;; This function calls:
  4830 ;;		Absolute function
  4831 ;;		_INT0_DefaultInterruptHandler
  4832 ;; This function is called by:
  4833 ;;		_INT0_ISR
  4834 ;; This function uses a non-reentrant model
  4835 ;;
  4836                           
  4837                           	psect	text52
  4838   001A42                     __ptext52:
  4839                           	callstack 0
  4840   001A42                     _INT0_CallBack:
  4841                           	callstack 22
  4842   001A42                     
  4843                           ;mcc_generated_files/system/src/interrupt.c: 127:     if(INT0_InterruptHandler)
  4844   001A42  5022               	movf	_INT0_InterruptHandler^0,w,c
  4845   001A44  1023               	iorwf	(_INT0_InterruptHandler+1)^0,w,c
  4846   001A46  B4D8               	btfsc	status,2,c
  4847   001A48  EF28  F00D         	goto	i1u112_21
  4848   001A4C  EF2A  F00D         	goto	i1u112_20
  4849   001A50                     i1u112_21:
  4850   001A50  EF36  F00D         	goto	i1l877
  4851   001A54                     i1u112_20:
  4852   001A54                     
  4853                           ;mcc_generated_files/system/src/interrupt.c: 128:     {;mcc_generated_files/system/src/i
      +                          nterrupt.c: 129:         INT0_InterruptHandler();
  4854   001A54  D802               	call	i1u113_28
  4855   001A56  EF36  F00D         	goto	i1u113_29
  4856   001A5A                     i1u113_28:
  4857   001A5A  0005               	push	
  4858   001A5C  6EFA               	movwf	pclath,c
  4859   001A5E  5022               	movf	_INT0_InterruptHandler^0,w,c
  4860   001A60  6EFD               	movwf	tosl,c
  4861   001A62  5023               	movf	(_INT0_InterruptHandler+1)^0,w,c
  4862   001A64  6EFE               	movwf	tosh,c
  4863   001A66  6AFF               	clrf	tosu,c
  4864   001A68  50FA               	movf	pclath,w,c
  4865   001A6A  0012               	return		;indir
  4866   001A6C                     i1u113_29:
  4867   001A6C                     i1l877:
  4868   001A6C  0012               	return		;funcret
  4869   001A6E                     __end_of_INT0_CallBack:
  4870                           	callstack 0
  4871                           
  4872 ;; *************** function _INT0_DefaultInterruptHandler *****************
  4873 ;; Defined at:
  4874 ;;		line 137 in file "mcc_generated_files/system/src/interrupt.c"
  4875 ;; Parameters:    Size  Location     Type
  4876 ;;		None
  4877 ;; Auto vars:     Size  Location     Type
  4878 ;;		None
  4879 ;; Return value:  Size  Location     Type
  4880 ;;                  1    wreg      void 
  4881 ;; Registers used:
  4882 ;;		None
  4883 ;; Tracked objects:
  4884 ;;		On entry : 0/0
  4885 ;;		On exit  : 0/0
  4886 ;;		Unchanged: 0/0
  4887 ;; Data sizes:     COMRAM   BANK0   BANK1   BANK2   BANK3   BANK4   BANK5   BANK6   BANK7   BANK8   BANK9  BANK10  BANK1
      +1  BANK12  BANK13  BANK14  BANK15
  4888 ;;      Params:         0       0       0       0       0       0       0       0       0       0       0       0       
      +0       0       0       0       0
  4889 ;;      Locals:         0       0       0       0       0       0       0       0       0       0       0       0       
      +0       0       0       0       0
  4890 ;;      Temps:          0       0       0       0       0       0       0       0       0       0       0       0       
      +0       0       0       0       0
  4891 ;;      Totals:         0       0       0       0       0       0       0       0       0       0       0       0       
      +0       0       0       0       0
  4892 ;;Total ram usage:        0 bytes
  4893 ;; Hardware stack levels used: 1
  4894 ;; Hardware stack levels required when called: 3
  4895 ;; This function calls:
  4896 ;;		Nothing
  4897 ;; This function is called by:
  4898 ;;		_INTERRUPT_Initialize
  4899 ;;		_INT0_CallBack
  4900 ;; This function uses a non-reentrant model
  4901 ;;
  4902                           
  4903                           	psect	text53
  4904   001DE0                     __ptext53:
  4905                           	callstack 0
  4906   001DE0                     _INT0_DefaultInterruptHandler:
  4907                           	callstack 22
  4908   001DE0  0012               	return		;funcret
  4909   001DE2                     __end_of_INT0_DefaultInterruptHandler:
  4910                           	callstack 0
  4911                           
  4912 ;; *************** function _INT1_ISR *****************
  4913 ;; Defined at:
  4914 ;;		line 149 in file "mcc_generated_files/system/src/interrupt.c"
  4915 ;; Parameters:    Size  Location     Type
  4916 ;;		None
  4917 ;; Auto vars:     Size  Location     Type
  4918 ;;		None
  4919 ;; Return value:  Size  Location     Type
  4920 ;;                  1    wreg      void 
  4921 ;; Registers used:
  4922 ;;		wreg, status,2, status,0, pcl, pclath, pclatu, tosl, cstack
  4923 ;; Tracked objects:
  4924 ;;		On entry : 0/0
  4925 ;;		On exit  : 0/0
  4926 ;;		Unchanged: 0/0
  4927 ;; Data sizes:     COMRAM   BANK0   BANK1   BANK2   BANK3   BANK4   BANK5   BANK6   BANK7   BANK8   BANK9  BANK10  BANK1
      +1  BANK12  BANK13  BANK14  BANK15
  4928 ;;      Params:         0       0       0       0       0       0       0       0       0       0       0       0       
      +0       0       0       0       0
  4929 ;;      Locals:         0       0       0       0       0       0       0       0       0       0       0       0       
      +0       0       0       0       0
  4930 ;;      Temps:          0       3       0       0       0       0       0       0       0       0       0       0       
      +0       0       0       0       0
  4931 ;;      Totals:         0       3       0       0       0       0       0       0       0       0       0       0       
      +0       0       0       0       0
  4932 ;;Total ram usage:        3 bytes
  4933 ;; Hardware stack levels used: 1
  4934 ;; Hardware stack levels required when called: 5
  4935 ;; This function calls:
  4936 ;;		_INT1_CallBack
  4937 ;; This function is called by:
  4938 ;;		Interrupt level 1
  4939 ;; This function uses a non-reentrant model
  4940 ;;
  4941                           
  4942                           	psect	text54
  4943   0019B8                     __ptext54:
  4944                           	callstack 0
  4945   0019B8                     _INT1_ISR:
  4946                           	callstack 22
  4947                           
  4948                           ;incstack = 0
  4949   0019B8  006F FF60  F090    	movff	status,??_INT1_ISR
  4950   0019BE  006F FFE8  F091    	movff	pclath,??_INT1_ISR+1
  4951   0019C4  006F FFEC  F092    	movff	pclatu,??_INT1_ISR+2
  4952   0019CA                     
  4953                           ;mcc_generated_files/system/src/interrupt.c: 151:     (PIR5bits.INT1IF = 0);
  4954   0019CA  0139               	movlb	57	; () banked
  4955   0019CC  91A5               	bcf	165,0,b	;volatile
  4956   0019CE                     
  4957                           ; BSR set to: 57
  4958                           ;mcc_generated_files/system/src/interrupt.c: 154:     INT1_CallBack();
  4959   0019CE  EC37  F00D         	call	_INT1_CallBack	;wreg free
  4960   0019D2  0060  F24B  FFFB   	movff	??_INT1_ISR+2,pclatu
  4961   0019D8  0060  F247  FFFA   	movff	??_INT1_ISR+1,pclath
  4962   0019DE  0060  F243  FFD8   	movff	??_INT1_ISR,status
  4963   0019E4  0011               	retfie		f
  4964   0019E6                     __end_of_INT1_ISR:
  4965                           	callstack 0
  4966                           
  4967 ;; *************** function _INT1_CallBack *****************
  4968 ;; Defined at:
  4969 ;;		line 158 in file "mcc_generated_files/system/src/interrupt.c"
  4970 ;; Parameters:    Size  Location     Type
  4971 ;;		None
  4972 ;; Auto vars:     Size  Location     Type
  4973 ;;		None
  4974 ;; Return value:  Size  Location     Type
  4975 ;;                  1    wreg      void 
  4976 ;; Registers used:
  4977 ;;		wreg, status,2, status,0, pcl, pclath, pclatu, tosl, cstack
  4978 ;; Tracked objects:
  4979 ;;		On entry : 0/0
  4980 ;;		On exit  : 0/0
  4981 ;;		Unchanged: 0/0
  4982 ;; Data sizes:     COMRAM   BANK0   BANK1   BANK2   BANK3   BANK4   BANK5   BANK6   BANK7   BANK8   BANK9  BANK10  BANK1
      +1  BANK12  BANK13  BANK14  BANK15
  4983 ;;      Params:         0       0       0       0       0       0       0       0       0       0       0       0       
      +0       0       0       0       0
  4984 ;;      Locals:         0       0       0       0       0       0       0       0       0       0       0       0       
      +0       0       0       0       0
  4985 ;;      Temps:          0       0       0       0       0       0       0       0       0       0       0       0       
      +0       0       0       0       0
  4986 ;;      Totals:         0       0       0       0       0       0       0       0       0       0       0       0       
      +0       0       0       0       0
  4987 ;;Total ram usage:        0 bytes
  4988 ;; Hardware stack levels used: 1
  4989 ;; Hardware stack levels required when called: 4
  4990 ;; This function calls:
  4991 ;;		Absolute function
  4992 ;;		_INT1_DefaultInterruptHandler
  4993 ;; This function is called by:
  4994 ;;		_INT1_ISR
  4995 ;; This function uses a non-reentrant model
  4996 ;;
  4997                           
  4998                           	psect	text55
  4999   001A6E                     __ptext55:
  5000                           	callstack 0
  5001   001A6E                     _INT1_CallBack:
  5002                           	callstack 22
  5003   001A6E                     
  5004                           ;mcc_generated_files/system/src/interrupt.c: 161:     if(INT1_InterruptHandler)
  5005   001A6E  5020               	movf	_INT1_InterruptHandler^0,w,c
  5006   001A70  1021               	iorwf	(_INT1_InterruptHandler+1)^0,w,c
  5007   001A72  B4D8               	btfsc	status,2,c
  5008   001A74  EF3E  F00D         	goto	i1u114_21
  5009   001A78  EF40  F00D         	goto	i1u114_20
  5010   001A7C                     i1u114_21:
  5011   001A7C  EF4C  F00D         	goto	i1l892
  5012   001A80                     i1u114_20:
  5013   001A80                     
  5014                           ;mcc_generated_files/system/src/interrupt.c: 162:     {;mcc_generated_files/system/src/i
      +                          nterrupt.c: 163:         INT1_InterruptHandler();
  5015   001A80  D802               	call	i1u115_28
  5016   001A82  EF4C  F00D         	goto	i1u115_29
  5017   001A86                     i1u115_28:
  5018   001A86  0005               	push	
  5019   001A88  6EFA               	movwf	pclath,c
  5020   001A8A  5020               	movf	_INT1_InterruptHandler^0,w,c
  5021   001A8C  6EFD               	movwf	tosl,c
  5022   001A8E  5021               	movf	(_INT1_InterruptHandler+1)^0,w,c
  5023   001A90  6EFE               	movwf	tosh,c
  5024   001A92  6AFF               	clrf	tosu,c
  5025   001A94  50FA               	movf	pclath,w,c
  5026   001A96  0012               	return		;indir
  5027   001A98                     i1u115_29:
  5028   001A98                     i1l892:
  5029   001A98  0012               	return		;funcret
  5030   001A9A                     __end_of_INT1_CallBack:
  5031                           	callstack 0
  5032                           
  5033 ;; *************** function _INT1_DefaultInterruptHandler *****************
  5034 ;; Defined at:
  5035 ;;		line 171 in file "mcc_generated_files/system/src/interrupt.c"
  5036 ;; Parameters:    Size  Location     Type
  5037 ;;		None
  5038 ;; Auto vars:     Size  Location     Type
  5039 ;;		None
  5040 ;; Return value:  Size  Location     Type
  5041 ;;                  1    wreg      void 
  5042 ;; Registers used:
  5043 ;;		None
  5044 ;; Tracked objects:
  5045 ;;		On entry : 0/0
  5046 ;;		On exit  : 0/0
  5047 ;;		Unchanged: 0/0
  5048 ;; Data sizes:     COMRAM   BANK0   BANK1   BANK2   BANK3   BANK4   BANK5   BANK6   BANK7   BANK8   BANK9  BANK10  BANK1
      +1  BANK12  BANK13  BANK14  BANK15
  5049 ;;      Params:         0       0       0       0       0       0       0       0       0       0       0       0       
      +0       0       0       0       0
  5050 ;;      Locals:         0       0       0       0       0       0       0       0       0       0       0       0       
      +0       0       0       0       0
  5051 ;;      Temps:          0       0       0       0       0       0       0       0       0       0       0       0       
      +0       0       0       0       0
  5052 ;;      Totals:         0       0       0       0       0       0       0       0       0       0       0       0       
      +0       0       0       0       0
  5053 ;;Total ram usage:        0 bytes
  5054 ;; Hardware stack levels used: 1
  5055 ;; Hardware stack levels required when called: 3
  5056 ;; This function calls:
  5057 ;;		Nothing
  5058 ;; This function is called by:
  5059 ;;		_INTERRUPT_Initialize
  5060 ;;		_INT1_CallBack
  5061 ;; This function uses a non-reentrant model
  5062 ;;
  5063                           
  5064                           	psect	text56
  5065   001DE2                     __ptext56:
  5066                           	callstack 0
  5067   001DE2                     _INT1_DefaultInterruptHandler:
  5068                           	callstack 22
  5069   001DE2  0012               	return		;funcret
  5070   001DE4                     __end_of_INT1_DefaultInterruptHandler:
  5071                           	callstack 0
  5072                           
  5073 ;; *************** function _INT2_ISR *****************
  5074 ;; Defined at:
  5075 ;;		line 183 in file "mcc_generated_files/system/src/interrupt.c"
  5076 ;; Parameters:    Size  Location     Type
  5077 ;;		None
  5078 ;; Auto vars:     Size  Location     Type
  5079 ;;		None
  5080 ;; Return value:  Size  Location     Type
  5081 ;;                  1    wreg      void 
  5082 ;; Registers used:
  5083 ;;		wreg, status,2, status,0, pcl, pclath, pclatu, tosl, cstack
  5084 ;; Tracked objects:
  5085 ;;		On entry : 0/0
  5086 ;;		On exit  : 0/0
  5087 ;;		Unchanged: 0/0
  5088 ;; Data sizes:     COMRAM   BANK0   BANK1   BANK2   BANK3   BANK4   BANK5   BANK6   BANK7   BANK8   BANK9  BANK10  BANK1
      +1  BANK12  BANK13  BANK14  BANK15
  5089 ;;      Params:         0       0       0       0       0       0       0       0       0       0       0       0       
      +0       0       0       0       0
  5090 ;;      Locals:         0       0       0       0       0       0       0       0       0       0       0       0       
      +0       0       0       0       0
  5091 ;;      Temps:          0       3       0       0       0       0       0       0       0       0       0       0       
      +0       0       0       0       0
  5092 ;;      Totals:         0       3       0       0       0       0       0       0       0       0       0       0       
      +0       0       0       0       0
  5093 ;;Total ram usage:        3 bytes
  5094 ;; Hardware stack levels used: 1
  5095 ;; Hardware stack levels required when called: 5
  5096 ;; This function calls:
  5097 ;;		_INT2_CallBack
  5098 ;; This function is called by:
  5099 ;;		Interrupt level 1
  5100 ;; This function uses a non-reentrant model
  5101 ;;
  5102                           
  5103                           	psect	text57
  5104   0019E8                     __ptext57:
  5105                           	callstack 0
  5106   0019E8                     _INT2_ISR:
  5107                           	callstack 22
  5108                           
  5109                           ;incstack = 0
  5110   0019E8  006F FF60  F093    	movff	status,??_INT2_ISR
  5111   0019EE  006F FFE8  F094    	movff	pclath,??_INT2_ISR+1
  5112   0019F4  006F FFEC  F095    	movff	pclatu,??_INT2_ISR+2
  5113   0019FA                     
  5114                           ;mcc_generated_files/system/src/interrupt.c: 185:     (PIR7bits.INT2IF = 0);
  5115   0019FA  0139               	movlb	57	; () banked
  5116   0019FC  9BA7               	bcf	167,5,b	;volatile
  5117   0019FE                     
  5118                           ; BSR set to: 57
  5119                           ;mcc_generated_files/system/src/interrupt.c: 188:     INT2_CallBack();
  5120   0019FE  EC4D  F00D         	call	_INT2_CallBack	;wreg free
  5121   001A02  0060  F257  FFFB   	movff	??_INT2_ISR+2,pclatu
  5122   001A08  0060  F253  FFFA   	movff	??_INT2_ISR+1,pclath
  5123   001A0E  0060  F24F  FFD8   	movff	??_INT2_ISR,status
  5124   001A14  0011               	retfie		f
  5125   001A16                     __end_of_INT2_ISR:
  5126                           	callstack 0
  5127                           
  5128 ;; *************** function _INT2_CallBack *****************
  5129 ;; Defined at:
  5130 ;;		line 192 in file "mcc_generated_files/system/src/interrupt.c"
  5131 ;; Parameters:    Size  Location     Type
  5132 ;;		None
  5133 ;; Auto vars:     Size  Location     Type
  5134 ;;		None
  5135 ;; Return value:  Size  Location     Type
  5136 ;;                  1    wreg      void 
  5137 ;; Registers used:
  5138 ;;		wreg, status,2, status,0, pcl, pclath, pclatu, tosl, cstack
  5139 ;; Tracked objects:
  5140 ;;		On entry : 0/0
  5141 ;;		On exit  : 0/0
  5142 ;;		Unchanged: 0/0
  5143 ;; Data sizes:     COMRAM   BANK0   BANK1   BANK2   BANK3   BANK4   BANK5   BANK6   BANK7   BANK8   BANK9  BANK10  BANK1
      +1  BANK12  BANK13  BANK14  BANK15
  5144 ;;      Params:         0       0       0       0       0       0       0       0       0       0       0       0       
      +0       0       0       0       0
  5145 ;;      Locals:         0       0       0       0       0       0       0       0       0       0       0       0       
      +0       0       0       0       0
  5146 ;;      Temps:          0       0       0       0       0       0       0       0       0       0       0       0       
      +0       0       0       0       0
  5147 ;;      Totals:         0       0       0       0       0       0       0       0       0       0       0       0       
      +0       0       0       0       0
  5148 ;;Total ram usage:        0 bytes
  5149 ;; Hardware stack levels used: 1
  5150 ;; Hardware stack levels required when called: 4
  5151 ;; This function calls:
  5152 ;;		Absolute function
  5153 ;;		_INT2_DefaultInterruptHandler
  5154 ;; This function is called by:
  5155 ;;		_INT2_ISR
  5156 ;; This function uses a non-reentrant model
  5157 ;;
  5158                           
  5159                           	psect	text58
  5160   001A9A                     __ptext58:
  5161                           	callstack 0
  5162   001A9A                     _INT2_CallBack:
  5163                           	callstack 22
  5164   001A9A                     
  5165                           ;mcc_generated_files/system/src/interrupt.c: 195:     if(INT2_InterruptHandler)
  5166   001A9A  501E               	movf	_INT2_InterruptHandler^0,w,c
  5167   001A9C  101F               	iorwf	(_INT2_InterruptHandler+1)^0,w,c
  5168   001A9E  B4D8               	btfsc	status,2,c
  5169   001AA0  EF54  F00D         	goto	i1u116_21
  5170   001AA4  EF56  F00D         	goto	i1u116_20
  5171   001AA8                     i1u116_21:
  5172   001AA8  EF62  F00D         	goto	i1l907
  5173   001AAC                     i1u116_20:
  5174   001AAC                     
  5175                           ;mcc_generated_files/system/src/interrupt.c: 196:     {;mcc_generated_files/system/src/i
      +                          nterrupt.c: 197:         INT2_InterruptHandler();
  5176   001AAC  D802               	call	i1u117_28
  5177   001AAE  EF62  F00D         	goto	i1u117_29
  5178   001AB2                     i1u117_28:
  5179   001AB2  0005               	push	
  5180   001AB4  6EFA               	movwf	pclath,c
  5181   001AB6  501E               	movf	_INT2_InterruptHandler^0,w,c
  5182   001AB8  6EFD               	movwf	tosl,c
  5183   001ABA  501F               	movf	(_INT2_InterruptHandler+1)^0,w,c
  5184   001ABC  6EFE               	movwf	tosh,c
  5185   001ABE  6AFF               	clrf	tosu,c
  5186   001AC0  50FA               	movf	pclath,w,c
  5187   001AC2  0012               	return		;indir
  5188   001AC4                     i1u117_29:
  5189   001AC4                     i1l907:
  5190   001AC4  0012               	return		;funcret
  5191   001AC6                     __end_of_INT2_CallBack:
  5192                           	callstack 0
  5193                           
  5194 ;; *************** function _INT2_DefaultInterruptHandler *****************
  5195 ;; Defined at:
  5196 ;;		line 205 in file "mcc_generated_files/system/src/interrupt.c"
  5197 ;; Parameters:    Size  Location     Type
  5198 ;;		None
  5199 ;; Auto vars:     Size  Location     Type
  5200 ;;		None
  5201 ;; Return value:  Size  Location     Type
  5202 ;;                  1    wreg      void 
  5203 ;; Registers used:
  5204 ;;		None
  5205 ;; Tracked objects:
  5206 ;;		On entry : 0/0
  5207 ;;		On exit  : 0/0
  5208 ;;		Unchanged: 0/0
  5209 ;; Data sizes:     COMRAM   BANK0   BANK1   BANK2   BANK3   BANK4   BANK5   BANK6   BANK7   BANK8   BANK9  BANK10  BANK1
      +1  BANK12  BANK13  BANK14  BANK15
  5210 ;;      Params:         0       0       0       0       0       0       0       0       0       0       0       0       
      +0       0       0       0       0
  5211 ;;      Locals:         0       0       0       0       0       0       0       0       0       0       0       0       
      +0       0       0       0       0
  5212 ;;      Temps:          0       0       0       0       0       0       0       0       0       0       0       0       
      +0       0       0       0       0
  5213 ;;      Totals:         0       0       0       0       0       0       0       0       0       0       0       0       
      +0       0       0       0       0
  5214 ;;Total ram usage:        0 bytes
  5215 ;; Hardware stack levels used: 1
  5216 ;; Hardware stack levels required when called: 3
  5217 ;; This function calls:
  5218 ;;		Nothing
  5219 ;; This function is called by:
  5220 ;;		_INTERRUPT_Initialize
  5221 ;;		_INT2_CallBack
  5222 ;; This function uses a non-reentrant model
  5223 ;;
  5224                           
  5225                           	psect	text59
  5226   001DE4                     __ptext59:
  5227                           	callstack 0
  5228   001DE4                     _INT2_DefaultInterruptHandler:
  5229                           	callstack 22
  5230   001DE4  0012               	return		;funcret
  5231   001DE6                     __end_of_INT2_DefaultInterruptHandler:
  5232                           	callstack 0
  5233                           
  5234 ;; *************** function _UART1_Transmit_Vector_ISR *****************
  5235 ;; Defined at:
  5236 ;;		line 409 in file "mcc_generated_files/uart/src/uart1.c"
  5237 ;; Parameters:    Size  Location     Type
  5238 ;;		None
  5239 ;; Auto vars:     Size  Location     Type
  5240 ;;		None
  5241 ;; Return value:  Size  Location     Type
  5242 ;;                  1    wreg      void 
  5243 ;; Registers used:
  5244 ;;		wreg, fsr2l, fsr2h, status,2, status,0, cstack
  5245 ;; Tracked objects:
  5246 ;;		On entry : 0/0
  5247 ;;		On exit  : 0/0
  5248 ;;		Unchanged: 0/0
  5249 ;; Data sizes:     COMRAM   BANK0   BANK1   BANK2   BANK3   BANK4   BANK5   BANK6   BANK7   BANK8   BANK9  BANK10  BANK1
      +1  BANK12  BANK13  BANK14  BANK15
  5250 ;;      Params:         0       0       0       0       0       0       0       0       0       0       0       0       
      +0       0       0       0       0
  5251 ;;      Locals:         0       0       0       0       0       0       0       0       0       0       0       0       
      +0       0       0       0       0
  5252 ;;      Temps:          0       1       0       0       0       0       0       0       0       0       0       0       
      +0       0       0       0       0
  5253 ;;      Totals:         0       1       0       0       0       0       0       0       0       0       0       0       
      +0       0       0       0       0
  5254 ;;Total ram usage:        1 bytes
  5255 ;; Hardware stack levels used: 1
  5256 ;; Hardware stack levels required when called: 4
  5257 ;; This function calls:
  5258 ;;		_UART1_TransmitISR
  5259 ;; This function is called by:
  5260 ;;		Interrupt level 1
  5261 ;; This function uses a non-reentrant model
  5262 ;;
  5263                           
  5264                           	psect	text60
  5265   001D28                     __ptext60:
  5266                           	callstack 0
  5267   001D28                     _UART1_Transmit_Vector_ISR:
  5268                           	callstack 23
  5269                           
  5270                           ;incstack = 0
  5271   001D28  006F FF60  F097    	movff	status,??_UART1_Transmit_Vector_ISR
  5272   001D2E                     
  5273                           ;mcc_generated_files/uart/src/uart1.c: 412:     UART1_TransmitISR();
  5274   001D2E  EC5B  F00C         	call	_UART1_TransmitISR	;wreg free
  5275   001D32  0060  F25F  FFD8   	movff	??_UART1_Transmit_Vector_ISR,status
  5276   001D38  0011               	retfie		f
  5277   001D3A                     __end_of_UART1_Transmit_Vector_ISR:
  5278                           	callstack 0
  5279                           
  5280 ;; *************** function _UART1_TransmitISR *****************
  5281 ;; Defined at:
  5282 ;;		line 415 in file "mcc_generated_files/uart/src/uart1.c"
  5283 ;; Parameters:    Size  Location     Type
  5284 ;;		None
  5285 ;; Auto vars:     Size  Location     Type
  5286 ;;  tempTxTail      1   16[BANK0 ] unsigned char 
  5287 ;; Return value:  Size  Location     Type
  5288 ;;                  1    wreg      void 
  5289 ;; Registers used:
  5290 ;;		wreg, fsr2l, fsr2h, status,2, status,0
  5291 ;; Tracked objects:
  5292 ;;		On entry : 0/0
  5293 ;;		On exit  : 0/0
  5294 ;;		Unchanged: 0/0
  5295 ;; Data sizes:     COMRAM   BANK0   BANK1   BANK2   BANK3   BANK4   BANK5   BANK6   BANK7   BANK8   BANK9  BANK10  BANK1
      +1  BANK12  BANK13  BANK14  BANK15
  5296 ;;      Params:         0       0       0       0       0       0       0       0       0       0       0       0       
      +0       0       0       0       0
  5297 ;;      Locals:         0       1       0       0       0       0       0       0       0       0       0       0       
      +0       0       0       0       0
  5298 ;;      Temps:          0       0       0       0       0       0       0       0       0       0       0       0       
      +0       0       0       0       0
  5299 ;;      Totals:         0       1       0       0       0       0       0       0       0       0       0       0       
      +0       0       0       0       0
  5300 ;;Total ram usage:        1 bytes
  5301 ;; Hardware stack levels used: 1
  5302 ;; Hardware stack levels required when called: 3
  5303 ;; This function calls:
  5304 ;;		Nothing
  5305 ;; This function is called by:
  5306 ;;		_UART1_Initialize
  5307 ;;		_UART1_Transmit_Vector_ISR
  5308 ;; This function uses a non-reentrant model
  5309 ;;
  5310                           
  5311                           	psect	text61
  5312   0018B6                     __ptext61:
  5313                           	callstack 0
  5314   0018B6                     _UART1_TransmitISR:
  5315                           	callstack 23
  5316   0018B6                     
  5317                           ;mcc_generated_files/uart/src/uart1.c: 417:     uint8_t tempTxTail;;mcc_generated_files/
      +                          uart/src/uart1.c: 419:     if(sizeof(uart1TxBuffer) > uart1TxBufferRemaining)
  5318   0018B6  0E08               	movlw	8
  5319   0018B8  602D               	cpfslt	_uart1TxBufferRemaining^0,c	;volatile
  5320   0018BA  EF61  F00C         	goto	i1u118_21
  5321   0018BE  EF63  F00C         	goto	i1u118_20
  5322   0018C2                     i1u118_21:
  5323   0018C2  EF75  F00C         	goto	i1l1215
  5324   0018C6                     i1u118_20:
  5325   0018C6                     
  5326                           ;mcc_generated_files/uart/src/uart1.c: 420:     {;mcc_generated_files/uart/src/uart1.c: 
      +                          421:        U1TXB = uart1TxBuffer[uart1TxTail];
  5327   0018C6  0E78               	movlw	low _uart1TxBuffer
  5328   0018C8  242E               	addwf	_uart1TxTail^0,w,c	;volatile
  5329   0018CA  6ED9               	movwf	fsr2l,c
  5330   0018CC  6ADA               	clrf	fsr2h,c
  5331   0018CE  0E00               	movlw	high _uart1TxBuffer
  5332   0018D0  22DA               	addwfc	fsr2h,f,c
  5333   0018D2  50DF               	movf	indf2,w,c
  5334   0018D4  013D               	movlb	61	; () banked
  5335   0018D6  6FEA               	movwf	234,b	;volatile
  5336   0018D8                     
  5337                           ; BSR set to: 61
  5338                           ;mcc_generated_files/uart/src/uart1.c: 422:        tempTxTail = (uart1TxTail + 1) & ((8)
      +                           - 1);
  5339   0018D8  282E               	incf	_uart1TxTail^0,w,c	;volatile
  5340   0018DA  0B07               	andlw	7
  5341   0018DC  0100               	movlb	0	; () banked
  5342   0018DE  6F96               	movwf	UART1_TransmitISR@tempTxTail& (0+255),b
  5343   0018E0                     
  5344                           ; BSR set to: 0
  5345                           ;mcc_generated_files/uart/src/uart1.c: 424:        uart1TxTail = tempTxTail;
  5346   0018E0  C096  F02E         	movff	UART1_TransmitISR@tempTxTail,_uart1TxTail	;volatile
  5347   0018E4                     
  5348                           ; BSR set to: 0
  5349                           ;mcc_generated_files/uart/src/uart1.c: 425:        uart1TxBufferRemaining++;
  5350   0018E4  2A2D               	incf	_uart1TxBufferRemaining^0,f,c	;volatile
  5351                           
  5352                           ;mcc_generated_files/uart/src/uart1.c: 426:     }
  5353   0018E6  EF77  F00C         	goto	i1l1218
  5354   0018EA                     i1l1215:
  5355                           
  5356                           ;mcc_generated_files/uart/src/uart1.c: 428:     {;mcc_generated_files/uart/src/uart1.c: 
      +                          429:         PIE3bits.U1TXIE = 0;
  5357   0018EA  0139               	movlb	57	; () banked
  5358   0018EC  9993               	bcf	147,4,b	;volatile
  5359   0018EE                     i1l1218:
  5360   0018EE  0012               	return		;funcret
  5361   0018F0                     __end_of_UART1_TransmitISR:
  5362                           	callstack 0
  5363                           
  5364 ;; *************** function _ADCC_ISR *****************
  5365 ;; Defined at:
  5366 ;;		line 286 in file "mcc_generated_files/adc/src/adcc.c"
  5367 ;; Parameters:    Size  Location     Type
  5368 ;;		None
  5369 ;; Auto vars:     Size  Location     Type
  5370 ;;		None
  5371 ;; Return value:  Size  Location     Type
  5372 ;;                  1    wreg      void 
  5373 ;; Registers used:
  5374 ;;		wreg, fsr2l, fsr2h, status,2, status,0, pcl, pclath, pclatu, tosl, cstack
  5375 ;; Tracked objects:
  5376 ;;		On entry : 0/0
  5377 ;;		On exit  : 0/0
  5378 ;;		Unchanged: 0/0
  5379 ;; Data sizes:     COMRAM   BANK0   BANK1   BANK2   BANK3   BANK4   BANK5   BANK6   BANK7   BANK8   BANK9  BANK10  BANK1
      +1  BANK12  BANK13  BANK14  BANK15
  5380 ;;      Params:         0       0       0       0       0       0       0       0       0       0       0       0       
      +0       0       0       0       0
  5381 ;;      Locals:         0       0       0       0       0       0       0       0       0       0       0       0       
      +0       0       0       0       0
  5382 ;;      Temps:          2       0       0       0       0       0       0       0       0       0       0       0       
      +0       0       0       0       0
  5383 ;;      Totals:         2       0       0       0       0       0       0       0       0       0       0       0       
      +0       0       0       0       0
  5384 ;;Total ram usage:        2 bytes
  5385 ;; Hardware stack levels used: 1
  5386 ;; Hardware stack levels required when called: 2
  5387 ;; This function calls:
  5388 ;;		Absolute function
  5389 ;;		_ADCC_DefaultADI_ISR
  5390 ;;		_ADC_int
  5391 ;; This function is called by:
  5392 ;;		Interrupt level 2
  5393 ;; This function uses a non-reentrant model
  5394 ;;
  5395                           
  5396                           	psect	text62
  5397   0017A0                     __ptext62:
  5398                           	callstack 0
  5399   0017A0                     _ADCC_ISR:
  5400                           	callstack 22
  5401                           
  5402                           ;incstack = 0
  5403   0017A0  006F FFE8  F033    	movff	pclath,??_ADCC_ISR
  5404   0017A6  006F FFEC  F034    	movff	pclatu,??_ADCC_ISR+1
  5405   0017AC                     
  5406                           ;mcc_generated_files/adc/src/adcc.c: 289:     PIR1bits.ADIF = 0;
  5407   0017AC  0139               	movlb	57	; () banked
  5408   0017AE  95A1               	bcf	161,2,b	;volatile
  5409   0017B0                     
  5410                           ; BSR set to: 57
  5411                           ;mcc_generated_files/adc/src/adcc.c: 291:     if (ADCC_ADI_InterruptHandler != ((void*)0
      +                          ))
  5412   0017B0  0100               	movlb	0	; () banked
  5413   0017B2  519C               	movf	_ADCC_ADI_InterruptHandler& (0+255),w,b
  5414   0017B4  119D               	iorwf	(_ADCC_ADI_InterruptHandler+1)& (0+255),w,b
  5415   0017B6  B4D8               	btfsc	status,2,c
  5416   0017B8  EFE0  F00B         	goto	i2u99_41
  5417   0017BC  EFE2  F00B         	goto	i2u99_40
  5418   0017C0                     i2u99_41:
  5419   0017C0  EFEE  F00B         	goto	i2l176
  5420   0017C4                     i2u99_40:
  5421   0017C4                     
  5422                           ; BSR set to: 0
  5423                           ;mcc_generated_files/adc/src/adcc.c: 292:     {;mcc_generated_files/adc/src/adcc.c: 293:
      +                                   ADCC_ADI_InterruptHandler();
  5424   0017C4  D802               	call	i2u100_48
  5425   0017C6  EFEE  F00B         	goto	i2u100_49
  5426   0017CA                     i2u100_48:
  5427   0017CA  0005               	push	
  5428   0017CC  6EFA               	movwf	pclath,c
  5429   0017CE  519C               	movf	_ADCC_ADI_InterruptHandler& (0+255),w,b
  5430   0017D0  6EFD               	movwf	tosl,c
  5431   0017D2  519D               	movf	(_ADCC_ADI_InterruptHandler+1)& (0+255),w,b
  5432   0017D4  6EFE               	movwf	tosh,c
  5433   0017D6  6AFF               	clrf	tosu,c
  5434   0017D8  50FA               	movf	pclath,w,c
  5435   0017DA  0012               	return		;indir
  5436   0017DC                     i2u100_49:
  5437   0017DC                     i2l176:
  5438   0017DC  0060  F0D3  FFFB   	movff	??_ADCC_ISR+1,pclatu
  5439   0017E2  0060  F0CF  FFFA   	movff	??_ADCC_ISR,pclath
  5440   0017E8  0011               	retfie		f
  5441   0017EA                     __end_of_ADCC_ISR:
  5442                           	callstack 0
  5443                           
  5444 ;; *************** function _ADCC_DefaultADI_ISR *****************
  5445 ;; Defined at:
  5446 ;;		line 302 in file "mcc_generated_files/adc/src/adcc.c"
  5447 ;; Parameters:    Size  Location     Type
  5448 ;;		None
  5449 ;; Auto vars:     Size  Location     Type
  5450 ;;		None
  5451 ;; Return value:  Size  Location     Type
  5452 ;;                  1    wreg      void 
  5453 ;; Registers used:
  5454 ;;		None
  5455 ;; Tracked objects:
  5456 ;;		On entry : 0/0
  5457 ;;		On exit  : 0/0
  5458 ;;		Unchanged: 0/0
  5459 ;; Data sizes:     COMRAM   BANK0   BANK1   BANK2   BANK3   BANK4   BANK5   BANK6   BANK7   BANK8   BANK9  BANK10  BANK1
      +1  BANK12  BANK13  BANK14  BANK15
  5460 ;;      Params:         0       0       0       0       0       0       0       0       0       0       0       0       
      +0       0       0       0       0
  5461 ;;      Locals:         0       0       0       0       0       0       0       0       0       0       0       0       
      +0       0       0       0       0
  5462 ;;      Temps:          0       0       0       0       0       0       0       0       0       0       0       0       
      +0       0       0       0       0
  5463 ;;      Totals:         0       0       0       0       0       0       0       0       0       0       0       0       
      +0       0       0       0       0
  5464 ;;Total ram usage:        0 bytes
  5465 ;; Hardware stack levels used: 1
  5466 ;; This function calls:
  5467 ;;		Nothing
  5468 ;; This function is called by:
  5469 ;;		_ADCC_Initialize
  5470 ;;		_ADCC_ISR
  5471 ;; This function uses a non-reentrant model
  5472 ;;
  5473                           
  5474                           	psect	text63
  5475   001DE6                     __ptext63:
  5476                           	callstack 0
  5477   001DE6                     _ADCC_DefaultADI_ISR:
  5478                           	callstack 23
  5479   001DE6  0012               	return		;funcret
  5480   001DE8                     __end_of_ADCC_DefaultADI_ISR:
  5481                           	callstack 0
  5482                           
  5483 ;; *************** function _ADC_int *****************
  5484 ;; Defined at:
  5485 ;;		line 8 in file "ADC_int.c"
  5486 ;; Parameters:    Size  Location     Type
  5487 ;;		None
  5488 ;; Auto vars:     Size  Location     Type
  5489 ;;		None
  5490 ;; Return value:  Size  Location     Type
  5491 ;;                  1    wreg      void 
  5492 ;; Registers used:
  5493 ;;		wreg, fsr2l, fsr2h, status,2, status,0, cstack
  5494 ;; Tracked objects:
  5495 ;;		On entry : 0/0
  5496 ;;		On exit  : 0/0
  5497 ;;		Unchanged: 0/0
  5498 ;; Data sizes:     COMRAM   BANK0   BANK1   BANK2   BANK3   BANK4   BANK5   BANK6   BANK7   BANK8   BANK9  BANK10  BANK1
      +1  BANK12  BANK13  BANK14  BANK15
  5499 ;;      Params:         0       0       0       0       0       0       0       0       0       0       0       0       
      +0       0       0       0       0
  5500 ;;      Locals:         0       0       0       0       0       0       0       0       0       0       0       0       
      +0       0       0       0       0
  5501 ;;      Temps:          1       0       0       0       0       0       0       0       0       0       0       0       
      +0       0       0       0       0
  5502 ;;      Totals:         1       0       0       0       0       0       0       0       0       0       0       0       
      +0       0       0       0       0
  5503 ;;Total ram usage:        1 bytes
  5504 ;; Hardware stack levels used: 1
  5505 ;; Hardware stack levels required when called: 1
  5506 ;; This function calls:
  5507 ;;		_ADCC_StartConversion
  5508 ;;		_UART1_Write
  5509 ;; This function is called by:
  5510 ;;		_main
  5511 ;;		_ADCC_ISR
  5512 ;; This function uses a non-reentrant model
  5513 ;;
  5514                           
  5515                           	psect	text64
  5516   0015A2                     __ptext64:
  5517                           	callstack 0
  5518   0015A2                     _ADC_int:
  5519                           	callstack 22
  5520   0015A2                     
  5521                           ;ADC_int.c: 11:     if(ADPCH == 0)
  5522   0015A2  013E               	movlb	62	; () banked
  5523   0015A4  51F1               	movf	241,w,b	;volatile
  5524   0015A6  A4D8               	btfss	status,2,c
  5525   0015A8  EFD8  F00A         	goto	i2u93_41
  5526   0015AC  EFDA  F00A         	goto	i2u93_40
  5527   0015B0                     i2u93_41:
  5528   0015B0  EFF7  F00A         	goto	i2l3264
  5529   0015B4                     i2u93_40:
  5530   0015B4                     
  5531                           ; BSR set to: 62
  5532                           ;ADC_int.c: 12:     {;ADC_int.c: 13:         LATDbits.LATD0 = !LATDbits.LATD0;
  5533   0015B4  A0BD               	btfss	189,0,c	;volatile
  5534   0015B6  EFDF  F00A         	goto	i2u94_41
  5535   0015BA  EFE3  F00A         	goto	i2u94_40
  5536   0015BE                     i2u94_41:
  5537   0015BE  6A32               	clrf	??_ADC_int^0,c
  5538   0015C0  2A32               	incf	??_ADC_int^0,f,c
  5539   0015C2  EFE4  F00A         	goto	i2u95_48
  5540   0015C6                     i2u94_40:
  5541   0015C6  6A32               	clrf	??_ADC_int^0,c
  5542   0015C8                     i2u95_48:
  5543   0015C8  50BD               	movf	189,w,c	;volatile
  5544   0015CA  1832               	xorwf	??_ADC_int^0,w,c
  5545   0015CC  0BFE               	andlw	-2
  5546   0015CE  1832               	xorwf	??_ADC_int^0,w,c
  5547   0015D0  6EBD               	movwf	189,c	;volatile
  5548   0015D2                     
  5549                           ;ADC_int.c: 14:         ADCC_StartConversion(channel_ANA1);
  5550   0015D2  0E01               	movlw	1
  5551   0015D4  EC9D  F00E         	call	_ADCC_StartConversion
  5552   0015D8                     
  5553                           ;ADC_int.c: 16:         UART1_Write(9);
  5554   0015D8  0E09               	movlw	9
  5555   0015DA  ECA7  F00B         	call	_UART1_Write
  5556   0015DE                     
  5557                           ;ADC_int.c: 17:         UART1_Write(8);
  5558   0015DE  0E08               	movlw	8
  5559   0015E0  ECA7  F00B         	call	_UART1_Write
  5560   0015E4                     
  5561                           ;ADC_int.c: 18:         UART1_Write(',');
  5562   0015E4  0E2C               	movlw	44
  5563   0015E6  ECA7  F00B         	call	_UART1_Write
  5564                           
  5565                           ;ADC_int.c: 19:     }
  5566   0015EA  EF10  F00B         	goto	i2l1290
  5567   0015EE                     i2l3264:
  5568                           
  5569                           ; BSR set to: 62
  5570                           ;ADC_int.c: 21:     {;ADC_int.c: 22:         LATDbits.LATD1 = !LATDbits.LATD1;
  5571   0015EE  A2BD               	btfss	189,1,c	;volatile
  5572   0015F0  EFFC  F00A         	goto	i2u96_41
  5573   0015F4  EF00  F00B         	goto	i2u96_40
  5574   0015F8                     i2u96_41:
  5575   0015F8  6A32               	clrf	??_ADC_int^0,c
  5576   0015FA  2A32               	incf	??_ADC_int^0,f,c
  5577   0015FC  EF01  F00B         	goto	i2u97_48
  5578   001600                     i2u96_40:
  5579   001600  6A32               	clrf	??_ADC_int^0,c
  5580   001602                     i2u97_48:
  5581   001602  4632               	rlncf	??_ADC_int^0,f,c
  5582   001604  50BD               	movf	189,w,c	;volatile
  5583   001606  1832               	xorwf	??_ADC_int^0,w,c
  5584   001608  0BFD               	andlw	-3
  5585   00160A  1832               	xorwf	??_ADC_int^0,w,c
  5586   00160C  6EBD               	movwf	189,c	;volatile
  5587   00160E                     
  5588                           ;ADC_int.c: 24:         UART1_Write(7);
  5589   00160E  0E07               	movlw	7
  5590   001610  ECA7  F00B         	call	_UART1_Write
  5591   001614                     
  5592                           ;ADC_int.c: 25:         UART1_Write(6);
  5593   001614  0E06               	movlw	6
  5594   001616  ECA7  F00B         	call	_UART1_Write
  5595   00161A                     
  5596                           ;ADC_int.c: 26:         UART1_Write('\n');
  5597   00161A  0E0A               	movlw	10
  5598   00161C  ECA7  F00B         	call	_UART1_Write
  5599   001620                     i2l1290:
  5600   001620  0012               	return		;funcret
  5601   001622                     __end_of_ADC_int:
  5602                           	callstack 0
  5603                           
  5604 ;; *************** function _UART1_Write *****************
  5605 ;; Defined at:
  5606 ;;		line 385 in file "mcc_generated_files/uart/src/uart1.c"
  5607 ;; Parameters:    Size  Location     Type
  5608 ;;  txData          1    wreg     unsigned char 
  5609 ;; Auto vars:     Size  Location     Type
  5610 ;;  txData          1    1[COMRAM] unsigned char 
  5611 ;;  tempTxHead      1    0[COMRAM] unsigned char 
  5612 ;; Return value:  Size  Location     Type
  5613 ;;                  1    wreg      void 
  5614 ;; Registers used:
  5615 ;;		wreg, fsr2l, fsr2h, status,2, status,0
  5616 ;; Tracked objects:
  5617 ;;		On entry : 0/0
  5618 ;;		On exit  : 0/0
  5619 ;;		Unchanged: 0/0
  5620 ;; Data sizes:     COMRAM   BANK0   BANK1   BANK2   BANK3   BANK4   BANK5   BANK6   BANK7   BANK8   BANK9  BANK10  BANK1
      +1  BANK12  BANK13  BANK14  BANK15
  5621 ;;      Params:         0       0       0       0       0       0       0       0       0       0       0       0       
      +0       0       0       0       0
  5622 ;;      Locals:         2       0       0       0       0       0       0       0       0       0       0       0       
      +0       0       0       0       0
  5623 ;;      Temps:          0       0       0       0       0       0       0       0       0       0       0       0       
      +0       0       0       0       0
  5624 ;;      Totals:         2       0       0       0       0       0       0       0       0       0       0       0       
      +0       0       0       0       0
  5625 ;;Total ram usage:        2 bytes
  5626 ;; Hardware stack levels used: 1
  5627 ;; This function calls:
  5628 ;;		Nothing
  5629 ;; This function is called by:
  5630 ;;		_ADC_int
  5631 ;; This function uses a non-reentrant model
  5632 ;;
  5633                           
  5634                           	psect	text65
  5635   00174E                     __ptext65:
  5636                           	callstack 0
  5637   00174E                     _UART1_Write:
  5638                           	callstack 22
  5639                           
  5640                           ;incstack = 0
  5641                           ;UART1_Write@txData stored from wreg
  5642   00174E  6E31               	movwf	UART1_Write@txData^0,c
  5643   001750                     
  5644                           ;mcc_generated_files/uart/src/uart1.c: 385: void UART1_Write(uint8_t txData);mcc_generat
      +                          ed_files/uart/src/uart1.c: 386: {;mcc_generated_files/uart/src/uart1.c: 387:     uint8_t
      +                           tempTxHead;;mcc_generated_files/uart/src/uart1.c: 389:     if(0 == PIE3bits.U1TXIE)
  5645   001750  0139               	movlb	57	; () banked
  5646   001752  B993               	btfsc	147,4,b	;volatile
  5647   001754  EFAE  F00B         	goto	i2u82_41
  5648   001758  EFB0  F00B         	goto	i2u82_40
  5649   00175C                     i2u82_41:
  5650   00175C  EFB5  F00B         	goto	i2l3160
  5651   001760                     i2u82_40:
  5652   001760                     
  5653                           ; BSR set to: 57
  5654                           ;mcc_generated_files/uart/src/uart1.c: 390:     {;mcc_generated_files/uart/src/uart1.c: 
      +                          391:         U1TXB = txData;
  5655   001760  0060  F0C7  FDEA   	movff	UART1_Write@txData,15850	;volatile
  5656                           
  5657                           ;mcc_generated_files/uart/src/uart1.c: 392:     }
  5658   001766  EFCD  F00B         	goto	i2l1204
  5659   00176A                     i2l3160:
  5660                           
  5661                           ; BSR set to: 57
  5662   00176A  502D               	movf	_uart1TxBufferRemaining^0,w,c	;volatile
  5663   00176C  B4D8               	btfsc	status,2,c
  5664   00176E  EFBB  F00B         	goto	i2u83_41
  5665   001772  EFBD  F00B         	goto	i2u83_40
  5666   001776                     i2u83_41:
  5667   001776  EFCD  F00B         	goto	i2l1204
  5668   00177A                     i2u83_40:
  5669   00177A                     
  5670                           ; BSR set to: 57
  5671                           ;mcc_generated_files/uart/src/uart1.c: 394:     {;mcc_generated_files/uart/src/uart1.c: 
      +                          395:        uart1TxBuffer[uart1TxHead] = txData;
  5672   00177A  0E78               	movlw	low _uart1TxBuffer
  5673   00177C  242F               	addwf	_uart1TxHead^0,w,c	;volatile
  5674   00177E  6ED9               	movwf	fsr2l,c
  5675   001780  6ADA               	clrf	fsr2h,c
  5676   001782  0E00               	movlw	high _uart1TxBuffer
  5677   001784  22DA               	addwfc	fsr2h,f,c
  5678   001786  0060  F0C7  FFDF   	movff	UART1_Write@txData,indf2
  5679   00178C                     
  5680                           ; BSR set to: 57
  5681                           ;mcc_generated_files/uart/src/uart1.c: 396:        tempTxHead = (uart1TxHead + 1) & ((8)
      +                           - 1);
  5682   00178C  282F               	incf	_uart1TxHead^0,w,c	;volatile
  5683   00178E  0B07               	andlw	7
  5684   001790  6E30               	movwf	UART1_Write@tempTxHead^0,c
  5685   001792                     
  5686                           ; BSR set to: 57
  5687                           ;mcc_generated_files/uart/src/uart1.c: 398:        uart1TxHead = tempTxHead;
  5688   001792  C030  F02F         	movff	UART1_Write@tempTxHead,_uart1TxHead	;volatile
  5689   001796                     
  5690                           ; BSR set to: 57
  5691                           ;mcc_generated_files/uart/src/uart1.c: 399:        PIE3bits.U1TXIE = 0;
  5692   001796  9993               	bcf	147,4,b	;volatile
  5693   001798                     
  5694                           ; BSR set to: 57
  5695                           ;mcc_generated_files/uart/src/uart1.c: 400:        uart1TxBufferRemaining--;
  5696   001798  062D               	decf	_uart1TxBufferRemaining^0,f,c	;volatile
  5697   00179A                     i2l1204:
  5698                           
  5699                           ; BSR set to: 57
  5700                           ;mcc_generated_files/uart/src/uart1.c: 406:     PIE3bits.U1TXIE = 1;
  5701   00179A  8993               	bsf	147,4,b	;volatile
  5702   00179C                     
  5703                           ; BSR set to: 57
  5704   00179C  0012               	return		;funcret
  5705   00179E                     __end_of_UART1_Write:
  5706                           	callstack 0
  5707                           
  5708 ;; *************** function _ADCC_StartConversion *****************
  5709 ;; Defined at:
  5710 ;;		line 106 in file "mcc_generated_files/adc/src/adcc.c"
  5711 ;; Parameters:    Size  Location     Type
  5712 ;;  channel         1    wreg     enum E15846
  5713 ;; Auto vars:     Size  Location     Type
  5714 ;;  channel         1    5[COMRAM] enum E15846
  5715 ;; Return value:  Size  Location     Type
  5716 ;;                  1    wreg      void 
  5717 ;; Registers used:
  5718 ;;		wreg
  5719 ;; Tracked objects:
  5720 ;;		On entry : 0/0
  5721 ;;		On exit  : 0/0
  5722 ;;		Unchanged: 0/0
  5723 ;; Data sizes:     COMRAM   BANK0   BANK1   BANK2   BANK3   BANK4   BANK5   BANK6   BANK7   BANK8   BANK9  BANK10  BANK1
      +1  BANK12  BANK13  BANK14  BANK15
  5724 ;;      Params:         0       0       0       0       0       0       0       0       0       0       0       0       
      +0       0       0       0       0
  5725 ;;      Locals:         1       0       0       0       0       0       0       0       0       0       0       0       
      +0       0       0       0       0
  5726 ;;      Temps:          0       0       0       0       0       0       0       0       0       0       0       0       
      +0       0       0       0       0
  5727 ;;      Totals:         1       0       0       0       0       0       0       0       0       0       0       0       
      +0       0       0       0       0
  5728 ;;Total ram usage:        1 bytes
  5729 ;; Hardware stack levels used: 1
  5730 ;; This function calls:
  5731 ;;		Nothing
  5732 ;; This function is called by:
  5733 ;;		_ADC_int
  5734 ;;		_Timer_int
  5735 ;; This function uses a non-reentrant model
  5736 ;;
  5737                           
  5738                           	psect	text66
  5739   001D3A                     __ptext66:
  5740                           	callstack 0
  5741   001D3A                     _ADCC_StartConversion:
  5742                           	callstack 22
  5743                           
  5744                           ; BSR set to: 57
  5745                           ;incstack = 0
  5746                           ;ADCC_StartConversion@channel stored from wreg
  5747   001D3A  6E35               	movwf	ADCC_StartConversion@channel^0,c
  5748   001D3C                     
  5749                           ;mcc_generated_files/adc/src/adcc.c: 106: void ADCC_StartConversion(adcc_channel_t chann
      +                          el);mcc_generated_files/adc/src/adcc.c: 107: {;mcc_generated_files/adc/src/adcc.c: 109: 
      +                              ADPCH = channel;
  5750   001D3C  0060  F0D7  FEF1   	movff	ADCC_StartConversion@channel,16113	;volatile
  5751   001D42                     
  5752                           ;mcc_generated_files/adc/src/adcc.c: 112:     ADCON0bits.ADGO = 1;
  5753   001D42  013E               	movlb	62	; () banked
  5754   001D44  81F8               	bsf	248,0,b	;volatile
  5755   001D46                     
  5756                           ; BSR set to: 62
  5757   001D46  0012               	return		;funcret
  5758   001D48                     __end_of_ADCC_StartConversion:
  5759                           	callstack 0
  5760                           
  5761 ;; *************** function _Default_ISR *****************
  5762 ;; Defined at:
  5763 ;;		line 98 in file "mcc_generated_files/system/src/interrupt.c"
  5764 ;; Parameters:    Size  Location     Type
  5765 ;;		None
  5766 ;; Auto vars:     Size  Location     Type
  5767 ;;		None
  5768 ;; Return value:  Size  Location     Type
  5769 ;;                  1    wreg      void 
  5770 ;; Registers used:
  5771 ;;		None
  5772 ;; Tracked objects:
  5773 ;;		On entry : 0/0
  5774 ;;		On exit  : 0/0
  5775 ;;		Unchanged: 0/0
  5776 ;; Data sizes:     COMRAM   BANK0   BANK1   BANK2   BANK3   BANK4   BANK5   BANK6   BANK7   BANK8   BANK9  BANK10  BANK1
      +1  BANK12  BANK13  BANK14  BANK15
  5777 ;;      Params:         0       0       0       0       0       0       0       0       0       0       0       0       
      +0       0       0       0       0
  5778 ;;      Locals:         0       0       0       0       0       0       0       0       0       0       0       0       
      +0       0       0       0       0
  5779 ;;      Temps:          0       0       0       0       0       0       0       0       0       0       0       0       
      +0       0       0       0       0
  5780 ;;      Totals:         0       0       0       0       0       0       0       0       0       0       0       0       
      +0       0       0       0       0
  5781 ;;Total ram usage:        0 bytes
  5782 ;; Hardware stack levels used: 1
  5783 ;; This function calls:
  5784 ;;		Nothing
  5785 ;; This function is called by:
  5786 ;;		Interrupt level 2
  5787 ;; This function uses a non-reentrant model
  5788 ;;
  5789                           
  5790                           	psect	text67
  5791   001DE8                     __ptext67:
  5792                           	callstack 0
  5793   001DE8                     _Default_ISR:
  5794                           	callstack 24
  5795   001DE8  0011               	retfie		f
  5796   001DEA                     __end_of_Default_ISR:
  5797                           	callstack 0
  5798                           
  5799 ;; *************** function _Timer_OverflowISR *****************
  5800 ;; Defined at:
  5801 ;;		line 118 in file "mcc_generated_files/timer/src/tmr0.c"
  5802 ;; Parameters:    Size  Location     Type
  5803 ;;		None
  5804 ;; Auto vars:     Size  Location     Type
  5805 ;;		None
  5806 ;; Return value:  Size  Location     Type
  5807 ;;                  1    wreg      void 
  5808 ;; Registers used:
  5809 ;;		wreg, status,2, status,0, pcl, pclath, pclatu, tosl, cstack
  5810 ;; Tracked objects:
  5811 ;;		On entry : 0/0
  5812 ;;		On exit  : 0/0
  5813 ;;		Unchanged: 0/0
  5814 ;; Data sizes:     COMRAM   BANK0   BANK1   BANK2   BANK3   BANK4   BANK5   BANK6   BANK7   BANK8   BANK9  BANK10  BANK1
      +1  BANK12  BANK13  BANK14  BANK15
  5815 ;;      Params:         0       0       0       0       0       0       0       0       0       0       0       0       
      +0       0       0       0       0
  5816 ;;      Locals:         0       0       0       0       0       0       0       0       0       0       0       0       
      +0       0       0       0       0
  5817 ;;      Temps:          2       0       0       0       0       0       0       0       0       0       0       0       
      +0       0       0       0       0
  5818 ;;      Totals:         2       0       0       0       0       0       0       0       0       0       0       0       
      +0       0       0       0       0
  5819 ;;Total ram usage:        2 bytes
  5820 ;; Hardware stack levels used: 1
  5821 ;; Hardware stack levels required when called: 2
  5822 ;; This function calls:
  5823 ;;		Absolute function
  5824 ;;		_Timer_DefaultOverflowCallback
  5825 ;;		_Timer_int
  5826 ;; This function is called by:
  5827 ;;		Interrupt level 2
  5828 ;; This function uses a non-reentrant model
  5829 ;;
  5830                           
  5831                           	psect	text68
  5832   0016FC                     __ptext68:
  5833                           	callstack 0
  5834   0016FC                     _Timer_OverflowISR:
  5835                           	callstack 22
  5836                           
  5837                           ;incstack = 0
  5838   0016FC  006F FFE8  F036    	movff	pclath,??_Timer_OverflowISR
  5839   001702  006F FFEC  F037    	movff	pclatu,??_Timer_OverflowISR+1
  5840   001708                     
  5841                           ;mcc_generated_files/timer/src/tmr0.c: 121:     PIR3bits.TMR0IF = 0;
  5842   001708  0139               	movlb	57	; () banked
  5843   00170A  9FA3               	bcf	163,7,b	;volatile
  5844   00170C                     
  5845                           ; BSR set to: 57
  5846                           ;mcc_generated_files/timer/src/tmr0.c: 123:     TMR0H = timerTMR0ReloadVal16bit >> 8;
  5847   00170C  501D               	movf	(_timerTMR0ReloadVal16bit+1)^0,w,c	;volatile
  5848   00170E  6EB7               	movwf	183,c	;volatile
  5849   001710                     
  5850                           ; BSR set to: 57
  5851                           ;mcc_generated_files/timer/src/tmr0.c: 124:     TMR0L = (uint8_t) timerTMR0ReloadVal16bi
      +                          t;
  5852   001710  0060  F073  FFB6   	movff	_timerTMR0ReloadVal16bit,16310	;volatile
  5853   001716                     
  5854                           ; BSR set to: 57
  5855                           ;mcc_generated_files/timer/src/tmr0.c: 126:     if(Timer_OverflowCallback)
  5856   001716  501A               	movf	_Timer_OverflowCallback^0,w,c
  5857   001718  101B               	iorwf	(_Timer_OverflowCallback+1)^0,w,c
  5858   00171A  B4D8               	btfsc	status,2,c
  5859   00171C  EF92  F00B         	goto	i2u101_41
  5860   001720  EF94  F00B         	goto	i2u101_40
  5861   001724                     i2u101_41:
  5862   001724  EFA0  F00B         	goto	i2l972
  5863   001728                     i2u101_40:
  5864   001728                     
  5865                           ; BSR set to: 57
  5866                           ;mcc_generated_files/timer/src/tmr0.c: 127:     {;mcc_generated_files/timer/src/tmr0.c: 
      +                          128:         Timer_OverflowCallback();
  5867   001728  D802               	call	i2u102_48
  5868   00172A  EFA0  F00B         	goto	i2u102_49
  5869   00172E                     i2u102_48:
  5870   00172E  0005               	push	
  5871   001730  6EFA               	movwf	pclath,c
  5872   001732  501A               	movf	_Timer_OverflowCallback^0,w,c
  5873   001734  6EFD               	movwf	tosl,c
  5874   001736  501B               	movf	(_Timer_OverflowCallback+1)^0,w,c
  5875   001738  6EFE               	movwf	tosh,c
  5876   00173A  6AFF               	clrf	tosu,c
  5877   00173C  50FA               	movf	pclath,w,c
  5878   00173E  0012               	return		;indir
  5879   001740                     i2u102_49:
  5880   001740                     i2l972:
  5881   001740  0060  F0DF  FFFB   	movff	??_Timer_OverflowISR+1,pclatu
  5882   001746  0060  F0DB  FFFA   	movff	??_Timer_OverflowISR,pclath
  5883   00174C  0011               	retfie		f
  5884   00174E                     __end_of_Timer_OverflowISR:
  5885                           	callstack 0
  5886                           
  5887 ;; *************** function _Timer_DefaultOverflowCallback *****************
  5888 ;; Defined at:
  5889 ;;		line 137 in file "mcc_generated_files/timer/src/tmr0.c"
  5890 ;; Parameters:    Size  Location     Type
  5891 ;;		None
  5892 ;; Auto vars:     Size  Location     Type
  5893 ;;		None
  5894 ;; Return value:  Size  Location     Type
  5895 ;;                  1    wreg      void 
  5896 ;; Registers used:
  5897 ;;		None
  5898 ;; Tracked objects:
  5899 ;;		On entry : 0/0
  5900 ;;		On exit  : 0/0
  5901 ;;		Unchanged: 0/0
  5902 ;; Data sizes:     COMRAM   BANK0   BANK1   BANK2   BANK3   BANK4   BANK5   BANK6   BANK7   BANK8   BANK9  BANK10  BANK1
      +1  BANK12  BANK13  BANK14  BANK15
  5903 ;;      Params:         0       0       0       0       0       0       0       0       0       0       0       0       
      +0       0       0       0       0
  5904 ;;      Locals:         0       0       0       0       0       0       0       0       0       0       0       0       
      +0       0       0       0       0
  5905 ;;      Temps:          0       0       0       0       0       0       0       0       0       0       0       0       
      +0       0       0       0       0
  5906 ;;      Totals:         0       0       0       0       0       0       0       0       0       0       0       0       
      +0       0       0       0       0
  5907 ;;Total ram usage:        0 bytes
  5908 ;; Hardware stack levels used: 1
  5909 ;; This function calls:
  5910 ;;		Nothing
  5911 ;; This function is called by:
  5912 ;;		_Timer_Initialize
  5913 ;;		_Timer_OverflowISR
  5914 ;; This function uses a non-reentrant model
  5915 ;;
  5916                           
  5917                           	psect	text69
  5918   001DEA                     __ptext69:
  5919                           	callstack 0
  5920   001DEA                     _Timer_DefaultOverflowCallback:
  5921                           	callstack 23
  5922   001DEA  0012               	return		;funcret
  5923   001DEC                     __end_of_Timer_DefaultOverflowCallback:
  5924                           	callstack 0
  5925                           
  5926 ;; *************** function _Timer_int *****************
  5927 ;; Defined at:
  5928 ;;		line 7 in file "Timer_int.c"
  5929 ;; Parameters:    Size  Location     Type
  5930 ;;		None
  5931 ;; Auto vars:     Size  Location     Type
  5932 ;;		None
  5933 ;; Return value:  Size  Location     Type
  5934 ;;                  1    wreg      void 
  5935 ;; Registers used:
  5936 ;;		wreg, status,2, status,0, cstack
  5937 ;; Tracked objects:
  5938 ;;		On entry : 0/0
  5939 ;;		On exit  : 0/0
  5940 ;;		Unchanged: 0/0
  5941 ;; Data sizes:     COMRAM   BANK0   BANK1   BANK2   BANK3   BANK4   BANK5   BANK6   BANK7   BANK8   BANK9  BANK10  BANK1
      +1  BANK12  BANK13  BANK14  BANK15
  5942 ;;      Params:         0       0       0       0       0       0       0       0       0       0       0       0       
      +0       0       0       0       0
  5943 ;;      Locals:         0       0       0       0       0       0       0       0       0       0       0       0       
      +0       0       0       0       0
  5944 ;;      Temps:          0       0       0       0       0       0       0       0       0       0       0       0       
      +0       0       0       0       0
  5945 ;;      Totals:         0       0       0       0       0       0       0       0       0       0       0       0       
      +0       0       0       0       0
  5946 ;;Total ram usage:        0 bytes
  5947 ;; Hardware stack levels used: 1
  5948 ;; Hardware stack levels required when called: 1
  5949 ;; This function calls:
  5950 ;;		_ADCC_StartConversion
  5951 ;; This function is called by:
  5952 ;;		_main
  5953 ;;		_Timer_OverflowISR
  5954 ;; This function uses a non-reentrant model
  5955 ;;
  5956                           
  5957                           	psect	text70
  5958   001AC6                     __ptext70:
  5959                           	callstack 0
  5960   001AC6                     _Timer_int:
  5961                           	callstack 22
  5962   001AC6                     
  5963                           ;Timer_int.c: 10:     static int count = 0;;Timer_int.c: 11:     count++;
  5964   001AC6  4A0E               	infsnz	Timer_int@count^0,f,c
  5965   001AC8  2A0F               	incf	(Timer_int@count+1)^0,f,c
  5966   001ACA                     
  5967                           ;Timer_int.c: 13:     if(count == PERIOD)
  5968   001ACA  5048               	movf	_PERIOD^0,w,c
  5969   001ACC  180E               	xorwf	Timer_int@count^0,w,c
  5970   001ACE  E107               	bnz	i2u98_41
  5971   001AD0  5049               	movf	(_PERIOD+1)^0,w,c
  5972   001AD2  180F               	xorwf	(Timer_int@count+1)^0,w,c
  5973   001AD4  A4D8               	btfss	status,2,c
  5974   001AD6  EF6F  F00D         	goto	i2u98_41
  5975   001ADA  EF71  F00D         	goto	i2u98_40
  5976   001ADE                     i2u98_41:
  5977   001ADE  EF78  F00D         	goto	i2l1326
  5978   001AE2                     i2u98_40:
  5979   001AE2                     
  5980                           ;Timer_int.c: 14:     {;Timer_int.c: 15:         count = 0;
  5981   001AE2  0E00               	movlw	0
  5982   001AE4  6E0F               	movwf	(Timer_int@count+1)^0,c
  5983   001AE6  0E00               	movlw	0
  5984   001AE8  6E0E               	movwf	Timer_int@count^0,c
  5985   001AEA                     
  5986                           ;Timer_int.c: 16:         ADCC_StartConversion(channel_ANA0);
  5987   001AEA  0E00               	movlw	0
  5988   001AEC  EC9D  F00E         	call	_ADCC_StartConversion
  5989   001AF0                     i2l1326:
  5990   001AF0  0012               	return		;funcret
  5991   001AF2                     __end_of_Timer_int:
  5992                           	callstack 0
  5993                           
  5994 ;; *************** function _UART1_Receive_Vector_ISR *****************
  5995 ;; Defined at:
  5996 ;;		line 336 in file "mcc_generated_files/uart/src/uart1.c"
  5997 ;; Parameters:    Size  Location     Type
  5998 ;;		None
  5999 ;; Auto vars:     Size  Location     Type
  6000 ;;		None
  6001 ;; Return value:  Size  Location     Type
  6002 ;;                  1    wreg      void 
  6003 ;; Registers used:
  6004 ;;		wreg, fsr2l, fsr2h, status,2, status,0, pcl, pclath, pclatu, tosl, prodl, prodh, cstack
  6005 ;; Tracked objects:
  6006 ;;		On entry : 0/0
  6007 ;;		On exit  : 0/0
  6008 ;;		Unchanged: 0/0
  6009 ;; Data sizes:     COMRAM   BANK0   BANK1   BANK2   BANK3   BANK4   BANK5   BANK6   BANK7   BANK8   BANK9  BANK10  BANK1
      +1  BANK12  BANK13  BANK14  BANK15
  6010 ;;      Params:         0       0       0       0       0       0       0       0       0       0       0       0       
      +0       0       0       0       0
  6011 ;;      Locals:         0       0       0       0       0       0       0       0       0       0       0       0       
      +0       0       0       0       0
  6012 ;;      Temps:          2       0       0       0       0       0       0       0       0       0       0       0       
      +0       0       0       0       0
  6013 ;;      Totals:         2       0       0       0       0       0       0       0       0       0       0       0       
      +0       0       0       0       0
  6014 ;;Total ram usage:        2 bytes
  6015 ;; Hardware stack levels used: 1
  6016 ;; Hardware stack levels required when called: 2
  6017 ;; This function calls:
  6018 ;;		_UART1_ReceiveISR
  6019 ;; This function is called by:
  6020 ;;		Interrupt level 2
  6021 ;; This function uses a non-reentrant model
  6022 ;;
  6023                           
  6024                           	psect	text71
  6025   001C28                     __ptext71:
  6026                           	callstack 0
  6027   001C28                     _UART1_Receive_Vector_ISR:
  6028                           	callstack 22
  6029                           
  6030                           ;incstack = 0
  6031   001C28  006F FFE8  F03A    	movff	pclath,??_UART1_Receive_Vector_ISR
  6032   001C2E  006F FFEC  F03B    	movff	pclatu,??_UART1_Receive_Vector_ISR+1
  6033   001C34                     
  6034                           ;mcc_generated_files/uart/src/uart1.c: 338:     UART1_ReceiveISR();
  6035   001C34  ECCF  F008         	call	_UART1_ReceiveISR	;wreg free
  6036   001C38  0060  F0EF  FFFB   	movff	??_UART1_Receive_Vector_ISR+1,pclatu
  6037   001C3E  0060  F0EB  FFFA   	movff	??_UART1_Receive_Vector_ISR,pclath
  6038   001C44  0011               	retfie		f
  6039   001C46                     __end_of_UART1_Receive_Vector_ISR:
  6040                           	callstack 0
  6041                           
  6042 ;; *************** function _UART1_ReceiveISR *****************
  6043 ;; Defined at:
  6044 ;;		line 341 in file "mcc_generated_files/uart/src/uart1.c"
  6045 ;; Parameters:    Size  Location     Type
  6046 ;;		None
  6047 ;; Auto vars:     Size  Location     Type
  6048 ;;  tempRxHead      1    9[COMRAM] unsigned char 
  6049 ;;  regValue        1    8[COMRAM] unsigned char 
  6050 ;; Return value:  Size  Location     Type
  6051 ;;                  1    wreg      void 
  6052 ;; Registers used:
  6053 ;;		wreg, fsr2l, fsr2h, status,2, status,0, pcl, pclath, pclatu, tosl, prodl, prodh, cstack
  6054 ;; Tracked objects:
  6055 ;;		On entry : 0/0
  6056 ;;		On exit  : 0/0
  6057 ;;		Unchanged: 0/0
  6058 ;; Data sizes:     COMRAM   BANK0   BANK1   BANK2   BANK3   BANK4   BANK5   BANK6   BANK7   BANK8   BANK9  BANK10  BANK1
      +1  BANK12  BANK13  BANK14  BANK15
  6059 ;;      Params:         0       0       0       0       0       0       0       0       0       0       0       0       
      +0       0       0       0       0
  6060 ;;      Locals:         2       0       0       0       0       0       0       0       0       0       0       0       
      +0       0       0       0       0
  6061 ;;      Temps:          0       0       0       0       0       0       0       0       0       0       0       0       
      +0       0       0       0       0
  6062 ;;      Totals:         2       0       0       0       0       0       0       0       0       0       0       0       
      +0       0       0       0       0
  6063 ;;Total ram usage:        2 bytes
  6064 ;; Hardware stack levels used: 1
  6065 ;; Hardware stack levels required when called: 1
  6066 ;; This function calls:
  6067 ;;		Absolute function
  6068 ;;		_UART1_DefaultFramingErrorCallback
  6069 ;;		_UART1_DefaultOverrunErrorCallback
  6070 ;; This function is called by:
  6071 ;;		_UART1_Initialize
  6072 ;;		_UART1_Receive_Vector_ISR
  6073 ;; This function uses a non-reentrant model
  6074 ;;
  6075                           
  6076                           	psect	text72
  6077   00119E                     __ptext72:
  6078                           	callstack 0
  6079   00119E                     _UART1_ReceiveISR:
  6080                           	callstack 22
  6081   00119E                     
  6082                           ;mcc_generated_files/uart/src/uart1.c: 343:     uint8_t regValue;;mcc_generated_files/ua
      +                          rt/src/uart1.c: 344:  uint8_t tempRxHead;;mcc_generated_files/uart/src/uart1.c: 346:    
      +                           uart1RxStatusBuffer[uart1RxHead].status = 0;
  6083   00119E  502C               	movf	_uart1RxHead^0,w,c	;volatile
  6084   0011A0  0D02               	mullw	2
  6085   0011A2  0E60               	movlw	low _uart1RxStatusBuffer
  6086   0011A4  24F3               	addwf	243,w,c
  6087   0011A6  6ED9               	movwf	fsr2l,c
  6088   0011A8  0E00               	movlw	high _uart1RxStatusBuffer
  6089   0011AA  20F4               	addwfc	prodh,w,c
  6090   0011AC  6EDA               	movwf	fsr2h,c
  6091   0011AE  0E00               	movlw	0
  6092   0011B0  6EDE               	movwf	postinc2,c
  6093   0011B2  0E00               	movlw	0
  6094   0011B4  6EDD               	movwf	postdec2,c
  6095   0011B6                     
  6096                           ;mcc_generated_files/uart/src/uart1.c: 348:     if(U1ERRIRbits.FERIF)
  6097   0011B6  013D               	movlb	61	; () banked
  6098   0011B8  A7F9               	btfss	249,3,b	;volatile
  6099   0011BA  EFE1  F008         	goto	i2u85_41
  6100   0011BE  EFE3  F008         	goto	i2u85_40
  6101   0011C2                     i2u85_41:
  6102   0011C2  EF02  F009         	goto	i2l3216
  6103   0011C6                     i2u85_40:
  6104   0011C6                     
  6105                           ; BSR set to: 61
  6106                           ;mcc_generated_files/uart/src/uart1.c: 349:     {;mcc_generated_files/uart/src/uart1.c: 
      +                          350:         uart1RxStatusBuffer[uart1RxHead].ferr = 1;
  6107   0011C6  502C               	movf	_uart1RxHead^0,w,c	;volatile
  6108   0011C8  0D02               	mullw	2
  6109   0011CA  0E60               	movlw	low _uart1RxStatusBuffer
  6110   0011CC  24F3               	addwf	243,w,c
  6111   0011CE  6ED9               	movwf	fsr2l,c
  6112   0011D0  0E00               	movlw	high _uart1RxStatusBuffer
  6113   0011D2  20F4               	addwfc	prodh,w,c
  6114   0011D4  6EDA               	movwf	fsr2h,c
  6115   0011D6  0100               	movlb	0	; () banked
  6116   0011D8  82DF               	bsf	indf2,1,c
  6117   0011DA                     
  6118                           ; BSR set to: 0
  6119                           ;mcc_generated_files/uart/src/uart1.c: 351:         if(((void*)0) != UART1_FramingErrorH
      +                          andler)
  6120   0011DA  5018               	movf	_UART1_FramingErrorHandler^0,w,c
  6121   0011DC  1019               	iorwf	(_UART1_FramingErrorHandler+1)^0,w,c
  6122   0011DE  B4D8               	btfsc	status,2,c
  6123   0011E0  EFF4  F008         	goto	i2u86_41
  6124   0011E4  EFF6  F008         	goto	i2u86_40
  6125   0011E8                     i2u86_41:
  6126   0011E8  EF02  F009         	goto	i2l3216
  6127   0011EC                     i2u86_40:
  6128   0011EC                     
  6129                           ; BSR set to: 0
  6130                           ;mcc_generated_files/uart/src/uart1.c: 352:         {;mcc_generated_files/uart/src/uart1
      +                          .c: 353:             UART1_FramingErrorHandler();
  6131   0011EC  D802               	call	i2u87_48
  6132   0011EE  EF02  F009         	goto	i2u87_49
  6133   0011F2                     i2u87_48:
  6134   0011F2  0005               	push	
  6135   0011F4  6EFA               	movwf	pclath,c
  6136   0011F6  5018               	movf	_UART1_FramingErrorHandler^0,w,c
  6137   0011F8  6EFD               	movwf	tosl,c
  6138   0011FA  5019               	movf	(_UART1_FramingErrorHandler+1)^0,w,c
  6139   0011FC  6EFE               	movwf	tosh,c
  6140   0011FE  6AFF               	clrf	tosu,c
  6141   001200  50FA               	movf	pclath,w,c
  6142   001202  0012               	return		;indir
  6143   001204                     i2u87_49:
  6144   001204                     i2l3216:
  6145                           
  6146                           ;mcc_generated_files/uart/src/uart1.c: 356:     if(U1ERRIRbits.RXFOIF)
  6147   001204  013D               	movlb	61	; () banked
  6148   001206  A3F9               	btfss	249,1,b	;volatile
  6149   001208  EF08  F009         	goto	i2u88_41
  6150   00120C  EF0A  F009         	goto	i2u88_40
  6151   001210                     i2u88_41:
  6152   001210  EF29  F009         	goto	i2l3224
  6153   001214                     i2u88_40:
  6154   001214                     
  6155                           ; BSR set to: 61
  6156                           ;mcc_generated_files/uart/src/uart1.c: 357:     {;mcc_generated_files/uart/src/uart1.c: 
      +                          358:         uart1RxStatusBuffer[uart1RxHead].oerr = 1;
  6157   001214  502C               	movf	_uart1RxHead^0,w,c	;volatile
  6158   001216  0D02               	mullw	2
  6159   001218  0E60               	movlw	low _uart1RxStatusBuffer
  6160   00121A  24F3               	addwf	243,w,c
  6161   00121C  6ED9               	movwf	fsr2l,c
  6162   00121E  0E00               	movlw	high _uart1RxStatusBuffer
  6163   001220  20F4               	addwfc	prodh,w,c
  6164   001222  6EDA               	movwf	fsr2h,c
  6165   001224  0100               	movlb	0	; () banked
  6166   001226  84DF               	bsf	indf2,2,c
  6167   001228                     
  6168                           ; BSR set to: 0
  6169                           ;mcc_generated_files/uart/src/uart1.c: 359:         if(((void*)0) != UART1_OverrunErrorH
      +                          andler)
  6170   001228  5016               	movf	_UART1_OverrunErrorHandler^0,w,c
  6171   00122A  1017               	iorwf	(_UART1_OverrunErrorHandler+1)^0,w,c
  6172   00122C  B4D8               	btfsc	status,2,c
  6173   00122E  EF1B  F009         	goto	i2u89_41
  6174   001232  EF1D  F009         	goto	i2u89_40
  6175   001236                     i2u89_41:
  6176   001236  EF29  F009         	goto	i2l3224
  6177   00123A                     i2u89_40:
  6178   00123A                     
  6179                           ; BSR set to: 0
  6180                           ;mcc_generated_files/uart/src/uart1.c: 360:         {;mcc_generated_files/uart/src/uart1
      +                          .c: 361:             UART1_OverrunErrorHandler();
  6181   00123A  D802               	call	i2u90_48
  6182   00123C  EF29  F009         	goto	i2u90_49
  6183   001240                     i2u90_48:
  6184   001240  0005               	push	
  6185   001242  6EFA               	movwf	pclath,c
  6186   001244  5016               	movf	_UART1_OverrunErrorHandler^0,w,c
  6187   001246  6EFD               	movwf	tosl,c
  6188   001248  5017               	movf	(_UART1_OverrunErrorHandler+1)^0,w,c
  6189   00124A  6EFE               	movwf	tosh,c
  6190   00124C  6AFF               	clrf	tosu,c
  6191   00124E  50FA               	movf	pclath,w,c
  6192   001250  0012               	return		;indir
  6193   001252                     i2u90_49:
  6194   001252                     i2l3224:
  6195                           
  6196                           ;mcc_generated_files/uart/src/uart1.c: 365:     regValue = U1RXB;
  6197   001252  006F F7A0  F038    	movff	15848,UART1_ReceiveISR@regValue	;volatile
  6198   001258                     
  6199                           ;mcc_generated_files/uart/src/uart1.c: 367:     tempRxHead = (uart1RxHead + 1) & ((8) - 
      +                          1);
  6200   001258  282C               	incf	_uart1RxHead^0,w,c	;volatile
  6201   00125A  0B07               	andlw	7
  6202   00125C  6E39               	movwf	UART1_ReceiveISR@tempRxHead^0,c
  6203   00125E                     
  6204                           ;mcc_generated_files/uart/src/uart1.c: 368:     if (tempRxHead == uart1RxTail)
  6205   00125E  502B               	movf	_uart1RxTail^0,w,c	;volatile
  6206   001260  1839               	xorwf	UART1_ReceiveISR@tempRxHead^0,w,c
  6207   001262  A4D8               	btfss	status,2,c
  6208   001264  EF36  F009         	goto	i2u91_41
  6209   001268  EF38  F009         	goto	i2u91_40
  6210   00126C                     i2u91_41:
  6211   00126C  EF3A  F009         	goto	i2l3232
  6212   001270                     i2u91_40:
  6213   001270  EF46  F009         	goto	i2l1200
  6214   001274                     i2l3232:
  6215                           
  6216                           ;mcc_generated_files/uart/src/uart1.c: 373:     {;mcc_generated_files/uart/src/uart1.c: 
      +                          374:         uart1RxBuffer[uart1RxHead] = regValue;
  6217   001274  0E70               	movlw	low _uart1RxBuffer
  6218   001276  242C               	addwf	_uart1RxHead^0,w,c	;volatile
  6219   001278  6ED9               	movwf	fsr2l,c
  6220   00127A  6ADA               	clrf	fsr2h,c
  6221   00127C  0E00               	movlw	high _uart1RxBuffer
  6222   00127E  22DA               	addwfc	fsr2h,f,c
  6223   001280  0060  F0E3  FFDF   	movff	UART1_ReceiveISR@regValue,indf2
  6224   001286                     
  6225                           ;mcc_generated_files/uart/src/uart1.c: 375:   uart1RxHead = tempRxHead;
  6226   001286  C039  F02C         	movff	UART1_ReceiveISR@tempRxHead,_uart1RxHead	;volatile
  6227   00128A                     
  6228                           ;mcc_generated_files/uart/src/uart1.c: 376:   uart1RxCount++;
  6229   00128A  2A2A               	incf	_uart1RxCount^0,f,c	;volatile
  6230   00128C                     i2l1200:
  6231   00128C  0012               	return		;funcret
  6232   00128E                     __end_of_UART1_ReceiveISR:
  6233                           	callstack 0
  6234                           
  6235 ;; *************** function _UART1_DefaultOverrunErrorCallback *****************
  6236 ;; Defined at:
  6237 ;;		line 446 in file "mcc_generated_files/uart/src/uart1.c"
  6238 ;; Parameters:    Size  Location     Type
  6239 ;;		None
  6240 ;; Auto vars:     Size  Location     Type
  6241 ;;		None
  6242 ;; Return value:  Size  Location     Type
  6243 ;;                  1    wreg      void 
  6244 ;; Registers used:
  6245 ;;		None
  6246 ;; Tracked objects:
  6247 ;;		On entry : 0/0
  6248 ;;		On exit  : 0/0
  6249 ;;		Unchanged: 0/0
  6250 ;; Data sizes:     COMRAM   BANK0   BANK1   BANK2   BANK3   BANK4   BANK5   BANK6   BANK7   BANK8   BANK9  BANK10  BANK1
      +1  BANK12  BANK13  BANK14  BANK15
  6251 ;;      Params:         0       0       0       0       0       0       0       0       0       0       0       0       
      +0       0       0       0       0
  6252 ;;      Locals:         0       0       0       0       0       0       0       0       0       0       0       0       
      +0       0       0       0       0
  6253 ;;      Temps:          0       0       0       0       0       0       0       0       0       0       0       0       
      +0       0       0       0       0
  6254 ;;      Totals:         0       0       0       0       0       0       0       0       0       0       0       0       
      +0       0       0       0       0
  6255 ;;Total ram usage:        0 bytes
  6256 ;; Hardware stack levels used: 1
  6257 ;; This function calls:
  6258 ;;		Nothing
  6259 ;; This function is called by:
  6260 ;;		_UART1_Initialize
  6261 ;;		_UART1_ReceiveISR
  6262 ;; This function uses a non-reentrant model
  6263 ;;
  6264                           
  6265                           	psect	text73
  6266   001DEC                     __ptext73:
  6267                           	callstack 0
  6268   001DEC                     _UART1_DefaultOverrunErrorCallback:
  6269                           	callstack 22
  6270   001DEC  0012               	return		;funcret
  6271   001DEE                     __end_of_UART1_DefaultOverrunErrorCallback:
  6272                           	callstack 0
  6273                           
  6274 ;; *************** function _UART1_DefaultFramingErrorCallback *****************
  6275 ;; Defined at:
  6276 ;;		line 441 in file "mcc_generated_files/uart/src/uart1.c"
  6277 ;; Parameters:    Size  Location     Type
  6278 ;;		None
  6279 ;; Auto vars:     Size  Location     Type
  6280 ;;		None
  6281 ;; Return value:  Size  Location     Type
  6282 ;;                  1    wreg      void 
  6283 ;; Registers used:
  6284 ;;		None
  6285 ;; Tracked objects:
  6286 ;;		On entry : 0/0
  6287 ;;		On exit  : 0/0
  6288 ;;		Unchanged: 0/0
  6289 ;; Data sizes:     COMRAM   BANK0   BANK1   BANK2   BANK3   BANK4   BANK5   BANK6   BANK7   BANK8   BANK9  BANK10  BANK1
      +1  BANK12  BANK13  BANK14  BANK15
  6290 ;;      Params:         0       0       0       0       0       0       0       0       0       0       0       0       
      +0       0       0       0       0
  6291 ;;      Locals:         0       0       0       0       0       0       0       0       0       0       0       0       
      +0       0       0       0       0
  6292 ;;      Temps:          0       0       0       0       0       0       0       0       0       0       0       0       
      +0       0       0       0       0
  6293 ;;      Totals:         0       0       0       0       0       0       0       0       0       0       0       0       
      +0       0       0       0       0
  6294 ;;Total ram usage:        0 bytes
  6295 ;; Hardware stack levels used: 1
  6296 ;; This function calls:
  6297 ;;		Nothing
  6298 ;; This function is called by:
  6299 ;;		_UART1_Initialize
  6300 ;;		_UART1_ReceiveISR
  6301 ;; This function uses a non-reentrant model
  6302 ;;
  6303                           
  6304                           	psect	text74
  6305   001DEE                     __ptext74:
  6306                           	callstack 0
  6307   001DEE                     _UART1_DefaultFramingErrorCallback:
  6308                           	callstack 22
  6309   001DEE  0012               	return		;funcret
  6310   001DF0                     __end_of_UART1_DefaultFramingErrorCallback:
  6311                           	callstack 0
  6312                           
  6313                           ;
  6314                           ; Interrupt Vector Table @ 0x8
  6315                           ;
  6316                           
  6317                           	psect	ivt0x8
  6318   000008                     __pivt0x8:
  6319                           	callstack 0
  6320   000008                     ivt0x8_base:
  6321                           	callstack 0
  6322                           
  6323                           ; Vector 0 : SWINT
  6324   000008  077A               	dw	_Default_ISR shr (0+2)
  6325                           
  6326                           ; Vector 1 : HLVD
  6327   00000A  077A               	dw	_Default_ISR shr (0+2)
  6328                           
  6329                           ; Vector 2 : OSF
  6330   00000C  077A               	dw	_Default_ISR shr (0+2)
  6331                           
  6332                           ; Vector 3 : CSW
  6333   00000E  077A               	dw	_Default_ISR shr (0+2)
  6334                           
  6335                           ; Vector 4 : NVM
  6336   000010  077A               	dw	_Default_ISR shr (0+2)
  6337                           
  6338                           ; Vector 5 : SCAN
  6339   000012  077A               	dw	_Default_ISR shr (0+2)
  6340                           
  6341                           ; Vector 6 : CRC
  6342   000014  077A               	dw	_Default_ISR shr (0+2)
  6343                           
  6344                           ; Vector 7 : IOC
  6345   000016  0775               	dw	_IOC_ISR shr (0+2)
  6346                           
  6347                           ; Vector 8 : INT0
  6348   000018  0662               	dw	_INT0_ISR shr (0+2)
  6349                           
  6350                           ; Vector 9 : ZCD
  6351   00001A  077A               	dw	_Default_ISR shr (0+2)
  6352                           
  6353                           ; Vector 10 : AD
  6354   00001C  05E8               	dw	_ADCC_ISR shr (0+2)
  6355                           
  6356                           ; Vector 11 : ADT
  6357   00001E  077A               	dw	_Default_ISR shr (0+2)
  6358                           
  6359                           ; Vector 12 : CMP1
  6360   000020  077A               	dw	_Default_ISR shr (0+2)
  6361                           
  6362                           ; Vector 13 : SMT1
  6363   000022  077A               	dw	_Default_ISR shr (0+2)
  6364                           
  6365                           ; Vector 14 : SMT1PRA
  6366   000024  077A               	dw	_Default_ISR shr (0+2)
  6367                           
  6368                           ; Vector 15 : SMT1PRW
  6369   000026  077A               	dw	_Default_ISR shr (0+2)
  6370                           
  6371                           ; Vector 16 : DMA1SCNT
  6372   000028  077A               	dw	_Default_ISR shr (0+2)
  6373                           
  6374                           ; Vector 17 : DMA1DCNT
  6375   00002A  077A               	dw	_Default_ISR shr (0+2)
  6376                           
  6377                           ; Vector 18 : DMA1OR
  6378   00002C  077A               	dw	_Default_ISR shr (0+2)
  6379                           
  6380                           ; Vector 19 : DMA1A
  6381   00002E  077A               	dw	_Default_ISR shr (0+2)
  6382                           
  6383                           ; Vector 20 : SPI1RX
  6384   000030  077A               	dw	_Default_ISR shr (0+2)
  6385                           
  6386                           ; Vector 21 : SPI1TX
  6387   000032  077A               	dw	_Default_ISR shr (0+2)
  6388                           
  6389                           ; Vector 22 : SPI1
  6390   000034  077A               	dw	_Default_ISR shr (0+2)
  6391                           
  6392                           ; Vector 23 : I2C1RX
  6393   000036  077A               	dw	_Default_ISR shr (0+2)
  6394                           
  6395                           ; Vector 24 : I2C1TX
  6396   000038  077A               	dw	_Default_ISR shr (0+2)
  6397                           
  6398                           ; Vector 25 : I2C1
  6399   00003A  077A               	dw	_Default_ISR shr (0+2)
  6400                           
  6401                           ; Vector 26 : I2C1E
  6402   00003C  077A               	dw	_Default_ISR shr (0+2)
  6403                           
  6404                           ; Vector 27 : U1RX
  6405   00003E  070A               	dw	_UART1_Receive_Vector_ISR shr (0+2)
  6406                           
  6407                           ; Vector 28 : U1TX
  6408   000040  074A               	dw	_UART1_Transmit_Vector_ISR shr (0+2)
  6409                           
  6410                           ; Vector 29 : U1E
  6411   000042  077A               	dw	_Default_ISR shr (0+2)
  6412                           
  6413                           ; Vector 30 : U1
  6414   000044  077A               	dw	_Default_ISR shr (0+2)
  6415                           
  6416                           ; Vector 31 : TMR0
  6417   000046  05BF               	dw	_Timer_OverflowISR shr (0+2)
  6418                           
  6419                           ; Vector 32 : TMR1
  6420   000048  077A               	dw	_Default_ISR shr (0+2)
  6421                           
  6422                           ; Vector 33 : TMR1G
  6423   00004A  077A               	dw	_Default_ISR shr (0+2)
  6424                           
  6425                           ; Vector 34 : TMR2
  6426   00004C  077A               	dw	_Default_ISR shr (0+2)
  6427                           
  6428                           ; Vector 35 : CCP1
  6429   00004E  077A               	dw	_Default_ISR shr (0+2)
  6430                           
  6431                           ; Vector 36 : Undefined
  6432   000050  002B               	dw	ivt0x8_undefint shr (0+2)
  6433                           
  6434                           ; Vector 37 : NCO1
  6435   000052  077A               	dw	_Default_ISR shr (0+2)
  6436                           
  6437                           ; Vector 38 : CWG1
  6438   000054  077A               	dw	_Default_ISR shr (0+2)
  6439                           
  6440                           ; Vector 39 : CLC1
  6441   000056  077A               	dw	_Default_ISR shr (0+2)
  6442                           
  6443                           ; Vector 40 : INT1
  6444   000058  066E               	dw	_INT1_ISR shr (0+2)
  6445                           
  6446                           ; Vector 41 : CMP2
  6447   00005A  077A               	dw	_Default_ISR shr (0+2)
  6448                           
  6449                           ; Vector 42 : DMA2SCNT
  6450   00005C  077A               	dw	_Default_ISR shr (0+2)
  6451                           
  6452                           ; Vector 43 : DMA2DCNT
  6453   00005E  077A               	dw	_Default_ISR shr (0+2)
  6454                           
  6455                           ; Vector 44 : DMA2OR
  6456   000060  077A               	dw	_Default_ISR shr (0+2)
  6457                           
  6458                           ; Vector 45 : DMA2A
  6459   000062  077A               	dw	_Default_ISR shr (0+2)
  6460                           
  6461                           ; Vector 46 : I2C2RX
  6462   000064  06DA               	dw	_I2C2_RX_ISR shr (0+2)
  6463                           
  6464                           ; Vector 47 : I2C2TX
  6465   000066  06E3               	dw	_I2C2_TX_ISR shr (0+2)
  6466                           
  6467                           ; Vector 48 : I2C2
  6468   000068  04DF               	dw	_I2C2_ISR shr (0+2)
  6469                           
  6470                           ; Vector 49 : I2C2E
  6471   00006A  041B               	dw	_I2C2_ERROR_ISR shr (0+2)
  6472                           
  6473                           ; Vector 50 : U2RX
  6474   00006C  077A               	dw	_Default_ISR shr (0+2)
  6475                           
  6476                           ; Vector 51 : U2TX
  6477   00006E  077A               	dw	_Default_ISR shr (0+2)
  6478                           
  6479                           ; Vector 52 : U2E
  6480   000070  077A               	dw	_Default_ISR shr (0+2)
  6481                           
  6482                           ; Vector 53 : U2
  6483   000072  077A               	dw	_Default_ISR shr (0+2)
  6484                           
  6485                           ; Vector 54 : TMR3
  6486   000074  077A               	dw	_Default_ISR shr (0+2)
  6487                           
  6488                           ; Vector 55 : TMR3G
  6489   000076  077A               	dw	_Default_ISR shr (0+2)
  6490                           
  6491                           ; Vector 56 : TMR4
  6492   000078  077A               	dw	_Default_ISR shr (0+2)
  6493                           
  6494                           ; Vector 57 : CCP2
  6495   00007A  077A               	dw	_Default_ISR shr (0+2)
  6496                           
  6497                           ; Vector 58 : Undefined
  6498   00007C  002B               	dw	ivt0x8_undefint shr (0+2)
  6499                           
  6500                           ; Vector 59 : CWG2
  6501   00007E  077A               	dw	_Default_ISR shr (0+2)
  6502                           
  6503                           ; Vector 60 : CLC2
  6504   000080  077A               	dw	_Default_ISR shr (0+2)
  6505                           
  6506                           ; Vector 61 : INT2
  6507   000082  067A               	dw	_INT2_ISR shr (0+2)
  6508                           
  6509                           ; Vector 62 : Undefined
  6510   000084  002B               	dw	ivt0x8_undefint shr (0+2)
  6511                           
  6512                           ; Vector 63 : Undefined
  6513   000086  002B               	dw	ivt0x8_undefint shr (0+2)
  6514                           
  6515                           ; Vector 64 : Undefined
  6516   000088  002B               	dw	ivt0x8_undefint shr (0+2)
  6517                           
  6518                           ; Vector 65 : Undefined
  6519   00008A  002B               	dw	ivt0x8_undefint shr (0+2)
  6520                           
  6521                           ; Vector 66 : Undefined
  6522   00008C  002B               	dw	ivt0x8_undefint shr (0+2)
  6523                           
  6524                           ; Vector 67 : Undefined
  6525   00008E  002B               	dw	ivt0x8_undefint shr (0+2)
  6526                           
  6527                           ; Vector 68 : Undefined
  6528   000090  002B               	dw	ivt0x8_undefint shr (0+2)
  6529                           
  6530                           ; Vector 69 : Undefined
  6531   000092  002B               	dw	ivt0x8_undefint shr (0+2)
  6532                           
  6533                           ; Vector 70 : TMR5
  6534   000094  077A               	dw	_Default_ISR shr (0+2)
  6535                           
  6536                           ; Vector 71 : TMR5G
  6537   000096  077A               	dw	_Default_ISR shr (0+2)
  6538                           
  6539                           ; Vector 72 : TMR6
  6540   000098  077A               	dw	_Default_ISR shr (0+2)
  6541                           
  6542                           ; Vector 73 : CCP3
  6543   00009A  077A               	dw	_Default_ISR shr (0+2)
  6544                           
  6545                           ; Vector 74 : CWG3
  6546   00009C  077A               	dw	_Default_ISR shr (0+2)
  6547                           
  6548                           ; Vector 75 : CLC3
  6549   00009E  077A               	dw	_Default_ISR shr (0+2)
  6550                           
  6551                           ; Vector 76 : Undefined
  6552   0000A0  002B               	dw	ivt0x8_undefint shr (0+2)
  6553                           
  6554                           ; Vector 77 : Undefined
  6555   0000A2  002B               	dw	ivt0x8_undefint shr (0+2)
  6556                           
  6557                           ; Vector 78 : Undefined
  6558   0000A4  002B               	dw	ivt0x8_undefint shr (0+2)
  6559                           
  6560                           ; Vector 79 : Undefined
  6561   0000A6  002B               	dw	ivt0x8_undefint shr (0+2)
  6562                           
  6563                           ; Vector 80 : CCP4
  6564   0000A8  077A               	dw	_Default_ISR shr (0+2)
  6565                           
  6566                           ; Vector 81 : CLC4
  6567   0000AA  077A               	dw	_Default_ISR shr (0+2)
  6568   0000AC                     ivt0x8_undefint:
  6569                           	callstack 0
  6570   0000AC  00FF               	reset	
  6571                           
  6572                           	psect	text75
  6573   000000                     __ptext75:
  6574                           	callstack 0
  6575   000000                     
  6576                           	psect	rparam
  6577   000000                     
  6578                           	psect	idloc
  6579                           
  6580                           ;Config register IDLOC0 @ 0x200000
  6581                           ;	unspecified, using default values
  6582   200000                     	org	2097152
  6583   200000  0FFF               	dw	4095
  6584                           
  6585                           ;Config register IDLOC1 @ 0x200002
  6586                           ;	unspecified, using default values
  6587   200002                     	org	2097154
  6588   200002  0FFF               	dw	4095
  6589                           
  6590                           ;Config register IDLOC2 @ 0x200004
  6591                           ;	unspecified, using default values
  6592   200004                     	org	2097156
  6593   200004  0FFF               	dw	4095
  6594                           
  6595                           ;Config register IDLOC3 @ 0x200006
  6596                           ;	unspecified, using default values
  6597   200006                     	org	2097158
  6598   200006  0FFF               	dw	4095
  6599                           
  6600                           ;Config register IDLOC4 @ 0x200008
  6601                           ;	unspecified, using default values
  6602   200008                     	org	2097160
  6603   200008  0FFF               	dw	4095
  6604                           
  6605                           ;Config register IDLOC5 @ 0x20000A
  6606                           ;	unspecified, using default values
  6607   20000A                     	org	2097162
  6608   20000A  0FFF               	dw	4095
  6609                           
  6610                           ;Config register IDLOC6 @ 0x20000C
  6611                           ;	unspecified, using default values
  6612   20000C                     	org	2097164
  6613   20000C  0FFF               	dw	4095
  6614                           
  6615                           ;Config register IDLOC7 @ 0x20000E
  6616                           ;	unspecified, using default values
  6617   20000E                     	org	2097166
  6618   20000E  0FFF               	dw	4095
  6619                           
  6620                           	psect	config
  6621                           
  6622                           ;Config register CONFIG1L @ 0x300000
  6623                           ;	External Oscillator Selection
  6624                           ;	FEXTOSC = HS, HS (crystal oscillator) above 8 MHz; PFM set to high power
  6625                           ;	Reset Oscillator Selection
  6626                           ;	RSTOSC = HFINTOSC_64MHZ, HFINTOSC with HFFRQ = 64 MHz and CDIV = 1:1
  6627   300000                     	org	3145728
  6628   300000  8A                 	db	138
  6629                           
  6630                           ;Config register CONFIG1H @ 0x300001
  6631                           ;	Clock out Enable bit
  6632                           ;	CLKOUTEN = OFF, CLKOUT function is disabled
  6633                           ;	PRLOCKED One-Way Set Enable bit
  6634                           ;	PR1WAY = ON, PRLOCK bit can be cleared and set only once
  6635                           ;	Clock Switch Enable bit
  6636                           ;	CSWEN = ON, Writing to NOSC and NDIV is allowed
  6637                           ;	Fail-Safe Clock Monitor Enable bit
  6638                           ;	FCMEN = ON, Fail-Safe Clock Monitor enabled
  6639   300001                     	org	3145729
  6640   300001  FF                 	db	255
  6641                           
  6642                           ;Config register CONFIG2L @ 0x300002
  6643                           ;	MCLR Enable bit
  6644                           ;	MCLRE = EXTMCLR, If LVP = 0, MCLR pin is MCLR; If LVP = 1, RE3 pin function is MCLR
  6645                           ;	Power-up timer selection bits
  6646                           ;	PWRTS = PWRT_OFF, PWRT is disabled
  6647                           ;	Multi-vector enable bit
  6648                           ;	MVECEN = ON, Multi-vector enabled, Vector table used for interrupts
  6649                           ;	IVTLOCK bit One-way set enable bit
  6650                           ;	IVT1WAY = ON, IVTLOCK bit can be cleared and set only once
  6651                           ;	Low Power BOR Enable bit
  6652                           ;	LPBOREN = OFF, ULPBOR disabled
  6653                           ;	Brown-out Reset Enable bits
  6654                           ;	BOREN = SBORDIS, Brown-out Reset enabled , SBOREN bit is ignored
  6655   300002                     	org	3145730
  6656   300002  FF                 	db	255
  6657                           
  6658                           ;Config register CONFIG2H @ 0x300003
  6659                           ;	Brown-out Reset Voltage Selection bits
  6660                           ;	BORV = VBOR_2P45, Brown-out Reset Voltage (VBOR) set to 2.45V
  6661                           ;	ZCD Disable bit
  6662                           ;	ZCD = OFF, ZCD disabled. ZCD can be enabled by setting the ZCDSEN bit of ZCDCON
  6663                           ;	PPSLOCK bit One-Way Set Enable bit
  6664                           ;	PPS1WAY = ON, PPSLOCK bit can be cleared and set only once; PPS registers remain locke
      +                          d after one clear/set cycle
  6665                           ;	Stack Full/Underflow Reset Enable bit
  6666                           ;	STVREN = ON, Stack full/underflow will cause Reset
  6667                           ;	Debugger Enable bit
  6668                           ;	DEBUG = OFF, Background debugger disabled
  6669                           ;	Extended Instruction Set Enable bit
  6670                           ;	XINST = OFF, Extended Instruction Set and Indexed Addressing Mode disabled
  6671   300003                     	org	3145731
  6672   300003  FF                 	db	255
  6673                           
  6674                           ;Config register CONFIG3L @ 0x300004
  6675                           ;	WDT Period selection bits
  6676                           ;	WDTCPS = WDTCPS_31, Divider ratio 1:65536; software control of WDTPS
  6677                           ;	WDT operating mode
  6678                           ;	WDTE = OFF, WDT Disabled; SWDTEN is ignored
  6679   300004                     	org	3145732
  6680   300004  9F                 	db	159
  6681                           
  6682                           ;Config register CONFIG3H @ 0x300005
  6683                           ;	WDT Window Select bits
  6684                           ;	WDTCWS = WDTCWS_7, window always open (100%); software control; keyed access not requi
      +                          red
  6685                           ;	WDT input clock selector
  6686                           ;	WDTCCS = SC, Software Control
  6687   300005                     	org	3145733
  6688   300005  FF                 	db	255
  6689                           
  6690                           ;Config register CONFIG4L @ 0x300006
  6691                           ;	Boot Block Size selection bits
  6692                           ;	BBSIZE = BBSIZE_512, Boot Block size is 512 words
  6693                           ;	Boot Block enable bit
  6694                           ;	BBEN = OFF, Boot block disabled
  6695                           ;	Storage Area Flash enable bit
  6696                           ;	SAFEN = OFF, SAF disabled
  6697                           ;	Application Block write protection bit
  6698                           ;	WRTAPP = OFF, Application Block not write protected
  6699   300006                     	org	3145734
  6700   300006  FF                 	db	255
  6701                           
  6702                           ;Config register CONFIG4H @ 0x300007
  6703                           ;	Boot Block Write Protection bit
  6704                           ;	WRTB = OFF, Boot Block not write-protected
  6705                           ;	Configuration Register Write Protection bit
  6706                           ;	WRTC = OFF, Configuration registers not write-protected
  6707                           ;	Data EEPROM Write Protection bit
  6708                           ;	WRTD = OFF, Data EEPROM not write-protected
  6709                           ;	SAF Write protection bit
  6710                           ;	WRTSAF = OFF, SAF not Write Protected
  6711                           ;	Low Voltage Programming Enable bit
  6712                           ;	LVP = ON, Low voltage programming enabled. MCLR/VPP pin function is MCLR. MCLRE config
      +                          uration bit is ignored
  6713   300007                     	org	3145735
  6714   300007  FF                 	db	255
  6715                           
  6716                           ;Config register CONFIG5L @ 0x300008
  6717                           ;	PFM and Data EEPROM Code Protection bit
  6718                           ;	CP = OFF, PFM and Data EEPROM code protection disabled
  6719   300008                     	org	3145736
  6720   300008  FF                 	db	255
  6721                           
  6722                           ;Config register CONFIG5H @ 0x300009
  6723                           ;	unspecified, using default values
  6724   300009                     	org	3145737
  6725   300009  FF                 	db	255
  6726                           tosu	equ	0x3FFF
  6727                           tosh	equ	0x3FFE
  6728                           tosl	equ	0x3FFD
  6729                           stkptr	equ	0x3FFC
  6730                           pclatu	equ	0x3FFB
  6731                           pclath	equ	0x3FFA
  6732                           pcl	equ	0x3FF9
  6733                           tblptru	equ	0x3FF8
  6734                           tblptrh	equ	0x3FF7
  6735                           tblptrl	equ	0x3FF6
  6736                           tablat	equ	0x3FF5
  6737                           prodh	equ	0x3FF4
  6738                           prodl	equ	0x3FF3
  6739                           indf0	equ	0x3FEF
  6740                           postinc0	equ	0x3FEE
  6741                           postdec0	equ	0x3FED
  6742                           preinc0	equ	0x3FEC
  6743                           plusw0	equ	0x3FEB
  6744                           fsr0h	equ	0x3FEA
  6745                           fsr0l	equ	0x3FE9
  6746                           wreg	equ	0x3FE8
  6747                           indf1	equ	0x3FE7
  6748                           postinc1	equ	0x3FE6
  6749                           postdec1	equ	0x3FE5
  6750                           preinc1	equ	0x3FE4
  6751                           plusw1	equ	0x3FE3
  6752                           fsr1h	equ	0x3FE2
  6753                           fsr1l	equ	0x3FE1
  6754                           bsr	equ	0x3FE0
  6755                           indf2	equ	0x3FDF
  6756                           postinc2	equ	0x3FDE
  6757                           postdec2	equ	0x3FDD
  6758                           preinc2	equ	0x3FDC
  6759                           plusw2	equ	0x3FDB
  6760                           fsr2h	equ	0x3FDA
  6761                           fsr2l	equ	0x3FD9
  6762                           status	equ	0x3FD8

Data Sizes:
    Strings     0
    Constant    103
    Data        2
    BSS         85
    Persistent  2
    Stack       0

Auto Spaces:
    Space          Size  Autos    Used
    COMRAM           95     24      73
    BANK0           160     22      62
    BANK1           256      0       0
    BANK2           256      0       0
    BANK3           256      0       0
    BANK4           256      0       0
    BANK5           256      0       0
    BANK6           256      0       0
    BANK7           256      0       0
    BANK8           256      0       0
    BANK9           256      0       0
    BANK10          256      0       0
    BANK11          256      0       0
    BANK12          256      0       0
    BANK13          256      0       0
    BANK14          256      0       0
    BANK15          256      0       0

Pointer List with Targets:

    S562$2$1	PTR unsigned char  size(2) Largest target is 0

    S562$3$1	PTR unsigned char  size(2) Largest target is 0

    S562$4$3	PTR unsigned char  size(2) Largest target is 0

    S562$4$1	PTR unsigned char  size(2) Largest target is 0

    Absolute function$0	PTR struct . size(2) Largest target is 0

    S562$8$0	PTR FTN()void  size(2) Largest target is 1
		 -> I2C2_DefaultCallback(), 

    S1285$3$0	PTR void  size(2) Largest target is 0

    S1285$4$0	PTR void  size(2) Largest target is 0

    S1285$5$0	PTR void  size(2) Largest target is 0

    S1995$4$0	PTR FTN()void  size(2) Largest target is 1
		 -> Timer_int(), Timer_DefaultOverflowCallback(), 

    S2210$17$0	PTR FTN()void  size(2) Largest target is 0

    S2210$18$0	PTR FTN()void  size(2) Largest target is 0

    S2210$20$0	PTR FTN()void  size(2) Largest target is 1
		 -> UART1_DefaultFramingErrorCallback(), 

    S2210$21$0	PTR FTN()void  size(2) Largest target is 1
		 -> UART1_DefaultOverrunErrorCallback(), 

    S2210$22$0	PTR FTN()void  size(2) Largest target is 1
		 -> UART1_DefaultParityErrorCallback(), 

    UART1_ParityErrorHandler	PTR FTN()void  size(2) Largest target is 1
		 -> UART1_DefaultParityErrorCallback(), Absolute function(), 

    UART1_ParityErrorCallbackRegister@callbackHandler	PTR FTN()void  size(2) Largest target is 1
		 -> UART1_DefaultParityErrorCallback(), 

    UART1_OverrunErrorCallbackRegister@callbackHandler	PTR FTN()void  size(2) Largest target is 1
		 -> UART1_DefaultOverrunErrorCallback(), 

    UART1_FramingErrorCallbackRegister@callbackHandler	PTR FTN()void  size(2) Largest target is 1
		 -> UART1_DefaultFramingErrorCallback(), 

    UART1_TxCompleteInterruptHandler	PTR FTN()void  size(2) Largest target is 1
		 -> Absolute function(), 

    UART1_RxCompleteInterruptHandler	PTR FTN()void  size(2) Largest target is 1
		 -> Absolute function(), 

    UART1_OverrunErrorHandler	PTR FTN()void  size(2) Largest target is 1
		 -> UART1_DefaultOverrunErrorCallback(), Absolute function(), 

    UART1_FramingErrorHandler	PTR FTN()void  size(2) Largest target is 1
		 -> UART1_DefaultFramingErrorCallback(), Absolute function(), 

    UART1_TxInterruptHandler	PTR FTN()void  size(2) Largest target is 1
		 -> UART1_TransmitISR(), Absolute function(), 

    UART1_RxInterruptHandler	PTR FTN()void  size(2) Largest target is 1
		 -> UART1_ReceiveISR(), Absolute function(), 

    S2210$EventCallbackRegister	PTR FTN(PTR FTN()void ,)void  size(2) Largest target is 1
		 -> Absolute function(), 

    UART.EventCallbackRegister	PTR FTN(PTR FTN()void ,)void  size(2) Largest target is 1
		 -> Absolute function(), 

    S2210$ParityErrorCallbackRegister	PTR FTN(PTR FTN()void ,)void  size(2) Largest target is 1
		 -> UART1_ParityErrorCallbackRegister(), 

    UART.ParityErrorCallbackRegister	PTR FTN(PTR FTN()void ,)void  size(2) Largest target is 1
		 -> UART1_ParityErrorCallbackRegister(), 

    S2210$OverrunErrorCallbackRegister	PTR FTN(PTR FTN()void ,)void  size(2) Largest target is 1
		 -> UART1_OverrunErrorCallbackRegister(), 

    UART.OverrunErrorCallbackRegister	PTR FTN(PTR FTN()void ,)void  size(2) Largest target is 1
		 -> UART1_OverrunErrorCallbackRegister(), 

    S2210$FramingErrorCallbackRegister	PTR FTN(PTR FTN()void ,)void  size(2) Largest target is 1
		 -> UART1_FramingErrorCallbackRegister(), 

    UART.FramingErrorCallbackRegister	PTR FTN(PTR FTN()void ,)void  size(2) Largest target is 1
		 -> UART1_FramingErrorCallbackRegister(), 

    S2210$TxCollisionCallbackRegister	PTR FTN(PTR FTN()void ,)void  size(2) Largest target is 1
		 -> Absolute function(), 

    UART.TxCollisionCallbackRegister	PTR FTN(PTR FTN()void ,)void  size(2) Largest target is 1
		 -> Absolute function(), 

    S2210$RxCompleteCallbackRegister	PTR FTN(PTR FTN()void ,)void  size(2) Largest target is 1
		 -> UART1_RxCompleteCallbackRegister(), 

    UART.RxCompleteCallbackRegister	PTR FTN(PTR FTN()void ,)void  size(2) Largest target is 1
		 -> UART1_RxCompleteCallbackRegister(), 

    S2210$TxCompleteCallbackRegister	PTR FTN(PTR FTN()void ,)void  size(2) Largest target is 1
		 -> UART1_TxCompleteCallbackRegister(), 

    UART.TxCompleteCallbackRegister	PTR FTN(PTR FTN()void ,)void  size(2) Largest target is 1
		 -> UART1_TxCompleteCallbackRegister(), 

    S2210$ErrorGet	PTR FTN()unsigned int  size(2) Largest target is 2
		 -> UART1_ErrorGet(), 

    UART.ErrorGet	PTR FTN()unsigned int  size(2) Largest target is 2
		 -> UART1_ErrorGet(), 

    S2210$BaudRateGet	PTR FTN()unsigned long  size(2) Largest target is 1
		 -> Absolute function(), 

    UART.BaudRateGet	PTR FTN()unsigned long  size(2) Largest target is 1
		 -> Absolute function(), 

    S2210$BaudRateSet	PTR FTN(unsigned long ,)void  size(2) Largest target is 1
		 -> Absolute function(), 

    UART.BaudRateSet	PTR FTN(unsigned long ,)void  size(2) Largest target is 1
		 -> Absolute function(), 

    S2210$BRGCountGet	PTR FTN()unsigned long  size(2) Largest target is 1
		 -> Absolute function(), 

    UART.BRGCountGet	PTR FTN()unsigned long  size(2) Largest target is 1
		 -> Absolute function(), 

    S2210$BRGCountSet	PTR FTN(unsigned long ,)void  size(2) Largest target is 1
		 -> Absolute function(), 

    UART.BRGCountSet	PTR FTN(unsigned long ,)void  size(2) Largest target is 1
		 -> Absolute function(), 

    S2210$AutoBaudEventEnableGet	PTR FTN()_Bool  size(2) Largest target is 1
		 -> Absolute function(), 

    UART.AutoBaudEventEnableGet	PTR FTN()_Bool  size(2) Largest target is 1
		 -> Absolute function(), 

    S2210$AutoBaudQuery	PTR FTN()_Bool  size(2) Largest target is 1
		 -> UART1_AutoBaudQuery(), 

    UART.AutoBaudQuery	PTR FTN()_Bool  size(2) Largest target is 1
		 -> UART1_AutoBaudQuery(), 

    S2210$AutoBaudSet	PTR FTN(_Bool ,)void  size(2) Largest target is 1
		 -> UART1_AutoBaudSet(), 

    UART.AutoBaudSet	PTR FTN(_Bool ,)void  size(2) Largest target is 1
		 -> UART1_AutoBaudSet(), 

    S2210$TransmitDisable	PTR FTN()void  size(2) Largest target is 1
		 -> UART1_TransmitDisable(), 

    UART.TransmitDisable	PTR FTN()void  size(2) Largest target is 1
		 -> UART1_TransmitDisable(), 

    S2210$TransmitEnable	PTR FTN()void  size(2) Largest target is 1
		 -> UART1_TransmitEnable(), 

    UART.TransmitEnable	PTR FTN()void  size(2) Largest target is 1
		 -> UART1_TransmitEnable(), 

    S2210$IsTxDone	PTR FTN()_Bool  size(2) Largest target is 1
		 -> UART1_IsTxDone(), 

    UART.IsTxDone	PTR FTN()_Bool  size(2) Largest target is 1
		 -> UART1_IsTxDone(), 

    S2210$IsTxReady	PTR FTN()_Bool  size(2) Largest target is 1
		 -> UART1_IsTxReady(), 

    UART.IsTxReady	PTR FTN()_Bool  size(2) Largest target is 1
		 -> UART1_IsTxReady(), 

    S2210$IsRxReady	PTR FTN()_Bool  size(2) Largest target is 1
		 -> UART1_IsRxReady(), 

    UART.IsRxReady	PTR FTN()_Bool  size(2) Largest target is 1
		 -> UART1_IsRxReady(), 

    S2210$Write	PTR FTN(unsigned char ,)void  size(2) Largest target is 1
		 -> UART1_Write(), 

    UART.Write	PTR FTN(unsigned char ,)void  size(2) Largest target is 1
		 -> UART1_Write(), 

    S2210$Read	PTR FTN()unsigned char  size(2) Largest target is 1
		 -> UART1_Read(), 

    UART.Read	PTR FTN()unsigned char  size(2) Largest target is 1
		 -> UART1_Read(), 

    S2210$Deinitialize	PTR FTN()void  size(2) Largest target is 1
		 -> UART1_Deinitialize(), 

    UART.Deinitialize	PTR FTN()void  size(2) Largest target is 1
		 -> UART1_Deinitialize(), 

    S2210$Initialize	PTR FTN()void  size(2) Largest target is 1
		 -> UART1_Initialize(), 

    UART.Initialize	PTR FTN()void  size(2) Largest target is 1
		 -> UART1_Initialize(), 

    Timer_OverflowCallbackRegister@CallbackHandler	PTR FTN()void  size(2) Largest target is 1
		 -> Timer_int(), Timer_DefaultOverflowCallback(), 

    Timer_OverflowCallback	PTR FTN()void  size(2) Largest target is 1
		 -> Timer_int(), Timer_DefaultOverflowCallback(), Absolute function(), 

    S1995TMR_INTERFACE$Tasks	PTR FTN()void  size(2) Largest target is 1
		 -> Absolute function(), 

    Timer.Tasks	PTR FTN()void  size(2) Largest target is 1
		 -> Absolute function(), 

    S1995TMR_INTERFACE$TimeoutCallbackRegister	PTR FTN(PTR FTN()void ,)void  size(2) Largest target is 1
		 -> Timer_OverflowCallbackRegister(), 

    Timer.TimeoutCallbackRegister	PTR FTN(PTR FTN()void ,)void  size(2) Largest target is 1
		 -> Timer_OverflowCallbackRegister(), 

    S1995TMR_INTERFACE$PeriodCountSet	PTR FTN(unsigned int ,)void  size(2) Largest target is 1
		 -> Timer_PeriodCountSet(), 

    Timer.PeriodCountSet	PTR FTN(unsigned int ,)void  size(2) Largest target is 1
		 -> Timer_PeriodCountSet(), 

    S1995TMR_INTERFACE$Stop	PTR FTN()void  size(2) Largest target is 1
		 -> Timer_Stop(), 

    Timer.Stop	PTR FTN()void  size(2) Largest target is 1
		 -> Timer_Stop(), 

    S1995TMR_INTERFACE$Start	PTR FTN()void  size(2) Largest target is 1
		 -> Timer_Start(), 

    Timer.Start	PTR FTN()void  size(2) Largest target is 1
		 -> Timer_Start(), 

    S1995TMR_INTERFACE$Initialize	PTR FTN()void  size(2) Largest target is 1
		 -> Timer_Initialize(), 

    Timer.Initialize	PTR FTN()void  size(2) Largest target is 1
		 -> Timer_Initialize(), 

    INT2_SetInterruptHandler@InterruptHandler	PTR FTN()void  size(2) Largest target is 1
		 -> INT2_DefaultInterruptHandler(), 

    INT2_InterruptHandler	PTR FTN()void  size(2) Largest target is 1
		 -> INT2_DefaultInterruptHandler(), Absolute function(), 

    INT1_SetInterruptHandler@InterruptHandler	PTR FTN()void  size(2) Largest target is 1
		 -> INT1_DefaultInterruptHandler(), 

    INT1_InterruptHandler	PTR FTN()void  size(2) Largest target is 1
		 -> INT1_DefaultInterruptHandler(), Absolute function(), 

    INT0_SetInterruptHandler@InterruptHandler	PTR FTN()void  size(2) Largest target is 1
		 -> INT0_DefaultInterruptHandler(), 

    INT0_InterruptHandler	PTR FTN()void  size(2) Largest target is 1
		 -> INT0_DefaultInterruptHandler(), Absolute function(), 

    S1285SPI_INTERFACE$ByteWrite	PTR FTN(unsigned char ,)void  size(2) Largest target is 1
		 -> SPI_ByteWrite(), 

    SPI.ByteWrite	PTR FTN(unsigned char ,)void  size(2) Largest target is 1
		 -> SPI_ByteWrite(), 

    S1285SPI_INTERFACE$ByteRead	PTR FTN()unsigned char  size(2) Largest target is 1
		 -> SPI_ByteRead(), 

    SPI.ByteRead	PTR FTN()unsigned char  size(2) Largest target is 1
		 -> SPI_ByteRead(), 

    S1285SPI_INTERFACE$ByteExchange	PTR FTN(unsigned char ,)unsigned char  size(2) Largest target is 1
		 -> SPI_ByteExchange(), 

    SPI.ByteExchange	PTR FTN(unsigned char ,)unsigned char  size(2) Largest target is 1
		 -> SPI_ByteExchange(), 

    S1285SPI_INTERFACE$BufferWrite	PTR FTN(PTR void ,unsigned int ,)void  size(2) Largest target is 1
		 -> SPI_BufferWrite(), 

    SPI.BufferWrite	PTR FTN(PTR void ,unsigned int ,)void  size(2) Largest target is 1
		 -> SPI_BufferWrite(), 

    S1285SPI_INTERFACE$BufferRead	PTR FTN(PTR void ,unsigned int ,)void  size(2) Largest target is 1
		 -> SPI_BufferRead(), 

    SPI.BufferRead	PTR FTN(PTR void ,unsigned int ,)void  size(2) Largest target is 1
		 -> SPI_BufferRead(), 

    S1285SPI_INTERFACE$BufferExchange	PTR FTN(PTR void ,unsigned int ,)void  size(2) Largest target is 1
		 -> SPI_BufferExchange(), 

    SPI.BufferExchange	PTR FTN(PTR void ,unsigned int ,)void  size(2) Largest target is 1
		 -> SPI_BufferExchange(), 

    S1285SPI_INTERFACE$Open	PTR FTN(unsigned char ,)_Bool  size(2) Largest target is 1
		 -> SPI_Open(), 

    SPI.Open	PTR FTN(unsigned char ,)_Bool  size(2) Largest target is 1
		 -> SPI_Open(), 

    S1285SPI_INTERFACE$Close	PTR FTN()void  size(2) Largest target is 1
		 -> SPI_Close(), 

    SPI.Close	PTR FTN()void  size(2) Largest target is 1
		 -> SPI_Close(), 

    S1285SPI_INTERFACE$Initialize	PTR FTN()void  size(2) Largest target is 1
		 -> SPI_Initialize(), 

    SPI.Initialize	PTR FTN()void  size(2) Largest target is 1
		 -> SPI_Initialize(), 

    I2C2_Callback	PTR FTN()void  size(2) Largest target is 1
		 -> I2C2_DefaultCallback(), Absolute function(), 

    I2C2_CallbackRegister@callbackHandler	PTR FTN()void  size(2) Largest target is 1
		 -> I2C2_DefaultCallback(), 

    S651$readPtr	PTR unsigned char  size(2) Largest target is 0
		 -> NULL(NULL[0]), 

    i2c2Status.readPtr	PTR unsigned char  size(2) Largest target is 0
		 -> NULL(NULL[0]), 

    S651$writePtr	PTR unsigned char  size(2) Largest target is 0
		 -> NULL(NULL[0]), 

    i2c2Status.writePtr	PTR unsigned char  size(2) Largest target is 0
		 -> NULL(NULL[0]), 

    S562$Tasks	PTR FTN()void  size(2) Largest target is 1
		 -> Absolute function(), 

    I2C_Host.Tasks	PTR FTN()void  size(2) Largest target is 1
		 -> Absolute function(), 

    S562$CallbackRegister	PTR FTN(PTR FTN()void ,)void  size(2) Largest target is 1
		 -> I2C2_CallbackRegister(), 

    I2C_Host.CallbackRegister	PTR FTN(PTR FTN()void ,)void  size(2) Largest target is 1
		 -> I2C2_CallbackRegister(), 

    S562$IsBusy	PTR FTN()_Bool  size(2) Largest target is 1
		 -> I2C2_IsBusy(), 

    I2C_Host.IsBusy	PTR FTN()_Bool  size(2) Largest target is 1
		 -> I2C2_IsBusy(), 

    S562$ErrorGet	PTR FTN()enum E16163 size(2) Largest target is 1
		 -> I2C2_ErrorGet(), 

    I2C_Host.ErrorGet	PTR FTN()enum E16163 size(2) Largest target is 1
		 -> I2C2_ErrorGet(), 

    S562$TransferSetup	PTR FTN(PTR struct .,unsigned long ,)_Bool  size(2) Largest target is 1
		 -> Absolute function(), 

    I2C_Host.TransferSetup	PTR FTN(PTR struct .,unsigned long ,)_Bool  size(2) Largest target is 1
		 -> Absolute function(), 

    S562$WriteRead	PTR FTN(unsigned short ,PTR unsigned char ,unsigned int ,PTR unsigned char ,unsigned int ,)_Bool  size(2) Largest target is 1
		 -> I2C2_WriteRead(), 

    I2C_Host.WriteRead	PTR FTN(unsigned short ,PTR unsigned char ,unsigned int ,PTR unsigned char ,unsigned int ,)_Bool  size(2) Largest target is 1
		 -> I2C2_WriteRead(), 

    S562$Read	PTR FTN(unsigned short ,PTR unsigned char ,unsigned int ,)_Bool  size(2) Largest target is 1
		 -> I2C2_Read(), 

    I2C_Host.Read	PTR FTN(unsigned short ,PTR unsigned char ,unsigned int ,)_Bool  size(2) Largest target is 1
		 -> I2C2_Read(), 

    S562$Write	PTR FTN(unsigned short ,PTR unsigned char ,unsigned int ,)_Bool  size(2) Largest target is 1
		 -> I2C2_Write(), 

    I2C_Host.Write	PTR FTN(unsigned short ,PTR unsigned char ,unsigned int ,)_Bool  size(2) Largest target is 1
		 -> I2C2_Write(), 

    S562$Deinitialize	PTR FTN()void  size(2) Largest target is 1
		 -> I2C2_Deinitialize(), 

    I2C_Host.Deinitialize	PTR FTN()void  size(2) Largest target is 1
		 -> I2C2_Deinitialize(), 

    S562$Initialize	PTR FTN()void  size(2) Largest target is 1
		 -> I2C2_Initialize(), 

    I2C_Host.Initialize	PTR FTN()void  size(2) Largest target is 1
		 -> I2C2_Initialize(), 

    ADCC_SetADIInterruptHandler@InterruptHandler	PTR FTN()void  size(2) Largest target is 1
		 -> ADC_int(), ADCC_DefaultADI_ISR(), 

    ADCC_ADI_InterruptHandler	PTR FTN()void  size(2) Largest target is 1
		 -> ADC_int(), Absolute function(), ADCC_DefaultADI_ISR(), 


Critical Paths under _main in COMRAM

    None.

Critical Paths under _I2C2_ISR in COMRAM

    _I2C2_StopSend->_I2C2_CounterSet
    _I2C2_ReadStart->_I2C2_AddrTransmit

Critical Paths under _I2C2_ERROR_ISR in COMRAM

    _I2C2_StopSend->_I2C2_CounterSet

Critical Paths under _I2C2_RX_ISR in COMRAM

    None.

Critical Paths under _I2C2_TX_ISR in COMRAM

    _I2C2_TX_ISR->_I2C2_DataTransmit

Critical Paths under _IOC_ISR in COMRAM

    None.

Critical Paths under _INT0_ISR in COMRAM

    None.

Critical Paths under _INT1_ISR in COMRAM

    None.

Critical Paths under _INT2_ISR in COMRAM

    None.

Critical Paths under _UART1_Transmit_Vector_ISR in COMRAM

    None.

Critical Paths under _ADCC_ISR in COMRAM

    _ADCC_ISR->_ADC_int
    _ADC_int->_UART1_Write

Critical Paths under _Default_ISR in COMRAM

    None.

Critical Paths under _Timer_OverflowISR in COMRAM

    _Timer_int->_ADCC_StartConversion

Critical Paths under _UART1_Receive_Vector_ISR in COMRAM

    _UART1_Receive_Vector_ISR->_UART1_ReceiveISR

Critical Paths under _main in BANK0

    _SYSTEM_Initialize->_Timer_Initialize
    _UART1_Initialize->_UART1_FramingErrorCallbackRegister
    _UART1_Initialize->_UART1_OverrunErrorCallbackRegister
    _UART1_Initialize->_UART1_ParityErrorCallbackRegister
    _Timer_Initialize->_Timer_OverflowCallbackRegister
    _INTERRUPT_Initialize->_INT0_SetInterruptHandler
    _INTERRUPT_Initialize->_INT1_SetInterruptHandler
    _INTERRUPT_Initialize->_INT2_SetInterruptHandler
    _I2C2_Initialize->_I2C2_CallbackRegister
    _ADCC_Initialize->_ADCC_SetADIInterruptHandler

Critical Paths under _I2C2_ISR in BANK0

    None.

Critical Paths under _I2C2_ERROR_ISR in BANK0

    None.

Critical Paths under _I2C2_RX_ISR in BANK0

    None.

Critical Paths under _I2C2_TX_ISR in BANK0

    None.

Critical Paths under _IOC_ISR in BANK0

    None.

Critical Paths under _INT0_ISR in BANK0

    None.

Critical Paths under _INT1_ISR in BANK0

    None.

Critical Paths under _INT2_ISR in BANK0

    None.

Critical Paths under _UART1_Transmit_Vector_ISR in BANK0

    _UART1_Transmit_Vector_ISR->_UART1_TransmitISR

Critical Paths under _ADCC_ISR in BANK0

    None.

Critical Paths under _Default_ISR in BANK0

    None.

Critical Paths under _Timer_OverflowISR in BANK0

    None.

Critical Paths under _UART1_Receive_Vector_ISR in BANK0

    None.

Critical Paths under _main in BANK1

    None.

Critical Paths under _I2C2_ISR in BANK1

    None.

Critical Paths under _I2C2_ERROR_ISR in BANK1

    None.

Critical Paths under _I2C2_RX_ISR in BANK1

    None.

Critical Paths under _I2C2_TX_ISR in BANK1

    None.

Critical Paths under _IOC_ISR in BANK1

    None.

Critical Paths under _INT0_ISR in BANK1

    None.

Critical Paths under _INT1_ISR in BANK1

    None.

Critical Paths under _INT2_ISR in BANK1

    None.

Critical Paths under _UART1_Transmit_Vector_ISR in BANK1

    None.

Critical Paths under _ADCC_ISR in BANK1

    None.

Critical Paths under _Default_ISR in BANK1

    None.

Critical Paths under _Timer_OverflowISR in BANK1

    None.

Critical Paths under _UART1_Receive_Vector_ISR in BANK1

    None.

Critical Paths under _main in BANK2

    None.

Critical Paths under _I2C2_ISR in BANK2

    None.

Critical Paths under _I2C2_ERROR_ISR in BANK2

    None.

Critical Paths under _I2C2_RX_ISR in BANK2

    None.

Critical Paths under _I2C2_TX_ISR in BANK2

    None.

Critical Paths under _IOC_ISR in BANK2

    None.

Critical Paths under _INT0_ISR in BANK2

    None.

Critical Paths under _INT1_ISR in BANK2

    None.

Critical Paths under _INT2_ISR in BANK2

    None.

Critical Paths under _UART1_Transmit_Vector_ISR in BANK2

    None.

Critical Paths under _ADCC_ISR in BANK2

    None.

Critical Paths under _Default_ISR in BANK2

    None.

Critical Paths under _Timer_OverflowISR in BANK2

    None.

Critical Paths under _UART1_Receive_Vector_ISR in BANK2

    None.

Critical Paths under _main in BANK3

    None.

Critical Paths under _I2C2_ISR in BANK3

    None.

Critical Paths under _I2C2_ERROR_ISR in BANK3

    None.

Critical Paths under _I2C2_RX_ISR in BANK3

    None.

Critical Paths under _I2C2_TX_ISR in BANK3

    None.

Critical Paths under _IOC_ISR in BANK3

    None.

Critical Paths under _INT0_ISR in BANK3

    None.

Critical Paths under _INT1_ISR in BANK3

    None.

Critical Paths under _INT2_ISR in BANK3

    None.

Critical Paths under _UART1_Transmit_Vector_ISR in BANK3

    None.

Critical Paths under _ADCC_ISR in BANK3

    None.

Critical Paths under _Default_ISR in BANK3

    None.

Critical Paths under _Timer_OverflowISR in BANK3

    None.

Critical Paths under _UART1_Receive_Vector_ISR in BANK3

    None.

Critical Paths under _main in BANK4

    None.

Critical Paths under _I2C2_ISR in BANK4

    None.

Critical Paths under _I2C2_ERROR_ISR in BANK4

    None.

Critical Paths under _I2C2_RX_ISR in BANK4

    None.

Critical Paths under _I2C2_TX_ISR in BANK4

    None.

Critical Paths under _IOC_ISR in BANK4

    None.

Critical Paths under _INT0_ISR in BANK4

    None.

Critical Paths under _INT1_ISR in BANK4

    None.

Critical Paths under _INT2_ISR in BANK4

    None.

Critical Paths under _UART1_Transmit_Vector_ISR in BANK4

    None.

Critical Paths under _ADCC_ISR in BANK4

    None.

Critical Paths under _Default_ISR in BANK4

    None.

Critical Paths under _Timer_OverflowISR in BANK4

    None.

Critical Paths under _UART1_Receive_Vector_ISR in BANK4

    None.

Critical Paths under _main in BANK5

    None.

Critical Paths under _I2C2_ISR in BANK5

    None.

Critical Paths under _I2C2_ERROR_ISR in BANK5

    None.

Critical Paths under _I2C2_RX_ISR in BANK5

    None.

Critical Paths under _I2C2_TX_ISR in BANK5

    None.

Critical Paths under _IOC_ISR in BANK5

    None.

Critical Paths under _INT0_ISR in BANK5

    None.

Critical Paths under _INT1_ISR in BANK5

    None.

Critical Paths under _INT2_ISR in BANK5

    None.

Critical Paths under _UART1_Transmit_Vector_ISR in BANK5

    None.

Critical Paths under _ADCC_ISR in BANK5

    None.

Critical Paths under _Default_ISR in BANK5

    None.

Critical Paths under _Timer_OverflowISR in BANK5

    None.

Critical Paths under _UART1_Receive_Vector_ISR in BANK5

    None.

Critical Paths under _main in BANK6

    None.

Critical Paths under _I2C2_ISR in BANK6

    None.

Critical Paths under _I2C2_ERROR_ISR in BANK6

    None.

Critical Paths under _I2C2_RX_ISR in BANK6

    None.

Critical Paths under _I2C2_TX_ISR in BANK6

    None.

Critical Paths under _IOC_ISR in BANK6

    None.

Critical Paths under _INT0_ISR in BANK6

    None.

Critical Paths under _INT1_ISR in BANK6

    None.

Critical Paths under _INT2_ISR in BANK6

    None.

Critical Paths under _UART1_Transmit_Vector_ISR in BANK6

    None.

Critical Paths under _ADCC_ISR in BANK6

    None.

Critical Paths under _Default_ISR in BANK6

    None.

Critical Paths under _Timer_OverflowISR in BANK6

    None.

Critical Paths under _UART1_Receive_Vector_ISR in BANK6

    None.

Critical Paths under _main in BANK7

    None.

Critical Paths under _I2C2_ISR in BANK7

    None.

Critical Paths under _I2C2_ERROR_ISR in BANK7

    None.

Critical Paths under _I2C2_RX_ISR in BANK7

    None.

Critical Paths under _I2C2_TX_ISR in BANK7

    None.

Critical Paths under _IOC_ISR in BANK7

    None.

Critical Paths under _INT0_ISR in BANK7

    None.

Critical Paths under _INT1_ISR in BANK7

    None.

Critical Paths under _INT2_ISR in BANK7

    None.

Critical Paths under _UART1_Transmit_Vector_ISR in BANK7

    None.

Critical Paths under _ADCC_ISR in BANK7

    None.

Critical Paths under _Default_ISR in BANK7

    None.

Critical Paths under _Timer_OverflowISR in BANK7

    None.

Critical Paths under _UART1_Receive_Vector_ISR in BANK7

    None.

Critical Paths under _main in BANK8

    None.

Critical Paths under _I2C2_ISR in BANK8

    None.

Critical Paths under _I2C2_ERROR_ISR in BANK8

    None.

Critical Paths under _I2C2_RX_ISR in BANK8

    None.

Critical Paths under _I2C2_TX_ISR in BANK8

    None.

Critical Paths under _IOC_ISR in BANK8

    None.

Critical Paths under _INT0_ISR in BANK8

    None.

Critical Paths under _INT1_ISR in BANK8

    None.

Critical Paths under _INT2_ISR in BANK8

    None.

Critical Paths under _UART1_Transmit_Vector_ISR in BANK8

    None.

Critical Paths under _ADCC_ISR in BANK8

    None.

Critical Paths under _Default_ISR in BANK8

    None.

Critical Paths under _Timer_OverflowISR in BANK8

    None.

Critical Paths under _UART1_Receive_Vector_ISR in BANK8

    None.

Critical Paths under _main in BANK9

    None.

Critical Paths under _I2C2_ISR in BANK9

    None.

Critical Paths under _I2C2_ERROR_ISR in BANK9

    None.

Critical Paths under _I2C2_RX_ISR in BANK9

    None.

Critical Paths under _I2C2_TX_ISR in BANK9

    None.

Critical Paths under _IOC_ISR in BANK9

    None.

Critical Paths under _INT0_ISR in BANK9

    None.

Critical Paths under _INT1_ISR in BANK9

    None.

Critical Paths under _INT2_ISR in BANK9

    None.

Critical Paths under _UART1_Transmit_Vector_ISR in BANK9

    None.

Critical Paths under _ADCC_ISR in BANK9

    None.

Critical Paths under _Default_ISR in BANK9

    None.

Critical Paths under _Timer_OverflowISR in BANK9

    None.

Critical Paths under _UART1_Receive_Vector_ISR in BANK9

    None.

Critical Paths under _main in BANK10

    None.

Critical Paths under _I2C2_ISR in BANK10

    None.

Critical Paths under _I2C2_ERROR_ISR in BANK10

    None.

Critical Paths under _I2C2_RX_ISR in BANK10

    None.

Critical Paths under _I2C2_TX_ISR in BANK10

    None.

Critical Paths under _IOC_ISR in BANK10

    None.

Critical Paths under _INT0_ISR in BANK10

    None.

Critical Paths under _INT1_ISR in BANK10

    None.

Critical Paths under _INT2_ISR in BANK10

    None.

Critical Paths under _UART1_Transmit_Vector_ISR in BANK10

    None.

Critical Paths under _ADCC_ISR in BANK10

    None.

Critical Paths under _Default_ISR in BANK10

    None.

Critical Paths under _Timer_OverflowISR in BANK10

    None.

Critical Paths under _UART1_Receive_Vector_ISR in BANK10

    None.

Critical Paths under _main in BANK11

    None.

Critical Paths under _I2C2_ISR in BANK11

    None.

Critical Paths under _I2C2_ERROR_ISR in BANK11

    None.

Critical Paths under _I2C2_RX_ISR in BANK11

    None.

Critical Paths under _I2C2_TX_ISR in BANK11

    None.

Critical Paths under _IOC_ISR in BANK11

    None.

Critical Paths under _INT0_ISR in BANK11

    None.

Critical Paths under _INT1_ISR in BANK11

    None.

Critical Paths under _INT2_ISR in BANK11

    None.

Critical Paths under _UART1_Transmit_Vector_ISR in BANK11

    None.

Critical Paths under _ADCC_ISR in BANK11

    None.

Critical Paths under _Default_ISR in BANK11

    None.

Critical Paths under _Timer_OverflowISR in BANK11

    None.

Critical Paths under _UART1_Receive_Vector_ISR in BANK11

    None.

Critical Paths under _main in BANK12

    None.

Critical Paths under _I2C2_ISR in BANK12

    None.

Critical Paths under _I2C2_ERROR_ISR in BANK12

    None.

Critical Paths under _I2C2_RX_ISR in BANK12

    None.

Critical Paths under _I2C2_TX_ISR in BANK12

    None.

Critical Paths under _IOC_ISR in BANK12

    None.

Critical Paths under _INT0_ISR in BANK12

    None.

Critical Paths under _INT1_ISR in BANK12

    None.

Critical Paths under _INT2_ISR in BANK12

    None.

Critical Paths under _UART1_Transmit_Vector_ISR in BANK12

    None.

Critical Paths under _ADCC_ISR in BANK12

    None.

Critical Paths under _Default_ISR in BANK12

    None.

Critical Paths under _Timer_OverflowISR in BANK12

    None.

Critical Paths under _UART1_Receive_Vector_ISR in BANK12

    None.

Critical Paths under _main in BANK13

    None.

Critical Paths under _I2C2_ISR in BANK13

    None.

Critical Paths under _I2C2_ERROR_ISR in BANK13

    None.

Critical Paths under _I2C2_RX_ISR in BANK13

    None.

Critical Paths under _I2C2_TX_ISR in BANK13

    None.

Critical Paths under _IOC_ISR in BANK13

    None.

Critical Paths under _INT0_ISR in BANK13

    None.

Critical Paths under _INT1_ISR in BANK13

    None.

Critical Paths under _INT2_ISR in BANK13

    None.

Critical Paths under _UART1_Transmit_Vector_ISR in BANK13

    None.

Critical Paths under _ADCC_ISR in BANK13

    None.

Critical Paths under _Default_ISR in BANK13

    None.

Critical Paths under _Timer_OverflowISR in BANK13

    None.

Critical Paths under _UART1_Receive_Vector_ISR in BANK13

    None.

Critical Paths under _main in BANK14

    None.

Critical Paths under _I2C2_ISR in BANK14

    None.

Critical Paths under _I2C2_ERROR_ISR in BANK14

    None.

Critical Paths under _I2C2_RX_ISR in BANK14

    None.

Critical Paths under _I2C2_TX_ISR in BANK14

    None.

Critical Paths under _IOC_ISR in BANK14

    None.

Critical Paths under _INT0_ISR in BANK14

    None.

Critical Paths under _INT1_ISR in BANK14

    None.

Critical Paths under _INT2_ISR in BANK14

    None.

Critical Paths under _UART1_Transmit_Vector_ISR in BANK14

    None.

Critical Paths under _ADCC_ISR in BANK14

    None.

Critical Paths under _Default_ISR in BANK14

    None.

Critical Paths under _Timer_OverflowISR in BANK14

    None.

Critical Paths under _UART1_Receive_Vector_ISR in BANK14

    None.

Critical Paths under _main in BANK15

    None.

Critical Paths under _I2C2_ISR in BANK15

    None.

Critical Paths under _I2C2_ERROR_ISR in BANK15

    None.

Critical Paths under _I2C2_RX_ISR in BANK15

    None.

Critical Paths under _I2C2_TX_ISR in BANK15

    None.

Critical Paths under _IOC_ISR in BANK15

    None.

Critical Paths under _INT0_ISR in BANK15

    None.

Critical Paths under _INT1_ISR in BANK15

    None.

Critical Paths under _INT2_ISR in BANK15

    None.

Critical Paths under _UART1_Transmit_Vector_ISR in BANK15

    None.

Critical Paths under _ADCC_ISR in BANK15

    None.

Critical Paths under _Default_ISR in BANK15

    None.

Critical Paths under _Timer_OverflowISR in BANK15

    None.

Critical Paths under _UART1_Receive_Vector_ISR in BANK15

    None.

Call Graph Tables:

 ---------------------------------------------------------------------------------
 (Depth) Function   	        Calls       Base Space   Used Autos Params    Refs
 ---------------------------------------------------------------------------------
 (0) _main                                                 0     0      0    1939
        _ADCC_SetADIInterruptHandler
                  _SYSTEM_Initialize
     _Timer_OverflowCallbackRegister
 ---------------------------------------------------------------------------------
 (1) _SYSTEM_Initialize                                    0     0      0    1517
                    _ADCC_Initialize
                   _CLOCK_Initialize
                     _FVR_Initialize
                    _I2C1_Initialize
                    _I2C2_Initialize
               _INTERRUPT_Initialize
             _PIN_MANAGER_Initialize
                     _SPI_Initialize
                   _Timer_Initialize
                   _UART1_Initialize
                   _UART2_Initialize
 ---------------------------------------------------------------------------------
 (2) _UART2_Initialize                                     0     0      0       0
 ---------------------------------------------------------------------------------
 (2) _UART1_Initialize                                     0     0      0     456
 _UART1_FramingErrorCallbackRegister
 _UART1_OverrunErrorCallbackRegister
  _UART1_ParityErrorCallbackRegister
 ---------------------------------------------------------------------------------
 (3) _UART1_ParityErrorCallbackRegister                    2     0      2     152
                                             18 BANK0      2     0      2
 ---------------------------------------------------------------------------------
 (3) _UART1_OverrunErrorCallbackRegister                   2     0      2     152
                                             18 BANK0      2     0      2
 ---------------------------------------------------------------------------------
 (3) _UART1_FramingErrorCallbackRegister                   2     0      2     152
                                             18 BANK0      2     0      2
 ---------------------------------------------------------------------------------
 (2) _Timer_Initialize                                     2     2      0     211
                                             20 BANK0      2     2      0
     _Timer_OverflowCallbackRegister
 ---------------------------------------------------------------------------------
 (1) _Timer_OverflowCallbackRegister                       2     0      2     211
                                             18 BANK0      2     0      2
 ---------------------------------------------------------------------------------
 (2) _SPI_Initialize                                       0     0      0       0
 ---------------------------------------------------------------------------------
 (2) _PIN_MANAGER_Initialize                               0     0      0       0
 ---------------------------------------------------------------------------------
 (2) _INTERRUPT_Initialize                                 1     1      0     397
                                             20 BANK0      1     1      0
           _INT0_SetInterruptHandler
           _INT1_SetInterruptHandler
           _INT2_SetInterruptHandler
 ---------------------------------------------------------------------------------
 (3) _INT2_SetInterruptHandler                             2     0      2     121
                                             18 BANK0      2     0      2
 ---------------------------------------------------------------------------------
 (3) _INT1_SetInterruptHandler                             2     0      2     121
                                             18 BANK0      2     0      2
 ---------------------------------------------------------------------------------
 (3) _INT0_SetInterruptHandler                             2     0      2     121
                                             18 BANK0      2     0      2
 ---------------------------------------------------------------------------------
 (2) _I2C2_Initialize                                      0     0      0     242
              _I2C2_CallbackRegister
              _I2C2_InterruptsEnable
 ---------------------------------------------------------------------------------
 (3) _I2C2_InterruptsEnable                                0     0      0       0
 ---------------------------------------------------------------------------------
 (3) _I2C2_CallbackRegister                                2     0      2     242
                                             18 BANK0      2     0      2
 ---------------------------------------------------------------------------------
 (2) _I2C1_Initialize                                      0     0      0       0
 ---------------------------------------------------------------------------------
 (2) _FVR_Initialize                                       0     0      0       0
 ---------------------------------------------------------------------------------
 (2) _CLOCK_Initialize                                     0     0      0       0
 ---------------------------------------------------------------------------------
 (2) _ADCC_Initialize                                      0     0      0     211
        _ADCC_SetADIInterruptHandler
 ---------------------------------------------------------------------------------
 (3) _ADCC_SetADIInterruptHandler                          2     0      2     211
                                             18 BANK0      2     0      2
 ---------------------------------------------------------------------------------
 Estimated maximum stack depth 3
 ---------------------------------------------------------------------------------
 (Depth) Function   	        Calls       Base Space   Used Autos Params    Refs
 ---------------------------------------------------------------------------------
 (4) _I2C2_ISR                                             7     7      0      60
                                             13 COMRAM     7     7      0
                         _I2C2_Close
                     _I2C2_ReadStart
                _I2C2_RestartDisable
                      _I2C2_StopSend
 ---------------------------------------------------------------------------------
 (5) _I2C2_StopSend                                        0     0      0      30
                    _I2C2_CounterGet
                    _I2C2_CounterSet
                  _I2C2_DataTransmit
                _I2C2_RestartDisable
 ---------------------------------------------------------------------------------
 (6) _I2C2_RestartDisable                                  0     0      0       0
 ---------------------------------------------------------------------------------
 (5) _I2C2_DataTransmit                                    1     1      0      15
                                             22 COMRAM     1     1      0
 ---------------------------------------------------------------------------------
 (6) _I2C2_CounterGet                                      0     0      0       0
 ---------------------------------------------------------------------------------
 (5) _I2C2_ReadStart                                       0     0      0      30
                  _I2C2_AddrTransmit
                    _I2C2_CounterSet
                     _I2C2_StartSend
 ---------------------------------------------------------------------------------
 (6) _I2C2_StartSend                                       0     0      0       0
 ---------------------------------------------------------------------------------
 (6) _I2C2_CounterSet                                      1     1      0      15
                                             20 COMRAM     1     1      0
 ---------------------------------------------------------------------------------
 (6) _I2C2_AddrTransmit                                    1     1      0      15
                                             12 COMRAM     1     1      0
 ---------------------------------------------------------------------------------
 (5) _I2C2_Close                                           0     0      0       0
                   _I2C2_BufferClear
               _I2C2_ErrorFlagsClear
               _I2C2_InterruptsClear
 ---------------------------------------------------------------------------------
 (6) _I2C2_InterruptsClear                                 0     0      0       0
 ---------------------------------------------------------------------------------
 (6) _I2C2_ErrorFlagsClear                                 0     0      0       0
 ---------------------------------------------------------------------------------
 (6) _I2C2_BufferClear                                     0     0      0       0
 ---------------------------------------------------------------------------------
 Estimated maximum stack depth 6
 ---------------------------------------------------------------------------------
 (Depth) Function   	        Calls       Base Space   Used Autos Params    Refs
 ---------------------------------------------------------------------------------
 (4) _I2C2_ERROR_ISR                                       7     7      0      30
                                              0 BANK0      7     7      0
                   Absolute function *
                      _I2C2_BusReset
               _I2C2_DefaultCallback *
                        _I2C2_IsAddr
                      _I2C2_IsBusCol
                  _I2C2_IsBusTimeOut
                        _I2C2_IsData
                        _I2C2_IsNack
                      _I2C2_StopSend
 ---------------------------------------------------------------------------------
 (5) _I2C2_StopSend                                        0     0      0      30
                    _I2C2_CounterGet
                    _I2C2_CounterSet
                  _I2C2_DataTransmit
                _I2C2_RestartDisable
 ---------------------------------------------------------------------------------
 (6) _I2C2_RestartDisable                                  0     0      0       0
 ---------------------------------------------------------------------------------
 (5) _I2C2_DataTransmit                                    1     1      0      15
                                             22 COMRAM     1     1      0
 ---------------------------------------------------------------------------------
 (6) _I2C2_CounterSet                                      1     1      0      15
                                             20 COMRAM     1     1      0
 ---------------------------------------------------------------------------------
 (6) _I2C2_CounterGet                                      0     0      0       0
 ---------------------------------------------------------------------------------
 (5) _I2C2_IsNack                                          0     0      0       0
 ---------------------------------------------------------------------------------
 (5) _I2C2_IsData                                          0     0      0       0
 ---------------------------------------------------------------------------------
 (5) _I2C2_IsBusTimeOut                                    0     0      0       0
 ---------------------------------------------------------------------------------
 (5) _I2C2_IsBusCol                                        0     0      0       0
 ---------------------------------------------------------------------------------
 (5) _I2C2_IsAddr                                          0     0      0       0
 ---------------------------------------------------------------------------------
 (5) _I2C2_DefaultCallback                                 0     0      0       0
 ---------------------------------------------------------------------------------
 (5) _I2C2_BusReset                                        0     0      0       0
                   _I2C2_BufferClear
               _I2C2_ErrorFlagsClear
               _I2C2_InterruptsClear
             _I2C2_InterruptsDisable
            i1_I2C2_InterruptsEnable
 ---------------------------------------------------------------------------------
 (6) i1_I2C2_InterruptsEnable                              0     0      0       0
 ---------------------------------------------------------------------------------
 (6) _I2C2_InterruptsDisable                               0     0      0       0
 ---------------------------------------------------------------------------------
 (6) _I2C2_InterruptsClear                                 0     0      0       0
 ---------------------------------------------------------------------------------
 (6) _I2C2_ErrorFlagsClear                                 0     0      0       0
 ---------------------------------------------------------------------------------
 (6) _I2C2_BufferClear                                     0     0      0       0
 ---------------------------------------------------------------------------------
 (9) Absolute function(Fake)                               0     0      0       0
 ---------------------------------------------------------------------------------
 Estimated maximum stack depth 9
 ---------------------------------------------------------------------------------
 (Depth) Function   	        Calls       Base Space   Used Autos Params    Refs
 ---------------------------------------------------------------------------------
 (4) _I2C2_RX_ISR                                          1     1      0       0
                                             21 COMRAM     1     1      0
                   _I2C2_DataReceive
 ---------------------------------------------------------------------------------
 (5) _I2C2_DataReceive                                     0     0      0       0
 ---------------------------------------------------------------------------------
 Estimated maximum stack depth 5
 ---------------------------------------------------------------------------------
 (Depth) Function   	        Calls       Base Space   Used Autos Params    Refs
 ---------------------------------------------------------------------------------
 (4) _I2C2_TX_ISR                                          1     1      0      15
                                             23 COMRAM     1     1      0
                  _I2C2_DataTransmit
 ---------------------------------------------------------------------------------
 (5) _I2C2_DataTransmit                                    1     1      0      15
                                             22 COMRAM     1     1      0
 ---------------------------------------------------------------------------------
 Estimated maximum stack depth 5
 ---------------------------------------------------------------------------------
 (Depth) Function   	        Calls       Base Space   Used Autos Params    Refs
 ---------------------------------------------------------------------------------
 (4) _IOC_ISR                                              0     0      0       0
                    _PIN_MANAGER_IOC
 ---------------------------------------------------------------------------------
 (5) _PIN_MANAGER_IOC                                      0     0      0       0
 ---------------------------------------------------------------------------------
 Estimated maximum stack depth 5
 ---------------------------------------------------------------------------------
 (Depth) Function   	        Calls       Base Space   Used Autos Params    Refs
 ---------------------------------------------------------------------------------
 (4) _INT0_ISR                                             3     3      0       0
                                              7 BANK0      3     3      0
                      _INT0_CallBack
 ---------------------------------------------------------------------------------
 (5) _INT0_CallBack                                        0     0      0       0
                   Absolute function *
       _INT0_DefaultInterruptHandler *
 ---------------------------------------------------------------------------------
 (6) _INT0_DefaultInterruptHandler                         0     0      0       0
 ---------------------------------------------------------------------------------
 (9) Absolute function(Fake)                               0     0      0       0
 ---------------------------------------------------------------------------------
 Estimated maximum stack depth 9
 ---------------------------------------------------------------------------------
 (Depth) Function   	        Calls       Base Space   Used Autos Params    Refs
 ---------------------------------------------------------------------------------
 (4) _INT1_ISR                                             3     3      0       0
                                             10 BANK0      3     3      0
                      _INT1_CallBack
 ---------------------------------------------------------------------------------
 (5) _INT1_CallBack                                        0     0      0       0
                   Absolute function *
       _INT1_DefaultInterruptHandler *
 ---------------------------------------------------------------------------------
 (6) _INT1_DefaultInterruptHandler                         0     0      0       0
 ---------------------------------------------------------------------------------
 (9) Absolute function(Fake)                               0     0      0       0
 ---------------------------------------------------------------------------------
 Estimated maximum stack depth 9
 ---------------------------------------------------------------------------------
 (Depth) Function   	        Calls       Base Space   Used Autos Params    Refs
 ---------------------------------------------------------------------------------
 (4) _INT2_ISR                                             3     3      0       0
                                             13 BANK0      3     3      0
                      _INT2_CallBack
 ---------------------------------------------------------------------------------
 (5) _INT2_CallBack                                        0     0      0       0
                   Absolute function *
       _INT2_DefaultInterruptHandler *
 ---------------------------------------------------------------------------------
 (6) _INT2_DefaultInterruptHandler                         0     0      0       0
 ---------------------------------------------------------------------------------
 (9) Absolute function(Fake)                               0     0      0       0
 ---------------------------------------------------------------------------------
 Estimated maximum stack depth 9
 ---------------------------------------------------------------------------------
 (Depth) Function   	        Calls       Base Space   Used Autos Params    Refs
 ---------------------------------------------------------------------------------
 (4) _UART1_Transmit_Vector_ISR                            1     1      0      34
                                             17 BANK0      1     1      0
                  _UART1_TransmitISR
 ---------------------------------------------------------------------------------
 (5) _UART1_TransmitISR                                    1     1      0      34
                                             16 BANK0      1     1      0
 ---------------------------------------------------------------------------------
 Estimated maximum stack depth 5
 ---------------------------------------------------------------------------------
 (Depth) Function   	        Calls       Base Space   Used Autos Params    Refs
 ---------------------------------------------------------------------------------
 (7) _ADCC_ISR                                             2     2      0      89
                                              3 COMRAM     2     2      0
                   Absolute function *
                _ADCC_DefaultADI_ISR *
                            _ADC_int *
 ---------------------------------------------------------------------------------
 (8) _ADC_int                                              1     1      0      89
                                              2 COMRAM     1     1      0
               _ADCC_StartConversion
                        _UART1_Write
 ---------------------------------------------------------------------------------
 (9) _UART1_Write                                          2     2      0      67
                                              0 COMRAM     2     2      0
 ---------------------------------------------------------------------------------
 (9) _ADCC_StartConversion                                 1     1      0      22
                                              5 COMRAM     1     1      0
 ---------------------------------------------------------------------------------
 (8) _ADCC_DefaultADI_ISR                                  0     0      0       0
 ---------------------------------------------------------------------------------
 (9) Absolute function(Fake)                               0     0      0       0
 ---------------------------------------------------------------------------------
 Estimated maximum stack depth 9
 ---------------------------------------------------------------------------------
 (Depth) Function   	        Calls       Base Space   Used Autos Params    Refs
 ---------------------------------------------------------------------------------
 (7) _Default_ISR                                          0     0      0       0
 ---------------------------------------------------------------------------------
 Estimated maximum stack depth 7
 ---------------------------------------------------------------------------------
 (Depth) Function   	        Calls       Base Space   Used Autos Params    Refs
 ---------------------------------------------------------------------------------
 (7) _Timer_OverflowISR                                    2     2      0      22
                                              6 COMRAM     2     2      0
                   Absolute function *
      _Timer_DefaultOverflowCallback *
                          _Timer_int *
 ---------------------------------------------------------------------------------
 (8) _Timer_int                                            0     0      0      22
               _ADCC_StartConversion
 ---------------------------------------------------------------------------------
 (9) _ADCC_StartConversion                                 1     1      0      22
                                              5 COMRAM     1     1      0
 ---------------------------------------------------------------------------------
 (8) _Timer_DefaultOverflowCallback                        0     0      0       0
 ---------------------------------------------------------------------------------
 (9) Absolute function(Fake)                               0     0      0       0
 ---------------------------------------------------------------------------------
 Estimated maximum stack depth 9
 ---------------------------------------------------------------------------------
 (Depth) Function   	        Calls       Base Space   Used Autos Params    Refs
 ---------------------------------------------------------------------------------
 (7) _UART1_Receive_Vector_ISR                             2     2      0      68
                                             10 COMRAM     2     2      0
                   _UART1_ReceiveISR
 ---------------------------------------------------------------------------------
 (8) _UART1_ReceiveISR                                     2     2      0      68
                                              8 COMRAM     2     2      0
                   Absolute function *
  _UART1_DefaultFramingErrorCallback *
  _UART1_DefaultOverrunErrorCallback *
 ---------------------------------------------------------------------------------
 (9) _UART1_DefaultOverrunErrorCallback                    0     0      0       0
 ---------------------------------------------------------------------------------
 (9) _UART1_DefaultFramingErrorCallback                    0     0      0       0
 ---------------------------------------------------------------------------------
 (9) Absolute function(Fake)                               0     0      0       0
 ---------------------------------------------------------------------------------
 Estimated maximum stack depth 9
 ---------------------------------------------------------------------------------

 Call Graph Graphs:

 _main (ROOT)
   _ADCC_SetADIInterruptHandler
   _SYSTEM_Initialize
     _ADCC_Initialize
       _ADCC_SetADIInterruptHandler
     _CLOCK_Initialize
     _FVR_Initialize
     _I2C1_Initialize
     _I2C2_Initialize
       _I2C2_CallbackRegister
       _I2C2_InterruptsEnable
     _INTERRUPT_Initialize
       _INT0_SetInterruptHandler
       _INT1_SetInterruptHandler
       _INT2_SetInterruptHandler
     _PIN_MANAGER_Initialize
     _SPI_Initialize
     _Timer_Initialize
       _Timer_OverflowCallbackRegister
     _UART1_Initialize
       _UART1_FramingErrorCallbackRegister
       _UART1_OverrunErrorCallbackRegister
       _UART1_ParityErrorCallbackRegister
     _UART2_Initialize
   _Timer_OverflowCallbackRegister

 _I2C2_ISR (ROOT)
   _I2C2_Close
     _I2C2_BufferClear
     _I2C2_ErrorFlagsClear
     _I2C2_InterruptsClear
   _I2C2_ReadStart
     _I2C2_AddrTransmit
     _I2C2_CounterSet
     _I2C2_StartSend
   _I2C2_RestartDisable
   _I2C2_StopSend
     _I2C2_CounterGet
     _I2C2_CounterSet
     _I2C2_DataTransmit
     _I2C2_RestartDisable

 _I2C2_ERROR_ISR (ROOT)
   Absolute function(Fake) *
   _I2C2_BusReset *
     _I2C2_BufferClear
     _I2C2_ErrorFlagsClear
     _I2C2_InterruptsClear
     _I2C2_InterruptsDisable
     i1_I2C2_InterruptsEnable
   _I2C2_DefaultCallback *
   _I2C2_IsAddr *
   _I2C2_IsBusCol *
   _I2C2_IsBusTimeOut *
   _I2C2_IsData *
   _I2C2_IsNack *
   _I2C2_StopSend *
     _I2C2_CounterGet
     _I2C2_CounterSet
     _I2C2_DataTransmit
     _I2C2_RestartDisable

 _I2C2_RX_ISR (ROOT)
   _I2C2_DataReceive

 _I2C2_TX_ISR (ROOT)
   _I2C2_DataTransmit

 _IOC_ISR (ROOT)
   _PIN_MANAGER_IOC

 _INT0_ISR (ROOT)
   _INT0_CallBack
     Absolute function(Fake) *
     _INT0_DefaultInterruptHandler *

 _INT1_ISR (ROOT)
   _INT1_CallBack
     Absolute function(Fake) *
     _INT1_DefaultInterruptHandler *

 _INT2_ISR (ROOT)
   _INT2_CallBack
     Absolute function(Fake) *
     _INT2_DefaultInterruptHandler *

 _UART1_Transmit_Vector_ISR (ROOT)
   _UART1_TransmitISR

 _ADCC_ISR (ROOT)
   Absolute function(Fake) *
   _ADCC_DefaultADI_ISR *
   _ADC_int *
     _ADCC_StartConversion
     _UART1_Write

 _Default_ISR (ROOT)

 _Timer_OverflowISR (ROOT)
   Absolute function(Fake) *
   _Timer_DefaultOverflowCallback *
   _Timer_int *
     _ADCC_StartConversion

 _UART1_Receive_Vector_ISR (ROOT)
   _UART1_ReceiveISR
     Absolute function(Fake) *
     _UART1_DefaultFramingErrorCallback *
     _UART1_DefaultOverrunErrorCallback *

 Address spaces:
Name               Size   Autos  Total    Cost      Usage
BIGRAM             FFF      0       0      85        0.0%
EEDATA             400      0       0       0        0.0%
BITBIGSFRlhlllh    22A      0       0      58        0.0%
BITBIGSFRllll      180      0       0      83        0.0%
BITBANK15          100      0       0      34        0.0%
BANK15             100      0       0      35        0.0%
BITBANK14          100      0       0      32        0.0%
BANK14             100      0       0      33        0.0%
BITBANK13          100      0       0      30        0.0%
BANK13             100      0       0      31        0.0%
BITBANK12          100      0       0      28        0.0%
BANK12             100      0       0      29        0.0%
BITBANK11          100      0       0      26        0.0%
BANK11             100      0       0      27        0.0%
BITBANK10          100      0       0      24        0.0%
BANK10             100      0       0      25        0.0%
BITBANK9           100      0       0      22        0.0%
BANK9              100      0       0      23        0.0%
BITBANK8           100      0       0      20        0.0%
BANK8              100      0       0      21        0.0%
BITBANK7           100      0       0      18        0.0%
BANK7              100      0       0      19        0.0%
BITBANK6           100      0       0      16        0.0%
BANK6              100      0       0      17        0.0%
BITBANK5           100      0       0      14        0.0%
BANK5              100      0       0      15        0.0%
BITBANK4           100      0       0      12        0.0%
BANK4              100      0       0      13        0.0%
BITBANK3           100      0       0      10        0.0%
BANK3              100      0       0      11        0.0%
BITBANK2           100      0       0       8        0.0%
BANK2              100      0       0       9        0.0%
BITBANK1           100      0       0       6        0.0%
BANK1              100      0       0       7        0.0%
BITBIGSFRlhlhhh     C6      0       0      43        0.0%
BITBIGSFRhhhhhh     B6      0       0      40        0.0%
BITBANK0            A0      0       0       4        0.0%
BANK0               A0     16      3E       5       38.8%
BITCOMRAM           5F      0       0       0        0.0%
COMRAM              5F     18      49       1       76.8%
BITBIGSFRlhlllh     56      0       0      60        0.0%
BITBIGSFRlhlhhh     55      0       0      49        0.0%
BITBIGSFRlhlllh     37      0       0      54        0.0%
BITBIGSFRlhllll     31      0       0      74        0.0%
BITBIGSFRlhllll     29      0       0      71        0.0%
BITBIGSFRlhllll     29      0       0      68        0.0%
BITBIGSFRhhhhhh     28      0       0      36        0.0%
BITBIGSFRlhh        1C      0       0      42        0.0%
BITBIGSFRhhhhhh      B      0       0      38        0.0%
BITBIGSFRlllhhh      A      0       0      80        0.0%
BITBIGSFRllhh        A      0       0      77        0.0%
BITBIGSFRlhllll      8      0       0      70        0.0%
BITBIGSFRlhllll      8      0       0      67        0.0%
BITBIGSFRlhlllh      5      0       0      62        0.0%
BITBIGSFRlhlhhh      5      0       0      44        0.0%
BITBIGSFRlhlhhl      5      0       0      51        0.0%
BITBIGSFRlhlllh      4      0       0      61        0.0%
BITBIGSFRlhllll      4      0       0      65        0.0%
BITBIGSFRlhllhh      4      0       0      52        0.0%
BITBIGSFRlhlllh      4      0       0      63        0.0%
BITBIGSFRlhlllh      3      0       0      59        0.0%
BITBIGSFRhhhhhh      3      0       0      39        0.0%
BITBIGSFRlhllll      2      0       0      69        0.0%
BITBIGSFRlhllll      2      0       0      64        0.0%
BITBIGSFRlhllll      2      0       0      66        0.0%
BITBIGSFRlhlllh      2      0       0      55        0.0%
BITBIGSFRlhlllh      2      0       0      56        0.0%
BITBIGSFRllhlh       1      0       0      78        0.0%
BITBIGSFRlhllll      1      0       0      75        0.0%
BITBIGSFRlllhhl      1      0       0      81        0.0%
BITBIGSFRlllhl       1      0       0      82        0.0%
BITBIGSFRhhhhhh      1      0       0      37        0.0%
BITBIGSFRlhllll      1      0       0      72        0.0%
BITBIGSFRlhllll      1      0       0      73        0.0%
BITBIGSFRlhlllh      1      0       0      57        0.0%
BITBIGSFRlhlhhh      1      0       0      45        0.0%
BITBIGSFRlhlhhh      1      0       0      46        0.0%
BITBIGSFRlhlhhh      1      0       0      47        0.0%
BITBIGSFRlhlhhh      1      0       0      48        0.0%
BITBIGSFRlhlhhh      1      0       0      50        0.0%
BITBIGSFRlhllhl      1      0       0      53        0.0%
BITBIGSFRllhll       1      0       0      79        0.0%
BITBIGSFRlhllll      1      0       0      76        0.0%
BITBIGSFRhhhhhl      1      0       0      41        0.0%
BIGSFR               0      0       0     200        0.0%
BITSFR_8             0      0       0     200        0.0%
SFR_8                0      0       0     200        0.0%
BITSFR_7             0      0       0     200        0.0%
SFR_7                0      0       0     200        0.0%
BITSFR_6             0      0       0     200        0.0%
SFR_6                0      0       0     200        0.0%
BITSFR_5             0      0       0     200        0.0%
SFR_5                0      0       0     200        0.0%
BITSFR_4             0      0       0     200        0.0%
SFR_4                0      0       0     200        0.0%
BITSFR_3             0      0       0     200        0.0%
SFR_3                0      0       0     200        0.0%
BITSFR_2             0      0       0     200        0.0%
SFR_2                0      0       0     200        0.0%
BITSFR_1             0      0       0     200        0.0%
SFR_1                0      0       0     200        0.0%
BITSFR               0      0       0     200        0.0%
SFR                  0      0       0     200        0.0%
STACK                0      0       0       2        0.0%
NULL                 0      0       0       0        0.0%
ABS                  0      0      87      84        0.0%
DATA                 0      0      87       3        0.0%
CODE                 0      0       0       0        0.0%


Microchip Technology PIC18 Macro Assembler V2.40 build 20220703182018 
Symbol Table                                                                                   Fri Mar 10 12:02:41 2023

                                   _SPI_Initialize 1C46                                                 l89 1694  
                           __end_of_FVR_Initialize 1DB4                                ??_I2C2_AddrTransmit 003C  
                      UART1_TransmitISR@tempTxTail 0096                             ?_I2C2_CallbackRegister 0098  
                                  ??_I2C2_IsBusCol 0044                                                l313 16F8  
                                              l340 1C26                                                l440 1C8C  
                                              l179 1D78                                                l189 1DB2  
                                              l518 1926                                                l652 1986  
                                              l565 1C5E                                                l910 1D5A  
                                              l489 1830                                                l880 1D6E  
                                              l858 15A0                                                l795 1C76  
                                              l779 1378                                                l948 1958  
                                              l895 1D64                                                l975 1D50  
                                              _GIE 01FE97                                    ??_I2C2_BusReset 0044  
                                              _SPI 1045                         ??_INT0_SetInterruptHandler 009A  
                                              prod 003FF3                                                tosl 003FFD  
                                              wreg 003FE8                                    __end_of_ADC_int 1622  
                                    _INT0_CallBack 1A42                                     _UART1_IsTxDone 000000  
                     ?_ADCC_SetADIInterruptHandler 0098                                      _INT1_CallBack 1A6E  
                         _UART1_ParityErrorHandler 0080                                     _UART1_ErrorGet 000000  
                                  __end_of_IOC_ISR 1DDA                                   __end_of_I2C2_ISR 1460  
                                             l1113 1518                                               l1231 1C08  
                                             l1235 1BEA                                               l1270 1A3A  
                                             l1239 1BCC                                               l1271 1A3A  
                                             l3400 16E0                                               l3410 17EA  
                                             l3402 16E2                                               l3340 1C78  
                                             l3404 16E6                                               l3420 128E  
                                             l3500 14FC                                               l3412 18F0  
                                             l3342 1C0A                                               l3406 16E8  
                                             l3350 1D52                                               l3430 1318  
                                             l3422 130C                                               l3414 1C46  
                                             l3510 1510                                               l3502 1500  
                                             l3344 1C1E                                               l3408 16EA  
                                             l3520 1530                                               l3432 131A  
                                             l3424 130E                                               l3416 1C58  
                                             l3352 1D48                                               l3440 1942  
                                             l3360 1BE2                                               l3512 1514  
                                             l3504 1504                                               l3338 1D70  
                                             l3370 1680                                               l3418 1C60  
                                             l3346 1D66                                               l3530 1558  
                                             l3522 1546                                               l3514 151A  
                                             l3434 131C                                               l3426 1310  
                                             l3442 194E                                               l3354 1BEC  
                                             l3362 1BB0                                               l3506 1508  
                                             l3450 1464                                               l3372 168E  
                                             l3380 16C2                                               l3348 1D5C  
                                             l3540 1562                                               l3532 155A  
                                             l3524 1548                                               l3516 151C  
                                             l3436 131E                                               l3428 1312  
                                             l3444 1952                                               l3356 1C00  
                                             l3364 1BC4                                               l3508 150C  
                                             l3460 1488                                               l3452 146E  
                                             l3374 1692                                               l3366 1622  
                                             l3390 16D6                                               l3382 16C6  
                                             l3550 1578                                               l3542 1564  
                                             l3534 155C                                               l3526 1552  
                                             l3518 1526                                               l3446 1954  
                                             l3438 1928                                               l3358 1BCE  
                                             l3470 149C                                               l3462 148C  
                                             l3454 147A                               _ADCC_StartConversion 1D3A  
                                             l3368 167C                                               l3376 1DAC  
                                             l3392 16D8                                               l3384 16CA  
                                             l3560 1592                                               l3552 157C  
                                             l3544 1566                                               l3536 155E  
                                             l3528 1556                                               l3480 14B0  
                                             l3472 14A0                                               l3464 1490  
                                             l3456 1480                                               l3448 1460  
                                             l3394 16DA                                               l3386 16CC  
                                             l3378 1696                                               l3554 157E  
                                             l3546 1568                                               l3538 1560  
                                             l3490 14C4                                               l3482 14B4  
                                             l3474 14A4                                               l3466 1494  
                                             l3458 1484                                               l3570 1972  
                                             l3562 195A                                               l3396 16DC  
                                             l3388 16CE                                               l3556 158C  
                                             l3548 156A                                               l3492 14C8  
                                             l3484 14B8                                               l3476 14A8  
                                             l3468 1498                                               l3572 197E  
                                             l3564 1962                                               l3660 1A16  
                                             l3398 16DE                                               l3558 1590  
                                             l3494 14D6                                               l3486 14BC  
                                             l3478 14AC                                               l3574 1982  
                                             l3566 1966                                               l3662 1A36  
                                             l3496 14E4                                               l3488 14C0  
                                             l3568 196E                                               l3664 1A38  
                                             l3498 14F2                                               u1100 1BC4  
                                             u1101 1BC0                                               u1115 1550  
                                             u1116 1552                                               u1070 1C1E  
                                             u1071 1C1A                                               u1080 1C00  
                                             u1081 1BFC                                               u1090 1BE2  
                                             u1091 1BDE                                               _LATA 003FBA  
                                             _LATB 003FBB                                               _LATC 003FBC  
                                             _LATD 003FBD                                               _LATE 003FBE  
                                             u1277 16D0                                  ?_I2C2_DataReceive 0030  
                                             i2l92 1D46                                               _UART 1001  
                                             _WPUA 003A41                                               _WPUB 003A51  
                                             _WPUC 003A61                                               _WPUD 003A71  
                                             _WPUE 003A81                                      _INT2_CallBack 1A9A  
                        __end_of_I2C2_AddrTransmit 1D98                                   __end_of_ADCC_ISR 17EA  
                                             _main 1A16                                 ??_I2C2_DataReceive 0045  
                                 __end_of_I2C_Host 1045                                               fsr2h 003FDA  
                                             indf2 003FDF                                               fsr2l 003FD9  
                            ??_ADCC_DefaultADI_ISR 0030                          ?_INT2_SetInterruptHandler 0098  
                                             prodl 003FF3                                               start 00AE  
                                  ??_I2C2_StopSend 0045                             __end_of_SPI_Initialize 1C60  
                                  _UART1_IsRxReady 000000                              ??_I2C2_RestartDisable 0044  
                                 ??_I2C2_ReadStart 003D                             ??_I2C2_ErrorFlagsClear 0044  
                                  _UART1_IsTxReady 000000                                       ___param_bank 000000  
                                       _i2c2Status 0001                                  _Timer_OverflowISR 16FC  
                                 __end_of_INT0_ISR 19B6                                   __end_of_INT1_ISR 19E6  
                                 __end_of_INT2_ISR 1A16                                    ?_FVR_Initialize 0030  
                                            _ADACT 003EFE                                              _ADCAP 003EF5  
                                            ?_main 0030                                              _ADCLK 003EFF  
                               ?_Timer_OverflowISR 0030                                              _ADCNT 003EEB  
                                            _ADPCH 003EF1                                              _ADREF 003EFD  
                                            _ADRPT 003EEC                   _UART1_TxCompleteCallbackRegister 000000  
                                            _U1P1H 003DED                                              _U1P2H 003DEF  
                                            _U1P1L 003DEC                                              _U1P3H 003DF1  
                                            _U1P2L 003DEE                                              _U1P3L 003DF0  
                                            _U2P1L 003DD4                                              _U2P2L 003DD6  
                                            _U2P3L 003DD8                                              _IOCAF 003A47  
                                            _IOCBF 003A57                                              _IOCCF 003A67  
                                            _IOCEF 003A87                                              _IOCAN 003A46  
                                            _IOCBN 003A56                                              _IOCAP 003A45  
                                            _IOCCN 003A66                                              _IOCBP 003A55  
                                            _IOCCP 003A65                                              _IOCEN 003A86  
                                            _IOCEP 003A85                                              i1l400 1D82  
                                            _U1UIR 003DF8                                              _U1RXB 003DE8  
                                            i1l403 1DD2                                              i1l412 18B4  
                                            i1l406 1D8C                                              i1l422 1B3E  
                                            i1l431 1CCE                                              i1l440 1D10  
                                            i1l352 1434                             ??_I2C2_DefaultCallback 0044  
                                            _U2UIR 003DE0                                              i1l425 1CA2  
                                            i1l409 1DC6                                              i1l345 13CC  
                                            i1l434 1CB8                                              i1l418 1DC0  
                                            _U1TXB 003DEA                                              i1l371 1B84  
                                            i1l443 1D26                                              i1l363 1146  
                                            i1l347 1410                                              i1l428 1CE4  
                                            i1l452 1DAA                                              i1l380 1B64  
                                            i1l437 1CFA                                              i1l366 1172  
                                            i1l446 1DBA                                              i1l391 1DDC  
                                            i1l376 1BA8                                              i1l449 1DA0  
                                            i1l394 1DCC                                              _U2TXB 003DD2  
                                            i1l388 1B18                                              i1l397 1D96  
                                            i2l182 1DE6                                              i1l903 1A02  
                                            i2l176 17DC                                              i1l913 1DE4  
                                            i1l907 1AC4                                              i1l782 1DDE  
                                            i1l873 19A2                                              i1l883 1DE0  
                                            i1l892 1A98                                              i1l868 1DD8  
                                            i1l877 1A6C                                              i1l888 19D2  
                                            i1l898 1DE2                                              i2l863 1DE8  
                                            i2l972 1740                                              i2l978 1DEA  
                                            _OSCEN 0039DD                                              _TMR0H 003FB7  
                                            _TMR0L 003FB6                                              _TRISA 003FC2  
                                            _TRISB 003FC3                                     ?_INT0_CallBack 0030  
                                            _TRISC 003FC4                                              _TRISD 003FC5  
                                            _TRISE 003FC6                                        _Default_ISR 1DE8  
                                ??_I2C1_Initialize 0098              fp__UART1_FramingErrorCallbackRegister 0000  
       __end_of_UART1_FramingErrorCallbackRegister 1C0A               ??_UART1_FramingErrorCallbackRegister 009A  
              ?_UART1_FramingErrorCallbackRegister 0098                 _UART1_FramingErrorCallbackRegister 1BEC  
                                            _Timer 1057                                     ?_INT1_CallBack 0030  
                              ??_Timer_OverflowISR 0036                                  _I2C2_DataTransmit 1D7A  
                          __end_of_PIN_MANAGER_IOC 1DE0                     ??_INT1_DefaultInterruptHandler 0090  
                            ?_ADCC_StartConversion 0030                                     fp__UART1_Write 0000  
                                   ?_INT2_CallBack 0030                                  ??_I2C2_CounterGet 0044  
                               ?_I2C2_DataTransmit 0030                           _INT1_SetInterruptHandler 1D5C  
                                ??_I2C2_CounterSet 0044                                   ??_I2C2_StartSend 003C  
                                            pclath 003FFA                                              pclatu 003FFB  
                                            tablat 003FF5                                              status 003FD8  
                              ??_I2C2_DataTransmit 0046                                       ??_I2C2_Close 003C  
                      ??_UART1_Transmit_Vector_ISR 0097                                    ?_SPI_Initialize 0030  
                                     __end_of_UART 1031                                  ??_I2C2_Initialize 009A  
                                  __initialization 1832                               _UART1_TransmitEnable 000000  
                        __end_of_Timer_OverflowISR 174E                                       __end_of_main 1A42  
                 _UART1_RxCompleteInterruptHandler 0012                                          ??_ADC_int 0032  
                                     ?_UART1_Write 0030                                  ?_I2C2_BufferClear 0030  
                                           ??_main 009C                                      __activetblptr 000003  
                 __end_of_UART1_Receive_Vector_ISR 1C46                                 ??_I2C2_BufferClear 0044  
                                        ??_IOC_ISR 008D                          __end_of_I2C2_DataTransmit 1D84  
                                 _UART1_Initialize 1460   UART1_ParityErrorCallbackRegister@callbackHandler 0098  
UART1_OverrunErrorCallbackRegister@callbackHandler 0098  UART1_FramingErrorCallbackRegister@callbackHandler 0098  
             I2C2_CallbackRegister@callbackHandler 0098                                 __end_of_I2C2_Close 1B1A  
                                           _ADACCH 003EE9                                             _ADACCL 003EE8  
                                           _ADACCU 003EEA                                             _ADACQH 003EF4  
                                           _ADACQL 003EF3                                             _ADCON0 003EF8  
                                           _ADCON1 003EF9                                             _ADCON2 003EFA  
                                           _ADCON3 003EFB                                             _ADERRH 003EE3  
                                           _ADERRL 003EE2                                             _ADLTHH 003EDF  
                                           _ADLTHL 003EDE                                             _ADRESH 003EF0  
                                           _ADRESL 003EEF                                             _ADPREH 003EF7  
                                           _ADPREL 003EF6                                             _ADSTAT 003EFC  
                                           _ADUTHH 003EE1                                             _ADUTHL 003EE0  
                                 _UART1_ReceiveISR 119E                                             _ANSELA 003A40  
                                           _ANSELB 003A50                                             _ANSELC 003A60  
                                           _ANSELD 003A70                                             _ANSELE 003A80  
                                           _T0CON0 003FB8                                             _T0CON1 003FB9  
                                           _RB1I2C 003A5A                                             _RB2I2C 003A5B  
                                           _RD0I2C 003A7A                                             _U1CON0 003DF2  
                                           _U1CON1 003DF3                                             _U1CON2 003DF4  
                                           _RD1I2C 003A7B                                             _RC3I2C 003A6A  
                                           _RC4I2C 003A6B                                             _U1BRGH 003DF6  
                                           _U1FIFO 003DF7                                             _U2CON0 003DDA  
                                           _U2CON1 003DDB                                             _U1BRGL 003DF5  
                                           _U2CON2 003DDC                                             _U2BRGH 003DDE  
                                           _U2FIFO 003DDF                                             _U2BRGL 003DDD  
                                           _RB1PPS 003A09                                             _RB2PPS 003A0A  
                                           _RC3PPS 003A13                                             i1l1212 1D32  
                                           i1l1215 18EA                                             i1l1218 18EE  
                                           i1l2300 1B38                                             i1l2310 1880  
                                           i1l2302 1CD0                                             i1l2080 1D1C  
                                           i1l2320 1894                                             i1l2312 1884  
                                           _ODCONA 003A42                                             i1l2330 18A4  
                                           i1l2322 1896                                             i1l2314 1888  
                                           i1l2306 1878                                             i1l2090 1DB4  
                                           i1l2082 1DBC                                             _ODCONB 003A52  
                                           _ODCONC 003A62                                             _RC6PPS 003A16  
                                           i1l2340 18B0                                             i1l2332 18A6  
                                           i1l2324 1898                                             i1l2316 188C  
                                           i1l2308 187C                                             i1l2092 1D98  
                                           i1l2084 1D86                                             _ODCOND 003A72  
                                _I2C2_Deinitialize 000000                                             _ODCONE 003A82  
                                           i1l2078 1D12                                             i1l2342 18B2  
                                           i1l2334 18A8                                             i1l2326 18A0  
                                           i1l2318 1890                                             i1l2094 1DA2  
                                           i1l2086 1D90                                             i1l2360 1DCE  
                                           i1l2336 18AA                                             i1l2328 18A2  
                                           i1l2344 1CE6                                             i1l2352 1CA4  
                                           i1l2096 1DA8                                             i1l2088 1DC8  
                                           i1l2280 1B58                                             i1l2274 1CFC  
                                           i1l2338 18AC                                             i1l2290 1B0C  
                                           i1l2282 1B60                                             i1l2098 1DC2  
                                           i1l2356 1CBA                                             i1l2348 1C8E  
                                           i1l2292 1B14                                             i1l2284 1AF2  
                                           i1l2276 1B40                                             i1l2364 1D7C  
                                           i1l2286 1AFC                                             i1l2278 1B52  
                                           i1l2294 1B1A                                             i2l1200 128C  
                                           i1l2288 1B04                                             i1l2296 1B1E  
                                           i1l2720 13DA                                             i1l3610 10AE  
                                           i1l2298 1B32                                             i1l2730 1400  
                                           i1l2722 13E8                                             i1l2714 13A6  
                                           i2l1204 179A                                             i1l3620 10E6  
                                           i1l3612 10B2                                             i1l2740 1430  
                                           i1l2724 13F8                                             i1l2732 1408  
                                           i1l2716 13B6                                             i2l1221 1DEE  
                                           i1l3630 111E                                             i1l3622 10EA  
                                           i1l3614 10BA                                             i1l3606 1096  
                                           i1l2726 13FC                                             i1l2718 13C4  
                                           i2l1207 179C                                             i2l1224 1DEC  
                                           i1l3616 10CE                                             i1l3624 10F2  
                                           i1l3640 114A                                             i1l3608 10AA  
                                           i1l2736 141E                                             i1l2728 13FE  
                                           i1l3650 19CA                                             i1l3642 115A  
                                           i1l3626 1106                                             i1l3634 1126  
                                           i1l3618 10E2                                             i1l2738 142C  
                                           i1l3580 1A6E                                             i1l3652 19CE  
                                           i1l3644 1DD4                                             i1l2780 1B6E  
                                           i1l3636 113A                                             i1l3628 111A  
                                           i2l1190 1C38                                             i2l1326 1AF0  
                                           i1l3590 18C6                                             i1l3654 19FA  
                                           i1l3582 1A80                                             i1l3646 199A  
                                           i1l2782 1B80                                             i1l3638 113E  
                                           i1l3592 18D8                                             i1l3584 1A9A  
                                           i1l3656 19FE                                             i1l3576 1A42  
                                           i1l3648 199E                                             i1l2784 1B92  
                                           i2l3210 11C6                                             i2l1290 1620  
                                           i1l3594 18E0                                             i1l3658 1D2E  
                                           i1l3586 1AAC                                             i1l3578 1A54  
                                           i2l3220 1228                                             i2l3212 11DA  
                                           i2l3300 1728                                             i1l3596 18E4  
                                           i1l3588 18B6                                             i2l3222 123A  
                                           i2l3214 11EC                                             i2l3206 119E  
                                           i2l3232 1274                                             i2l3224 1252  
                                           i2l3216 1204                                             i2l3208 11B6  
                                           i2l3160 176A                                             i2l3234 1286  
                                           i2l3226 1258                                             i2l3218 1214  
                                           i2l3306 1C34                                             i2l3170 1798  
                                           i2l3162 177A                                             i2l3236 128A  
                                           i2l3228 125E                                             i2l3164 178C  
                                           i2l3156 1750                                             i2l3260 15DE  
                                           i2l3252 15A2                                             i2l3166 1792  
                                           i2l3158 1760                                             i2l3270 161A  
                                           i2l3262 15E4                                             i2l3254 15B4  
                                           i2l3272 1AC6                                             i2l3168 1796  
                                           i2l3256 15D2                                             i2l3264 15EE  
                                           i2l3280 17AC                                             i2l3274 1ACA  
                                           i2l3266 160E                                             i2l3258 15D8  
                                           i2l3282 17B0                                             i2l3276 1AE2  
                                           i2l3292 1708                                             i2l3268 1614  
                                           i2l3284 17C4                                             i2l3278 1AEA  
                                           i2l3294 170C                                             i2l3296 1710  
                                           i2l3298 1716                                             _INLVLA 003A44  
                                           _INLVLB 003A54                                             _INLVLC 003A64  
                                           _INLVLD 003A74                                             _INLVLE 003A84  
                                           i2l2996 1D3C                                             i2l2998 1D42  
                                           _FVRCON 003EC1                                             _PERIOD 0048  
                                           _OSCFRQ 0039DF                                             i1u9_20 1B52  
                                           i1u9_21 1B4E                            i1_I2C2_InterruptsEnable 1CFC  
                                 _UART2_Initialize 18F0                                         _Timer_Stop 000000  
                                        ?_I2C2_ISR 0030                                             clear_0 1854  
                                           clear_1 1860                                 _SPI_BufferExchange 000000  
                                           isa$std 000001                                    ??_INT0_CallBack 008D  
                                ?_CLOCK_Initialize 0030                                          ?_ADCC_ISR 0030  
                                  _ADCC_Initialize 1622                          _UART1_Transmit_Vector_ISR 1D28  
             __end_of_INT2_DefaultInterruptHandler 1DE6                       _INT2_DefaultInterruptHandler 1DE4  
                                     __pdataCOMRAM 0048                                    ??_INT1_CallBack 0090  
                               ??_CLOCK_Initialize 0098                                       __mediumconst 0000  
                                           tblptrh 003FF7                                             tblptrl 003FF6  
                                           tblptru 003FF8              fp__UART1_OverrunErrorCallbackRegister 0000  
       __end_of_UART1_OverrunErrorCallbackRegister 1BEC               ??_UART1_OverrunErrorCallbackRegister 009A  
              ?_UART1_OverrunErrorCallbackRegister 0098                 _UART1_OverrunErrorCallbackRegister 1BCE  
                           ??_ADCC_StartConversion 0035                                    ??_INT2_CallBack 0093  
         INT2_SetInterruptHandler@InterruptHandler 0098           INT1_SetInterruptHandler@InterruptHandler 0098  
         INT0_SetInterruptHandler@InterruptHandler 0098        ADCC_SetADIInterruptHandler@InterruptHandler 0098  
                                 ?_PIN_MANAGER_IOC 0030                                  _UART1_AutoBaudSet 000000  
                                _SYSTEM_Initialize 195A                                         __accesstop 0060  
                          __end_of__initialization 1872                                      ??_I2C2_RX_ISR 0045  
                                        ?_INT0_ISR 0030                                          ?_INT1_ISR 0030  
                                        ?_INT2_ISR 0030                                      ??_I2C2_TX_ISR 0047  
                                    ??_I2C2_IsAddr 0044                                      ??_I2C2_IsData 0044  
                                    ??_I2C2_IsNack 0044                                 ?_SYSTEM_Initialize 0030  
                                    ___rparam_used 000001                                     __pcstackCOMRAM 0030  
                                    __end_of_Timer 1063                                ??_SYSTEM_Initialize 009C  
                          ??_I2C2_CallbackRegister 009A                              _UART1_TransmitDisable 000000  
                                _I2C2_IsBusTimeOut 1CBA                                     ivt0x8_undefint 00AC  
                                       ??_I2C2_ISR 003D                                 ?_I2C2_IsBusTimeOut 0030  
                                       ??_ADCC_ISR 0033                                 _spi1_configuration 1063  
                              ??_I2C2_IsBusTimeOut 0044                   __end_of_INT2_SetInterruptHandler 1D5C  
                        _UART1_FramingErrorHandler 0018                    fp__INT2_DefaultInterruptHandler 0000  
                    ?_INT2_DefaultInterruptHandler 0030                            fp__I2C2_DefaultCallback 0000  
                      ADCC_StartConversion@channel 0035                           _UART1_Receive_Vector_ISR 1C28  
                        __end_of_SYSTEM_Initialize 1988                                         __pbssBANK0 0060  
                            _INT0_InterruptHandler 0022                                         ??_INT0_ISR 008D  
                                       ??_INT1_ISR 0090                                         ??_INT2_ISR 0093  
                        ??i1_I2C2_InterruptsEnable 0044                                            IVTBASEH 003FD6  
                                          IVTBASEL 003FD5                                            IVTBASEU 003FD7  
                               _UART1_Deinitialize 000000                                  __end_of_Timer_int 1AF2  
                        __end_of_I2C2_IsBusTimeOut 1CD0                                   ??_FVR_Initialize 0098  
                              __end_of_I2C2_RX_ISR 1B8C                                __end_of_I2C2_TX_ISR 1BB0  
                              __end_of_I2C2_IsAddr 1CFC                                            _I2C1CLK 003D7B  
                              __end_of_I2C2_IsData 1CBA                                            _I2C2CLK 003D65  
                                          _I2C1CNT 003D6C                                            _I2C1BTO 003D7C  
                                          _I2C2CNT 003D56                                            _I2C1ERR 003D76  
                            _I2C2_InterruptsEnable 1C78                                            _I2C2ERR 003D60  
                                          _I2C1PIE 003D7A                                            _I2C2PIE 003D64  
                                          _I2C1PIR 003D79                                            _I2C2PIR 003D63  
                              __end_of_I2C2_IsNack 1CA4                                            _I2C2RXB 003D54  
                                          _I2C1TXB 003D6B                                            _I2C2TXB 003D55  
                          __end_of_ADCC_Initialize 1696                                    _I2C1_Initialize 17EA  
                                          _ADFLTRH 003EE7                                            _ADFLTRL 003EE6  
                                          _ADPREVH 003EEE                                            _ADPREVL 003EED  
                                          _ADSTPTH 003EE5                                            _ADSTPTL 003EE4  
                                          _ADC_int 15A2                                    _I2C2_CounterGet 1DC2  
                                  _I2C2_CounterSet 1D84                                            _U1ERRIE 003DFA  
                                          _U1ERRIR 003DF9                                            _U2ERRIE 003DE2  
                                          _U2ERRIR 003DE1                              __end_of_I2C2_IsBusCol 1CE6  
                                        _I2C1STAT1 003D78                         ??_INT1_SetInterruptHandler 009A  
                                        _I2C2STAT1 003D62                                       ?_Default_ISR 0030  
                                          _U1RXCHK 003DE9                                            _U1TXCHK 003DEB  
                                          _IOC_ISR 1DD4                                            _U1RXPPS 003AE5  
                            __end_of_I2C2_BusReset 18B6                                          _I2C2_Read 000000  
                                          _OSCCON1 0039D9                                            _OSCCON3 0039DB  
                                          i1u10_20 1B32                                            i1u10_21 1B2E  
                                          i1u11_20 1CE2                                            i1u11_21 1CDC  
                                          i1u11_26 1CE4                                            i1u12_20 1CF8  
                                          i1u12_21 1CF2                                            i1u13_20 1CFA  
                                          i1u14_20 1CA0                                            i1u14_21 1C9A  
                                          i1u14_26 1CA2                                            i1u15_20 1CB6  
                                          i1u15_21 1CB0                                            _IVTLOCK 003FD4  
                                          i1u15_26 1CB8                                            i1u16_20 1CCC  
                                          i1u16_21 1CC6                                            i1u16_26 1CCE  
                                          _SPI1CLK 003D1C                                            i1u52_20 13B6  
                                          i1u52_21 13B2                                            i1u53_20 13C4  
                                          i1u53_21 13C0                                            i1u54_20 13DA  
                                          i1u54_21 13D6                                            i1u55_20 13E8  
                                          i1u55_21 13E4                                            i1u56_20 13F8  
                                          i1u56_21 13F4                                            i1u57_20 141E  
                                          i1u57_21 141A                                            i1u58_20 142C  
                                          i1u58_21 1428                             I2C2_CounterSet@counter 0044  
                                          _SPI1RXB 003D10                                            _SPI1TXB 003D11  
                                          _OSCTUNE 0039DE                                            i2u82_40 1760  
                                          i2u82_41 175C                                            i2u91_40 1270  
                                          i2u90_48 1240                                            i2u83_40 177A  
                                          i2u91_41 126C                                            i2u90_49 1252  
                                          i2u83_41 1776                                            i2u85_40 11C6  
                                          i2u93_40 15B4                                            i2u85_41 11C2  
                                          i2u93_41 15B0                                            i2u86_40 11EC  
                                          i2u94_40 15C6                                            i2u86_41 11E8  
                                          i2u94_41 15BE                                            i2u88_40 1214  
                                          i2u87_48 11F2                                            i2u96_40 1600  
                                          i2u95_48 15C8                                            i2u88_41 1210  
                                          i2u87_49 1204                                            i2u96_41 15F8  
                                          i2u89_40 123A                                            i2u89_41 1236  
                                          i2u98_40 1AE2                                            i2u97_48 1602  
                                          i2u98_41 1ADE                                            i2u99_40 17C4  
                                          i2u99_41 17C0                                            _SLRCONA 003A43  
                                          _SLRCONB 003A53                                            _SLRCONC 003A63  
                                          _SLRCOND 003A73                                            _SLRCONE 003A83  
                      __end_of_ADCC_DefaultADI_ISR 1DE8                                fp__UART1_Initialize 0000  
                                  _I2C2_Initialize 1696                                   ??_SPI_Initialize 0098  
                      __end_of_I2C2_RestartDisable 1DC2                                fp__UART1_ReceiveISR 0000  
                        ?_INT0_SetInterruptHandler 0098                          INTERRUPT_Initialize@state 009A  
                                   Timer_int@count 000E                                            __Hparam 0000  
                                          __Lparam 0000                           __end_of_UART1_Initialize 151A  
                            __end_of_I2C2_StopSend 1B40                           __end_of_UART1_ReceiveISR 128E  
                                     __psmallconst 1000                                            __pcinit 1832  
                                          __ramtop 1000                                            __ptext0 1A16  
                                          __ptext1 195A                                            __ptext2 18F0  
                                          __ptext3 1460                                            __ptext4 1BB0  
                                          __ptext5 1BCE                                            __ptext6 1BEC  
                                          __ptext7 1928                                            __ptext8 1D48  
                                          __ptext9 1C46                                        _Timer_Start 000000  
                                       fp__ADC_int 0000                            _timerTMR0ReloadVal16bit 001C  
                                      _I2C2ERRbits 003D60                           ??_PIN_MANAGER_Initialize 0098  
                         __end_of_UART2_Initialize 1928                                        _I2C2PIEbits 003D64  
                                      _I2C2PIRbits 003D63                               end_of_initialization 1872  
                                        _U1UIRbits 003DF8                           ??_I2C2_InterruptsDisable 0044  
                         _INT2_SetInterruptHandler 1D52                              I2C2_DataTransmit@data 0046  
                   ??_INT2_DefaultInterruptHandler 0093                                        _I2C2_RX_ISR 1B68  
                                      _I2C2_TX_ISR 1B8C                                        _I2C2_IsAddr 1CE6  
                                      _I2C2_IsData 1CA4                                        _I2C2_IsNack 1C8E  
                                      _I2C2_IsBusy 000000                            __end_of_I2C1_Initialize 1832  
                                 _Timer_Initialize 1928                             ?_I2C2_InterruptsEnable 0030  
                                        _SPI1TCNTL 003D12                                            postdec2 003FDD  
                          __end_of_I2C2_CounterGet 1DC8                                            postinc0 003FEE  
                                          postinc2 003FDE                            __end_of_I2C2_CounterSet 1D8E  
                                 ?_ADCC_Initialize 0030                                  UART1_Write@txData 0031  
                 _UART1_DefaultParityErrorCallback 000000                              _INT1_InterruptHandler 0020  
                fp__Timer_OverflowCallbackRegister 0000                   ??_Timer_OverflowCallbackRegister 009A  
                  ?_Timer_OverflowCallbackRegister 0098                            __end_of_I2C2_Initialize 16FA  
              __end_of_ADCC_SetADIInterruptHandler 1D7A                        _ADCC_SetADIInterruptHandler 1D70  
                     __end_of_I2C2_InterruptsClear 1DBC      Timer_OverflowCallbackRegister@CallbackHandler 0098  
                                        _SPI_Close 000000                                          _TRISCbits 003FC4  
                 _UART1_TxCompleteInterruptHandler 0014                                  _UART1_TransmitISR 18B6  
                    ??_ADCC_SetADIInterruptHandler 009A                    ??_Timer_DefaultOverflowCallback 0035  
                               ?_UART1_TransmitISR 0030                             _Timer_OverflowCallback 001A  
                              ??_UART1_TransmitISR 0096                       __end_of_INTERRUPT_Initialize 15A2  
                                 _I2C2_DataReceive 1DCE               __end_of_INT0_DefaultInterruptHandler 1DE2  
                     _INT0_DefaultInterruptHandler 1DE0                                  UART_RX_int@mesage 0010  
                                UART_RX_int@opcode 0028                      __end_of_I2C2_CallbackRegister 1C28  
                                    __pidataCOMRAM 1DDA                                  UART_RX_int@status 0029  
                       ??_UART1_Receive_Vector_ISR 003A                                     _I2C2_ERROR_ISR 106C  
                            __end_of_INT0_CallBack 1A6E                                start_initialization 1832  
                                      __end_of_SPI 1057                              __end_of_INT1_CallBack 1A9A  
                        __end_of_UART1_TransmitISR 18F0                                         ivt0x8_base 0008  
                            __end_of_INT2_CallBack 1AC6                                      _uart1RxBuffer 0070  
                                    _uart1TxBuffer 0078                                   ?_I2C1_Initialize 0030  
                                 ?_I2C2_CounterGet 0030                                          _Timer_int 1AC6  
                                 ?_I2C2_CounterSet 0030                                           ?_ADC_int 0030  
                         UART1_ReceiveISR@regValue 0038                    fp__INT0_DefaultInterruptHandler 0000  
                           __end_of_I2C2_ERROR_ISR 119E                      ?_INT0_DefaultInterruptHandler 0030  
                                         ?_IOC_ISR 0030                                        __pbssCOMRAM 0001  
                                 ?_I2C2_Initialize 0030                   __end_of_INT0_SetInterruptHandler 1D70  
                                    __pcstackBANK0 0086                           _UART1_RxInterruptHandler 0084  
                                 _I2C2_BufferClear 1DA2                              _INT2_InterruptHandler 001E  
                                        __pnvBANK0 009C                             fp__ADCC_DefaultADI_ISR 0000  
                           _PIN_MANAGER_Initialize 128E                                  ?_UART1_Initialize 0030  
                             _I2C2_InterruptsClear 1DB4              __end_of_Timer_DefaultOverflowCallback 1DEC  
                    _Timer_DefaultOverflowCallback 1DEA                                         ?_Timer_int 0030  
                                         _I2C1ADB0 003D6D                                           _I2C1ADB1 003D6E  
                                         _I2C2ADB1 003D58                              UART1_Write@tempTxHead 0030  
                                         _I2C1ADR0 003D6F                                           _I2C1ADR1 003D70  
                                         _I2C1ADR2 003D71                                           _I2C1ADR3 003D72  
                               ??_UART1_Initialize 009A                                           _I2C1CON0 003D73  
                                         _I2C1CON1 003D74                                           _I2C1CON2 003D75  
                                         _I2C2CON0 003D5D                                           _I2C2CON1 003D5E  
                                         _I2C2CON2 003D5F                                fp__Timer_Initialize 0000  
                                ?_UART1_ReceiveISR 0030                             _I2C2_InterruptsDisable 1D12  
                                 _uart1RxLastError 0082                                           _I2C2_ISR 137C  
                                    ??_UART1_Write 0030                                    ?_I2C2_ERROR_ISR 0030  
                               ??_UART1_ReceiveISR 0038                                     _I2C2_ReadStart 1B40  
                                         _ADCC_ISR 17A0                                        __smallconst 1000  
                       ??_INT2_SetInterruptHandler 009A                                           _I2C_Host 1031  
                       UART1_ReceiveISR@tempRxHead 0039                           fp__I2C2_CallbackRegister 0000  
                         __end_of_Timer_Initialize 195A                                  ?_UART2_Initialize 0030  
                     __end_of_I2C2_ErrorFlagsClear 1DA2                           ?i1_I2C2_InterruptsEnable 0030  
                                      _U1ERRIRbits 003DF9                                 ??_UART2_Initialize 0098  
                             _INTERRUPT_Initialize 151A                                         _I2C2SDAPPS 003AE4  
                                       _I2C2SCLPPS 003AE3                                   _CLOCK_Initialize 1C60  
                                         _INT0_ISR 1988                                           _INT1_ISR 19B8  
                                         _INT2_ISR 19E8                                       ?_I2C2_RX_ISR 0030  
                                         _LATDbits 003FBD                                       ?_I2C2_TX_ISR 0030  
                                     ?_I2C2_IsAddr 0030                   _UART1_RxCompleteCallbackRegister 000000  
                                     ?_I2C2_IsData 0030                            ??_I2C2_InterruptsEnable 0098  
                                     ?_I2C2_IsNack 0030                          ?_INT1_SetInterruptHandler 0098  
                                         _IPR0bits 003980                                           _IPR1bits 003981  
                                         _IPR3bits 003983                                           _PIE1bits 003991  
                                         _IPR5bits 003985                                           _PIE3bits 003993  
                                         _IPR6bits 003986                                           _PIE5bits 003995  
                                         _PIE6bits 003996                       __end_of_I2C2_DefaultCallback 1DDE  
                                         i1u112_20 1A54                                           i1u120_20 10CE  
                                         i1u112_21 1A50                                           i1u120_21 10CA  
                                         i1u121_20 10E2                                           i1u121_21 10DE  
                                         i1u114_20 1A80                                           i1u113_28 1A5A  
                                         i1u122_20 1106                                           i1u114_21 1A7C  
                                         i1u113_29 1A6C                                           i1u122_21 1102  
                                         i1u123_20 111A                                           i1u123_21 1116  
                                         i1u116_20 1AAC                                           i1u115_28 1A86  
                                         i1u124_20 113A                                           i1u116_21 1AA8  
                                         i1u115_29 1A98                                           i1u124_21 1136  
                                         i1u125_20 115A                                           i1u125_21 1156  
                                         i1u118_20 18C6                                           i1u117_28 1AB2  
                                     _SPI1CON0bits 003D14                                           i1u118_21 18C2  
                                         i1u117_29 1AC4                                           _IVTBASEH 003FD6  
                                         i1u126_28 1160                                           i1u119_20 10AA  
                                         i1u126_29 1172                                           i1u119_21 10A6  
                                         _IVTBASEL 003FD5                                           _IVTBASEU 003FD7  
                                         i1u128_27 189A                                         _I2C2_Close 1AF2  
                                         i2u101_40 1728                                           i2u100_48 17CA  
                                         i2u101_41 1724                                           i2u100_49 17DC  
                                         i2u102_48 172E                                           i2u102_49 1740  
                                         _PIR1bits 0039A1                                           _PIR2bits 0039A2  
                                         _SPI1BAUD 003D19                                           _PIR3bits 0039A3  
                                         _SPI1CON0 003D14                                           _SPI1CON1 003D15  
                                         _SPI1CON2 003D16                              ?_I2C2_InterruptsClear 0030  
                                         _PIR5bits 0039A5                                           _PIR7bits 0039A7  
                                       _I2C2_Write 000000                                     _I2C2_StartSend 1DC8  
                                    _I2C2STAT0bits 003D61                                      _I2C2STAT1bits 003D62  
                                ??_PIN_MANAGER_IOC 008D                             __end_of_I2C2_ReadStart 1B66  
                                         _SPI_Open 000000                                     _I2C2_WriteRead 000000  
                                       _ADCON0bits 003EF8                                         _ADCON1bits 003EF9  
                                       _ADCON2bits 003EFA                                         _ADCON3bits 003EFB  
                   ??_INT0_DefaultInterruptHandler 008D                                __end_of_UART1_Write 179E  
                                      _INTCON0bits 003FD2                           __end_of_I2C2_DataReceive 1DD4  
                            ?_INTERRUPT_Initialize 0030                           _INT0_SetInterruptHandler 1D66  
                           _uart1TxBufferRemaining 002D             __end_of_Timer_OverflowCallbackRegister 1D52  
                   _Timer_OverflowCallbackRegister 1D48                              I2C2_AddrTransmit@addr 003C  
                                     _uart1RxCount 002A                             __end_of_I2C2_StartSend 1DCE  
                                       _ADSTATbits 003EFC                                           __Hrparam 0000  
                                         __Lrparam 0000                                        ??_Timer_int 0036  
                                fp__SPI_Initialize 0000                                    ?_I2C2_ReadStart 0030  
                                    _I2C2_Callback 0026                   fp__Timer_DefaultOverflowCallback 0000  
                   ?_Timer_DefaultOverflowCallback 0030               fp__UART1_DefaultFramingErrorCallback 0000  
        __end_of_UART1_DefaultFramingErrorCallback 1DF0                ??_UART1_DefaultFramingErrorCallback 0038  
               ?_UART1_DefaultFramingErrorCallback 0030                  _UART1_DefaultFramingErrorCallback 1DEE  
                                    _I2C2_IsBusCol 1CD0                                         _T0CON0bits 003FB8  
                  __end_ofi1_I2C2_InterruptsEnable 1D12                                           __pivt0x8 0008  
                                    _I2C2_BusReset 1878                                       _I2C2CON0bits 003D5D  
                                     _I2C2CON1bits 003D5E                                           __ptext10 128E  
                                         __ptext11 151A                                           __ptext20 1C60  
                                         __ptext12 1D52                                           __ptext21 1622  
                                         __ptext13 1D5C                                           __ptext30 1D84  
                                         __ptext22 1D70                                           __ptext14 1D66  
                                         __ptext31 1D8E                                           __ptext23 137C  
                                         __ptext15 1696                                           __ptext40 1CD0  
                                         __ptext32 1AF2                                           __ptext24 1B1A  
                                         __ptext16 1C78                                           __ptext41 1CE6  
                                         __ptext33 1DB4                                           __ptext25 1DBC  
                                         __ptext17 1C0A                                           __ptext50 1DDE  
                                         __ptext42 1DDC                                           __ptext34 1D98  
                                         __ptext26 1D7A                                           __ptext18 17EA  
                                         __ptext51 1988                                           __ptext43 1878  
                                         __ptext35 1DA2                                           __ptext27 1DC2  
                                         __ptext19 1DAC                                           __ptext60 1D28  
                                         __ptext52 1A42                                           __ptext44 1CFC  
                                         __ptext36 106C                                           __ptext28 1B40  
                                         __ptext61 18B6                                           __ptext53 1DE0  
                                         __ptext45 1D12                                           __ptext37 1C8E  
                                         __ptext29 1DC8                                           __ptext70 1AC6  
                                         __ptext62 17A0                                           __ptext54 19B8  
                                         __ptext46 1B68                                           __ptext38 1CA4  
                                         __ptext71 1C28                                           __ptext63 1DE6  
                                         __ptext55 1A6E                                           __ptext47 1DCE  
                                         __ptext39 1CBA                                           __ptext72 119E  
                                         __ptext64 15A2                                           __ptext56 1DE2  
                                         __ptext48 1B8C                                           __ptext73 1DEC  
                                         __ptext65 174E                                           __ptext57 19E8  
                                         __ptext49 1DD4                                           __ptext74 1DEE  
                                         __ptext66 1D3A                                           __ptext58 1A9A  
                                         __ptext75 0000                                           __ptext67 1DE8  
                                         __ptext59 1DE4                                           __ptext68 16FC  
                                         __ptext69 1DEA                                         _U1CON0bits 003DF2  
                                       _U1CON1bits 003DF3                                      _I2C2_ErrorGet 000000  
                       ?_UART1_Transmit_Vector_ISR 0030                                    ?_I2C2_StartSend 0030  
                           ??_I2C2_InterruptsClear 0044                                        ?_I2C2_Close 0030  
                                      _IVTLOCKbits 003FD4                          _UART1_OverrunErrorHandler 0016  
                        _ADCC_ADI_InterruptHandler 009C                                           isa$xinst 000000  
                                    _I2C2_StopSend 1B1A                       __end_of_ADCC_StartConversion 1D48  
                             _Timer_PeriodCountSet 000000                               _I2C2_ErrorFlagsClear 1D98  
                         __end_of_I2C2_BufferClear 1DAC                                        _UART1_Write 174E  
             __end_of_INT1_DefaultInterruptHandler 1DE4                       _INT1_DefaultInterruptHandler 1DE2  
                            _I2C2_CallbackRegister 1C0A                                      ??_Default_ISR 0035  
                                   ?_I2C2_IsBusCol 0030                                        _uart1RxHead 002C  
                                      _uart1TxHead 002F                                     ?_I2C2_BusReset 0030  
                                      _uart1RxTail 002B                                        _uart1TxTail 002E  
                                       _FVRCONbits 003EC1                               _I2C2_DefaultCallback 1DDC  
                           ??_INTERRUPT_Initialize 009A                                    _SPI_BufferWrite 000000  
                                         intlevel1 0000                                           intlevel2 0000  
                                     fp__Timer_int 0000                          ?_UART1_Receive_Vector_ISR 0030  
                          ?_PIN_MANAGER_Initialize 0030                  __end_of_UART1_Transmit_Vector_ISR 1D3A  
                              _uart1RxStatusBuffer 0060                                     ?_I2C2_StopSend 0030  
                          ?_I2C2_InterruptsDisable 0030                                   _SPI_ByteExchange 000000  
                                 ??_I2C2_ERROR_ISR 0086                                         _SPI1SDIPPS 003ADF  
                                       _SPI1SCKPPS 003ADE                              ?_I2C2_ErrorFlagsClear 0030  
                                       _UART1_Read 000000                               fp__UART1_TransmitISR 0000  
                         __end_of_CLOCK_Initialize 1C78                                     _SPI_BufferRead 000000  
                                   _FVR_Initialize 1DAC                    fp__INT1_DefaultInterruptHandler 0000  
                    ?_INT1_DefaultInterruptHandler 0030                                _ADCC_DefaultADI_ISR 1DE6  
                            ?_I2C2_DefaultCallback 0030                   __end_of_INT1_SetInterruptHandler 1D66  
             fp__UART1_DefaultOverrunErrorCallback 0000          __end_of_UART1_DefaultOverrunErrorCallback 1DEE  
              ??_UART1_DefaultOverrunErrorCallback 0038                 ?_UART1_DefaultOverrunErrorCallback 0030  
                _UART1_DefaultOverrunErrorCallback 1DEC                                  ?_Timer_Initialize 0030  
                              _I2C2_RestartDisable 1DBC                           _UART1_TxInterruptHandler 0024  
                              __end_of_Default_ISR 1DEA                                 ??_Timer_Initialize 009A  
                   __end_of_PIN_MANAGER_Initialize 137A                                  ??_ADCC_Initialize 009A  
                               fp__I2C2_Initialize 0000               fp__UART1_ParityErrorCallbackRegister 0000  
        __end_of_UART1_ParityErrorCallbackRegister 1BCE                ??_UART1_ParityErrorCallbackRegister 009A  
               ?_UART1_ParityErrorCallbackRegister 0098                  _UART1_ParityErrorCallbackRegister 1BB0  
                                  _PIN_MANAGER_IOC 1DDE                                  _I2C2_AddrTransmit 1D8E  
                              _UART1_AutoBaudQuery 000000                               ?_ADCC_DefaultADI_ISR 0030  
                   __end_of_I2C2_InterruptsDisable 1D28                                       _SPI_ByteRead 000000  
                                    _SPI_ByteWrite 000000                      __end_of_I2C2_InterruptsEnable 1C8E  
                               ?_I2C2_AddrTransmit 0030                         __end_of_spi1_configuration 1068  
                             ?_I2C2_RestartDisable 0030  
