

Microchip MPLAB XC8 Assembler V2.40 build 20220703182018 
                                                                                               Wed Mar 29 11:31:44 2023

Microchip MPLAB XC8 C Compiler v2.40 (Free license) build 20220703182018 Og1 
     1                           	processor	18F46K42
     2                           	fnconf	rparam,??,?,0
     3                           	pagewidth 120
     4                           	opt	flic
     5                           	psect	idataCOMRAM,global,class=CODE,delta=1,noexec
     6                           	psect	idataBANK0,global,class=CODE,delta=1,noexec
     7                           	psect	mediumconst,global,reloc=2,class=MEDIUMCONST,delta=1,noexec
     8                           	psect	nvCOMRAM,global,class=COMRAM,space=1,delta=1,lowdata,noexec
     9                           	psect	nvBANK0,global,class=BANK0,space=1,delta=1,lowdata,noexec
    10                           	psect	cinit,global,reloc=2,class=CODE,delta=1
    11                           	psect	bssCOMRAM,global,class=COMRAM,space=1,delta=1,lowdata,noexec
    12                           	psect	dataCOMRAM,global,class=COMRAM,space=1,delta=1,lowdata,noexec
    13                           	psect	bssBANK0,global,class=BANK0,space=1,delta=1,lowdata,noexec
    14                           	psect	dataBANK0,global,class=BANK0,space=1,delta=1,lowdata,noexec
    15                           	psect	bssBANK1,global,class=BANK1,space=1,delta=1,lowdata,noexec
    16                           	psect	cstackBANK1,global,class=BANK1,space=1,delta=1,lowdata,noexec
    17                           	psect	cstackBANK0,global,class=BANK0,space=1,delta=1,lowdata,noexec
    18                           	psect	cstackCOMRAM,global,class=COMRAM,space=1,delta=1,lowdata,noexec
    19                           	psect	text0,global,reloc=2,class=CODE,delta=1
    20                           	psect	text1,global,reloc=2,class=CODE,delta=1
    21                           	psect	text2,global,reloc=2,class=CODE,delta=1
    22                           	psect	text3,global,reloc=2,class=CODE,delta=1
    23                           	psect	text4,global,reloc=2,class=CODE,delta=1
    24                           	psect	text5,global,reloc=2,class=CODE,delta=1
    25                           	psect	text6,global,reloc=2,class=CODE,delta=1
    26                           	psect	text7,global,reloc=2,class=CODE,delta=1
    27                           	psect	text8,global,reloc=2,class=CODE,delta=1
    28                           	psect	text9,global,reloc=2,class=CODE,delta=1
    29                           	psect	text10,global,reloc=2,class=CODE,delta=1
    30                           	psect	text11,global,reloc=2,class=CODE,delta=1
    31                           	psect	text12,global,reloc=2,class=CODE,delta=1
    32                           	psect	text13,global,reloc=2,class=CODE,delta=1
    33                           	psect	text14,global,reloc=2,class=CODE,delta=1
    34                           	psect	text15,global,reloc=2,class=CODE,delta=1
    35                           	psect	text16,global,reloc=2,class=CODE,delta=1
    36                           	psect	text17,global,reloc=2,class=CODE,delta=1
    37                           	psect	text18,global,reloc=2,class=CODE,delta=1
    38                           	psect	text19,global,reloc=2,class=CODE,delta=1
    39                           	psect	text20,global,reloc=2,class=CODE,delta=1
    40                           	psect	text21,global,reloc=2,class=CODE,delta=1
    41                           	psect	text22,global,reloc=4,class=CODE,delta=1
    42                           	psect	text23,global,reloc=2,class=CODE,delta=1
    43                           	psect	text24,global,reloc=2,class=CODE,delta=1
    44                           	psect	text25,global,reloc=2,class=CODE,delta=1
    45                           	psect	text26,global,reloc=2,class=CODE,delta=1
    46                           	psect	text27,global,reloc=2,class=CODE,delta=1
    47                           	psect	text28,global,reloc=2,class=CODE,delta=1
    48                           	psect	text29,global,reloc=4,class=CODE,delta=1
    49                           	psect	text30,global,reloc=2,class=CODE,delta=1
    50                           	psect	text31,global,reloc=4,class=CODE,delta=1
    51                           	psect	text32,global,reloc=2,class=CODE,delta=1
    52                           	psect	text33,global,reloc=2,class=CODE,delta=1
    53                           	psect	text34,global,reloc=4,class=CODE,delta=1
    54                           	psect	text35,global,reloc=2,class=CODE,delta=1
    55                           	psect	text36,global,reloc=2,class=CODE,delta=1
    56                           	psect	text37,global,reloc=4,class=CODE,delta=1
    57                           	psect	text38,global,reloc=2,class=CODE,delta=1
    58                           	psect	text39,global,reloc=2,class=CODE,delta=1
    59                           	psect	text40,global,reloc=4,class=CODE,delta=1
    60                           	psect	text41,global,reloc=4,class=CODE,delta=1
    61                           	psect	text42,global,reloc=2,class=CODE,delta=1
    62                           	psect	text43,global,reloc=2,class=CODE,delta=1
    63                           	psect	text44,global,reloc=2,class=CODE,delta=1
    64                           	psect	text45,global,reloc=2,class=CODE,delta=1
    65                           	psect	text46,global,reloc=4,class=CODE,delta=1
    66                           	psect	text47,global,reloc=2,class=CODE,delta=1
    67                           	psect	text48,global,reloc=4,class=CODE,delta=1
    68                           	psect	text49,global,reloc=4,class=CODE,delta=1
    69                           	psect	text50,global,reloc=2,class=CODE,delta=1
    70                           	psect	ivt0x8,global,reloc=2,class=CODE,delta=1,noexec,keep,optim=
    71                           	psect	intsave_regs,global,class=BIGRAM,space=1,delta=1,noexec
    72                           	psect	text51,global,reloc=2,class=CODE,delta=1
    73                           	psect	rparam,global,class=COMRAM,space=1,delta=1,noexec
    74                           	psect	idloc,global,abs,ovrld,class=IDLOC,space=5,delta=1,noexec
    75                           	psect	config,global,abs,ovrld,class=CONFIG,space=4,delta=1,noexec
    76   000000                     
    77                           ; Generated 06/04/2022 GMT
    78                           ; 
    79                           ; Copyright © 2022, Microchip Technology Inc. and its subsidiaries ("Microchip")
    80                           ; All rights reserved.
    81                           ; 
    82                           ; This software is developed by Microchip Technology Inc. and its subsidiaries ("Microch
      +                          ip").
    83                           ; 
    84                           ; Redistribution and use in source and binary forms, with or without modification, are
    85                           ; permitted provided that the following conditions are met:
    86                           ; 
    87                           ;     1. Redistributions of source code must retain the above copyright notice, this lis
      +                          t of
    88                           ;        conditions and the following disclaimer.
    89                           ; 
    90                           ;     2. Redistributions in binary form must reproduce the above copyright notice, this 
      +                          list
    91                           ;        of conditions and the following disclaimer in the documentation and/or other
    92                           ;        materials provided with the distribution. Publication is not required when
    93                           ;        this file is used in an embedded application.
    94                           ; 
    95                           ;     3. Microchip's name may not be used to endorse or promote products derived from th
      +                          is
    96                           ;        software without specific prior written permission.
    97                           ; 
    98                           ; THIS SOFTWARE IS PROVIDED BY MICROCHIP "AS IS" AND ANY EXPRESS OR IMPLIED WARRANTIES,
    99                           ; INCLUDING, BUT NOT LIMITED TO, THE IMPLIED WARRANTIES OF MERCHANTABILITY AND FITNESS F
      +                          OR
   100                           ; PURPOSE ARE DISCLAIMED.  IN NO EVENT SHALL MICROCHIP BE LIABLE FOR ANY DIRECT, INDIREC
      +                          T,
   101                           ; INCIDENTAL, SPECIAL, EXEMPLARY, OR CONSEQUENTIAL DAMAGES (INCLUDING BUT NOT LIMITED TO
   102                           ; PROCUREMENT OF SUBSTITUTE GOODS OR SERVICES; LOSS OF USE, DATA OR PROFITS; OR BUSINESS
   103                           ; INTERRUPTION) HOWSOEVER CAUSED AND ON ANY THEORY OF LIABILITY, WHETHER IN CONTRACT, ST
      +                          RICT
   104                           ; LIABILITY, OR TORT (INCLUDING NEGLIGENCE OR OTHERWISE) ARISING IN ANY WAY OUT OF THE U
      +                          SE OF
   105                           ; THIS SOFTWARE, EVEN IF ADVISED OF THE POSSIBILITY OF SUCH DAMAGE.
   106                           ; 
   107                           ; 
   108                           ; Code-generator required, PIC18F46K42 Definitions
   109                           ; 
   110                           ; SFR Addresses
   111   000000                     
   112 ;; Function _SPI1_Close is unused but had its address taken
   113   000000                     
   114 ;; Function _SPI1_ByteExchange is unused but had its address taken
   115   000000                     
   116 ;; Function _SPI1_BufferExchange is unused but had its address taken
   117   000000                     
   118 ;; Function _SPI1_BufferWrite is unused but had its address taken
   119   000000                     
   120 ;; Function _SPI1_BufferRead is unused but had its address taken
   121   000000                     
   122 ;; Function _SPI1_ByteRead is unused but had its address taken
   123   000000                     
   124 ;; Function _Timer_Start is unused but had its address taken
   125   000000                     
   126 ;; Function _Timer_Stop is unused but had its address taken
   127   000000                     
   128 ;; Function _Timer_PeriodCountSet is unused but had its address taken
   129   000000                     
   130 ;; Function _Timer2_PeriodCountSet is unused but had its address taken
   131   000000                     
   132 ;; Function _UART1_Deinitialize is unused but had its address taken
   133   000000                     
   134 ;; Function _UART1_TransmitEnable is unused but had its address taken
   135   000000                     
   136 ;; Function _UART1_TransmitDisable is unused but had its address taken
   137   000000                     
   138 ;; Function _UART1_AutoBaudSet is unused but had its address taken
   139   000000                     
   140 ;; Function _UART1_AutoBaudQuery is unused but had its address taken
   141   000000                     
   142 ;; Function _UART1_IsRxReady is unused but had its address taken
   143   000000                     
   144 ;; Function _UART1_IsTxReady is unused but had its address taken
   145   000000                     
   146 ;; Function _UART1_IsTxDone is unused but had its address taken
   147   000000                     
   148 ;; Function _UART1_ErrorGet is unused but had its address taken
   149   000000                     
   150 ;; Function _UART1_Read is unused but had its address taken
   151   000000                     
   152 ;; Function _UART1_ReceiveISR is unused but had its address taken
   153   000000                     
   154 ;; Function _UART1_DefaultFramingErrorCallback is unused but had its address taken
   155   000000                     
   156 ;; Function _UART1_DefaultOverrunErrorCallback is unused but had its address taken
   157   000000                     
   158 ;; Function _UART1_DefaultParityErrorCallback is unused but had its address taken
   159   000000                     
   160 ;; Function _UART1_RxCompleteCallbackRegister is unused but had its address taken
   161   000000                     
   162 ;; Function _UART1_TxCompleteCallbackRegister is unused but had its address taken
   163   000000                     
   164                           	psect	idataCOMRAM
   165   00091E                     __pidataCOMRAM:
   166                           	callstack 0
   167                           
   168                           ;initializer for IIR_p2@W_i
   169   00091E  A8                 	db	low IIR_p2@W
   170   00091F  00                 	db	high IIR_p2@W
   171                           
   172                           ;initializer for IIR_p2@X_i
   173   000920  B4                 	db	low IIR_p2@X
   174   000921  00                 	db	high IIR_p2@X
   175                           
   176                           ;initializer for IIR_p1@W_i
   177   000922  C0                 	db	low IIR_p1@W
   178   000923  00                 	db	high IIR_p1@W
   179                           
   180                           ;initializer for IIR_p1@X_i
   181   000924  CC                 	db	low IIR_p1@X
   182   000925  00                 	db	high IIR_p1@X
   183                           
   184                           ;initializer for FIR_p@indexTail
   185   000926  0015               	dw	21
   186                           
   187                           ;initializer for FIR_p@tail_i
   188   000928  6A                 	db	low (FIR_p@buffer+42)
   189   000929  01                 	db	high (FIR_p@buffer+42)
   190                           
   191                           ;initializer for FIR_p@head_i
   192   00092A  40                 	db	low FIR_p@buffer
   193   00092B  01                 	db	high FIR_p@buffer
   194                           
   195                           ;initializer for FIR_p@tail
   196   00092C  68                 	db	low (FIR_p@buffer+40)
   197   00092D  01                 	db	high (FIR_p@buffer+40)
   198                           
   199                           ;initializer for FIR_p@head
   200   00092E  40                 	db	low FIR_p@buffer
   201   00092F  01                 	db	high FIR_p@buffer
   202                           
   203                           ;initializer for UART1_Receive_Vector_ISR@mesage
   204   000930  0001               	dw	1
   205                           
   206                           ;initializer for _PERIOD
   207   000932  0002               	dw	2
   208                           
   209                           	psect	idataBANK0
   210   000934                     __pidataBANK0:
   211                           	callstack 0
   212                           
   213                           ;initializer for _char_hex
   214   000934  30                 	db	48
   215   000935  31                 	db	49
   216   000936  32                 	db	50
   217   000937  33                 	db	51
   218   000938  34                 	db	52
   219   000939  35                 	db	53
   220   00093A  36                 	db	54
   221   00093B  37                 	db	55
   222   00093C  38                 	db	56
   223   00093D  39                 	db	57
   224   00093E  41                 	db	65
   225   00093F  42                 	db	66
   226   000940  43                 	db	67
   227   000941  44                 	db	68
   228   000942  45                 	db	69
   229   000943  46                 	db	70
   230                           
   231                           ;initializer for FIR_p@endBuffer
   232   000944  7E                 	db	low (FIR_p@buffer+62)
   233   000945  01                 	db	high (FIR_p@buffer+62)
   234                           
   235                           ;initializer for FIR_p@startBuffer
   236   000946  40                 	db	low FIR_p@buffer
   237   000947  01                 	db	high FIR_p@buffer
   238                           
   239                           	psect	mediumconst
   240   00FEE2                     __pmediumconst:
   241                           	callstack 0
   242   00FEE2  00                 	db	0
   243   00FEE3                     _DEN:
   244                           	callstack 0
   245   00FEE3  0000               	dw	0
   246   00FEE5  3F80               	dw	16256
   247   00FEE7  0000               	dw	0
   248   00FEE9  0000               	dw	0
   249   00FEEB  0000               	dw	0
   250   00FEED  0000               	dw	0
   251   00FEEF  0000               	dw	0
   252   00FEF1  3F80               	dw	16256
   253                           
   254                           ;./Notch 60hzorden4.h: 23: const int NL[5] = { 1,3,1,3,1 };;./Notch 60hzorden4.h: 24: co
      +                          nst double NUM[5][3] = {;./Notch 60hzorden4.h: 41: const int DL[5] = { 1,3,1,3,1 };;./No
      +                          tch 60hzorden4.h: 42: const double DEN[5][3] = {
   255   00FEF3  06FB               	dw	1787
   256   00FEF5  3FC0               	dw	16320
   257                           
   258                           ;./Notch 60hzorden4.h: 23: const int NL[5] = { 1,3,1,3,1 };;./Notch 60hzorden4.h: 24: co
      +                          nst double NUM[5][3] = {;./Notch 60hzorden4.h: 41: const int DL[5] = { 1,3,1,3,1 };;./No
      +                          tch 60hzorden4.h: 42: const double DEN[5][3] = {
   259   00FEF7  5E32               	dw	24114
   260   00FEF9  3F29               	dw	16169
   261   00FEFB  0000               	dw	0
   262   00FEFD  3F80               	dw	16256
   263   00FEFF  0000               	dw	0
   264   00FF01  0000               	dw	0
   265   00FF03  0000               	dw	0
   266   00FF05  0000               	dw	0
   267   00FF07  0000               	dw	0
   268   00FF09  3F80               	dw	16256
   269                           
   270                           ;./Notch 60hzorden4.h: 23: const int NL[5] = { 1,3,1,3,1 };;./Notch 60hzorden4.h: 24: co
      +                          nst double NUM[5][3] = {;./Notch 60hzorden4.h: 41: const int DL[5] = { 1,3,1,3,1 };;./No
      +                          tch 60hzorden4.h: 42: const double DEN[5][3] = {
   271   00FF0B  55C4               	dw	21956
   272   00FF0D  3EC3               	dw	16067
   273                           
   274                           ;./Notch 60hzorden4.h: 23: const int NL[5] = { 1,3,1,3,1 };;./Notch 60hzorden4.h: 24: co
      +                          nst double NUM[5][3] = {;./Notch 60hzorden4.h: 41: const int DL[5] = { 1,3,1,3,1 };;./No
      +                          tch 60hzorden4.h: 42: const double DEN[5][3] = {
   275   00FF0F  B7AD               	dw	47021
   276   00FF11  3EBF               	dw	16063
   277   00FF13  0000               	dw	0
   278   00FF15  3F80               	dw	16256
   279   00FF17  0000               	dw	0
   280   00FF19  0000               	dw	0
   281   00FF1B  0000               	dw	0
   282   00FF1D  0000               	dw	0
   283   00FF1F                     __end_of_DEN:
   284                           	callstack 0
   285   00FF1F                     _NUM:
   286                           	callstack 0
   287                           
   288                           ;./Notch 60hzorden4.h: 23: const int NL[5] = { 1,3,1,3,1 };;./Notch 60hzorden4.h: 24: co
      +                          nst double NUM[5][3] = {
   289   00FF1F  6BA9               	dw	27561
   290   00FF21  3F30               	dw	16176
   291   00FF23  0000               	dw	0
   292   00FF25  0000               	dw	0
   293   00FF27  0000               	dw	0
   294   00FF29  0000               	dw	0
   295   00FF2B  0000               	dw	0
   296   00FF2D  3F80               	dw	16256
   297                           
   298                           ;./Notch 60hzorden4.h: 23: const int NL[5] = { 1,3,1,3,1 };;./Notch 60hzorden4.h: 24: co
      +                          nst double NUM[5][3] = {
   299   00FF2F  A627               	dw	42535
   300   00FF31  3FB5               	dw	16309
   301   00FF33  0000               	dw	0
   302   00FF35  3F80               	dw	16256
   303                           
   304                           ;./Notch 60hzorden4.h: 23: const int NL[5] = { 1,3,1,3,1 };;./Notch 60hzorden4.h: 24: co
      +                          nst double NUM[5][3] = {
   305   00FF37  6BA9               	dw	27561
   306   00FF39  3F30               	dw	16176
   307   00FF3B  0000               	dw	0
   308   00FF3D  0000               	dw	0
   309   00FF3F  0000               	dw	0
   310   00FF41  0000               	dw	0
   311   00FF43  0000               	dw	0
   312   00FF45  3F80               	dw	16256
   313                           
   314                           ;./Notch 60hzorden4.h: 23: const int NL[5] = { 1,3,1,3,1 };;./Notch 60hzorden4.h: 24: co
      +                          nst double NUM[5][3] = {
   315   00FF47  A627               	dw	42535
   316   00FF49  3FB5               	dw	16309
   317   00FF4B  0000               	dw	0
   318   00FF4D  3F80               	dw	16256
   319   00FF4F  0000               	dw	0
   320   00FF51  3F80               	dw	16256
   321   00FF53  0000               	dw	0
   322   00FF55  0000               	dw	0
   323   00FF57  0000               	dw	0
   324   00FF59  0000               	dw	0
   325   00FF5B                     __end_of_NUM:
   326                           	callstack 0
   327   00FF5B                     _UART:
   328                           	callstack 0
   329   00FF5B  98                 	db	low _UART1_Initialize
   330   00FF5C  02                 	db	high _UART1_Initialize
   331   00FF5D  00                 	db	0
   332   00FF5E  00                 	db	0
   333   00FF5F  00                 	db	0
   334   00FF60  00                 	db	0
   335   00FF61  70                 	db	low _UART1_Write
   336   00FF62  05                 	db	high _UART1_Write
   337   00FF63  00                 	db	0
   338   00FF64  00                 	db	0
   339   00FF65  00                 	db	0
   340   00FF66  00                 	db	0
   341   00FF67  00                 	db	0
   342   00FF68  00                 	db	0
   343   00FF69  00                 	db	0
   344   00FF6A  00                 	db	0
   345   00FF6B  00                 	db	0
   346   00FF6C  00                 	db	0
   347   00FF6D  00                 	db	0
   348   00FF6E  00                 	db	0
   349   00FF6F  00                 	db	0
   350   00FF70  00                 	db	0
   351   00FF71  00                 	db	0
   352   00FF72  00                 	db	0
   353   00FF73  00                 	db	0
   354   00FF74  00                 	db	0
   355   00FF75  00                 	db	0
   356   00FF76  00                 	db	0
   357   00FF77  00                 	db	0
   358   00FF78  00                 	db	0
   359   00FF79  00                 	db	0
   360   00FF7A  00                 	db	0
   361   00FF7B  00                 	db	0
   362   00FF7C  00                 	db	0
   363   00FF7D  00                 	db	0
   364   00FF7E  00                 	db	0
   365   00FF7F  00                 	db	0
   366   00FF80  00                 	db	0
   367   00FF81  00                 	db	0
   368   00FF82  00                 	db	0
   369   00FF83  CE                 	db	low _UART1_FramingErrorCallbackRegister
   370   00FF84  08                 	db	high _UART1_FramingErrorCallbackRegister
   371   00FF85  B0                 	db	low _UART1_OverrunErrorCallbackRegister
   372   00FF86  08                 	db	high _UART1_OverrunErrorCallbackRegister
   373   00FF87  92                 	db	low _UART1_ParityErrorCallbackRegister
   374   00FF88  08                 	db	high _UART1_ParityErrorCallbackRegister
   375   00FF89  00                 	db	0
   376   00FF8A  00                 	db	0
   377   00FF8B                     __end_of_UART:
   378                           	callstack 0
   379   00FF8B                     _SPI1:
   380                           	callstack 0
   381   00FF8B  EC                 	db	low _SPI1_Initialize
   382   00FF8C  08                 	db	high _SPI1_Initialize
   383   00FF8D  00                 	db	0
   384   00FF8E  00                 	db	0
   385   00FF8F  68                 	db	low _SPI1_Open
   386   00FF90  08                 	db	high _SPI1_Open
   387   00FF91  00                 	db	0
   388   00FF92  00                 	db	0
   389   00FF93  00                 	db	0
   390   00FF94  00                 	db	0
   391   00FF95  00                 	db	0
   392   00FF96  00                 	db	0
   393   00FF97  00                 	db	0
   394   00FF98  00                 	db	0
   395   00FF99  00                 	db	0
   396   00FF9A  00                 	db	0
   397   00FF9B  B0                 	db	low _SPI1_ByteWrite
   398   00FF9C  09                 	db	high _SPI1_ByteWrite
   399   00FF9D                     __end_of_SPI1:
   400                           	callstack 0
   401   00FF9D                     _Timer2:
   402                           	callstack 0
   403   00FF9D  D0                 	db	low _Timer2_Initialize
   404   00FF9E  06                 	db	high _Timer2_Initialize
   405   00FF9F  D2                 	db	low _Timer2_Start
   406   00FFA0  09                 	db	high _Timer2_Start
   407   00FFA1  D6                 	db	low _Timer2_Stop
   408   00FFA2  09                 	db	high _Timer2_Stop
   409   00FFA3  00                 	db	0
   410   00FFA4  00                 	db	0
   411   00FFA5  7E                 	db	low _Timer2_OverflowCallbackRegister
   412   00FFA6  09                 	db	high _Timer2_OverflowCallbackRegister
   413   00FFA7  00                 	db	0
   414   00FFA8  00                 	db	0
   415   00FFA9                     __end_of_Timer2:
   416                           	callstack 0
   417   00FFA9                     _Timer:
   418                           	callstack 0
   419   00FFA9  9E                 	db	low _Timer_Initialize
   420   00FFAA  06                 	db	high _Timer_Initialize
   421   00FFAB  00                 	db	0
   422   00FFAC  00                 	db	0
   423   00FFAD  00                 	db	0
   424   00FFAE  00                 	db	0
   425   00FFAF  00                 	db	0
   426   00FFB0  00                 	db	0
   427   00FFB1  74                 	db	low _Timer_OverflowCallbackRegister
   428   00FFB2  09                 	db	high _Timer_OverflowCallbackRegister
   429   00FFB3  00                 	db	0
   430   00FFB4  00                 	db	0
   431   00FFB5                     __end_of_Timer:
   432                           	callstack 0
   433   00FFB5                     _DL:
   434                           	callstack 0
   435   00FFB5  0001               	dw	1
   436   00FFB7  0003               	dw	3
   437   00FFB9  0001               	dw	1
   438   00FFBB  0003               	dw	3
   439   00FFBD  0001               	dw	1
   440   00FFBF                     __end_of_DL:
   441                           	callstack 0
   442   00FFBF                     _NL:
   443                           	callstack 0
   444   00FFBF  0001               	dw	1
   445   00FFC1  0003               	dw	3
   446   00FFC3  0001               	dw	1
   447   00FFC5  0003               	dw	3
   448   00FFC7  0001               	dw	1
   449   00FFC9                     __end_of_NL:
   450                           	callstack 0
   451   00FFC9  83                 	db	131
   452   00FFCA  40                 	db	64
   453   00FFCB  02                 	db	2
   454   00FFCC  3F                 	db	63
   455   00FFCD  00                 	db	0
   456   00FFCE                     __end_of_spi1_configuration:
   457                           	callstack 0
   458   00FFCE                     _B:
   459                           	callstack 0
   460   00FFCE  0317               	dw	791
   461   00FFD0  0000               	dw	0
   462   00FFD2  0A89               	dw	2697
   463   00FFD4  0000               	dw	0
   464   00FFD6  12CF               	dw	4815
   465   00FFD8  0000               	dw	0
   466   00FFDA  1AA7               	dw	6823
   467   00FFDC  0000               	dw	0
   468   00FFDE  20C8               	dw	8392
   469   00FFE0  0000               	dw	0
   470   00FFE2  2424               	dw	9252
   471   00FFE4  0000               	dw	0
   472   00FFE6  2424               	dw	9252
   473   00FFE8  0000               	dw	0
   474   00FFEA  20C8               	dw	8392
   475   00FFEC  0000               	dw	0
   476   00FFEE  1AA7               	dw	6823
   477   00FFF0  0000               	dw	0
   478   00FFF2  12CF               	dw	4815
   479   00FFF4  0000               	dw	0
   480   00FFF6  0A89               	dw	2697
   481   00FFF8  0000               	dw	0
   482   00FFFA  0317               	dw	791
   483   00FFFC  0000               	dw	0
   484   00FFFE                     __end_of_B:
   485                           	callstack 0
   486   000000                     _T2CON	set	16300
   487   000000                     _PIR4bits	set	14756
   488   000000                     _T0CON0	set	16312
   489   000000                     _PIR3bits	set	14755
   490   000000                     _T0CON1	set	16313
   491   000000                     _PIR5bits	set	14757
   492   000000                     _IVTBASEL	set	16341
   493   000000                     _IVTBASEH	set	16342
   494   000000                     _IVTBASEU	set	16343
   495   000000                     _OSCTUNE	set	14814
   496   000000                     _OSCFRQ	set	14815
   497   000000                     _OSCCON1	set	14809
   498   000000                     _RC3PPS	set	14867
   499   000000                     _RC5PPS	set	14869
   500   000000                     _RC6PPS	set	14870
   501   000000                     _ANSELA	set	14912
   502   000000                     _TRISB	set	16323
   503   000000                     _SPI1RXB	set	15632
   504   000000                     _PIR2bits	set	14754
   505   000000                     _SPI1TXB	set	15633
   506   000000                     _SPI1TCNTL	set	15634
   507   000000                     _SPI1CON0	set	15636
   508   000000                     _SPI1CON1	set	15637
   509   000000                     _U2TXB	set	15826
   510   000000                     _FVRCON	set	16065
   511   000000                     _ADERRL	set	16098
   512   000000                     _ADERRH	set	16099
   513   000000                     _ADPREVL	set	16109
   514   000000                     _ADPREVH	set	16110
   515   000000                     _ADFLTRL	set	16102
   516   000000                     _ADFLTRH	set	16103
   517   000000                     _ADACCL	set	16104
   518   000000                     _ADACCH	set	16105
   519   000000                     _ADCNT	set	16107
   520   000000                     _ADRESL	set	16111
   521   000000                     _ADRESH	set	16112
   522   000000                     _ADCON0	set	16120
   523   000000                     _ADCON1	set	16121
   524   000000                     _ADPREH	set	16119
   525   000000                     _ADPREL	set	16118
   526   000000                     _ADCAP	set	16117
   527   000000                     _ADACQH	set	16116
   528   000000                     _ADPCH	set	16113
   529   000000                     _ADRPT	set	16108
   530   000000                     _ADACCU	set	16106
   531   000000                     _ADSTPTH	set	16101
   532   000000                     _ADSTPTL	set	16100
   533   000000                     _ADUTHH	set	16097
   534   000000                     _ADUTHL	set	16096
   535   000000                     _ADLTHH	set	16095
   536   00FFFE  00                 	db	0	; dummy byte at the end
   537   000000                     
   538                           	psect	nvCOMRAM
   539   000051                     __pnvCOMRAM:
   540                           	callstack 0
   541   000051                     _timerTMR0ReloadVal16bit:
   542                           	callstack 0
   543   000051                     	ds	2
   544                           
   545                           	psect	nvBANK0
   546   0000EC                     __pnvBANK0:
   547                           	callstack 0
   548   0000EC                     _Timer2_OverflowCallback:
   549                           	callstack 0
   550   0000EC                     	ds	2
   551   0000EE                     _Timer_OverflowCallback:
   552                           	callstack 0
   553   0000EE                     	ds	2
   554   0000F0                     _UART1_RxInterruptHandler:
   555                           	callstack 0
   556   0000F0                     	ds	2
   557   0000F2                     _UART1_TxInterruptHandler:
   558                           	callstack 0
   559   0000F2                     	ds	2
   560   0000F4                     _ADCC_ADI_InterruptHandler:
   561                           	callstack 0
   562   0000F4                     	ds	2
   563   000000                     _U1ERRIRbits	set	15865
   564   000000                     _U1UIRbits	set	15864
   565   000000                     _U1CON0bits	set	15858
   566   000000                     _U1CON1bits	set	15859
   567   000000                     _SPI1CON0bits	set	15636
   568   000000                     _FVRCONbits	set	16065
   569   000000                     _ADCON1bits	set	16121
   570   000000                     _ADSTATbits	set	16124
   571   000000                     _ADCON2bits	set	16122
   572   000000                     _ADCON3bits	set	16123
   573   000000                     _ADCON0bits	set	16120
   574   000000                     _LATBbits	set	16315
   575   000000                     _LATEbits	set	16318
   576   000000                     _PR2	set	16299
   577   000000                     _TMR2	set	16298
   578   000000                     _T2CONbits	set	16300
   579   000000                     _T2RSTbits	set	16303
   580   000000                     _T2HLTbits	set	16301
   581   000000                     _T0CON0bits	set	16312
   582   000000                     _IVTLOCKbits	set	16340
   583   000000                     _TRISC	set	16324
   584   000000                     _GIE	set	130711
   585   000000                     _IPR0bits	set	14720
   586   000000                     _IPR3bits	set	14723
   587   000000                     _PIE1bits	set	14737
   588   000000                     _PIR1bits	set	14753
   589   000000                     _ADLTHL	set	16094
   590   000000                     _ADACQL	set	16115
   591   000000                     _T2TMR	set	16298
   592   000000                     _T2PR	set	16299
   593   000000                     _T2HLT	set	16301
   594   000000                     _T2CLKCON	set	16302
   595   000000                     _TMR0L	set	16310
   596   000000                     _TMR0H	set	16311
   597   000000                     _LATA	set	16314
   598   000000                     _TRISCbits	set	16324
   599   000000                     _ADCLK	set	16127
   600   000000                     _ADACT	set	16126
   601   000000                     _ADREF	set	16125
   602   000000                     _ADSTAT	set	16124
   603   000000                     _ADCON3	set	16123
   604   000000                     _ADCON2	set	16122
   605   000000                     _PIE3bits	set	14739
   606   000000                     _U2P1L	set	15828
   607   000000                     _U2P2L	set	15830
   608   000000                     _U2P3L	set	15832
   609   000000                     _U2CON0	set	15834
   610   000000                     _U1RXB	set	15848
   611   000000                     _U2ERRIE	set	15842
   612   000000                     _U2ERRIR	set	15841
   613   000000                     _U2UIR	set	15840
   614   000000                     _U2FIFO	set	15839
   615   000000                     _U2BRGH	set	15838
   616   000000                     _U2BRGL	set	15837
   617   000000                     _U2CON2	set	15836
   618   000000                     _U2CON1	set	15835
   619   000000                     _SPI1BAUD	set	15641
   620   000000                     _SPI1CLK	set	15644
   621   000000                     _SPI1CON2	set	15638
   622   000000                     _INTCON0bits	set	16338
   623   000000                     _TRISE	set	16326
   624   000000                     _TRISD	set	16325
   625   000000                     _TRISA	set	16322
   626   000000                     _LATE	set	16318
   627   000000                     _LATD	set	16317
   628   000000                     _LATC	set	16316
   629   000000                     _LATB	set	16315
   630   000000                     _IOCAF	set	14919
   631   000000                     _IOCAN	set	14918
   632   000000                     _IOCAP	set	14917
   633   000000                     _INLVLA	set	14916
   634   000000                     _SLRCONA	set	14915
   635   000000                     _ODCONA	set	14914
   636   000000                     _WPUA	set	14913
   637   000000                     _ANSELB	set	14928
   638   000000                     _IOCBF	set	14935
   639   000000                     _IOCBN	set	14934
   640   000000                     _IOCBP	set	14933
   641   000000                     _INLVLB	set	14932
   642   000000                     _SLRCONB	set	14931
   643   000000                     _ODCONB	set	14930
   644   000000                     _RB1I2C	set	14938
   645   000000                     _WPUB	set	14929
   646   000000                     _ANSELC	set	14944
   647   000000                     _IOCCF	set	14951
   648   000000                     _IOCCN	set	14950
   649   000000                     _IOCCP	set	14949
   650   000000                     _INLVLC	set	14948
   651   000000                     _SLRCONC	set	14947
   652   000000                     _ODCONC	set	14946
   653   000000                     _RC3I2C	set	14954
   654   000000                     _WPUC	set	14945
   655   000000                     _ANSELD	set	14960
   656   000000                     _INLVLD	set	14964
   657   000000                     _SLRCOND	set	14963
   658   000000                     _ODCOND	set	14962
   659   000000                     _RD0I2C	set	14970
   660   000000                     _WPUD	set	14961
   661   000000                     _ANSELE	set	14976
   662   000000                     _IOCEF	set	14983
   663   000000                     _IOCEN	set	14982
   664   000000                     _IOCEP	set	14981
   665   000000                     _SPI1SCKPPS	set	15070
   666   000000                     _SPI1SDIPPS	set	15071
   667   000000                     _U1RXPPS	set	15077
   668   000000                     _INLVLE	set	14980
   669   000000                     _SLRCONE	set	14979
   670   000000                     _ODCONE	set	14978
   671   000000                     _WPUE	set	14977
   672   000000                     _RB2I2C	set	14939
   673   000000                     _RC4I2C	set	14955
   674   000000                     _RD1I2C	set	14971
   675   000000                     _OSCCON3	set	14811
   676   000000                     _OSCEN	set	14813
   677   000000                     _IVTLOCK	set	16340
   678   000000                     _IPR4bits	set	14724
   679   000000                     _IPR1bits	set	14721
   680   000000                     _PIR7bits	set	14759
   681   000000                     _PIE4bits	set	14740
   682   000000                     _T2RST	set	16303
   683   000000                     _U1ERRIE	set	15866
   684   000000                     _U1ERRIR	set	15865
   685   000000                     _U1UIR	set	15864
   686   000000                     _U1FIFO	set	15863
   687   000000                     _U1BRGH	set	15862
   688   000000                     _U1BRGL	set	15861
   689   000000                     _U1CON2	set	15860
   690   000000                     _U1CON1	set	15859
   691   000000                     _U1CON0	set	15858
   692   000000                     _U1P3H	set	15857
   693   000000                     _U1P3L	set	15856
   694   000000                     _U1P2H	set	15855
   695   000000                     _U1P2L	set	15854
   696   000000                     _U1P1H	set	15853
   697   000000                     _U1P1L	set	15852
   698   000000                     _U1TXCHK	set	15851
   699   000000                     _U1TXB	set	15850
   700   000000                     _U1RXCHK	set	15849
   701                           
   702                           ; #config settings
   703                           
   704                           	psect	cinit
   705   0003D4                     __pcinit:
   706                           	callstack 0
   707   0003D4                     start_initialization:
   708                           	callstack 0
   709   0003D4                     __initialization:
   710                           	callstack 0
   711                           
   712                           ; Initialize objects allocated to BANK0 (20 bytes)
   713                           ; load TBLPTR registers with __pidataBANK0
   714   0003D4  0E34               	movlw	low __pidataBANK0
   715   0003D6  6EF6               	movwf	tblptrl,c
   716   0003D8  0E09               	movlw	high __pidataBANK0
   717   0003DA  6EF7               	movwf	tblptrh,c
   718   0003DC  0E00               	movlw	low (__pidataBANK0 shr (0+16))
   719   0003DE  6EF8               	movwf	tblptru,c
   720   0003E0  EE00  F0D8         	lfsr	0,__pdataBANK0
   721   0003E4  EE10 F014          	lfsr	1,20
   722   0003E8                     copy_data0:
   723   0003E8  0009               	tblrd		*+
   724   0003EA  006F FFD7 FFEE     	movff	tablat,postinc0
   725   0003F0  50E5               	movf	postdec1,w,c
   726   0003F2  50E1               	movf	fsr1l,w,c
   727   0003F4  E1F9               	bnz	copy_data0
   728                           
   729                           ; Initialize objects allocated to COMRAM (22 bytes)
   730                           ; load TBLPTR registers with __pidataCOMRAM
   731   0003F6  0E1E               	movlw	low __pidataCOMRAM
   732   0003F8  6EF6               	movwf	tblptrl,c
   733   0003FA  0E09               	movlw	high __pidataCOMRAM
   734   0003FC  6EF7               	movwf	tblptrh,c
   735   0003FE  0E00               	movlw	low (__pidataCOMRAM shr (0+16))
   736   000400  6EF8               	movwf	tblptru,c
   737   000402  EE00  F02E         	lfsr	0,__pdataCOMRAM
   738   000406  EE10 F016          	lfsr	1,22
   739   00040A                     copy_data1:
   740   00040A  0009               	tblrd		*+
   741   00040C  006F FFD7 FFEE     	movff	tablat,postinc0
   742   000412  50E5               	movf	postdec1,w,c
   743   000414  50E1               	movf	fsr1l,w,c
   744   000416  E1F9               	bnz	copy_data1
   745                           
   746                           ; Clear objects allocated to BANK1 (128 bytes)
   747   000418  EE00  F100         	lfsr	0,__pbssBANK1
   748   00041C  0E80               	movlw	128
   749   00041E                     clear_0:
   750   00041E  6AEE               	clrf	postinc0,c
   751   000420  06E8               	decf	wreg,f,c
   752   000422  E1FD               	bnz	clear_0
   753                           
   754                           ; Clear objects allocated to BANK0 (120 bytes)
   755   000424  EE00  F060         	lfsr	0,__pbssBANK0
   756   000428  0E78               	movlw	120
   757   00042A                     clear_1:
   758   00042A  6AEE               	clrf	postinc0,c
   759   00042C  06E8               	decf	wreg,f,c
   760   00042E  E1FD               	bnz	clear_1
   761                           
   762                           ; Clear objects allocated to COMRAM (45 bytes)
   763   000430  EE00  F001         	lfsr	0,__pbssCOMRAM
   764   000434  0E2D               	movlw	45
   765   000436                     clear_2:
   766   000436  6AEE               	clrf	postinc0,c
   767   000438  06E8               	decf	wreg,f,c
   768   00043A  E1FD               	bnz	clear_2
   769                           
   770                           ;
   771                           ; Setup IVTBASE
   772                           ;
   773   00043C  0E08               	movlw	(ivt0x8_base shr 0)& (0+255)
   774   00043E  6ED5               	movwf	213,c
   775   000440  0E00               	movlw	(ivt0x8_base shr (0+8))& (0+255)
   776   000442  6ED6               	movwf	214,c
   777   000444  0E00               	movlw	(ivt0x8_base shr (0+16))& (0+255)
   778   000446  6ED7               	movwf	215,c
   779   000448                     end_of_initialization:
   780                           	callstack 0
   781   000448                     __end_of__initialization:
   782                           	callstack 0
   783   000448  0100               	movlb	0
   784   00044A  EF35  F003         	goto	_main	;jump to C main() function
   785                           
   786                           	psect	bssCOMRAM
   787   000001                     __pbssCOMRAM:
   788                           	callstack 0
   789   000001                     FilterIIR@W_1:
   790                           	callstack 0
   791   000001                     	ds	12
   792   00000D                     FIR_p@indexHead:
   793                           	callstack 0
   794   00000D                     	ds	2
   795   00000F                     FIR@index:
   796                           	callstack 0
   797   00000F                     	ds	2
   798   000011                     Timer_int@count:
   799                           	callstack 0
   800   000011                     	ds	2
   801   000013                     UART_RX_int@mesage:
   802                           	callstack 0
   803   000013                     	ds	2
   804   000015                     _UART1_TxCompleteInterruptHandler:
   805                           	callstack 0
   806   000015                     	ds	2
   807   000017                     _UART1_ParityErrorHandler:
   808                           	callstack 0
   809   000017                     	ds	2
   810   000019                     _UART1_OverrunErrorHandler:
   811                           	callstack 0
   812   000019                     	ds	2
   813   00001B                     _UART1_FramingErrorHandler:
   814                           	callstack 0
   815   00001B                     	ds	2
   816   00001D                     _uart1RxLastError:
   817                           	callstack 0
   818   00001D                     	ds	2
   819   00001F                     _INT2_InterruptHandler:
   820                           	callstack 0
   821   00001F                     	ds	2
   822   000021                     _INT1_InterruptHandler:
   823                           	callstack 0
   824   000021                     	ds	2
   825   000023                     _INT0_InterruptHandler:
   826                           	callstack 0
   827   000023                     	ds	2
   828   000025                     UART_RX_int@opcode:
   829                           	callstack 0
   830   000025                     	ds	1
   831   000026                     UART_RX_int@status:
   832                           	callstack 0
   833   000026                     	ds	1
   834   000027                     UART1_Receive_Vector_ISR@status:
   835                           	callstack 0
   836   000027                     	ds	1
   837   000028                     _uart1RxCount:
   838                           	callstack 0
   839   000028                     	ds	1
   840   000029                     _uart1RxTail:
   841                           	callstack 0
   842   000029                     	ds	1
   843   00002A                     _uart1RxHead:
   844                           	callstack 0
   845   00002A                     	ds	1
   846   00002B                     _uart1TxBufferRemaining:
   847                           	callstack 0
   848   00002B                     	ds	1
   849   00002C                     _uart1TxTail:
   850                           	callstack 0
   851   00002C                     	ds	1
   852   00002D                     _uart1TxHead:
   853                           	callstack 0
   854   00002D                     	ds	1
   855                           
   856                           	psect	dataCOMRAM
   857   00002E                     __pdataCOMRAM:
   858                           	callstack 0
   859   00002E                     IIR_p2@W_i:
   860                           	callstack 0
   861   00002E                     	ds	2
   862   000030                     IIR_p2@X_i:
   863                           	callstack 0
   864   000030                     	ds	2
   865   000032                     IIR_p1@W_i:
   866                           	callstack 0
   867   000032                     	ds	2
   868   000034                     IIR_p1@X_i:
   869                           	callstack 0
   870   000034                     	ds	2
   871   000036                     FIR_p@indexTail:
   872                           	callstack 0
   873   000036                     	ds	2
   874   000038                     FIR_p@tail_i:
   875                           	callstack 0
   876   000038                     	ds	2
   877   00003A                     FIR_p@head_i:
   878                           	callstack 0
   879   00003A                     	ds	2
   880   00003C                     FIR_p@tail:
   881                           	callstack 0
   882   00003C                     	ds	2
   883   00003E                     FIR_p@head:
   884                           	callstack 0
   885   00003E                     	ds	2
   886   000040                     UART1_Receive_Vector_ISR@mesage:
   887                           	callstack 0
   888   000040                     	ds	2
   889   000042                     _PERIOD:
   890                           	callstack 0
   891   000042                     	ds	2
   892                           
   893                           	psect	bssBANK0
   894   000060                     __pbssBANK0:
   895                           	callstack 0
   896   000060                     _uart1RxStatusBuffer:
   897                           	callstack 0
   898   000060                     	ds	16
   899   000070                     _uart1TxBuffer:
   900                           	callstack 0
   901   000070                     	ds	16
   902   000080                     FilterIIR@W_2:
   903                           	callstack 0
   904   000080                     	ds	12
   905   00008C                     	ds	8
   906   000094                     _uart1RxBuffer:
   907                           	callstack 0
   908   000094                     	ds	8
   909   00009C                     IIR_p2@Y:
   910                           	callstack 0
   911   00009C                     	ds	4
   912   0000A0                     IIR_p1@Y:
   913                           	callstack 0
   914   0000A0                     	ds	4
   915   0000A4                     	ds	2
   916   0000A6                     _UART1_RxCompleteInterruptHandler:
   917                           	callstack 0
   918   0000A6                     	ds	2
   919   0000A8                     IIR_p2@W:
   920                           	callstack 0
   921   0000A8                     	ds	12
   922   0000B4                     IIR_p2@X:
   923                           	callstack 0
   924   0000B4                     	ds	12
   925   0000C0                     IIR_p1@W:
   926                           	callstack 0
   927   0000C0                     	ds	12
   928   0000CC                     IIR_p1@X:
   929                           	callstack 0
   930   0000CC                     	ds	12
   931                           
   932                           	psect	dataBANK0
   933   0000D8                     __pdataBANK0:
   934                           	callstack 0
   935   0000D8                     _char_hex:
   936                           	callstack 0
   937   0000D8                     	ds	16
   938   0000E8                     	ds	2
   939   0000EA                     	ds	2
   940                           
   941                           	psect	bssBANK1
   942   000100                     __pbssBANK1:
   943                           	callstack 0
   944   000100                     FIR@buffer:
   945                           	callstack 0
   946   000100                     	ds	64
   947   000140                     FIR_p@buffer:
   948                           	callstack 0
   949   000140                     	ds	64
   950                           
   951                           	psect	cstackBANK1
   952   000180                     __pcstackBANK1:
   953                           	callstack 0
   954   000180                     ??_INT2_ISR:
   955                           
   956                           ; 1 bytes @ 0x0
   957   000180                     	ds	3
   958   000183                     ADCC_SetADIInterruptHandler@InterruptHandler:
   959                           	callstack 0
   960   000183                     INT0_SetInterruptHandler@InterruptHandler:
   961                           	callstack 0
   962   000183                     INT1_SetInterruptHandler@InterruptHandler:
   963                           	callstack 0
   964   000183                     INT2_SetInterruptHandler@InterruptHandler:
   965                           	callstack 0
   966   000183                     Timer_OverflowCallbackRegister@CallbackHandler:
   967                           	callstack 0
   968   000183                     Timer2_OverflowCallbackRegister@InterruptHandler:
   969                           	callstack 0
   970   000183                     UART1_FramingErrorCallbackRegister@callbackHandler:
   971                           	callstack 0
   972   000183                     UART1_OverrunErrorCallbackRegister@callbackHandler:
   973                           	callstack 0
   974   000183                     UART1_ParityErrorCallbackRegister@callbackHandler:
   975                           	callstack 0
   976                           
   977                           ; 2 bytes @ 0x3
   978   000183                     	ds	2
   979   000185                     ??_Timer_Initialize:
   980   000185                     INTERRUPT_Initialize@state:
   981                           	callstack 0
   982                           
   983                           ; 1 bytes @ 0x5
   984   000185                     	ds	2
   985                           
   986                           	psect	cstackBANK0
   987   0000F6                     __pcstackBANK0:
   988                           	callstack 0
   989   0000F6                     ??_INT0_ISR:
   990                           
   991                           ; 1 bytes @ 0x0
   992   0000F6                     	ds	3
   993   0000F9                     ??_INT1_ISR:
   994                           
   995                           ; 1 bytes @ 0x3
   996   0000F9                     	ds	3
   997                           
   998                           	psect	cstackCOMRAM
   999   000044                     __pcstackCOMRAM:
  1000                           	callstack 0
  1001   000044                     i2ADCC_StartConversion@channel:
  1002                           	callstack 0
  1003                           
  1004                           ; 1 bytes @ 0x0
  1005   000044                     	ds	1
  1006   000045                     ??_Timer_OverflowISR:
  1007                           
  1008                           ; 1 bytes @ 0x1
  1009   000045                     	ds	2
  1010   000047                     ??_UART1_Receive_Vector_ISR:
  1011                           
  1012                           ; 1 bytes @ 0x3
  1013   000047                     	ds	2
  1014   000049                     UART1_TransmitISR@tempTxTail:
  1015                           	callstack 0
  1016                           
  1017                           ; 1 bytes @ 0x5
  1018   000049                     	ds	1
  1019   00004A                     ADCC_StartConversion@channel:
  1020                           	callstack 0
  1021   00004A                     SPI1_ByteWrite@byte:
  1022                           	callstack 0
  1023   00004A                     UART1_Write@tempTxHead:
  1024                           	callstack 0
  1025                           
  1026                           ; 1 bytes @ 0x6
  1027   00004A                     	ds	1
  1028   00004B                     UART1_Write@txData:
  1029                           	callstack 0
  1030                           
  1031                           ; 1 bytes @ 0x7
  1032   00004B                     	ds	1
  1033   00004C                     ??_ADC_int:
  1034                           
  1035                           ; 1 bytes @ 0x8
  1036   00004C                     	ds	2
  1037   00004E                     ??_ADCC_ISR:
  1038                           
  1039                           ; 1 bytes @ 0xA
  1040   00004E                     	ds	3
  1041   000051                     
  1042                           ; 1 bytes @ 0xD
  1043 ;;
  1044 ;;Main: autosize = 0, tempsize = 0, incstack = 0, save=0
  1045 ;;
  1046 ;; *************** function _main *****************
  1047 ;; Defined at:
  1048 ;;		line 42 in file "main.c"
  1049 ;; Parameters:    Size  Location     Type
  1050 ;;		None
  1051 ;; Auto vars:     Size  Location     Type
  1052 ;;		None
  1053 ;; Return value:  Size  Location     Type
  1054 ;;                  2  1056[None  ] int 
  1055 ;; Registers used:
  1056 ;;		wreg, status,2, status,0, cstack
  1057 ;; Tracked objects:
  1058 ;;		On entry : 0/0
  1059 ;;		On exit  : 0/0
  1060 ;;		Unchanged: 0/0
  1061 ;; Data sizes:     COMRAM   BANK0   BANK1   BANK2   BANK3   BANK4   BANK5   BANK6   BANK7   BANK8   BANK9  BANK10  BANK1
      +1  BANK12  BANK13  BANK14  BANK15
  1062 ;;      Params:         0       0       0       0       0       0       0       0       0       0       0       0       
      +0       0       0       0       0
  1063 ;;      Locals:         0       0       0       0       0       0       0       0       0       0       0       0       
      +0       0       0       0       0
  1064 ;;      Temps:          0       0       0       0       0       0       0       0       0       0       0       0       
      +0       0       0       0       0
  1065 ;;      Totals:         0       0       0       0       0       0       0       0       0       0       0       0       
      +0       0       0       0       0
  1066 ;;Total ram usage:        0 bytes
  1067 ;; Hardware stack levels required when called: 9
  1068 ;; This function calls:
  1069 ;;		_ADCC_SetADIInterruptHandler
  1070 ;;		_SPI1_Open
  1071 ;;		_SYSTEM_Initialize
  1072 ;;		_Timer_OverflowCallbackRegister
  1073 ;; This function is called by:
  1074 ;;		Startup code after reset
  1075 ;; This function uses a non-reentrant model
  1076 ;;
  1077                           
  1078                           	psect	text0
  1079   00066A                     __ptext0:
  1080                           	callstack 0
  1081   00066A                     _main:
  1082                           	callstack 22
  1083   00066A                     
  1084                           ;main.c: 45:     SYSTEM_Initialize();
  1085   00066A  EC1F  F004         	call	_SYSTEM_Initialize	;wreg free
  1086   00066E                     
  1087                           ;main.c: 46:     SPI1_Open();
  1088   00066E  EC34  F004         	call	_SPI1_Open	;wreg free
  1089   000672                     
  1090                           ;main.c: 50:     ADCC_SetADIInterruptHandler(ADC_int);
  1091   000672  0EB2               	movlw	low _ADC_int
  1092   000674  0101               	movlb	1	; () banked
  1093   000676  6F83               	movwf	ADCC_SetADIInterruptHandler@InterruptHandler& (0+255),b
  1094   000678  0E00               	movlw	high _ADC_int
  1095   00067A  6F84               	movwf	(ADCC_SetADIInterruptHandler@InterruptHandler+1)& (0+255),b
  1096   00067C  ECD3  F004         	call	_ADCC_SetADIInterruptHandler	;wreg free
  1097   000680                     
  1098                           ;main.c: 51:     Timer_OverflowCallbackRegister(Timer_int);
  1099   000680  0E12               	movlw	low _Timer_int
  1100   000682  0101               	movlb	1	; () banked
  1101   000684  6F83               	movwf	Timer_OverflowCallbackRegister@CallbackHandler& (0+255),b
  1102   000686  0E08               	movlw	high _Timer_int
  1103   000688  6F84               	movwf	(Timer_OverflowCallbackRegister@CallbackHandler+1)& (0+255),b
  1104   00068A  ECBA  F004         	call	_Timer_OverflowCallbackRegister	;wreg free
  1105   00068E                     
  1106                           ;main.c: 53:     LATBbits.LATB4 = 1;
  1107   00068E  88BB               	bsf	187,4,c	;volatile
  1108   000690                     
  1109                           ;main.c: 54:     LATEbits.LATE0 = 1;
  1110   000690  80BE               	bsf	190,0,c	;volatile
  1111   000692                     
  1112                           ;main.c: 57:     (INTCON0bits.GIE = 1);
  1113   000692  8ED2               	bsf	210,7,c	;volatile
  1114   000694                     
  1115                           ;main.c: 60:     (INTCON0bits.GIEL = 1);
  1116   000694  8CD2               	bsf	210,6,c	;volatile
  1117   000696                     l1057:
  1118   000696  EF4B  F003         	goto	l1057
  1119   00069A  EF57  F000         	goto	start
  1120   00069E                     __end_of_main:
  1121                           	callstack 0
  1122                           
  1123 ;; *************** function _SYSTEM_Initialize *****************
  1124 ;; Defined at:
  1125 ;;		line 36 in file "mcc_generated_files/system/src/system.c"
  1126 ;; Parameters:    Size  Location     Type
  1127 ;;		None
  1128 ;; Auto vars:     Size  Location     Type
  1129 ;;		None
  1130 ;; Return value:  Size  Location     Type
  1131 ;;                  1    wreg      void 
  1132 ;; Registers used:
  1133 ;;		wreg, status,2, status,0, cstack
  1134 ;; Tracked objects:
  1135 ;;		On entry : 0/0
  1136 ;;		On exit  : 0/0
  1137 ;;		Unchanged: 0/0
  1138 ;; Data sizes:     COMRAM   BANK0   BANK1   BANK2   BANK3   BANK4   BANK5   BANK6   BANK7   BANK8   BANK9  BANK10  BANK1
      +1  BANK12  BANK13  BANK14  BANK15
  1139 ;;      Params:         0       0       0       0       0       0       0       0       0       0       0       0       
      +0       0       0       0       0
  1140 ;;      Locals:         0       0       0       0       0       0       0       0       0       0       0       0       
      +0       0       0       0       0
  1141 ;;      Temps:          0       0       0       0       0       0       0       0       0       0       0       0       
      +0       0       0       0       0
  1142 ;;      Totals:         0       0       0       0       0       0       0       0       0       0       0       0       
      +0       0       0       0       0
  1143 ;;Total ram usage:        0 bytes
  1144 ;; Hardware stack levels used: 1
  1145 ;; Hardware stack levels required when called: 8
  1146 ;; This function calls:
  1147 ;;		_ADCC_Initialize
  1148 ;;		_CLOCK_Initialize
  1149 ;;		_FVR_Initialize
  1150 ;;		_INTERRUPT_Initialize
  1151 ;;		_PIN_MANAGER_Initialize
  1152 ;;		_SPI1_Initialize
  1153 ;;		_Timer2_Initialize
  1154 ;;		_Timer_Initialize
  1155 ;;		_UART1_Initialize
  1156 ;;		_UART2_Initialize
  1157 ;; This function is called by:
  1158 ;;		_main
  1159 ;; This function uses a non-reentrant model
  1160 ;;
  1161                           
  1162                           	psect	text1
  1163   00083E                     __ptext1:
  1164                           	callstack 0
  1165   00083E                     _SYSTEM_Initialize:
  1166                           	callstack 22
  1167   00083E                     
  1168                           ;mcc_generated_files/system/src/system.c: 38:     CLOCK_Initialize();
  1169   00083E  EC83  F004         	call	_CLOCK_Initialize	;wreg free
  1170                           
  1171                           ;mcc_generated_files/system/src/system.c: 39:     PIN_MANAGER_Initialize();
  1172   000842  ECDC  F000         	call	_PIN_MANAGER_Initialize	;wreg free
  1173   000846                     
  1174                           ;mcc_generated_files/system/src/system.c: 40:     ADCC_Initialize();
  1175   000846  EC27  F002         	call	_ADCC_Initialize	;wreg free
  1176   00084A                     
  1177                           ;mcc_generated_files/system/src/system.c: 41:     FVR_Initialize();
  1178   00084A  ECDD  F004         	call	_FVR_Initialize	;wreg free
  1179   00084E                     
  1180                           ;mcc_generated_files/system/src/system.c: 42:     SPI1_Initialize();
  1181   00084E  EC76  F004         	call	_SPI1_Initialize	;wreg free
  1182   000852                     
  1183                           ;mcc_generated_files/system/src/system.c: 43:     Timer_Initialize();
  1184   000852  EC4F  F003         	call	_Timer_Initialize	;wreg free
  1185   000856                     
  1186                           ;mcc_generated_files/system/src/system.c: 44:     Timer2_Initialize();
  1187   000856  EC68  F003         	call	_Timer2_Initialize	;wreg free
  1188   00085A                     
  1189                           ;mcc_generated_files/system/src/system.c: 45:     UART1_Initialize();
  1190   00085A  EC4C  F001         	call	_UART1_Initialize	;wreg free
  1191                           
  1192                           ;mcc_generated_files/system/src/system.c: 46:     UART2_Initialize();
  1193   00085E  ECFD  F002         	call	_UART2_Initialize	;wreg free
  1194   000862                     
  1195                           ;mcc_generated_files/system/src/system.c: 47:     INTERRUPT_Initialize();
  1196   000862  ECA9  F001         	call	_INTERRUPT_Initialize	;wreg free
  1197   000866  0012               	return		;funcret
  1198   000868                     __end_of_SYSTEM_Initialize:
  1199                           	callstack 0
  1200                           
  1201 ;; *************** function _UART2_Initialize *****************
  1202 ;; Defined at:
  1203 ;;		line 26 in file "mcc_generated_files/peripheral/src/uart2.c"
  1204 ;; Parameters:    Size  Location     Type
  1205 ;;		None
  1206 ;; Auto vars:     Size  Location     Type
  1207 ;;		None
  1208 ;; Return value:  Size  Location     Type
  1209 ;;                  1    wreg      void 
  1210 ;; Registers used:
  1211 ;;		wreg, status,2
  1212 ;; Tracked objects:
  1213 ;;		On entry : 0/0
  1214 ;;		On exit  : 0/0
  1215 ;;		Unchanged: 0/0
  1216 ;; Data sizes:     COMRAM   BANK0   BANK1   BANK2   BANK3   BANK4   BANK5   BANK6   BANK7   BANK8   BANK9  BANK10  BANK1
      +1  BANK12  BANK13  BANK14  BANK15
  1217 ;;      Params:         0       0       0       0       0       0       0       0       0       0       0       0       
      +0       0       0       0       0
  1218 ;;      Locals:         0       0       0       0       0       0       0       0       0       0       0       0       
      +0       0       0       0       0
  1219 ;;      Temps:          0       0       0       0       0       0       0       0       0       0       0       0       
      +0       0       0       0       0
  1220 ;;      Totals:         0       0       0       0       0       0       0       0       0       0       0       0       
      +0       0       0       0       0
  1221 ;;Total ram usage:        0 bytes
  1222 ;; Hardware stack levels used: 1
  1223 ;; Hardware stack levels required when called: 6
  1224 ;; This function calls:
  1225 ;;		Nothing
  1226 ;; This function is called by:
  1227 ;;		_SYSTEM_Initialize
  1228 ;; This function uses a non-reentrant model
  1229 ;;
  1230                           
  1231                           	psect	text2
  1232   0005FA                     __ptext2:
  1233                           	callstack 0
  1234   0005FA                     _UART2_Initialize:
  1235                           	callstack 23
  1236   0005FA                     
  1237                           ;mcc_generated_files/peripheral/src/uart2.c: 28:     U2TXB = 0x0;
  1238   0005FA  0E00               	movlw	0
  1239   0005FC  013D               	movlb	61	; () banked
  1240   0005FE  6FD2               	movwf	210,b	;volatile
  1241                           
  1242                           ;mcc_generated_files/peripheral/src/uart2.c: 30:     U2P1L = 0x0;
  1243   000600  0E00               	movlw	0
  1244   000602  6FD4               	movwf	212,b	;volatile
  1245                           
  1246                           ;mcc_generated_files/peripheral/src/uart2.c: 32:     U2P2L = 0x0;
  1247   000604  0E00               	movlw	0
  1248   000606  6FD6               	movwf	214,b	;volatile
  1249                           
  1250                           ;mcc_generated_files/peripheral/src/uart2.c: 34:     U2P3L = 0x0;
  1251   000608  0E00               	movlw	0
  1252   00060A  6FD8               	movwf	216,b	;volatile
  1253                           
  1254                           ;mcc_generated_files/peripheral/src/uart2.c: 36:     U2CON0 = 0x0;
  1255   00060C  0E00               	movlw	0
  1256   00060E  6FDA               	movwf	218,b	;volatile
  1257                           
  1258                           ;mcc_generated_files/peripheral/src/uart2.c: 38:     U2CON1 = 0x0;
  1259   000610  0E00               	movlw	0
  1260   000612  6FDB               	movwf	219,b	;volatile
  1261                           
  1262                           ;mcc_generated_files/peripheral/src/uart2.c: 40:     U2CON2 = 0x0;
  1263   000614  0E00               	movlw	0
  1264   000616  6FDC               	movwf	220,b	;volatile
  1265                           
  1266                           ;mcc_generated_files/peripheral/src/uart2.c: 42:     U2BRGL = 0x0;
  1267   000618  0E00               	movlw	0
  1268   00061A  6FDD               	movwf	221,b	;volatile
  1269                           
  1270                           ;mcc_generated_files/peripheral/src/uart2.c: 44:     U2BRGH = 0x0;
  1271   00061C  0E00               	movlw	0
  1272   00061E  6FDE               	movwf	222,b	;volatile
  1273                           
  1274                           ;mcc_generated_files/peripheral/src/uart2.c: 46:     U2FIFO = 0x20;
  1275   000620  0E20               	movlw	32
  1276   000622  6FDF               	movwf	223,b	;volatile
  1277                           
  1278                           ;mcc_generated_files/peripheral/src/uart2.c: 48:     U2UIR = 0x0;
  1279   000624  0E00               	movlw	0
  1280   000626  6FE0               	movwf	224,b	;volatile
  1281                           
  1282                           ;mcc_generated_files/peripheral/src/uart2.c: 50:     U2ERRIR = 0x80;
  1283   000628  0E80               	movlw	128
  1284   00062A  6FE1               	movwf	225,b	;volatile
  1285                           
  1286                           ;mcc_generated_files/peripheral/src/uart2.c: 52:     U2ERRIE = 0x0;
  1287   00062C  0E00               	movlw	0
  1288   00062E  6FE2               	movwf	226,b	;volatile
  1289   000630                     
  1290                           ; BSR set to: 61
  1291   000630  0012               	return		;funcret
  1292   000632                     __end_of_UART2_Initialize:
  1293                           	callstack 0
  1294                           
  1295 ;; *************** function _UART1_Initialize *****************
  1296 ;; Defined at:
  1297 ;;		line 118 in file "mcc_generated_files/uart/src/uart1.c"
  1298 ;; Parameters:    Size  Location     Type
  1299 ;;		None
  1300 ;; Auto vars:     Size  Location     Type
  1301 ;;		None
  1302 ;; Return value:  Size  Location     Type
  1303 ;;                  1    wreg      void 
  1304 ;; Registers used:
  1305 ;;		wreg, status,2, status,0, cstack
  1306 ;; Tracked objects:
  1307 ;;		On entry : 0/0
  1308 ;;		On exit  : 0/0
  1309 ;;		Unchanged: 0/0
  1310 ;; Data sizes:     COMRAM   BANK0   BANK1   BANK2   BANK3   BANK4   BANK5   BANK6   BANK7   BANK8   BANK9  BANK10  BANK1
      +1  BANK12  BANK13  BANK14  BANK15
  1311 ;;      Params:         0       0       0       0       0       0       0       0       0       0       0       0       
      +0       0       0       0       0
  1312 ;;      Locals:         0       0       0       0       0       0       0       0       0       0       0       0       
      +0       0       0       0       0
  1313 ;;      Temps:          0       0       0       0       0       0       0       0       0       0       0       0       
      +0       0       0       0       0
  1314 ;;      Totals:         0       0       0       0       0       0       0       0       0       0       0       0       
      +0       0       0       0       0
  1315 ;;Total ram usage:        0 bytes
  1316 ;; Hardware stack levels used: 1
  1317 ;; Hardware stack levels required when called: 7
  1318 ;; This function calls:
  1319 ;;		_UART1_FramingErrorCallbackRegister
  1320 ;;		_UART1_OverrunErrorCallbackRegister
  1321 ;;		_UART1_ParityErrorCallbackRegister
  1322 ;; This function is called by:
  1323 ;;		_SYSTEM_Initialize
  1324 ;; This function uses a non-reentrant model
  1325 ;;
  1326                           
  1327                           	psect	text3
  1328   000298                     __ptext3:
  1329                           	callstack 0
  1330   000298                     _UART1_Initialize:
  1331                           	callstack 22
  1332   000298                     
  1333                           ;mcc_generated_files/uart/src/uart1.c: 119:     PIE3bits.U1RXIE = 0;
  1334   000298  0139               	movlb	57	; () banked
  1335   00029A  9793               	bcf	147,3,b	;volatile
  1336   00029C                     
  1337                           ; BSR set to: 57
  1338                           ;mcc_generated_files/uart/src/uart1.c: 120:     UART1_RxInterruptHandler = UART1_Receive
      +                          ISR;
  1339   00029C  0E00               	movlw	0
  1340   00029E  0100               	movlb	0	; () banked
  1341   0002A0  6FF0               	movwf	_UART1_RxInterruptHandler& (0+255),b
  1342   0002A2  0E00               	movlw	0
  1343   0002A4  6FF1               	movwf	(_UART1_RxInterruptHandler+1)& (0+255),b
  1344   0002A6                     
  1345                           ; BSR set to: 0
  1346                           ;mcc_generated_files/uart/src/uart1.c: 121:     PIE3bits.U1TXIE = 0;
  1347   0002A6  0139               	movlb	57	; () banked
  1348   0002A8  9993               	bcf	147,4,b	;volatile
  1349                           
  1350                           ;mcc_generated_files/uart/src/uart1.c: 122:     UART1_TxInterruptHandler = UART1_Transmi
      +                          tISR;
  1351   0002AA  0E32               	movlw	low _UART1_TransmitISR
  1352   0002AC  0100               	movlb	0	; () banked
  1353   0002AE  6FF2               	movwf	_UART1_TxInterruptHandler& (0+255),b
  1354   0002B0  0E06               	movlw	high _UART1_TransmitISR
  1355   0002B2  6FF3               	movwf	(_UART1_TxInterruptHandler+1)& (0+255),b
  1356   0002B4                     
  1357                           ; BSR set to: 0
  1358                           ;mcc_generated_files/uart/src/uart1.c: 127:     U1RXB = 0x0;
  1359   0002B4  0E00               	movlw	0
  1360   0002B6  013D               	movlb	61	; () banked
  1361   0002B8  6FE8               	movwf	232,b	;volatile
  1362   0002BA                     
  1363                           ; BSR set to: 61
  1364                           ;mcc_generated_files/uart/src/uart1.c: 129:     U1RXCHK = 0x0;
  1365   0002BA  0E00               	movlw	0
  1366   0002BC  6FE9               	movwf	233,b	;volatile
  1367   0002BE                     
  1368                           ; BSR set to: 61
  1369                           ;mcc_generated_files/uart/src/uart1.c: 131:     U1TXB = 0x0;
  1370   0002BE  0E00               	movlw	0
  1371   0002C0  6FEA               	movwf	234,b	;volatile
  1372   0002C2                     
  1373                           ; BSR set to: 61
  1374                           ;mcc_generated_files/uart/src/uart1.c: 133:     U1TXCHK = 0x0;
  1375   0002C2  0E00               	movlw	0
  1376   0002C4  6FEB               	movwf	235,b	;volatile
  1377   0002C6                     
  1378                           ; BSR set to: 61
  1379                           ;mcc_generated_files/uart/src/uart1.c: 135:     U1P1L = 0x0;
  1380   0002C6  0E00               	movlw	0
  1381   0002C8  6FEC               	movwf	236,b	;volatile
  1382   0002CA                     
  1383                           ; BSR set to: 61
  1384                           ;mcc_generated_files/uart/src/uart1.c: 137:     U1P1H = 0x0;
  1385   0002CA  0E00               	movlw	0
  1386   0002CC  6FED               	movwf	237,b	;volatile
  1387   0002CE                     
  1388                           ; BSR set to: 61
  1389                           ;mcc_generated_files/uart/src/uart1.c: 139:     U1P2L = 0x0;
  1390   0002CE  0E00               	movlw	0
  1391   0002D0  6FEE               	movwf	238,b	;volatile
  1392   0002D2                     
  1393                           ; BSR set to: 61
  1394                           ;mcc_generated_files/uart/src/uart1.c: 141:     U1P2H = 0x0;
  1395   0002D2  0E00               	movlw	0
  1396   0002D4  6FEF               	movwf	239,b	;volatile
  1397   0002D6                     
  1398                           ; BSR set to: 61
  1399                           ;mcc_generated_files/uart/src/uart1.c: 143:     U1P3L = 0x0;
  1400   0002D6  0E00               	movlw	0
  1401   0002D8  6FF0               	movwf	240,b	;volatile
  1402   0002DA                     
  1403                           ; BSR set to: 61
  1404                           ;mcc_generated_files/uart/src/uart1.c: 145:     U1P3H = 0x0;
  1405   0002DA  0E00               	movlw	0
  1406   0002DC  6FF1               	movwf	241,b	;volatile
  1407   0002DE                     
  1408                           ; BSR set to: 61
  1409                           ;mcc_generated_files/uart/src/uart1.c: 147:     U1CON0 = 0xB0;
  1410   0002DE  0EB0               	movlw	176
  1411   0002E0  6FF2               	movwf	242,b	;volatile
  1412   0002E2                     
  1413                           ; BSR set to: 61
  1414                           ;mcc_generated_files/uart/src/uart1.c: 149:     U1CON1 = 0x80;
  1415   0002E2  0E80               	movlw	128
  1416   0002E4  6FF3               	movwf	243,b	;volatile
  1417   0002E6                     
  1418                           ; BSR set to: 61
  1419                           ;mcc_generated_files/uart/src/uart1.c: 151:     U1CON2 = 0x8;
  1420   0002E6  0E08               	movlw	8
  1421   0002E8  6FF4               	movwf	244,b	;volatile
  1422   0002EA                     
  1423                           ; BSR set to: 61
  1424                           ;mcc_generated_files/uart/src/uart1.c: 153:     U1BRGL = 0x7;
  1425   0002EA  0E07               	movlw	7
  1426   0002EC  6FF5               	movwf	245,b	;volatile
  1427   0002EE                     
  1428                           ; BSR set to: 61
  1429                           ;mcc_generated_files/uart/src/uart1.c: 155:     U1BRGH = 0x0;
  1430   0002EE  0E00               	movlw	0
  1431   0002F0  6FF6               	movwf	246,b	;volatile
  1432   0002F2                     
  1433                           ; BSR set to: 61
  1434                           ;mcc_generated_files/uart/src/uart1.c: 157:     U1FIFO = 0x20;
  1435   0002F2  0E20               	movlw	32
  1436   0002F4  6FF7               	movwf	247,b	;volatile
  1437   0002F6                     
  1438                           ; BSR set to: 61
  1439                           ;mcc_generated_files/uart/src/uart1.c: 159:     U1UIR = 0x0;
  1440   0002F6  0E00               	movlw	0
  1441   0002F8  6FF8               	movwf	248,b	;volatile
  1442   0002FA                     
  1443                           ; BSR set to: 61
  1444                           ;mcc_generated_files/uart/src/uart1.c: 161:     U1ERRIR = 0x80;
  1445   0002FA  0E80               	movlw	128
  1446   0002FC  6FF9               	movwf	249,b	;volatile
  1447   0002FE                     
  1448                           ; BSR set to: 61
  1449                           ;mcc_generated_files/uart/src/uart1.c: 163:     U1ERRIE = 0x0;
  1450   0002FE  0E00               	movlw	0
  1451   000300  6FFA               	movwf	250,b	;volatile
  1452   000302                     
  1453                           ; BSR set to: 61
  1454                           ;mcc_generated_files/uart/src/uart1.c: 165:     UART1_FramingErrorCallbackRegister(UART1
      +                          _DefaultFramingErrorCallback);
  1455   000302  0E00               	movlw	0
  1456   000304  0101               	movlb	1	; () banked
  1457   000306  6F83               	movwf	UART1_FramingErrorCallbackRegister@callbackHandler& (0+255),b
  1458   000308  0E00               	movlw	0
  1459   00030A  6F84               	movwf	(UART1_FramingErrorCallbackRegister@callbackHandler+1)& (0+255),b
  1460   00030C  EC67  F004         	call	_UART1_FramingErrorCallbackRegister	;wreg free
  1461   000310                     
  1462                           ;mcc_generated_files/uart/src/uart1.c: 166:     UART1_OverrunErrorCallbackRegister(UART1
      +                          _DefaultOverrunErrorCallback);
  1463   000310  0E00               	movlw	0
  1464   000312  0101               	movlb	1	; () banked
  1465   000314  6F83               	movwf	UART1_OverrunErrorCallbackRegister@callbackHandler& (0+255),b
  1466   000316  0E00               	movlw	0
  1467   000318  6F84               	movwf	(UART1_OverrunErrorCallbackRegister@callbackHandler+1)& (0+255),b
  1468   00031A  EC58  F004         	call	_UART1_OverrunErrorCallbackRegister	;wreg free
  1469   00031E                     
  1470                           ;mcc_generated_files/uart/src/uart1.c: 167:     UART1_ParityErrorCallbackRegister(UART1_
      +                          DefaultParityErrorCallback);
  1471   00031E  0E00               	movlw	0
  1472   000320  0101               	movlb	1	; () banked
  1473   000322  6F83               	movwf	UART1_ParityErrorCallbackRegister@callbackHandler& (0+255),b
  1474   000324  0E00               	movlw	0
  1475   000326  6F84               	movwf	(UART1_ParityErrorCallbackRegister@callbackHandler+1)& (0+255),b
  1476   000328  EC49  F004         	call	_UART1_ParityErrorCallbackRegister	;wreg free
  1477   00032C                     
  1478                           ;mcc_generated_files/uart/src/uart1.c: 169:     uart1RxLastError.status = 0;
  1479   00032C  0E00               	movlw	0
  1480   00032E  6E1E               	movwf	(_uart1RxLastError+1)^0,c	;volatile
  1481   000330  0E00               	movlw	0
  1482   000332  6E1D               	movwf	_uart1RxLastError^0,c	;volatile
  1483   000334                     
  1484                           ;mcc_generated_files/uart/src/uart1.c: 170:     uart1TxHead = 0;
  1485   000334  0E00               	movlw	0
  1486   000336  6E2D               	movwf	_uart1TxHead^0,c	;volatile
  1487   000338                     
  1488                           ;mcc_generated_files/uart/src/uart1.c: 171:     uart1TxTail = 0;
  1489   000338  0E00               	movlw	0
  1490   00033A  6E2C               	movwf	_uart1TxTail^0,c	;volatile
  1491   00033C                     
  1492                           ;mcc_generated_files/uart/src/uart1.c: 172:     uart1TxBufferRemaining = sizeof (uart1Tx
      +                          Buffer);
  1493   00033C  0E10               	movlw	16
  1494   00033E  6E2B               	movwf	_uart1TxBufferRemaining^0,c	;volatile
  1495   000340                     
  1496                           ;mcc_generated_files/uart/src/uart1.c: 173:     uart1RxHead = 0;
  1497   000340  0E00               	movlw	0
  1498   000342  6E2A               	movwf	_uart1RxHead^0,c	;volatile
  1499   000344                     
  1500                           ;mcc_generated_files/uart/src/uart1.c: 174:     uart1RxTail = 0;
  1501   000344  0E00               	movlw	0
  1502   000346  6E29               	movwf	_uart1RxTail^0,c	;volatile
  1503   000348                     
  1504                           ;mcc_generated_files/uart/src/uart1.c: 175:     uart1RxCount = 0;
  1505   000348  0E00               	movlw	0
  1506   00034A  6E28               	movwf	_uart1RxCount^0,c	;volatile
  1507   00034C                     
  1508                           ;mcc_generated_files/uart/src/uart1.c: 176:     PIE3bits.U1RXIE = 1;
  1509   00034C  0139               	movlb	57	; () banked
  1510   00034E  8793               	bsf	147,3,b	;volatile
  1511   000350                     
  1512                           ; BSR set to: 57
  1513   000350  0012               	return		;funcret
  1514   000352                     __end_of_UART1_Initialize:
  1515                           	callstack 0
  1516                           
  1517 ;; *************** function _UART1_ParityErrorCallbackRegister *****************
  1518 ;; Defined at:
  1519 ;;		line 425 in file "mcc_generated_files/uart/src/uart1.c"
  1520 ;; Parameters:    Size  Location     Type
  1521 ;;  callbackHand    2    3[BANK1 ] PTR FTN()void 
  1522 ;;		 -> UART1_DefaultParityErrorCallback(1), 
  1523 ;; Auto vars:     Size  Location     Type
  1524 ;;		None
  1525 ;; Return value:  Size  Location     Type
  1526 ;;                  1    wreg      void 
  1527 ;; Registers used:
  1528 ;;		wreg, status,2, status,0
  1529 ;; Tracked objects:
  1530 ;;		On entry : 0/0
  1531 ;;		On exit  : 0/0
  1532 ;;		Unchanged: 0/0
  1533 ;; Data sizes:     COMRAM   BANK0   BANK1   BANK2   BANK3   BANK4   BANK5   BANK6   BANK7   BANK8   BANK9  BANK10  BANK1
      +1  BANK12  BANK13  BANK14  BANK15
  1534 ;;      Params:         0       0       2       0       0       0       0       0       0       0       0       0       
      +0       0       0       0       0
  1535 ;;      Locals:         0       0       0       0       0       0       0       0       0       0       0       0       
      +0       0       0       0       0
  1536 ;;      Temps:          0       0       0       0       0       0       0       0       0       0       0       0       
      +0       0       0       0       0
  1537 ;;      Totals:         0       0       2       0       0       0       0       0       0       0       0       0       
      +0       0       0       0       0
  1538 ;;Total ram usage:        2 bytes
  1539 ;; Hardware stack levels used: 1
  1540 ;; Hardware stack levels required when called: 6
  1541 ;; This function calls:
  1542 ;;		Nothing
  1543 ;; This function is called by:
  1544 ;;		_UART1_Initialize
  1545 ;; This function uses a non-reentrant model
  1546 ;;
  1547                           
  1548                           	psect	text4
  1549   000892                     __ptext4:
  1550                           	callstack 0
  1551   000892                     _UART1_ParityErrorCallbackRegister:
  1552                           	callstack 22
  1553   000892                     
  1554                           ;mcc_generated_files/uart/src/uart1.c: 426:     if (((void*)0) != callbackHandler) {
  1555   000892  0101               	movlb	1	; () banked
  1556   000894  5183               	movf	UART1_ParityErrorCallbackRegister@callbackHandler& (0+255),w,b
  1557   000896  1184               	iorwf	(UART1_ParityErrorCallbackRegister@callbackHandler+1)& (0+255),w,b
  1558   000898  B4D8               	btfsc	status,2,c
  1559   00089A  EF51  F004         	goto	u1611
  1560   00089E  EF53  F004         	goto	u1610
  1561   0008A2                     u1611:
  1562   0008A2  EF57  F004         	goto	l1020
  1563   0008A6                     u1610:
  1564   0008A6                     
  1565                           ; BSR set to: 1
  1566                           ;mcc_generated_files/uart/src/uart1.c: 427:         UART1_ParityErrorHandler = callbackH
      +                          andler;
  1567   0008A6  C183  F017         	movff	UART1_ParityErrorCallbackRegister@callbackHandler,_UART1_ParityErrorHandler
  1568   0008AA  C184  F018         	movff	UART1_ParityErrorCallbackRegister@callbackHandler+1,_UART1_ParityErrorHandler+1
  1569   0008AE                     l1020:
  1570                           
  1571                           ; BSR set to: 1
  1572   0008AE  0012               	return		;funcret
  1573   0008B0                     __end_of_UART1_ParityErrorCallbackRegister:
  1574                           	callstack 0
  1575                           
  1576 ;; *************** function _UART1_OverrunErrorCallbackRegister *****************
  1577 ;; Defined at:
  1578 ;;		line 419 in file "mcc_generated_files/uart/src/uart1.c"
  1579 ;; Parameters:    Size  Location     Type
  1580 ;;  callbackHand    2    3[BANK1 ] PTR FTN()void 
  1581 ;;		 -> UART1_DefaultOverrunErrorCallback(1), 
  1582 ;; Auto vars:     Size  Location     Type
  1583 ;;		None
  1584 ;; Return value:  Size  Location     Type
  1585 ;;                  1    wreg      void 
  1586 ;; Registers used:
  1587 ;;		wreg, status,2, status,0
  1588 ;; Tracked objects:
  1589 ;;		On entry : 0/0
  1590 ;;		On exit  : 0/0
  1591 ;;		Unchanged: 0/0
  1592 ;; Data sizes:     COMRAM   BANK0   BANK1   BANK2   BANK3   BANK4   BANK5   BANK6   BANK7   BANK8   BANK9  BANK10  BANK1
      +1  BANK12  BANK13  BANK14  BANK15
  1593 ;;      Params:         0       0       2       0       0       0       0       0       0       0       0       0       
      +0       0       0       0       0
  1594 ;;      Locals:         0       0       0       0       0       0       0       0       0       0       0       0       
      +0       0       0       0       0
  1595 ;;      Temps:          0       0       0       0       0       0       0       0       0       0       0       0       
      +0       0       0       0       0
  1596 ;;      Totals:         0       0       2       0       0       0       0       0       0       0       0       0       
      +0       0       0       0       0
  1597 ;;Total ram usage:        2 bytes
  1598 ;; Hardware stack levels used: 1
  1599 ;; Hardware stack levels required when called: 6
  1600 ;; This function calls:
  1601 ;;		Nothing
  1602 ;; This function is called by:
  1603 ;;		_UART1_Initialize
  1604 ;; This function uses a non-reentrant model
  1605 ;;
  1606                           
  1607                           	psect	text5
  1608   0008B0                     __ptext5:
  1609                           	callstack 0
  1610   0008B0                     _UART1_OverrunErrorCallbackRegister:
  1611                           	callstack 22
  1612   0008B0                     
  1613                           ;mcc_generated_files/uart/src/uart1.c: 420:     if (((void*)0) != callbackHandler) {
  1614   0008B0  0101               	movlb	1	; () banked
  1615   0008B2  5183               	movf	UART1_OverrunErrorCallbackRegister@callbackHandler& (0+255),w,b
  1616   0008B4  1184               	iorwf	(UART1_OverrunErrorCallbackRegister@callbackHandler+1)& (0+255),w,b
  1617   0008B6  B4D8               	btfsc	status,2,c
  1618   0008B8  EF60  F004         	goto	u1601
  1619   0008BC  EF62  F004         	goto	u1600
  1620   0008C0                     u1601:
  1621   0008C0  EF66  F004         	goto	l1016
  1622   0008C4                     u1600:
  1623   0008C4                     
  1624                           ; BSR set to: 1
  1625                           ;mcc_generated_files/uart/src/uart1.c: 421:         UART1_OverrunErrorHandler = callback
      +                          Handler;
  1626   0008C4  C183  F019         	movff	UART1_OverrunErrorCallbackRegister@callbackHandler,_UART1_OverrunErrorHandler
  1627   0008C8  C184  F01A         	movff	UART1_OverrunErrorCallbackRegister@callbackHandler+1,_UART1_OverrunErrorHandler+1
  1628   0008CC                     l1016:
  1629                           
  1630                           ; BSR set to: 1
  1631   0008CC  0012               	return		;funcret
  1632   0008CE                     __end_of_UART1_OverrunErrorCallbackRegister:
  1633                           	callstack 0
  1634                           
  1635 ;; *************** function _UART1_FramingErrorCallbackRegister *****************
  1636 ;; Defined at:
  1637 ;;		line 413 in file "mcc_generated_files/uart/src/uart1.c"
  1638 ;; Parameters:    Size  Location     Type
  1639 ;;  callbackHand    2    3[BANK1 ] PTR FTN()void 
  1640 ;;		 -> UART1_DefaultFramingErrorCallback(1), 
  1641 ;; Auto vars:     Size  Location     Type
  1642 ;;		None
  1643 ;; Return value:  Size  Location     Type
  1644 ;;                  1    wreg      void 
  1645 ;; Registers used:
  1646 ;;		wreg, status,2, status,0
  1647 ;; Tracked objects:
  1648 ;;		On entry : 0/0
  1649 ;;		On exit  : 0/0
  1650 ;;		Unchanged: 0/0
  1651 ;; Data sizes:     COMRAM   BANK0   BANK1   BANK2   BANK3   BANK4   BANK5   BANK6   BANK7   BANK8   BANK9  BANK10  BANK1
      +1  BANK12  BANK13  BANK14  BANK15
  1652 ;;      Params:         0       0       2       0       0       0       0       0       0       0       0       0       
      +0       0       0       0       0
  1653 ;;      Locals:         0       0       0       0       0       0       0       0       0       0       0       0       
      +0       0       0       0       0
  1654 ;;      Temps:          0       0       0       0       0       0       0       0       0       0       0       0       
      +0       0       0       0       0
  1655 ;;      Totals:         0       0       2       0       0       0       0       0       0       0       0       0       
      +0       0       0       0       0
  1656 ;;Total ram usage:        2 bytes
  1657 ;; Hardware stack levels used: 1
  1658 ;; Hardware stack levels required when called: 6
  1659 ;; This function calls:
  1660 ;;		Nothing
  1661 ;; This function is called by:
  1662 ;;		_UART1_Initialize
  1663 ;; This function uses a non-reentrant model
  1664 ;;
  1665                           
  1666                           	psect	text6
  1667   0008CE                     __ptext6:
  1668                           	callstack 0
  1669   0008CE                     _UART1_FramingErrorCallbackRegister:
  1670                           	callstack 22
  1671   0008CE                     
  1672                           ;mcc_generated_files/uart/src/uart1.c: 414:     if (((void*)0) != callbackHandler) {
  1673   0008CE  0101               	movlb	1	; () banked
  1674   0008D0  5183               	movf	UART1_FramingErrorCallbackRegister@callbackHandler& (0+255),w,b
  1675   0008D2  1184               	iorwf	(UART1_FramingErrorCallbackRegister@callbackHandler+1)& (0+255),w,b
  1676   0008D4  B4D8               	btfsc	status,2,c
  1677   0008D6  EF6F  F004         	goto	u1591
  1678   0008DA  EF71  F004         	goto	u1590
  1679   0008DE                     u1591:
  1680   0008DE  EF75  F004         	goto	l1012
  1681   0008E2                     u1590:
  1682   0008E2                     
  1683                           ; BSR set to: 1
  1684                           ;mcc_generated_files/uart/src/uart1.c: 415:         UART1_FramingErrorHandler = callback
      +                          Handler;
  1685   0008E2  C183  F01B         	movff	UART1_FramingErrorCallbackRegister@callbackHandler,_UART1_FramingErrorHandler
  1686   0008E6  C184  F01C         	movff	UART1_FramingErrorCallbackRegister@callbackHandler+1,_UART1_FramingErrorHandler+1
  1687   0008EA                     l1012:
  1688                           
  1689                           ; BSR set to: 1
  1690   0008EA  0012               	return		;funcret
  1691   0008EC                     __end_of_UART1_FramingErrorCallbackRegister:
  1692                           	callstack 0
  1693                           
  1694 ;; *************** function _Timer_Initialize *****************
  1695 ;; Defined at:
  1696 ;;		line 51 in file "mcc_generated_files/timer/src/tmr0.c"
  1697 ;; Parameters:    Size  Location     Type
  1698 ;;		None
  1699 ;; Auto vars:     Size  Location     Type
  1700 ;;		None
  1701 ;; Return value:  Size  Location     Type
  1702 ;;                  1    wreg      void 
  1703 ;; Registers used:
  1704 ;;		wreg, status,2, status,0, cstack
  1705 ;; Tracked objects:
  1706 ;;		On entry : 0/0
  1707 ;;		On exit  : 0/0
  1708 ;;		Unchanged: 0/0
  1709 ;; Data sizes:     COMRAM   BANK0   BANK1   BANK2   BANK3   BANK4   BANK5   BANK6   BANK7   BANK8   BANK9  BANK10  BANK1
      +1  BANK12  BANK13  BANK14  BANK15
  1710 ;;      Params:         0       0       0       0       0       0       0       0       0       0       0       0       
      +0       0       0       0       0
  1711 ;;      Locals:         0       0       0       0       0       0       0       0       0       0       0       0       
      +0       0       0       0       0
  1712 ;;      Temps:          0       0       2       0       0       0       0       0       0       0       0       0       
      +0       0       0       0       0
  1713 ;;      Totals:         0       0       2       0       0       0       0       0       0       0       0       0       
      +0       0       0       0       0
  1714 ;;Total ram usage:        2 bytes
  1715 ;; Hardware stack levels used: 1
  1716 ;; Hardware stack levels required when called: 7
  1717 ;; This function calls:
  1718 ;;		_Timer_OverflowCallbackRegister
  1719 ;; This function is called by:
  1720 ;;		_SYSTEM_Initialize
  1721 ;; This function uses a non-reentrant model
  1722 ;;
  1723                           
  1724                           	psect	text7
  1725   00069E                     __ptext7:
  1726                           	callstack 0
  1727   00069E                     _Timer_Initialize:
  1728                           	callstack 22
  1729   00069E                     
  1730                           ;mcc_generated_files/timer/src/tmr0.c: 54:     TMR0H = 0xE7;
  1731   00069E  0EE7               	movlw	231
  1732   0006A0  6EB7               	movwf	183,c	;volatile
  1733                           
  1734                           ;mcc_generated_files/timer/src/tmr0.c: 57:     TMR0L = 0x5F;
  1735   0006A2  0E5F               	movlw	95
  1736   0006A4  6EB6               	movwf	182,c	;volatile
  1737                           
  1738                           ;mcc_generated_files/timer/src/tmr0.c: 60:     T0CON1 = 0x70;
  1739   0006A6  0E70               	movlw	112
  1740   0006A8  6EB9               	movwf	185,c	;volatile
  1741                           
  1742                           ;mcc_generated_files/timer/src/tmr0.c: 63:     timerTMR0ReloadVal16bit = ((uint16_t)TMR0
      +                          H << 8) | TMR0L;
  1743   0006AA  50B7               	movf	183,w,c	;volatile
  1744   0006AC  0101               	movlb	1	; () banked
  1745   0006AE  6F85               	movwf	??_Timer_Initialize& (0+255),b
  1746   0006B0  50B6               	movf	182,w,c	;volatile
  1747   0006B2  6E51               	movwf	_timerTMR0ReloadVal16bit^0,c	;volatile
  1748   0006B4  C185  F052         	movff	??_Timer_Initialize,_timerTMR0ReloadVal16bit+1	;volatile
  1749   0006B8                     
  1750                           ; BSR set to: 1
  1751                           ;mcc_generated_files/timer/src/tmr0.c: 66:     Timer_OverflowCallbackRegister(Timer_Defa
      +                          ultOverflowCallback);
  1752   0006B8  0EE8               	movlw	low _Timer_DefaultOverflowCallback
  1753   0006BA  6F83               	movwf	Timer_OverflowCallbackRegister@CallbackHandler& (0+255),b
  1754   0006BC  0E09               	movlw	high _Timer_DefaultOverflowCallback
  1755   0006BE  6F84               	movwf	(Timer_OverflowCallbackRegister@CallbackHandler+1)& (0+255),b
  1756   0006C0  ECBA  F004         	call	_Timer_OverflowCallbackRegister	;wreg free
  1757   0006C4                     
  1758                           ;mcc_generated_files/timer/src/tmr0.c: 69:     PIR3bits.TMR0IF = 0;
  1759   0006C4  0139               	movlb	57	; () banked
  1760   0006C6  9FA3               	bcf	163,7,b	;volatile
  1761   0006C8                     
  1762                           ; BSR set to: 57
  1763                           ;mcc_generated_files/timer/src/tmr0.c: 72:     PIE3bits.TMR0IE = 1;
  1764   0006C8  8F93               	bsf	147,7,b	;volatile
  1765   0006CA                     
  1766                           ; BSR set to: 57
  1767                           ;mcc_generated_files/timer/src/tmr0.c: 75:     T0CON0 = 0x90;
  1768   0006CA  0E90               	movlw	144
  1769   0006CC  6EB8               	movwf	184,c	;volatile
  1770   0006CE                     
  1771                           ; BSR set to: 57
  1772   0006CE  0012               	return		;funcret
  1773   0006D0                     __end_of_Timer_Initialize:
  1774                           	callstack 0
  1775                           
  1776 ;; *************** function _Timer_OverflowCallbackRegister *****************
  1777 ;; Defined at:
  1778 ;;		line 134 in file "mcc_generated_files/timer/src/tmr0.c"
  1779 ;; Parameters:    Size  Location     Type
  1780 ;;  CallbackHand    2    3[BANK1 ] PTR FTN()void 
  1781 ;;		 -> Timer_int(1), Timer2_DefaultOverflowCallback(1), Timer_DefaultOverflowCallback(1), 
  1782 ;; Auto vars:     Size  Location     Type
  1783 ;;		None
  1784 ;; Return value:  Size  Location     Type
  1785 ;;                  1    wreg      void 
  1786 ;; Registers used:
  1787 ;;		wreg, status,2, status,0
  1788 ;; Tracked objects:
  1789 ;;		On entry : 0/0
  1790 ;;		On exit  : 0/0
  1791 ;;		Unchanged: 0/0
  1792 ;; Data sizes:     COMRAM   BANK0   BANK1   BANK2   BANK3   BANK4   BANK5   BANK6   BANK7   BANK8   BANK9  BANK10  BANK1
      +1  BANK12  BANK13  BANK14  BANK15
  1793 ;;      Params:         0       0       2       0       0       0       0       0       0       0       0       0       
      +0       0       0       0       0
  1794 ;;      Locals:         0       0       0       0       0       0       0       0       0       0       0       0       
      +0       0       0       0       0
  1795 ;;      Temps:          0       0       0       0       0       0       0       0       0       0       0       0       
      +0       0       0       0       0
  1796 ;;      Totals:         0       0       2       0       0       0       0       0       0       0       0       0       
      +0       0       0       0       0
  1797 ;;Total ram usage:        2 bytes
  1798 ;; Hardware stack levels used: 1
  1799 ;; Hardware stack levels required when called: 6
  1800 ;; This function calls:
  1801 ;;		Nothing
  1802 ;; This function is called by:
  1803 ;;		_Timer_Initialize
  1804 ;;		_main
  1805 ;; This function uses a non-reentrant model
  1806 ;;
  1807                           
  1808                           	psect	text8
  1809   000974                     __ptext8:
  1810                           	callstack 0
  1811   000974                     _Timer_OverflowCallbackRegister:
  1812                           	callstack 24
  1813   000974                     
  1814                           ;mcc_generated_files/timer/src/tmr0.c: 134: void Timer_OverflowCallbackRegister(void (* 
      +                          CallbackHandler)(void));mcc_generated_files/timer/src/tmr0.c: 135: {;mcc_generated_files
      +                          /timer/src/tmr0.c: 136:     Timer_OverflowCallback = CallbackHandler;
  1815   000974  C183  F0EE         	movff	Timer_OverflowCallbackRegister@CallbackHandler,_Timer_OverflowCallback
  1816   000978  C184  F0EF         	movff	Timer_OverflowCallbackRegister@CallbackHandler+1,_Timer_OverflowCallback+1
  1817   00097C  0012               	return		;funcret
  1818   00097E                     __end_of_Timer_OverflowCallbackRegister:
  1819                           	callstack 0
  1820                           
  1821 ;; *************** function _Timer2_Initialize *****************
  1822 ;; Defined at:
  1823 ;;		line 58 in file "mcc_generated_files/timer/src/tmr2.c"
  1824 ;; Parameters:    Size  Location     Type
  1825 ;;		None
  1826 ;; Auto vars:     Size  Location     Type
  1827 ;;		None
  1828 ;; Return value:  Size  Location     Type
  1829 ;;                  1    wreg      void 
  1830 ;; Registers used:
  1831 ;;		wreg, status,2, status,0, cstack
  1832 ;; Tracked objects:
  1833 ;;		On entry : 0/0
  1834 ;;		On exit  : 0/0
  1835 ;;		Unchanged: 0/0
  1836 ;; Data sizes:     COMRAM   BANK0   BANK1   BANK2   BANK3   BANK4   BANK5   BANK6   BANK7   BANK8   BANK9  BANK10  BANK1
      +1  BANK12  BANK13  BANK14  BANK15
  1837 ;;      Params:         0       0       0       0       0       0       0       0       0       0       0       0       
      +0       0       0       0       0
  1838 ;;      Locals:         0       0       0       0       0       0       0       0       0       0       0       0       
      +0       0       0       0       0
  1839 ;;      Temps:          0       0       0       0       0       0       0       0       0       0       0       0       
      +0       0       0       0       0
  1840 ;;      Totals:         0       0       0       0       0       0       0       0       0       0       0       0       
      +0       0       0       0       0
  1841 ;;Total ram usage:        0 bytes
  1842 ;; Hardware stack levels used: 1
  1843 ;; Hardware stack levels required when called: 7
  1844 ;; This function calls:
  1845 ;;		_Timer2_OverflowCallbackRegister
  1846 ;; This function is called by:
  1847 ;;		_SYSTEM_Initialize
  1848 ;; This function uses a non-reentrant model
  1849 ;;
  1850                           
  1851                           	psect	text9
  1852   0006D0                     __ptext9:
  1853                           	callstack 0
  1854   0006D0                     _Timer2_Initialize:
  1855                           	callstack 22
  1856   0006D0                     
  1857                           ;mcc_generated_files/timer/src/tmr2.c: 62:     T2CLKCON = 0x1;
  1858   0006D0  0E01               	movlw	1
  1859   0006D2  6EAE               	movwf	174,c	;volatile
  1860                           
  1861                           ;mcc_generated_files/timer/src/tmr2.c: 64:     T2HLT = 0x20;
  1862   0006D4  0E20               	movlw	32
  1863   0006D6  6EAD               	movwf	173,c	;volatile
  1864                           
  1865                           ;mcc_generated_files/timer/src/tmr2.c: 66:     T2RST = 0x0;
  1866   0006D8  0E00               	movlw	0
  1867   0006DA  6EAF               	movwf	175,c	;volatile
  1868                           
  1869                           ;mcc_generated_files/timer/src/tmr2.c: 68:     T2PR = 0x1F;
  1870   0006DC  0E1F               	movlw	31
  1871   0006DE  6EAB               	movwf	171,c	;volatile
  1872                           
  1873                           ;mcc_generated_files/timer/src/tmr2.c: 70:     T2TMR = 0x0;
  1874   0006E0  0E00               	movlw	0
  1875   0006E2  6EAA               	movwf	170,c	;volatile
  1876   0006E4                     
  1877                           ;mcc_generated_files/timer/src/tmr2.c: 73:     Timer2_OverflowCallbackRegister(Timer2_De
      +                          faultOverflowCallback);
  1878   0006E4  0EE6               	movlw	low _Timer2_DefaultOverflowCallback
  1879   0006E6  0101               	movlb	1	; () banked
  1880   0006E8  6F83               	movwf	Timer2_OverflowCallbackRegister@InterruptHandler& (0+255),b
  1881   0006EA  0E09               	movlw	high _Timer2_DefaultOverflowCallback
  1882   0006EC  6F84               	movwf	(Timer2_OverflowCallbackRegister@InterruptHandler+1)& (0+255),b
  1883   0006EE  ECBF  F004         	call	_Timer2_OverflowCallbackRegister	;wreg free
  1884   0006F2                     
  1885                           ;mcc_generated_files/timer/src/tmr2.c: 76:     PIR4bits.TMR2IF = 0;
  1886   0006F2  0139               	movlb	57	; () banked
  1887   0006F4  95A4               	bcf	164,2,b	;volatile
  1888   0006F6                     
  1889                           ; BSR set to: 57
  1890                           ;mcc_generated_files/timer/src/tmr2.c: 78:     PIE4bits.TMR2IE = 1;
  1891   0006F6  8594               	bsf	148,2,b	;volatile
  1892   0006F8                     
  1893                           ; BSR set to: 57
  1894                           ;mcc_generated_files/timer/src/tmr2.c: 80:     T2CON = 0x30;
  1895   0006F8  0E30               	movlw	48
  1896   0006FA  6EAC               	movwf	172,c	;volatile
  1897   0006FC                     
  1898                           ; BSR set to: 57
  1899   0006FC  0012               	return		;funcret
  1900   0006FE                     __end_of_Timer2_Initialize:
  1901                           	callstack 0
  1902                           
  1903 ;; *************** function _Timer2_OverflowCallbackRegister *****************
  1904 ;; Defined at:
  1905 ;;		line 129 in file "mcc_generated_files/timer/src/tmr2.c"
  1906 ;; Parameters:    Size  Location     Type
  1907 ;;  InterruptHan    2    3[BANK1 ] PTR FTN()void 
  1908 ;;		 -> Timer_int(1), Timer2_DefaultOverflowCallback(1), Timer_DefaultOverflowCallback(1), 
  1909 ;; Auto vars:     Size  Location     Type
  1910 ;;		None
  1911 ;; Return value:  Size  Location     Type
  1912 ;;                  1    wreg      void 
  1913 ;; Registers used:
  1914 ;;		wreg, status,2, status,0
  1915 ;; Tracked objects:
  1916 ;;		On entry : 0/0
  1917 ;;		On exit  : 0/0
  1918 ;;		Unchanged: 0/0
  1919 ;; Data sizes:     COMRAM   BANK0   BANK1   BANK2   BANK3   BANK4   BANK5   BANK6   BANK7   BANK8   BANK9  BANK10  BANK1
      +1  BANK12  BANK13  BANK14  BANK15
  1920 ;;      Params:         0       0       2       0       0       0       0       0       0       0       0       0       
      +0       0       0       0       0
  1921 ;;      Locals:         0       0       0       0       0       0       0       0       0       0       0       0       
      +0       0       0       0       0
  1922 ;;      Temps:          0       0       0       0       0       0       0       0       0       0       0       0       
      +0       0       0       0       0
  1923 ;;      Totals:         0       0       2       0       0       0       0       0       0       0       0       0       
      +0       0       0       0       0
  1924 ;;Total ram usage:        2 bytes
  1925 ;; Hardware stack levels used: 1
  1926 ;; Hardware stack levels required when called: 6
  1927 ;; This function calls:
  1928 ;;		Nothing
  1929 ;; This function is called by:
  1930 ;;		_Timer2_Initialize
  1931 ;; This function uses a non-reentrant model
  1932 ;;
  1933                           
  1934                           	psect	text10
  1935   00097E                     __ptext10:
  1936                           	callstack 0
  1937   00097E                     _Timer2_OverflowCallbackRegister:
  1938                           	callstack 22
  1939   00097E                     
  1940                           ;mcc_generated_files/timer/src/tmr2.c: 130:     Timer2_OverflowCallback = InterruptHandl
      +                          er;
  1941   00097E  C183  F0EC         	movff	Timer2_OverflowCallbackRegister@InterruptHandler,_Timer2_OverflowCallback
  1942   000982  C184  F0ED         	movff	Timer2_OverflowCallbackRegister@InterruptHandler+1,_Timer2_OverflowCallback+1
  1943   000986  0012               	return		;funcret
  1944   000988                     __end_of_Timer2_OverflowCallbackRegister:
  1945                           	callstack 0
  1946                           
  1947 ;; *************** function _SPI1_Initialize *****************
  1948 ;; Defined at:
  1949 ;;		line 70 in file "mcc_generated_files/spi/src/spi1.c"
  1950 ;; Parameters:    Size  Location     Type
  1951 ;;		None
  1952 ;; Auto vars:     Size  Location     Type
  1953 ;;		None
  1954 ;; Return value:  Size  Location     Type
  1955 ;;                  1    wreg      void 
  1956 ;; Registers used:
  1957 ;;		wreg, status,2
  1958 ;; Tracked objects:
  1959 ;;		On entry : 0/0
  1960 ;;		On exit  : 0/0
  1961 ;;		Unchanged: 0/0
  1962 ;; Data sizes:     COMRAM   BANK0   BANK1   BANK2   BANK3   BANK4   BANK5   BANK6   BANK7   BANK8   BANK9  BANK10  BANK1
      +1  BANK12  BANK13  BANK14  BANK15
  1963 ;;      Params:         0       0       0       0       0       0       0       0       0       0       0       0       
      +0       0       0       0       0
  1964 ;;      Locals:         0       0       0       0       0       0       0       0       0       0       0       0       
      +0       0       0       0       0
  1965 ;;      Temps:          0       0       0       0       0       0       0       0       0       0       0       0       
      +0       0       0       0       0
  1966 ;;      Totals:         0       0       0       0       0       0       0       0       0       0       0       0       
      +0       0       0       0       0
  1967 ;;Total ram usage:        0 bytes
  1968 ;; Hardware stack levels used: 1
  1969 ;; Hardware stack levels required when called: 6
  1970 ;; This function calls:
  1971 ;;		Nothing
  1972 ;; This function is called by:
  1973 ;;		_SYSTEM_Initialize
  1974 ;; This function uses a non-reentrant model
  1975 ;;
  1976                           
  1977                           	psect	text11
  1978   0008EC                     __ptext11:
  1979                           	callstack 0
  1980   0008EC                     _SPI1_Initialize:
  1981                           	callstack 23
  1982   0008EC                     
  1983                           ;mcc_generated_files/spi/src/spi1.c: 73:     SPI1CON1 = 0x40;
  1984   0008EC  0E40               	movlw	64
  1985   0008EE  013D               	movlb	61	; () banked
  1986   0008F0  6F15               	movwf	21,b	;volatile
  1987                           
  1988                           ;mcc_generated_files/spi/src/spi1.c: 75:     SPI1CON2 = 0x0;
  1989   0008F2  0E00               	movlw	0
  1990   0008F4  6F16               	movwf	22,b	;volatile
  1991                           
  1992                           ;mcc_generated_files/spi/src/spi1.c: 77:     SPI1CLK = 0x0;
  1993   0008F6  0E00               	movlw	0
  1994   0008F8  6F1C               	movwf	28,b	;volatile
  1995                           
  1996                           ;mcc_generated_files/spi/src/spi1.c: 79:     SPI1BAUD = 0x18;
  1997   0008FA  0E18               	movlw	24
  1998   0008FC  6F19               	movwf	25,b	;volatile
  1999   0008FE                     
  2000                           ; BSR set to: 61
  2001                           ;mcc_generated_files/spi/src/spi1.c: 80:     TRISCbits.TRISC3 = 0;
  2002   0008FE  96C4               	bcf	196,3,c	;volatile
  2003                           
  2004                           ;mcc_generated_files/spi/src/spi1.c: 82:     SPI1CON0 = 0x2;
  2005   000900  0E02               	movlw	2
  2006   000902  6F14               	movwf	20,b	;volatile
  2007   000904                     
  2008                           ; BSR set to: 61
  2009   000904  0012               	return		;funcret
  2010   000906                     __end_of_SPI1_Initialize:
  2011                           	callstack 0
  2012                           
  2013 ;; *************** function _PIN_MANAGER_Initialize *****************
  2014 ;; Defined at:
  2015 ;;		line 38 in file "mcc_generated_files/system/src/pins.c"
  2016 ;; Parameters:    Size  Location     Type
  2017 ;;		None
  2018 ;; Auto vars:     Size  Location     Type
  2019 ;;		None
  2020 ;; Return value:  Size  Location     Type
  2021 ;;                  1    wreg      void 
  2022 ;; Registers used:
  2023 ;;		wreg, status,2
  2024 ;; Tracked objects:
  2025 ;;		On entry : 0/0
  2026 ;;		On exit  : 0/0
  2027 ;;		Unchanged: 0/0
  2028 ;; Data sizes:     COMRAM   BANK0   BANK1   BANK2   BANK3   BANK4   BANK5   BANK6   BANK7   BANK8   BANK9  BANK10  BANK1
      +1  BANK12  BANK13  BANK14  BANK15
  2029 ;;      Params:         0       0       0       0       0       0       0       0       0       0       0       0       
      +0       0       0       0       0
  2030 ;;      Locals:         0       0       0       0       0       0       0       0       0       0       0       0       
      +0       0       0       0       0
  2031 ;;      Temps:          0       0       0       0       0       0       0       0       0       0       0       0       
      +0       0       0       0       0
  2032 ;;      Totals:         0       0       0       0       0       0       0       0       0       0       0       0       
      +0       0       0       0       0
  2033 ;;Total ram usage:        0 bytes
  2034 ;; Hardware stack levels used: 1
  2035 ;; Hardware stack levels required when called: 6
  2036 ;; This function calls:
  2037 ;;		Nothing
  2038 ;; This function is called by:
  2039 ;;		_SYSTEM_Initialize
  2040 ;; This function uses a non-reentrant model
  2041 ;;
  2042                           
  2043                           	psect	text12
  2044   0001B8                     __ptext12:
  2045                           	callstack 0
  2046   0001B8                     _PIN_MANAGER_Initialize:
  2047                           	callstack 23
  2048   0001B8                     
  2049                           ;mcc_generated_files/system/src/pins.c: 43:     LATA = 0x0;
  2050   0001B8  0E00               	movlw	0
  2051   0001BA  6EBA               	movwf	186,c	;volatile
  2052                           
  2053                           ;mcc_generated_files/system/src/pins.c: 44:     LATB = 0x0;
  2054   0001BC  0E00               	movlw	0
  2055   0001BE  6EBB               	movwf	187,c	;volatile
  2056                           
  2057                           ;mcc_generated_files/system/src/pins.c: 45:     LATC = 0x0;
  2058   0001C0  0E00               	movlw	0
  2059   0001C2  6EBC               	movwf	188,c	;volatile
  2060                           
  2061                           ;mcc_generated_files/system/src/pins.c: 46:     LATD = 0x0;
  2062   0001C4  0E00               	movlw	0
  2063   0001C6  6EBD               	movwf	189,c	;volatile
  2064                           
  2065                           ;mcc_generated_files/system/src/pins.c: 47:     LATE = 0x0;
  2066   0001C8  0E00               	movlw	0
  2067   0001CA  6EBE               	movwf	190,c	;volatile
  2068                           
  2069                           ;mcc_generated_files/system/src/pins.c: 52:     TRISA = 0x3;
  2070   0001CC  0E03               	movlw	3
  2071   0001CE  6EC2               	movwf	194,c	;volatile
  2072                           
  2073                           ;mcc_generated_files/system/src/pins.c: 53:     TRISB = 0x6;
  2074   0001D0  0E06               	movlw	6
  2075   0001D2  6EC3               	movwf	195,c	;volatile
  2076                           
  2077                           ;mcc_generated_files/system/src/pins.c: 54:     TRISC = 0x98;
  2078   0001D4  0E98               	movlw	152
  2079   0001D6  6EC4               	movwf	196,c	;volatile
  2080                           
  2081                           ;mcc_generated_files/system/src/pins.c: 55:     TRISD = 0x0;
  2082   0001D8  0E00               	movlw	0
  2083   0001DA  6EC5               	movwf	197,c	;volatile
  2084                           
  2085                           ;mcc_generated_files/system/src/pins.c: 56:     TRISE = 0x0;
  2086   0001DC  0E00               	movlw	0
  2087   0001DE  6EC6               	movwf	198,c	;volatile
  2088                           
  2089                           ;mcc_generated_files/system/src/pins.c: 61:     ANSELA = 0x3;
  2090   0001E0  0E03               	movlw	3
  2091   0001E2  013A               	movlb	58	; () banked
  2092   0001E4  6F40               	movwf	64,b	;volatile
  2093                           
  2094                           ;mcc_generated_files/system/src/pins.c: 62:     ANSELB = 0x6;
  2095   0001E6  0E06               	movlw	6
  2096   0001E8  6F50               	movwf	80,b	;volatile
  2097                           
  2098                           ;mcc_generated_files/system/src/pins.c: 63:     ANSELC = 0x0;
  2099   0001EA  0E00               	movlw	0
  2100   0001EC  6F60               	movwf	96,b	;volatile
  2101                           
  2102                           ;mcc_generated_files/system/src/pins.c: 64:     ANSELD = 0x0;
  2103   0001EE  0E00               	movlw	0
  2104   0001F0  6F70               	movwf	112,b	;volatile
  2105                           
  2106                           ;mcc_generated_files/system/src/pins.c: 65:     ANSELE = 0x0;
  2107   0001F2  0E00               	movlw	0
  2108   0001F4  6F80               	movwf	128,b	;volatile
  2109                           
  2110                           ;mcc_generated_files/system/src/pins.c: 70:     WPUA = 0x0;
  2111   0001F6  0E00               	movlw	0
  2112   0001F8  6F41               	movwf	65,b	;volatile
  2113                           
  2114                           ;mcc_generated_files/system/src/pins.c: 71:     WPUB = 0x0;
  2115   0001FA  0E00               	movlw	0
  2116   0001FC  6F51               	movwf	81,b	;volatile
  2117                           
  2118                           ;mcc_generated_files/system/src/pins.c: 72:     WPUC = 0x0;
  2119   0001FE  0E00               	movlw	0
  2120   000200  6F61               	movwf	97,b	;volatile
  2121                           
  2122                           ;mcc_generated_files/system/src/pins.c: 73:     WPUD = 0x0;
  2123   000202  0E00               	movlw	0
  2124   000204  6F71               	movwf	113,b	;volatile
  2125                           
  2126                           ;mcc_generated_files/system/src/pins.c: 74:     WPUE = 0x0;
  2127   000206  0E00               	movlw	0
  2128   000208  6F81               	movwf	129,b	;volatile
  2129                           
  2130                           ;mcc_generated_files/system/src/pins.c: 79:     RB1I2C = 0x0;
  2131   00020A  0E00               	movlw	0
  2132   00020C  6F5A               	movwf	90,b	;volatile
  2133                           
  2134                           ;mcc_generated_files/system/src/pins.c: 80:     RB2I2C = 0x0;
  2135   00020E  0E00               	movlw	0
  2136   000210  6F5B               	movwf	91,b	;volatile
  2137                           
  2138                           ;mcc_generated_files/system/src/pins.c: 81:     RC3I2C = 0x0;
  2139   000212  0E00               	movlw	0
  2140   000214  6F6A               	movwf	106,b	;volatile
  2141                           
  2142                           ;mcc_generated_files/system/src/pins.c: 82:     RC4I2C = 0x0;
  2143   000216  0E00               	movlw	0
  2144   000218  6F6B               	movwf	107,b	;volatile
  2145                           
  2146                           ;mcc_generated_files/system/src/pins.c: 83:     RD0I2C = 0x0;
  2147   00021A  0E00               	movlw	0
  2148   00021C  6F7A               	movwf	122,b	;volatile
  2149                           
  2150                           ;mcc_generated_files/system/src/pins.c: 84:     RD1I2C = 0x0;
  2151   00021E  0E00               	movlw	0
  2152   000220  6F7B               	movwf	123,b	;volatile
  2153                           
  2154                           ;mcc_generated_files/system/src/pins.c: 89:     ODCONA = 0x0;
  2155   000222  0E00               	movlw	0
  2156   000224  6F42               	movwf	66,b	;volatile
  2157                           
  2158                           ;mcc_generated_files/system/src/pins.c: 90:     ODCONB = 0x0;
  2159   000226  0E00               	movlw	0
  2160   000228  6F52               	movwf	82,b	;volatile
  2161                           
  2162                           ;mcc_generated_files/system/src/pins.c: 91:     ODCONC = 0x0;
  2163   00022A  0E00               	movlw	0
  2164   00022C  6F62               	movwf	98,b	;volatile
  2165                           
  2166                           ;mcc_generated_files/system/src/pins.c: 92:     ODCOND = 0x0;
  2167   00022E  0E00               	movlw	0
  2168   000230  6F72               	movwf	114,b	;volatile
  2169                           
  2170                           ;mcc_generated_files/system/src/pins.c: 93:     ODCONE = 0x0;
  2171   000232  0E00               	movlw	0
  2172   000234  6F82               	movwf	130,b	;volatile
  2173   000236                     
  2174                           ; BSR set to: 58
  2175                           ;mcc_generated_files/system/src/pins.c: 98:     SLRCONA = 0xFF;
  2176   000236  6943               	setf	67,b	;volatile
  2177   000238                     
  2178                           ; BSR set to: 58
  2179                           ;mcc_generated_files/system/src/pins.c: 99:     SLRCONB = 0xFF;
  2180   000238  6953               	setf	83,b	;volatile
  2181   00023A                     
  2182                           ; BSR set to: 58
  2183                           ;mcc_generated_files/system/src/pins.c: 100:     SLRCONC = 0xFF;
  2184   00023A  6963               	setf	99,b	;volatile
  2185   00023C                     
  2186                           ; BSR set to: 58
  2187                           ;mcc_generated_files/system/src/pins.c: 101:     SLRCOND = 0xFF;
  2188   00023C  6973               	setf	115,b	;volatile
  2189                           
  2190                           ;mcc_generated_files/system/src/pins.c: 102:     SLRCONE = 0x7;
  2191   00023E  0E07               	movlw	7
  2192   000240  6F83               	movwf	131,b	;volatile
  2193   000242                     
  2194                           ; BSR set to: 58
  2195                           ;mcc_generated_files/system/src/pins.c: 107:     INLVLA = 0xFF;
  2196   000242  6944               	setf	68,b	;volatile
  2197   000244                     
  2198                           ; BSR set to: 58
  2199                           ;mcc_generated_files/system/src/pins.c: 108:     INLVLB = 0xFF;
  2200   000244  6954               	setf	84,b	;volatile
  2201   000246                     
  2202                           ; BSR set to: 58
  2203                           ;mcc_generated_files/system/src/pins.c: 109:     INLVLC = 0xFF;
  2204   000246  6964               	setf	100,b	;volatile
  2205   000248                     
  2206                           ; BSR set to: 58
  2207                           ;mcc_generated_files/system/src/pins.c: 110:     INLVLD = 0xFF;
  2208   000248  6974               	setf	116,b	;volatile
  2209                           
  2210                           ;mcc_generated_files/system/src/pins.c: 111:     INLVLE = 0xF;
  2211   00024A  0E0F               	movlw	15
  2212   00024C  6F84               	movwf	132,b	;volatile
  2213                           
  2214                           ;mcc_generated_files/system/src/pins.c: 115:     U1RXPPS = 0x17;
  2215   00024E  0E17               	movlw	23
  2216   000250  6FE5               	movwf	229,b	;volatile
  2217                           
  2218                           ;mcc_generated_files/system/src/pins.c: 116:     SPI1SDIPPS = 0x14;
  2219   000252  0E14               	movlw	20
  2220   000254  6FDF               	movwf	223,b	;volatile
  2221                           
  2222                           ;mcc_generated_files/system/src/pins.c: 117:     RC6PPS = 0x13;
  2223   000256  0E13               	movlw	19
  2224   000258  6F16               	movwf	22,b	;volatile
  2225                           
  2226                           ;mcc_generated_files/system/src/pins.c: 118:     RC5PPS = 0x1F;
  2227   00025A  0E1F               	movlw	31
  2228   00025C  6F15               	movwf	21,b	;volatile
  2229                           
  2230                           ;mcc_generated_files/system/src/pins.c: 119:     SPI1SCKPPS = 0x13;
  2231   00025E  0E13               	movlw	19
  2232   000260  6FDE               	movwf	222,b	;volatile
  2233                           
  2234                           ;mcc_generated_files/system/src/pins.c: 120:     RC3PPS = 0x1E;
  2235   000262  0E1E               	movlw	30
  2236   000264  6F13               	movwf	19,b	;volatile
  2237                           
  2238                           ;mcc_generated_files/system/src/pins.c: 125:     IOCAP = 0x0;
  2239   000266  0E00               	movlw	0
  2240   000268  6F45               	movwf	69,b	;volatile
  2241                           
  2242                           ;mcc_generated_files/system/src/pins.c: 126:     IOCAN = 0x0;
  2243   00026A  0E00               	movlw	0
  2244   00026C  6F46               	movwf	70,b	;volatile
  2245                           
  2246                           ;mcc_generated_files/system/src/pins.c: 127:     IOCAF = 0x0;
  2247   00026E  0E00               	movlw	0
  2248   000270  6F47               	movwf	71,b	;volatile
  2249                           
  2250                           ;mcc_generated_files/system/src/pins.c: 128:     IOCBP = 0x0;
  2251   000272  0E00               	movlw	0
  2252   000274  6F55               	movwf	85,b	;volatile
  2253                           
  2254                           ;mcc_generated_files/system/src/pins.c: 129:     IOCBN = 0x0;
  2255   000276  0E00               	movlw	0
  2256   000278  6F56               	movwf	86,b	;volatile
  2257                           
  2258                           ;mcc_generated_files/system/src/pins.c: 130:     IOCBF = 0x0;
  2259   00027A  0E00               	movlw	0
  2260   00027C  6F57               	movwf	87,b	;volatile
  2261                           
  2262                           ;mcc_generated_files/system/src/pins.c: 131:     IOCCP = 0x0;
  2263   00027E  0E00               	movlw	0
  2264   000280  6F65               	movwf	101,b	;volatile
  2265                           
  2266                           ;mcc_generated_files/system/src/pins.c: 132:     IOCCN = 0x0;
  2267   000282  0E00               	movlw	0
  2268   000284  6F66               	movwf	102,b	;volatile
  2269                           
  2270                           ;mcc_generated_files/system/src/pins.c: 133:     IOCCF = 0x0;
  2271   000286  0E00               	movlw	0
  2272   000288  6F67               	movwf	103,b	;volatile
  2273                           
  2274                           ;mcc_generated_files/system/src/pins.c: 134:     IOCEP = 0x0;
  2275   00028A  0E00               	movlw	0
  2276   00028C  6F85               	movwf	133,b	;volatile
  2277                           
  2278                           ;mcc_generated_files/system/src/pins.c: 135:     IOCEN = 0x0;
  2279   00028E  0E00               	movlw	0
  2280   000290  6F86               	movwf	134,b	;volatile
  2281                           
  2282                           ;mcc_generated_files/system/src/pins.c: 136:     IOCEF = 0x0;
  2283   000292  0E00               	movlw	0
  2284   000294  6F87               	movwf	135,b	;volatile
  2285   000296                     
  2286                           ; BSR set to: 58
  2287   000296  0012               	return		;funcret
  2288   000298                     __end_of_PIN_MANAGER_Initialize:
  2289                           	callstack 0
  2290                           
  2291 ;; *************** function _INTERRUPT_Initialize *****************
  2292 ;; Defined at:
  2293 ;;		line 42 in file "mcc_generated_files/system/src/interrupt.c"
  2294 ;; Parameters:    Size  Location     Type
  2295 ;;		None
  2296 ;; Auto vars:     Size  Location     Type
  2297 ;;  state           1    5[BANK1 ] _Bool 
  2298 ;; Return value:  Size  Location     Type
  2299 ;;                  1    wreg      void 
  2300 ;; Registers used:
  2301 ;;		wreg, status,2, status,0, cstack
  2302 ;; Tracked objects:
  2303 ;;		On entry : 0/0
  2304 ;;		On exit  : 0/0
  2305 ;;		Unchanged: 0/0
  2306 ;; Data sizes:     COMRAM   BANK0   BANK1   BANK2   BANK3   BANK4   BANK5   BANK6   BANK7   BANK8   BANK9  BANK10  BANK1
      +1  BANK12  BANK13  BANK14  BANK15
  2307 ;;      Params:         0       0       0       0       0       0       0       0       0       0       0       0       
      +0       0       0       0       0
  2308 ;;      Locals:         0       0       1       0       0       0       0       0       0       0       0       0       
      +0       0       0       0       0
  2309 ;;      Temps:          0       0       0       0       0       0       0       0       0       0       0       0       
      +0       0       0       0       0
  2310 ;;      Totals:         0       0       1       0       0       0       0       0       0       0       0       0       
      +0       0       0       0       0
  2311 ;;Total ram usage:        1 bytes
  2312 ;; Hardware stack levels used: 1
  2313 ;; Hardware stack levels required when called: 7
  2314 ;; This function calls:
  2315 ;;		_INT0_SetInterruptHandler
  2316 ;;		_INT1_SetInterruptHandler
  2317 ;;		_INT2_SetInterruptHandler
  2318 ;; This function is called by:
  2319 ;;		_SYSTEM_Initialize
  2320 ;; This function uses a non-reentrant model
  2321 ;;
  2322                           
  2323                           	psect	text13
  2324   000352                     __ptext13:
  2325                           	callstack 0
  2326   000352                     _INTERRUPT_Initialize:
  2327                           	callstack 22
  2328   000352                     
  2329                           ;mcc_generated_files/system/src/interrupt.c: 44:     INTCON0bits.IPEN = 1;
  2330   000352  8AD2               	bsf	210,5,c	;volatile
  2331   000354                     
  2332                           ;mcc_generated_files/system/src/interrupt.c: 46:     _Bool state = (unsigned char)GIE;
  2333   000354  0E00               	movlw	0
  2334   000356  BED2               	btfsc	16338,7,c	;volatile
  2335   000358  0E01               	movlw	1
  2336   00035A  0101               	movlb	1	; () banked
  2337   00035C  6F85               	movwf	INTERRUPT_Initialize@state& (0+255),b
  2338   00035E                     
  2339                           ; BSR set to: 1
  2340                           ;mcc_generated_files/system/src/interrupt.c: 47:     GIE = 0;
  2341   00035E  9ED2               	bcf	16338,7,c	;volatile
  2342                           
  2343                           ;mcc_generated_files/system/src/interrupt.c: 48:     IVTLOCK = 0x55;
  2344   000360  0E55               	movlw	85
  2345   000362  6ED4               	movwf	212,c	;volatile
  2346                           
  2347                           ;mcc_generated_files/system/src/interrupt.c: 49:     IVTLOCK = 0xAA;
  2348   000364  0EAA               	movlw	170
  2349   000366  6ED4               	movwf	212,c	;volatile
  2350   000368                     
  2351                           ; BSR set to: 1
  2352                           ;mcc_generated_files/system/src/interrupt.c: 50:     IVTLOCKbits.IVTLOCKED = 0x00;
  2353   000368  90D4               	bcf	212,0,c	;volatile
  2354                           
  2355                           ;mcc_generated_files/system/src/interrupt.c: 52:     IVTBASEU = 0;
  2356   00036A  0E00               	movlw	0
  2357   00036C  6ED7               	movwf	215,c	;volatile
  2358                           
  2359                           ;mcc_generated_files/system/src/interrupt.c: 53:     IVTBASEH = 0;
  2360   00036E  0E00               	movlw	0
  2361   000370  6ED6               	movwf	214,c	;volatile
  2362                           
  2363                           ;mcc_generated_files/system/src/interrupt.c: 54:     IVTBASEL = 8;
  2364   000372  0E08               	movlw	8
  2365   000374  6ED5               	movwf	213,c	;volatile
  2366                           
  2367                           ;mcc_generated_files/system/src/interrupt.c: 56:     IVTLOCK = 0x55;
  2368   000376  0E55               	movlw	85
  2369   000378  6ED4               	movwf	212,c	;volatile
  2370                           
  2371                           ;mcc_generated_files/system/src/interrupt.c: 57:     IVTLOCK = 0xAA;
  2372   00037A  0EAA               	movlw	170
  2373   00037C  6ED4               	movwf	212,c	;volatile
  2374   00037E                     
  2375                           ; BSR set to: 1
  2376                           ;mcc_generated_files/system/src/interrupt.c: 58:     IVTLOCKbits.IVTLOCKED = 0x01;
  2377   00037E  80D4               	bsf	212,0,c	;volatile
  2378   000380                     
  2379                           ; BSR set to: 1
  2380                           ;mcc_generated_files/system/src/interrupt.c: 60:     GIE = state;
  2381   000380  B185               	btfsc	INTERRUPT_Initialize@state& (0+255),0,b
  2382   000382  D002               	bra	u1625
  2383   000384  9ED2               	bcf	16338,7,c	;volatile
  2384   000386  D001               	bra	u1626
  2385   000388                     u1625:
  2386   000388  8ED2               	bsf	16338,7,c	;volatile
  2387   00038A                     u1626:
  2388   00038A                     
  2389                           ;mcc_generated_files/system/src/interrupt.c: 62:     IPR3bits.U1RXIP = 1;
  2390   00038A  0139               	movlb	57	; () banked
  2391   00038C  8783               	bsf	131,3,b	;volatile
  2392   00038E                     
  2393                           ; BSR set to: 57
  2394                           ;mcc_generated_files/system/src/interrupt.c: 63:     IPR3bits.U1TXIP = 1;
  2395   00038E  8983               	bsf	131,4,b	;volatile
  2396   000390                     
  2397                           ; BSR set to: 57
  2398                           ;mcc_generated_files/system/src/interrupt.c: 64:     IPR3bits.TMR0IP = 1;
  2399   000390  8F83               	bsf	131,7,b	;volatile
  2400   000392                     
  2401                           ; BSR set to: 57
  2402                           ;mcc_generated_files/system/src/interrupt.c: 65:     IPR4bits.TMR2IP = 1;
  2403   000392  8584               	bsf	132,2,b	;volatile
  2404   000394                     
  2405                           ; BSR set to: 57
  2406                           ;mcc_generated_files/system/src/interrupt.c: 66:     IPR0bits.IOCIP = 0;
  2407   000394  9F80               	bcf	128,7,b	;volatile
  2408   000396                     
  2409                           ; BSR set to: 57
  2410                           ;mcc_generated_files/system/src/interrupt.c: 67:     IPR1bits.ADIP = 0;
  2411   000396  9581               	bcf	129,2,b	;volatile
  2412   000398                     
  2413                           ; BSR set to: 57
  2414                           ;mcc_generated_files/system/src/interrupt.c: 71:     (PIR1bits.INT0IF = 0);
  2415   000398  91A1               	bcf	161,0,b	;volatile
  2416   00039A                     
  2417                           ; BSR set to: 57
  2418                           ;mcc_generated_files/system/src/interrupt.c: 72:     (INTCON0bits.INT0EDG = 1);
  2419   00039A  80D2               	bsf	210,0,c	;volatile
  2420   00039C                     
  2421                           ; BSR set to: 57
  2422                           ;mcc_generated_files/system/src/interrupt.c: 74:     INT0_SetInterruptHandler(INT0_Defau
      +                          ltInterruptHandler);
  2423   00039C  0EDE               	movlw	low _INT0_DefaultInterruptHandler
  2424   00039E  0101               	movlb	1	; () banked
  2425   0003A0  6F83               	movwf	INT0_SetInterruptHandler@InterruptHandler& (0+255),b
  2426   0003A2  0E09               	movlw	high _INT0_DefaultInterruptHandler
  2427   0003A4  6F84               	movwf	(INT0_SetInterruptHandler@InterruptHandler+1)& (0+255),b
  2428   0003A6  ECCE  F004         	call	_INT0_SetInterruptHandler	;wreg free
  2429   0003AA                     
  2430                           ;mcc_generated_files/system/src/interrupt.c: 79:     (PIR5bits.INT1IF = 0);
  2431   0003AA  0139               	movlb	57	; () banked
  2432   0003AC  91A5               	bcf	165,0,b	;volatile
  2433   0003AE                     
  2434                           ; BSR set to: 57
  2435                           ;mcc_generated_files/system/src/interrupt.c: 80:     (INTCON0bits.INT1EDG = 1);
  2436   0003AE  82D2               	bsf	210,1,c	;volatile
  2437   0003B0                     
  2438                           ; BSR set to: 57
  2439                           ;mcc_generated_files/system/src/interrupt.c: 82:     INT1_SetInterruptHandler(INT1_Defau
      +                          ltInterruptHandler);
  2440   0003B0  0EE0               	movlw	low _INT1_DefaultInterruptHandler
  2441   0003B2  0101               	movlb	1	; () banked
  2442   0003B4  6F83               	movwf	INT1_SetInterruptHandler@InterruptHandler& (0+255),b
  2443   0003B6  0E09               	movlw	high _INT1_DefaultInterruptHandler
  2444   0003B8  6F84               	movwf	(INT1_SetInterruptHandler@InterruptHandler+1)& (0+255),b
  2445   0003BA  ECC9  F004         	call	_INT1_SetInterruptHandler	;wreg free
  2446   0003BE                     
  2447                           ;mcc_generated_files/system/src/interrupt.c: 87:     (PIR7bits.INT2IF = 0);
  2448   0003BE  0139               	movlb	57	; () banked
  2449   0003C0  9BA7               	bcf	167,5,b	;volatile
  2450   0003C2                     
  2451                           ; BSR set to: 57
  2452                           ;mcc_generated_files/system/src/interrupt.c: 88:     (INTCON0bits.INT2EDG = 1);
  2453   0003C2  84D2               	bsf	210,2,c	;volatile
  2454   0003C4                     
  2455                           ; BSR set to: 57
  2456                           ;mcc_generated_files/system/src/interrupt.c: 90:     INT2_SetInterruptHandler(INT2_Defau
      +                          ltInterruptHandler);
  2457   0003C4  0EE2               	movlw	low _INT2_DefaultInterruptHandler
  2458   0003C6  0101               	movlb	1	; () banked
  2459   0003C8  6F83               	movwf	INT2_SetInterruptHandler@InterruptHandler& (0+255),b
  2460   0003CA  0E09               	movlw	high _INT2_DefaultInterruptHandler
  2461   0003CC  6F84               	movwf	(INT2_SetInterruptHandler@InterruptHandler+1)& (0+255),b
  2462   0003CE  ECC4  F004         	call	_INT2_SetInterruptHandler	;wreg free
  2463   0003D2  0012               	return		;funcret
  2464   0003D4                     __end_of_INTERRUPT_Initialize:
  2465                           	callstack 0
  2466                           
  2467 ;; *************** function _INT2_SetInterruptHandler *****************
  2468 ;; Defined at:
  2469 ;;		line 198 in file "mcc_generated_files/system/src/interrupt.c"
  2470 ;; Parameters:    Size  Location     Type
  2471 ;;  InterruptHan    2    3[BANK1 ] PTR FTN()void 
  2472 ;;		 -> INT2_DefaultInterruptHandler(1), 
  2473 ;; Auto vars:     Size  Location     Type
  2474 ;;		None
  2475 ;; Return value:  Size  Location     Type
  2476 ;;                  1    wreg      void 
  2477 ;; Registers used:
  2478 ;;		wreg, status,2, status,0
  2479 ;; Tracked objects:
  2480 ;;		On entry : 0/0
  2481 ;;		On exit  : 0/0
  2482 ;;		Unchanged: 0/0
  2483 ;; Data sizes:     COMRAM   BANK0   BANK1   BANK2   BANK3   BANK4   BANK5   BANK6   BANK7   BANK8   BANK9  BANK10  BANK1
      +1  BANK12  BANK13  BANK14  BANK15
  2484 ;;      Params:         0       0       2       0       0       0       0       0       0       0       0       0       
      +0       0       0       0       0
  2485 ;;      Locals:         0       0       0       0       0       0       0       0       0       0       0       0       
      +0       0       0       0       0
  2486 ;;      Temps:          0       0       0       0       0       0       0       0       0       0       0       0       
      +0       0       0       0       0
  2487 ;;      Totals:         0       0       2       0       0       0       0       0       0       0       0       0       
      +0       0       0       0       0
  2488 ;;Total ram usage:        2 bytes
  2489 ;; Hardware stack levels used: 1
  2490 ;; Hardware stack levels required when called: 6
  2491 ;; This function calls:
  2492 ;;		Nothing
  2493 ;; This function is called by:
  2494 ;;		_INTERRUPT_Initialize
  2495 ;; This function uses a non-reentrant model
  2496 ;;
  2497                           
  2498                           	psect	text14
  2499   000988                     __ptext14:
  2500                           	callstack 0
  2501   000988                     _INT2_SetInterruptHandler:
  2502                           	callstack 22
  2503   000988                     
  2504                           ;mcc_generated_files/system/src/interrupt.c: 199:     INT2_InterruptHandler = InterruptH
      +                          andler;
  2505   000988  C183  F01F         	movff	INT2_SetInterruptHandler@InterruptHandler,_INT2_InterruptHandler
  2506   00098C  C184  F020         	movff	INT2_SetInterruptHandler@InterruptHandler+1,_INT2_InterruptHandler+1
  2507   000990  0012               	return		;funcret
  2508   000992                     __end_of_INT2_SetInterruptHandler:
  2509                           	callstack 0
  2510                           
  2511 ;; *************** function _INT1_SetInterruptHandler *****************
  2512 ;; Defined at:
  2513 ;;		line 164 in file "mcc_generated_files/system/src/interrupt.c"
  2514 ;; Parameters:    Size  Location     Type
  2515 ;;  InterruptHan    2    3[BANK1 ] PTR FTN()void 
  2516 ;;		 -> INT1_DefaultInterruptHandler(1), 
  2517 ;; Auto vars:     Size  Location     Type
  2518 ;;		None
  2519 ;; Return value:  Size  Location     Type
  2520 ;;                  1    wreg      void 
  2521 ;; Registers used:
  2522 ;;		wreg, status,2, status,0
  2523 ;; Tracked objects:
  2524 ;;		On entry : 0/0
  2525 ;;		On exit  : 0/0
  2526 ;;		Unchanged: 0/0
  2527 ;; Data sizes:     COMRAM   BANK0   BANK1   BANK2   BANK3   BANK4   BANK5   BANK6   BANK7   BANK8   BANK9  BANK10  BANK1
      +1  BANK12  BANK13  BANK14  BANK15
  2528 ;;      Params:         0       0       2       0       0       0       0       0       0       0       0       0       
      +0       0       0       0       0
  2529 ;;      Locals:         0       0       0       0       0       0       0       0       0       0       0       0       
      +0       0       0       0       0
  2530 ;;      Temps:          0       0       0       0       0       0       0       0       0       0       0       0       
      +0       0       0       0       0
  2531 ;;      Totals:         0       0       2       0       0       0       0       0       0       0       0       0       
      +0       0       0       0       0
  2532 ;;Total ram usage:        2 bytes
  2533 ;; Hardware stack levels used: 1
  2534 ;; Hardware stack levels required when called: 6
  2535 ;; This function calls:
  2536 ;;		Nothing
  2537 ;; This function is called by:
  2538 ;;		_INTERRUPT_Initialize
  2539 ;; This function uses a non-reentrant model
  2540 ;;
  2541                           
  2542                           	psect	text15
  2543   000992                     __ptext15:
  2544                           	callstack 0
  2545   000992                     _INT1_SetInterruptHandler:
  2546                           	callstack 22
  2547   000992                     
  2548                           ;mcc_generated_files/system/src/interrupt.c: 165:     INT1_InterruptHandler = InterruptH
      +                          andler;
  2549   000992  C183  F021         	movff	INT1_SetInterruptHandler@InterruptHandler,_INT1_InterruptHandler
  2550   000996  C184  F022         	movff	INT1_SetInterruptHandler@InterruptHandler+1,_INT1_InterruptHandler+1
  2551   00099A  0012               	return		;funcret
  2552   00099C                     __end_of_INT1_SetInterruptHandler:
  2553                           	callstack 0
  2554                           
  2555 ;; *************** function _INT0_SetInterruptHandler *****************
  2556 ;; Defined at:
  2557 ;;		line 130 in file "mcc_generated_files/system/src/interrupt.c"
  2558 ;; Parameters:    Size  Location     Type
  2559 ;;  InterruptHan    2    3[BANK1 ] PTR FTN()void 
  2560 ;;		 -> INT0_DefaultInterruptHandler(1), 
  2561 ;; Auto vars:     Size  Location     Type
  2562 ;;		None
  2563 ;; Return value:  Size  Location     Type
  2564 ;;                  1    wreg      void 
  2565 ;; Registers used:
  2566 ;;		wreg, status,2, status,0
  2567 ;; Tracked objects:
  2568 ;;		On entry : 0/0
  2569 ;;		On exit  : 0/0
  2570 ;;		Unchanged: 0/0
  2571 ;; Data sizes:     COMRAM   BANK0   BANK1   BANK2   BANK3   BANK4   BANK5   BANK6   BANK7   BANK8   BANK9  BANK10  BANK1
      +1  BANK12  BANK13  BANK14  BANK15
  2572 ;;      Params:         0       0       2       0       0       0       0       0       0       0       0       0       
      +0       0       0       0       0
  2573 ;;      Locals:         0       0       0       0       0       0       0       0       0       0       0       0       
      +0       0       0       0       0
  2574 ;;      Temps:          0       0       0       0       0       0       0       0       0       0       0       0       
      +0       0       0       0       0
  2575 ;;      Totals:         0       0       2       0       0       0       0       0       0       0       0       0       
      +0       0       0       0       0
  2576 ;;Total ram usage:        2 bytes
  2577 ;; Hardware stack levels used: 1
  2578 ;; Hardware stack levels required when called: 6
  2579 ;; This function calls:
  2580 ;;		Nothing
  2581 ;; This function is called by:
  2582 ;;		_INTERRUPT_Initialize
  2583 ;; This function uses a non-reentrant model
  2584 ;;
  2585                           
  2586                           	psect	text16
  2587   00099C                     __ptext16:
  2588                           	callstack 0
  2589   00099C                     _INT0_SetInterruptHandler:
  2590                           	callstack 22
  2591   00099C                     
  2592                           ;mcc_generated_files/system/src/interrupt.c: 131:     INT0_InterruptHandler = InterruptH
      +                          andler;
  2593   00099C  C183  F023         	movff	INT0_SetInterruptHandler@InterruptHandler,_INT0_InterruptHandler
  2594   0009A0  C184  F024         	movff	INT0_SetInterruptHandler@InterruptHandler+1,_INT0_InterruptHandler+1
  2595   0009A4  0012               	return		;funcret
  2596   0009A6                     __end_of_INT0_SetInterruptHandler:
  2597                           	callstack 0
  2598                           
  2599 ;; *************** function _FVR_Initialize *****************
  2600 ;; Defined at:
  2601 ;;		line 43 in file "mcc_generated_files/fvr/src/fvr.c"
  2602 ;; Parameters:    Size  Location     Type
  2603 ;;		None
  2604 ;; Auto vars:     Size  Location     Type
  2605 ;;		None
  2606 ;; Return value:  Size  Location     Type
  2607 ;;                  1    wreg      void 
  2608 ;; Registers used:
  2609 ;;		wreg, status,2
  2610 ;; Tracked objects:
  2611 ;;		On entry : 0/0
  2612 ;;		On exit  : 0/0
  2613 ;;		Unchanged: 0/0
  2614 ;; Data sizes:     COMRAM   BANK0   BANK1   BANK2   BANK3   BANK4   BANK5   BANK6   BANK7   BANK8   BANK9  BANK10  BANK1
      +1  BANK12  BANK13  BANK14  BANK15
  2615 ;;      Params:         0       0       0       0       0       0       0       0       0       0       0       0       
      +0       0       0       0       0
  2616 ;;      Locals:         0       0       0       0       0       0       0       0       0       0       0       0       
      +0       0       0       0       0
  2617 ;;      Temps:          0       0       0       0       0       0       0       0       0       0       0       0       
      +0       0       0       0       0
  2618 ;;      Totals:         0       0       0       0       0       0       0       0       0       0       0       0       
      +0       0       0       0       0
  2619 ;;Total ram usage:        0 bytes
  2620 ;; Hardware stack levels used: 1
  2621 ;; Hardware stack levels required when called: 6
  2622 ;; This function calls:
  2623 ;;		Nothing
  2624 ;; This function is called by:
  2625 ;;		_SYSTEM_Initialize
  2626 ;; This function uses a non-reentrant model
  2627 ;;
  2628                           
  2629                           	psect	text17
  2630   0009BA                     __ptext17:
  2631                           	callstack 0
  2632   0009BA                     _FVR_Initialize:
  2633                           	callstack 23
  2634   0009BA                     
  2635                           ;mcc_generated_files/fvr/src/fvr.c: 46:     FVRCON = 0xC2;
  2636   0009BA  0EC2               	movlw	194
  2637   0009BC  013E               	movlb	62	; () banked
  2638   0009BE  6FC1               	movwf	193,b	;volatile
  2639   0009C0                     
  2640                           ; BSR set to: 62
  2641   0009C0  0012               	return		;funcret
  2642   0009C2                     __end_of_FVR_Initialize:
  2643                           	callstack 0
  2644                           
  2645 ;; *************** function _CLOCK_Initialize *****************
  2646 ;; Defined at:
  2647 ;;		line 37 in file "mcc_generated_files/system/src/clock.c"
  2648 ;; Parameters:    Size  Location     Type
  2649 ;;		None
  2650 ;; Auto vars:     Size  Location     Type
  2651 ;;		None
  2652 ;; Return value:  Size  Location     Type
  2653 ;;                  1    wreg      void 
  2654 ;; Registers used:
  2655 ;;		wreg, status,2
  2656 ;; Tracked objects:
  2657 ;;		On entry : 0/0
  2658 ;;		On exit  : 0/0
  2659 ;;		Unchanged: 0/0
  2660 ;; Data sizes:     COMRAM   BANK0   BANK1   BANK2   BANK3   BANK4   BANK5   BANK6   BANK7   BANK8   BANK9  BANK10  BANK1
      +1  BANK12  BANK13  BANK14  BANK15
  2661 ;;      Params:         0       0       0       0       0       0       0       0       0       0       0       0       
      +0       0       0       0       0
  2662 ;;      Locals:         0       0       0       0       0       0       0       0       0       0       0       0       
      +0       0       0       0       0
  2663 ;;      Temps:          0       0       0       0       0       0       0       0       0       0       0       0       
      +0       0       0       0       0
  2664 ;;      Totals:         0       0       0       0       0       0       0       0       0       0       0       0       
      +0       0       0       0       0
  2665 ;;Total ram usage:        0 bytes
  2666 ;; Hardware stack levels used: 1
  2667 ;; Hardware stack levels required when called: 6
  2668 ;; This function calls:
  2669 ;;		Nothing
  2670 ;; This function is called by:
  2671 ;;		_SYSTEM_Initialize
  2672 ;; This function uses a non-reentrant model
  2673 ;;
  2674                           
  2675                           	psect	text18
  2676   000906                     __ptext18:
  2677                           	callstack 0
  2678   000906                     _CLOCK_Initialize:
  2679                           	callstack 23
  2680   000906                     
  2681                           ;mcc_generated_files/system/src/clock.c: 41:     OSCCON1 = 0x60;
  2682   000906  0E60               	movlw	96
  2683   000908  0139               	movlb	57	; () banked
  2684   00090A  6FD9               	movwf	217,b	;volatile
  2685                           
  2686                           ;mcc_generated_files/system/src/clock.c: 43:     OSCCON3 = 0x0;
  2687   00090C  0E00               	movlw	0
  2688   00090E  6FDB               	movwf	219,b	;volatile
  2689                           
  2690                           ;mcc_generated_files/system/src/clock.c: 45:     OSCEN = 0x0;
  2691   000910  0E00               	movlw	0
  2692   000912  6FDD               	movwf	221,b	;volatile
  2693                           
  2694                           ;mcc_generated_files/system/src/clock.c: 47:     OSCFRQ = 0x8;
  2695   000914  0E08               	movlw	8
  2696   000916  6FDF               	movwf	223,b	;volatile
  2697                           
  2698                           ;mcc_generated_files/system/src/clock.c: 49:     OSCTUNE = 0x0;
  2699   000918  0E00               	movlw	0
  2700   00091A  6FDE               	movwf	222,b	;volatile
  2701   00091C                     
  2702                           ; BSR set to: 57
  2703   00091C  0012               	return		;funcret
  2704   00091E                     __end_of_CLOCK_Initialize:
  2705                           	callstack 0
  2706                           
  2707 ;; *************** function _ADCC_Initialize *****************
  2708 ;; Defined at:
  2709 ;;		line 47 in file "mcc_generated_files/adc/src/adcc.c"
  2710 ;; Parameters:    Size  Location     Type
  2711 ;;		None
  2712 ;; Auto vars:     Size  Location     Type
  2713 ;;		None
  2714 ;; Return value:  Size  Location     Type
  2715 ;;                  1    wreg      void 
  2716 ;; Registers used:
  2717 ;;		wreg, status,2, status,0, cstack
  2718 ;; Tracked objects:
  2719 ;;		On entry : 0/0
  2720 ;;		On exit  : 0/0
  2721 ;;		Unchanged: 0/0
  2722 ;; Data sizes:     COMRAM   BANK0   BANK1   BANK2   BANK3   BANK4   BANK5   BANK6   BANK7   BANK8   BANK9  BANK10  BANK1
      +1  BANK12  BANK13  BANK14  BANK15
  2723 ;;      Params:         0       0       0       0       0       0       0       0       0       0       0       0       
      +0       0       0       0       0
  2724 ;;      Locals:         0       0       0       0       0       0       0       0       0       0       0       0       
      +0       0       0       0       0
  2725 ;;      Temps:          0       0       0       0       0       0       0       0       0       0       0       0       
      +0       0       0       0       0
  2726 ;;      Totals:         0       0       0       0       0       0       0       0       0       0       0       0       
      +0       0       0       0       0
  2727 ;;Total ram usage:        0 bytes
  2728 ;; Hardware stack levels used: 1
  2729 ;; Hardware stack levels required when called: 7
  2730 ;; This function calls:
  2731 ;;		_ADCC_SetADIInterruptHandler
  2732 ;; This function is called by:
  2733 ;;		_SYSTEM_Initialize
  2734 ;; This function uses a non-reentrant model
  2735 ;;
  2736                           
  2737                           	psect	text19
  2738   00044E                     __ptext19:
  2739                           	callstack 0
  2740   00044E                     _ADCC_Initialize:
  2741                           	callstack 22
  2742   00044E                     
  2743                           ;mcc_generated_files/adc/src/adcc.c: 51:     ADLTHL = 0x0;
  2744   00044E  0E00               	movlw	0
  2745   000450  013E               	movlb	62	; () banked
  2746   000452  6FDE               	movwf	222,b	;volatile
  2747                           
  2748                           ;mcc_generated_files/adc/src/adcc.c: 53:     ADLTHH = 0x0;
  2749   000454  0E00               	movlw	0
  2750   000456  6FDF               	movwf	223,b	;volatile
  2751                           
  2752                           ;mcc_generated_files/adc/src/adcc.c: 55:     ADUTHL = 0x0;
  2753   000458  0E00               	movlw	0
  2754   00045A  6FE0               	movwf	224,b	;volatile
  2755                           
  2756                           ;mcc_generated_files/adc/src/adcc.c: 57:     ADUTHH = 0x0;
  2757   00045C  0E00               	movlw	0
  2758   00045E  6FE1               	movwf	225,b	;volatile
  2759                           
  2760                           ;mcc_generated_files/adc/src/adcc.c: 59:     ADSTPTL = 0x0;
  2761   000460  0E00               	movlw	0
  2762   000462  6FE4               	movwf	228,b	;volatile
  2763                           
  2764                           ;mcc_generated_files/adc/src/adcc.c: 61:     ADSTPTH = 0x0;
  2765   000464  0E00               	movlw	0
  2766   000466  6FE5               	movwf	229,b	;volatile
  2767                           
  2768                           ;mcc_generated_files/adc/src/adcc.c: 63:     ADACCU = 0x0;
  2769   000468  0E00               	movlw	0
  2770   00046A  6FEA               	movwf	234,b	;volatile
  2771                           
  2772                           ;mcc_generated_files/adc/src/adcc.c: 65:     ADRPT = 0x0;
  2773   00046C  0E00               	movlw	0
  2774   00046E  6FEC               	movwf	236,b	;volatile
  2775                           
  2776                           ;mcc_generated_files/adc/src/adcc.c: 67:     ADPCH = 0x0;
  2777   000470  0E00               	movlw	0
  2778   000472  6FF1               	movwf	241,b	;volatile
  2779                           
  2780                           ;mcc_generated_files/adc/src/adcc.c: 69:     ADACQL = 0x1;
  2781   000474  0E01               	movlw	1
  2782   000476  6FF3               	movwf	243,b	;volatile
  2783                           
  2784                           ;mcc_generated_files/adc/src/adcc.c: 71:     ADACQH = 0x0;
  2785   000478  0E00               	movlw	0
  2786   00047A  6FF4               	movwf	244,b	;volatile
  2787                           
  2788                           ;mcc_generated_files/adc/src/adcc.c: 73:     ADCAP = 0x0;
  2789   00047C  0E00               	movlw	0
  2790   00047E  6FF5               	movwf	245,b	;volatile
  2791                           
  2792                           ;mcc_generated_files/adc/src/adcc.c: 75:     ADPREL = 0x0;
  2793   000480  0E00               	movlw	0
  2794   000482  6FF6               	movwf	246,b	;volatile
  2795                           
  2796                           ;mcc_generated_files/adc/src/adcc.c: 77:     ADPREH = 0x0;
  2797   000484  0E00               	movlw	0
  2798   000486  6FF7               	movwf	247,b	;volatile
  2799                           
  2800                           ;mcc_generated_files/adc/src/adcc.c: 79:     ADCON1 = 0x0;
  2801   000488  0E00               	movlw	0
  2802   00048A  6FF9               	movwf	249,b	;volatile
  2803                           
  2804                           ;mcc_generated_files/adc/src/adcc.c: 81:     ADCON2 = 0x10;
  2805   00048C  0E10               	movlw	16
  2806   00048E  6FFA               	movwf	250,b	;volatile
  2807                           
  2808                           ;mcc_generated_files/adc/src/adcc.c: 83:     ADCON3 = 0x0;
  2809   000490  0E00               	movlw	0
  2810   000492  6FFB               	movwf	251,b	;volatile
  2811                           
  2812                           ;mcc_generated_files/adc/src/adcc.c: 85:     ADSTAT = 0x0;
  2813   000494  0E00               	movlw	0
  2814   000496  6FFC               	movwf	252,b	;volatile
  2815                           
  2816                           ;mcc_generated_files/adc/src/adcc.c: 87:     ADREF = 0x3;
  2817   000498  0E03               	movlw	3
  2818   00049A  6FFD               	movwf	253,b	;volatile
  2819                           
  2820                           ;mcc_generated_files/adc/src/adcc.c: 89:     ADACT = 0x0;
  2821   00049C  0E00               	movlw	0
  2822   00049E  6FFE               	movwf	254,b	;volatile
  2823                           
  2824                           ;mcc_generated_files/adc/src/adcc.c: 91:     ADCLK = 0x1F;
  2825   0004A0  0E1F               	movlw	31
  2826   0004A2  6FFF               	movwf	255,b	;volatile
  2827                           
  2828                           ;mcc_generated_files/adc/src/adcc.c: 93:     ADCON0 = 0x84;
  2829   0004A4  0E84               	movlw	132
  2830   0004A6  6FF8               	movwf	248,b	;volatile
  2831   0004A8                     
  2832                           ; BSR set to: 62
  2833                           ;mcc_generated_files/adc/src/adcc.c: 96:     PIR1bits.ADIF = 0;
  2834   0004A8  0139               	movlb	57	; () banked
  2835   0004AA  95A1               	bcf	161,2,b	;volatile
  2836   0004AC                     
  2837                           ; BSR set to: 57
  2838                           ;mcc_generated_files/adc/src/adcc.c: 98:     ADCC_SetADIInterruptHandler(ADCC_DefaultADI
      +                          _ISR);
  2839   0004AC  0EDA               	movlw	low _ADCC_DefaultADI_ISR
  2840   0004AE  0101               	movlb	1	; () banked
  2841   0004B0  6F83               	movwf	ADCC_SetADIInterruptHandler@InterruptHandler& (0+255),b
  2842   0004B2  0E09               	movlw	high _ADCC_DefaultADI_ISR
  2843   0004B4  6F84               	movwf	(ADCC_SetADIInterruptHandler@InterruptHandler+1)& (0+255),b
  2844   0004B6  ECD3  F004         	call	_ADCC_SetADIInterruptHandler	;wreg free
  2845   0004BA                     
  2846                           ;mcc_generated_files/adc/src/adcc.c: 100:     PIE1bits.ADIE = 1;
  2847   0004BA  0139               	movlb	57	; () banked
  2848   0004BC  8591               	bsf	145,2,b	;volatile
  2849   0004BE                     
  2850                           ; BSR set to: 57
  2851                           ;mcc_generated_files/adc/src/adcc.c: 103:     PIR1bits.ADTIF = 0;
  2852   0004BE  97A1               	bcf	161,3,b	;volatile
  2853   0004C0                     
  2854                           ; BSR set to: 57
  2855   0004C0  0012               	return		;funcret
  2856   0004C2                     __end_of_ADCC_Initialize:
  2857                           	callstack 0
  2858                           
  2859 ;; *************** function _ADCC_SetADIInterruptHandler *****************
  2860 ;; Defined at:
  2861 ;;		line 297 in file "mcc_generated_files/adc/src/adcc.c"
  2862 ;; Parameters:    Size  Location     Type
  2863 ;;  InterruptHan    2    3[BANK1 ] PTR FTN()void 
  2864 ;;		 -> ADC_int(1), ADCC_DefaultADI_ISR(1), 
  2865 ;; Auto vars:     Size  Location     Type
  2866 ;;		None
  2867 ;; Return value:  Size  Location     Type
  2868 ;;                  1    wreg      void 
  2869 ;; Registers used:
  2870 ;;		wreg, status,2, status,0
  2871 ;; Tracked objects:
  2872 ;;		On entry : 0/0
  2873 ;;		On exit  : 0/0
  2874 ;;		Unchanged: 0/0
  2875 ;; Data sizes:     COMRAM   BANK0   BANK1   BANK2   BANK3   BANK4   BANK5   BANK6   BANK7   BANK8   BANK9  BANK10  BANK1
      +1  BANK12  BANK13  BANK14  BANK15
  2876 ;;      Params:         0       0       2       0       0       0       0       0       0       0       0       0       
      +0       0       0       0       0
  2877 ;;      Locals:         0       0       0       0       0       0       0       0       0       0       0       0       
      +0       0       0       0       0
  2878 ;;      Temps:          0       0       0       0       0       0       0       0       0       0       0       0       
      +0       0       0       0       0
  2879 ;;      Totals:         0       0       2       0       0       0       0       0       0       0       0       0       
      +0       0       0       0       0
  2880 ;;Total ram usage:        2 bytes
  2881 ;; Hardware stack levels used: 1
  2882 ;; Hardware stack levels required when called: 6
  2883 ;; This function calls:
  2884 ;;		Nothing
  2885 ;; This function is called by:
  2886 ;;		_ADCC_Initialize
  2887 ;;		_main
  2888 ;; This function uses a non-reentrant model
  2889 ;;
  2890                           
  2891                           	psect	text20
  2892   0009A6                     __ptext20:
  2893                           	callstack 0
  2894   0009A6                     _ADCC_SetADIInterruptHandler:
  2895                           	callstack 22
  2896   0009A6                     
  2897                           ;mcc_generated_files/adc/src/adcc.c: 297: void ADCC_SetADIInterruptHandler(void (* Inter
      +                          ruptHandler)(void));mcc_generated_files/adc/src/adcc.c: 298: {;mcc_generated_files/adc/s
      +                          rc/adcc.c: 299:     ADCC_ADI_InterruptHandler = InterruptHandler;
  2898   0009A6  C183  F0F4         	movff	ADCC_SetADIInterruptHandler@InterruptHandler,_ADCC_ADI_InterruptHandler
  2899   0009AA  C184  F0F5         	movff	ADCC_SetADIInterruptHandler@InterruptHandler+1,_ADCC_ADI_InterruptHandler+1
  2900   0009AE  0012               	return		;funcret
  2901   0009B0                     __end_of_ADCC_SetADIInterruptHandler:
  2902                           	callstack 0
  2903                           
  2904 ;; *************** function _SPI1_Open *****************
  2905 ;; Defined at:
  2906 ;;		line 85 in file "mcc_generated_files/spi/src/spi1.c"
  2907 ;; Parameters:    Size  Location     Type
  2908 ;;		None
  2909 ;; Auto vars:     Size  Location     Type
  2910 ;;		None
  2911 ;; Return value:  Size  Location     Type
  2912 ;;                  1    wreg      _Bool 
  2913 ;; Registers used:
  2914 ;;		wreg, status,2
  2915 ;; Tracked objects:
  2916 ;;		On entry : 0/0
  2917 ;;		On exit  : 0/0
  2918 ;;		Unchanged: 0/0
  2919 ;; Data sizes:     COMRAM   BANK0   BANK1   BANK2   BANK3   BANK4   BANK5   BANK6   BANK7   BANK8   BANK9  BANK10  BANK1
      +1  BANK12  BANK13  BANK14  BANK15
  2920 ;;      Params:         0       0       0       0       0       0       0       0       0       0       0       0       
      +0       0       0       0       0
  2921 ;;      Locals:         0       0       0       0       0       0       0       0       0       0       0       0       
      +0       0       0       0       0
  2922 ;;      Temps:          0       0       0       0       0       0       0       0       0       0       0       0       
      +0       0       0       0       0
  2923 ;;      Totals:         0       0       0       0       0       0       0       0       0       0       0       0       
      +0       0       0       0       0
  2924 ;;Total ram usage:        0 bytes
  2925 ;; Hardware stack levels used: 1
  2926 ;; Hardware stack levels required when called: 6
  2927 ;; This function calls:
  2928 ;;		Nothing
  2929 ;; This function is called by:
  2930 ;;		_main
  2931 ;; This function uses a non-reentrant model
  2932 ;;
  2933                           
  2934                           	psect	text21
  2935   000868                     __ptext21:
  2936                           	callstack 0
  2937   000868                     _SPI1_Open:
  2938                           	callstack 24
  2939   000868                     
  2940                           ;mcc_generated_files/spi/src/spi1.c: 87:     if(!SPI1CON0bits.EN)
  2941   000868  013D               	movlb	61	; () banked
  2942   00086A  BF14               	btfsc	20,7,b	;volatile
  2943   00086C  EF3A  F004         	goto	u81
  2944   000870  EF3C  F004         	goto	u80
  2945   000874                     u81:
  2946   000874  EF48  F004         	goto	l272
  2947   000878                     u80:
  2948   000878                     
  2949                           ; BSR set to: 61
  2950                           ;mcc_generated_files/spi/src/spi1.c: 88:     {;mcc_generated_files/spi/src/spi1.c: 89:  
      +                                 SPI1CON0 = 0b10000011;
  2951   000878  0E83               	movlw	131
  2952   00087A  6F14               	movwf	20,b	;volatile
  2953                           
  2954                           ;mcc_generated_files/spi/src/spi1.c: 90:         SPI1CON1 = 0x40;
  2955   00087C  0E40               	movlw	64
  2956   00087E  6F15               	movwf	21,b	;volatile
  2957                           
  2958                           ;mcc_generated_files/spi/src/spi1.c: 91:         SPI1CON2 = 0b00000010;
  2959   000880  0E02               	movlw	2
  2960   000882  6F16               	movwf	22,b	;volatile
  2961                           
  2962                           ;mcc_generated_files/spi/src/spi1.c: 92:         SPI1CLK = 0x00;
  2963   000884  0E00               	movlw	0
  2964   000886  6F1C               	movwf	28,b	;volatile
  2965                           
  2966                           ;mcc_generated_files/spi/src/spi1.c: 93:         SPI1BAUD = 0x18;
  2967   000888  0E18               	movlw	24
  2968   00088A  6F19               	movwf	25,b	;volatile
  2969   00088C                     
  2970                           ; BSR set to: 61
  2971                           ;mcc_generated_files/spi/src/spi1.c: 94:         TRISCbits.TRISC3 = 0;
  2972   00088C  96C4               	bcf	196,3,c	;volatile
  2973   00088E                     
  2974                           ; BSR set to: 61
  2975                           ;mcc_generated_files/spi/src/spi1.c: 95:         SPI1CON0bits.EN = 1;
  2976   00088E  8F14               	bsf	20,7,b	;volatile
  2977   000890                     l272:
  2978                           
  2979                           ; BSR set to: 61
  2980   000890  0012               	return		;funcret
  2981   000892                     __end_of_SPI1_Open:
  2982                           	callstack 0
  2983                           
  2984 ;; *************** function _ADCC_ISR *****************
  2985 ;; Defined at:
  2986 ;;		line 286 in file "mcc_generated_files/adc/src/adcc.c"
  2987 ;; Parameters:    Size  Location     Type
  2988 ;;		None
  2989 ;; Auto vars:     Size  Location     Type
  2990 ;;		None
  2991 ;; Return value:  Size  Location     Type
  2992 ;;                  1    wreg      void 
  2993 ;; Registers used:
  2994 ;;		wreg, fsr2l, fsr2h, status,2, status,0, pcl, pclath, pclatu, tosl, cstack
  2995 ;; Tracked objects:
  2996 ;;		On entry : 0/0
  2997 ;;		On exit  : 0/0
  2998 ;;		Unchanged: 0/0
  2999 ;; Data sizes:     COMRAM   BANK0   BANK1   BANK2   BANK3   BANK4   BANK5   BANK6   BANK7   BANK8   BANK9  BANK10  BANK1
      +1  BANK12  BANK13  BANK14  BANK15
  3000 ;;      Params:         0       0       0       0       0       0       0       0       0       0       0       0       
      +0       0       0       0       0
  3001 ;;      Locals:         0       0       0       0       0       0       0       0       0       0       0       0       
      +0       0       0       0       0
  3002 ;;      Temps:          3       0       0       0       0       0       0       0       0       0       0       0       
      +0       0       0       0       0
  3003 ;;      Totals:         3       0       0       0       0       0       0       0       0       0       0       0       
      +0       0       0       0       0
  3004 ;;Total ram usage:        3 bytes
  3005 ;; Hardware stack levels used: 1
  3006 ;; Hardware stack levels required when called: 5
  3007 ;; This function calls:
  3008 ;;		Absolute function
  3009 ;;		_ADCC_DefaultADI_ISR
  3010 ;;		_ADC_int
  3011 ;; This function is called by:
  3012 ;;		Interrupt level 1
  3013 ;; This function uses a non-reentrant model
  3014 ;;
  3015                           
  3016                           	psect	text22
  3017   0004C4                     __ptext22:
  3018                           	callstack 0
  3019   0004C4                     _ADCC_ISR:
  3020                           	callstack 22
  3021                           
  3022                           ; BSR set to: 61
  3023                           ;incstack = 0
  3024   0004C4  006F FF60  F04E    	movff	status,??_ADCC_ISR
  3025   0004CA  006F FFE8  F04F    	movff	pclath,??_ADCC_ISR+1
  3026   0004D0  006F FFEC  F050    	movff	pclatu,??_ADCC_ISR+2
  3027   0004D6                     
  3028                           ;mcc_generated_files/adc/src/adcc.c: 289:     PIR1bits.ADIF = 0;
  3029   0004D6  0139               	movlb	57	; () banked
  3030   0004D8  95A1               	bcf	161,2,b	;volatile
  3031   0004DA                     
  3032                           ; BSR set to: 57
  3033                           ;mcc_generated_files/adc/src/adcc.c: 291:     if (ADCC_ADI_InterruptHandler != ((void*)0
      +                          ))
  3034   0004DA  0100               	movlb	0	; () banked
  3035   0004DC  51F4               	movf	_ADCC_ADI_InterruptHandler& (0+255),w,b
  3036   0004DE  11F5               	iorwf	(_ADCC_ADI_InterruptHandler+1)& (0+255),w,b
  3037   0004E0  B4D8               	btfsc	status,2,c
  3038   0004E2  EF75  F002         	goto	i1u109_21
  3039   0004E6  EF77  F002         	goto	i1u109_20
  3040   0004EA                     i1u109_21:
  3041   0004EA  EF83  F002         	goto	i1l176
  3042   0004EE                     i1u109_20:
  3043   0004EE                     
  3044                           ; BSR set to: 0
  3045                           ;mcc_generated_files/adc/src/adcc.c: 292:     {;mcc_generated_files/adc/src/adcc.c: 293:
      +                                   ADCC_ADI_InterruptHandler();
  3046   0004EE  D802               	call	i1u110_28
  3047   0004F0  EF83  F002         	goto	i1u110_29
  3048   0004F4                     i1u110_28:
  3049   0004F4  0005               	push	
  3050   0004F6  6EFA               	movwf	pclath,c
  3051   0004F8  51F4               	movf	_ADCC_ADI_InterruptHandler& (0+255),w,b
  3052   0004FA  6EFD               	movwf	tosl,c
  3053   0004FC  51F5               	movf	(_ADCC_ADI_InterruptHandler+1)& (0+255),w,b
  3054   0004FE  6EFE               	movwf	tosh,c
  3055   000500  6AFF               	clrf	tosu,c
  3056   000502  50FA               	movf	pclath,w,c
  3057   000504  0012               	return		;indir
  3058   000506                     i1u110_29:
  3059   000506                     i1l176:
  3060   000506  0060  F143  FFFB   	movff	??_ADCC_ISR+2,pclatu
  3061   00050C  0060  F13F  FFFA   	movff	??_ADCC_ISR+1,pclath
  3062   000512  0060  F13B  FFD8   	movff	??_ADCC_ISR,status
  3063   000518  0011               	retfie		f
  3064   00051A                     __end_of_ADCC_ISR:
  3065                           	callstack 0
  3066                           
  3067 ;; *************** function _ADCC_DefaultADI_ISR *****************
  3068 ;; Defined at:
  3069 ;;		line 302 in file "mcc_generated_files/adc/src/adcc.c"
  3070 ;; Parameters:    Size  Location     Type
  3071 ;;		None
  3072 ;; Auto vars:     Size  Location     Type
  3073 ;;		None
  3074 ;; Return value:  Size  Location     Type
  3075 ;;                  1    wreg      void 
  3076 ;; Registers used:
  3077 ;;		None
  3078 ;; Tracked objects:
  3079 ;;		On entry : 0/0
  3080 ;;		On exit  : 0/0
  3081 ;;		Unchanged: 0/0
  3082 ;; Data sizes:     COMRAM   BANK0   BANK1   BANK2   BANK3   BANK4   BANK5   BANK6   BANK7   BANK8   BANK9  BANK10  BANK1
      +1  BANK12  BANK13  BANK14  BANK15
  3083 ;;      Params:         0       0       0       0       0       0       0       0       0       0       0       0       
      +0       0       0       0       0
  3084 ;;      Locals:         0       0       0       0       0       0       0       0       0       0       0       0       
      +0       0       0       0       0
  3085 ;;      Temps:          0       0       0       0       0       0       0       0       0       0       0       0       
      +0       0       0       0       0
  3086 ;;      Totals:         0       0       0       0       0       0       0       0       0       0       0       0       
      +0       0       0       0       0
  3087 ;;Total ram usage:        0 bytes
  3088 ;; Hardware stack levels used: 1
  3089 ;; Hardware stack levels required when called: 3
  3090 ;; This function calls:
  3091 ;;		Nothing
  3092 ;; This function is called by:
  3093 ;;		_ADCC_Initialize
  3094 ;;		_ADCC_ISR
  3095 ;; This function uses a non-reentrant model
  3096 ;;
  3097                           
  3098                           	psect	text23
  3099   0009DA                     __ptext23:
  3100                           	callstack 0
  3101   0009DA                     _ADCC_DefaultADI_ISR:
  3102                           	callstack 23
  3103   0009DA  0012               	return		;funcret
  3104   0009DC                     __end_of_ADCC_DefaultADI_ISR:
  3105                           	callstack 0
  3106                           
  3107 ;; *************** function _ADC_int *****************
  3108 ;; Defined at:
  3109 ;;		line 10 in file "ADC_int.c"
  3110 ;; Parameters:    Size  Location     Type
  3111 ;;		None
  3112 ;; Auto vars:     Size  Location     Type
  3113 ;;		None
  3114 ;; Return value:  Size  Location     Type
  3115 ;;                  1    wreg      void 
  3116 ;; Registers used:
  3117 ;;		wreg, fsr2l, fsr2h, status,2, status,0, cstack
  3118 ;; Tracked objects:
  3119 ;;		On entry : 0/0
  3120 ;;		On exit  : 0/0
  3121 ;;		Unchanged: 0/0
  3122 ;; Data sizes:     COMRAM   BANK0   BANK1   BANK2   BANK3   BANK4   BANK5   BANK6   BANK7   BANK8   BANK9  BANK10  BANK1
      +1  BANK12  BANK13  BANK14  BANK15
  3123 ;;      Params:         0       0       0       0       0       0       0       0       0       0       0       0       
      +0       0       0       0       0
  3124 ;;      Locals:         0       0       0       0       0       0       0       0       0       0       0       0       
      +0       0       0       0       0
  3125 ;;      Temps:          2       0       0       0       0       0       0       0       0       0       0       0       
      +0       0       0       0       0
  3126 ;;      Totals:         2       0       0       0       0       0       0       0       0       0       0       0       
      +0       0       0       0       0
  3127 ;;Total ram usage:        2 bytes
  3128 ;; Hardware stack levels used: 1
  3129 ;; Hardware stack levels required when called: 4
  3130 ;; This function calls:
  3131 ;;		_ADCC_StartConversion
  3132 ;;		_SPI1_ByteWrite
  3133 ;;		_Timer2_Start
  3134 ;;		_UART1_Write
  3135 ;; This function is called by:
  3136 ;;		_main
  3137 ;;		_ADCC_ISR
  3138 ;; This function uses a non-reentrant model
  3139 ;;
  3140                           
  3141                           	psect	text24
  3142   0000B2                     __ptext24:
  3143                           	callstack 0
  3144   0000B2                     _ADC_int:
  3145                           	callstack 22
  3146   0000B2                     
  3147                           ;ADC_int.c: 13:     if(ADPCH == 0)
  3148   0000B2  013E               	movlb	62	; () banked
  3149   0000B4  51F1               	movf	241,w,b	;volatile
  3150   0000B6  A4D8               	btfss	status,2,c
  3151   0000B8  EF60  F000         	goto	i1u62_21
  3152   0000BC  EF62  F000         	goto	i1u62_20
  3153   0000C0                     i1u62_21:
  3154   0000C0  EFA1  F000         	goto	i1l1087
  3155   0000C4                     i1u62_20:
  3156   0000C4                     
  3157                           ; BSR set to: 62
  3158                           ;ADC_int.c: 14:     {;ADC_int.c: 16:         LATEbits.LATE0 = 0;
  3159   0000C4  90BE               	bcf	190,0,c	;volatile
  3160   0000C6                     
  3161                           ; BSR set to: 62
  3162                           ;ADC_int.c: 18:         ADCC_StartConversion(channel_ANA1);
  3163   0000C6  0E01               	movlw	1
  3164   0000C8  ECAC  F004         	call	_ADCC_StartConversion
  3165   0000CC                     
  3166                           ;ADC_int.c: 21:         Timer2_Start();
  3167   0000CC  ECE9  F004         	call	_Timer2_Start	;wreg free
  3168   0000D0                     
  3169                           ;ADC_int.c: 22:         SPI1_ByteWrite(0b00110000 | ADRESH);
  3170   0000D0  013E               	movlb	62	; () banked
  3171   0000D2  51F0               	movf	240,w,b	;volatile
  3172   0000D4  0930               	iorlw	48
  3173   0000D6  ECD8  F004         	call	_SPI1_ByteWrite
  3174   0000DA                     
  3175                           ;ADC_int.c: 23:         SPI1_ByteWrite(ADRESL);
  3176   0000DA  013E               	movlb	62	; () banked
  3177   0000DC  51EF               	movf	239,w,b	;volatile
  3178   0000DE  ECD8  F004         	call	_SPI1_ByteWrite
  3179   0000E2                     
  3180                           ;ADC_int.c: 26:         UART1_Write(char_hex[ADRESH & 0b1111]);
  3181   0000E2  013E               	movlb	62	; () banked
  3182   0000E4  51F0               	movf	240,w,b	;volatile
  3183   0000E6  0B0F               	andlw	15
  3184   0000E8  6E4C               	movwf	??_ADC_int^0,c
  3185   0000EA  6A4D               	clrf	(??_ADC_int+1)^0,c
  3186   0000EC  0ED8               	movlw	low _char_hex
  3187   0000EE  244C               	addwf	??_ADC_int^0,w,c
  3188   0000F0  6ED9               	movwf	fsr2l,c
  3189   0000F2  0E00               	movlw	high _char_hex
  3190   0000F4  204D               	addwfc	(??_ADC_int+1)^0,w,c
  3191   0000F6  6EDA               	movwf	fsr2h,c
  3192   0000F8  50DF               	movf	indf2,w,c
  3193   0000FA  ECB8  F002         	call	_UART1_Write
  3194   0000FE                     
  3195                           ;ADC_int.c: 27:         UART1_Write(char_hex[(ADRESL >> 4) & 0b1111]);
  3196   0000FE  013E               	movlb	62	; () banked
  3197   000100  39EF               	swapf	239,w,b	;volatile
  3198   000102  0B0F               	andlw	15
  3199   000104  0B0F               	andlw	15
  3200   000106  6E4C               	movwf	??_ADC_int^0,c
  3201   000108  6A4D               	clrf	(??_ADC_int+1)^0,c
  3202   00010A  0ED8               	movlw	low _char_hex
  3203   00010C  244C               	addwf	??_ADC_int^0,w,c
  3204   00010E  6ED9               	movwf	fsr2l,c
  3205   000110  0E00               	movlw	high _char_hex
  3206   000112  204D               	addwfc	(??_ADC_int+1)^0,w,c
  3207   000114  6EDA               	movwf	fsr2h,c
  3208   000116  50DF               	movf	indf2,w,c
  3209   000118  ECB8  F002         	call	_UART1_Write
  3210   00011C                     
  3211                           ;ADC_int.c: 28:         UART1_Write(char_hex[ADRESL & 0b1111]);
  3212   00011C  013E               	movlb	62	; () banked
  3213   00011E  51EF               	movf	239,w,b	;volatile
  3214   000120  0B0F               	andlw	15
  3215   000122  6E4C               	movwf	??_ADC_int^0,c
  3216   000124  6A4D               	clrf	(??_ADC_int+1)^0,c
  3217   000126  0ED8               	movlw	low _char_hex
  3218   000128  244C               	addwf	??_ADC_int^0,w,c
  3219   00012A  6ED9               	movwf	fsr2l,c
  3220   00012C  0E00               	movlw	high _char_hex
  3221   00012E  204D               	addwfc	(??_ADC_int+1)^0,w,c
  3222   000130  6EDA               	movwf	fsr2h,c
  3223   000132  50DF               	movf	indf2,w,c
  3224   000134  ECB8  F002         	call	_UART1_Write
  3225   000138                     
  3226                           ;ADC_int.c: 29:         UART1_Write(',');
  3227   000138  0E2C               	movlw	44
  3228   00013A  ECB8  F002         	call	_UART1_Write
  3229                           
  3230                           ;ADC_int.c: 31:     }
  3231   00013E  EFDB  F000         	goto	i1l1089
  3232   000142                     i1l1087:
  3233                           
  3234                           ; BSR set to: 62
  3235                           ;ADC_int.c: 33:     {;ADC_int.c: 36:         LATEbits.LATE0 = 0;
  3236   000142  90BE               	bcf	190,0,c	;volatile
  3237   000144                     
  3238                           ; BSR set to: 62
  3239                           ;ADC_int.c: 38:         Timer2_Start();
  3240   000144  ECE9  F004         	call	_Timer2_Start	;wreg free
  3241   000148                     
  3242                           ;ADC_int.c: 40:         SPI1_ByteWrite(0b10110000 | ADRESH);
  3243   000148  013E               	movlb	62	; () banked
  3244   00014A  51F0               	movf	240,w,b	;volatile
  3245   00014C  09B0               	iorlw	176
  3246   00014E  ECD8  F004         	call	_SPI1_ByteWrite
  3247   000152                     
  3248                           ;ADC_int.c: 41:         SPI1_ByteWrite(ADRESL);
  3249   000152  013E               	movlb	62	; () banked
  3250   000154  51EF               	movf	239,w,b	;volatile
  3251   000156  ECD8  F004         	call	_SPI1_ByteWrite
  3252   00015A                     
  3253                           ;ADC_int.c: 44:         UART1_Write(char_hex[ADRESH & 0b1111]);
  3254   00015A  013E               	movlb	62	; () banked
  3255   00015C  51F0               	movf	240,w,b	;volatile
  3256   00015E  0B0F               	andlw	15
  3257   000160  6E4C               	movwf	??_ADC_int^0,c
  3258   000162  6A4D               	clrf	(??_ADC_int+1)^0,c
  3259   000164  0ED8               	movlw	low _char_hex
  3260   000166  244C               	addwf	??_ADC_int^0,w,c
  3261   000168  6ED9               	movwf	fsr2l,c
  3262   00016A  0E00               	movlw	high _char_hex
  3263   00016C  204D               	addwfc	(??_ADC_int+1)^0,w,c
  3264   00016E  6EDA               	movwf	fsr2h,c
  3265   000170  50DF               	movf	indf2,w,c
  3266   000172  ECB8  F002         	call	_UART1_Write
  3267   000176                     
  3268                           ;ADC_int.c: 45:         UART1_Write(char_hex[(ADRESL >> 4) & 0b1111]);
  3269   000176  013E               	movlb	62	; () banked
  3270   000178  39EF               	swapf	239,w,b	;volatile
  3271   00017A  0B0F               	andlw	15
  3272   00017C  0B0F               	andlw	15
  3273   00017E  6E4C               	movwf	??_ADC_int^0,c
  3274   000180  6A4D               	clrf	(??_ADC_int+1)^0,c
  3275   000182  0ED8               	movlw	low _char_hex
  3276   000184  244C               	addwf	??_ADC_int^0,w,c
  3277   000186  6ED9               	movwf	fsr2l,c
  3278   000188  0E00               	movlw	high _char_hex
  3279   00018A  204D               	addwfc	(??_ADC_int+1)^0,w,c
  3280   00018C  6EDA               	movwf	fsr2h,c
  3281   00018E  50DF               	movf	indf2,w,c
  3282   000190  ECB8  F002         	call	_UART1_Write
  3283   000194                     
  3284                           ;ADC_int.c: 46:         UART1_Write(char_hex[ADRESL & 0b1111]);
  3285   000194  013E               	movlb	62	; () banked
  3286   000196  51EF               	movf	239,w,b	;volatile
  3287   000198  0B0F               	andlw	15
  3288   00019A  6E4C               	movwf	??_ADC_int^0,c
  3289   00019C  6A4D               	clrf	(??_ADC_int+1)^0,c
  3290   00019E  0ED8               	movlw	low _char_hex
  3291   0001A0  244C               	addwf	??_ADC_int^0,w,c
  3292   0001A2  6ED9               	movwf	fsr2l,c
  3293   0001A4  0E00               	movlw	high _char_hex
  3294   0001A6  204D               	addwfc	(??_ADC_int+1)^0,w,c
  3295   0001A8  6EDA               	movwf	fsr2h,c
  3296   0001AA  50DF               	movf	indf2,w,c
  3297   0001AC  ECB8  F002         	call	_UART1_Write
  3298   0001B0                     
  3299                           ;ADC_int.c: 48:         UART1_Write('\n');
  3300   0001B0  0E0A               	movlw	10
  3301   0001B2  ECB8  F002         	call	_UART1_Write
  3302   0001B6                     i1l1089:
  3303   0001B6  0012               	return		;funcret
  3304   0001B8                     __end_of_ADC_int:
  3305                           	callstack 0
  3306                           
  3307 ;; *************** function _UART1_Write *****************
  3308 ;; Defined at:
  3309 ;;		line 359 in file "mcc_generated_files/uart/src/uart1.c"
  3310 ;; Parameters:    Size  Location     Type
  3311 ;;  txData          1    wreg     unsigned char 
  3312 ;; Auto vars:     Size  Location     Type
  3313 ;;  txData          1    7[COMRAM] unsigned char 
  3314 ;;  tempTxHead      1    6[COMRAM] unsigned char 
  3315 ;; Return value:  Size  Location     Type
  3316 ;;                  1    wreg      void 
  3317 ;; Registers used:
  3318 ;;		wreg, fsr2l, fsr2h, status,2, status,0
  3319 ;; Tracked objects:
  3320 ;;		On entry : 0/0
  3321 ;;		On exit  : 0/0
  3322 ;;		Unchanged: 0/0
  3323 ;; Data sizes:     COMRAM   BANK0   BANK1   BANK2   BANK3   BANK4   BANK5   BANK6   BANK7   BANK8   BANK9  BANK10  BANK1
      +1  BANK12  BANK13  BANK14  BANK15
  3324 ;;      Params:         0       0       0       0       0       0       0       0       0       0       0       0       
      +0       0       0       0       0
  3325 ;;      Locals:         2       0       0       0       0       0       0       0       0       0       0       0       
      +0       0       0       0       0
  3326 ;;      Temps:          0       0       0       0       0       0       0       0       0       0       0       0       
      +0       0       0       0       0
  3327 ;;      Totals:         2       0       0       0       0       0       0       0       0       0       0       0       
      +0       0       0       0       0
  3328 ;;Total ram usage:        2 bytes
  3329 ;; Hardware stack levels used: 1
  3330 ;; Hardware stack levels required when called: 3
  3331 ;; This function calls:
  3332 ;;		Nothing
  3333 ;; This function is called by:
  3334 ;;		_ADC_int
  3335 ;; This function uses a non-reentrant model
  3336 ;;
  3337                           
  3338                           	psect	text25
  3339   000570                     __ptext25:
  3340                           	callstack 0
  3341   000570                     _UART1_Write:
  3342                           	callstack 22
  3343                           
  3344                           ;incstack = 0
  3345                           ;UART1_Write@txData stored from wreg
  3346   000570  6E4B               	movwf	UART1_Write@txData^0,c
  3347   000572                     
  3348                           ;mcc_generated_files/uart/src/uart1.c: 360:     uint8_t tempTxHead;;mcc_generated_files/
      +                          uart/src/uart1.c: 362:     if (0 == PIE3bits.U1TXIE)
  3349   000572  0139               	movlb	57	; () banked
  3350   000574  B993               	btfsc	147,4,b	;volatile
  3351   000576  EFBF  F002         	goto	i1u58_21
  3352   00057A  EFC1  F002         	goto	i1u58_20
  3353   00057E                     i1u58_21:
  3354   00057E  EFC6  F002         	goto	i1l2944
  3355   000582                     i1u58_20:
  3356   000582                     
  3357                           ; BSR set to: 57
  3358                           ;mcc_generated_files/uart/src/uart1.c: 363:     {;mcc_generated_files/uart/src/uart1.c: 
      +                          364:         U1TXB = txData;
  3359   000582  0060  F12F  FDEA   	movff	UART1_Write@txData,15850	;volatile
  3360                           
  3361                           ;mcc_generated_files/uart/src/uart1.c: 365:     } else if (uart1TxBufferRemaining)
  3362   000588  EFDE  F002         	goto	i1l986
  3363   00058C                     i1l2944:
  3364                           
  3365                           ; BSR set to: 57
  3366   00058C  502B               	movf	_uart1TxBufferRemaining^0,w,c	;volatile
  3367   00058E  B4D8               	btfsc	status,2,c
  3368   000590  EFCC  F002         	goto	i1u59_21
  3369   000594  EFCE  F002         	goto	i1u59_20
  3370   000598                     i1u59_21:
  3371   000598  EFDE  F002         	goto	i1l986
  3372   00059C                     i1u59_20:
  3373   00059C                     
  3374                           ; BSR set to: 57
  3375                           ;mcc_generated_files/uart/src/uart1.c: 366:     {;mcc_generated_files/uart/src/uart1.c: 
      +                          367:         uart1TxBuffer[uart1TxHead] = txData;
  3376   00059C  0E70               	movlw	low _uart1TxBuffer
  3377   00059E  242D               	addwf	_uart1TxHead^0,w,c	;volatile
  3378   0005A0  6ED9               	movwf	fsr2l,c
  3379   0005A2  6ADA               	clrf	fsr2h,c
  3380   0005A4  0E00               	movlw	high _uart1TxBuffer
  3381   0005A6  22DA               	addwfc	fsr2h,f,c
  3382   0005A8  0060  F12F  FFDF   	movff	UART1_Write@txData,indf2
  3383   0005AE                     
  3384                           ; BSR set to: 57
  3385                           ;mcc_generated_files/uart/src/uart1.c: 369:         tempTxHead = (uart1TxHead + 1) & ((1
      +                          6) - 1);
  3386   0005AE  282D               	incf	_uart1TxHead^0,w,c	;volatile
  3387   0005B0  0B0F               	andlw	15
  3388   0005B2  6E4A               	movwf	UART1_Write@tempTxHead^0,c
  3389   0005B4                     
  3390                           ; BSR set to: 57
  3391                           ;mcc_generated_files/uart/src/uart1.c: 371:         uart1TxHead = tempTxHead;
  3392   0005B4  C04A  F02D         	movff	UART1_Write@tempTxHead,_uart1TxHead	;volatile
  3393   0005B8                     
  3394                           ; BSR set to: 57
  3395                           ;mcc_generated_files/uart/src/uart1.c: 372:         PIE3bits.U1TXIE = 0;
  3396   0005B8  9993               	bcf	147,4,b	;volatile
  3397   0005BA                     
  3398                           ; BSR set to: 57
  3399                           ;mcc_generated_files/uart/src/uart1.c: 373:         uart1TxBufferRemaining--;
  3400   0005BA  062B               	decf	_uart1TxBufferRemaining^0,f,c	;volatile
  3401   0005BC                     i1l986:
  3402                           
  3403                           ; BSR set to: 57
  3404                           ;mcc_generated_files/uart/src/uart1.c: 377:     PIE3bits.U1TXIE = 1;
  3405   0005BC  8993               	bsf	147,4,b	;volatile
  3406   0005BE                     
  3407                           ; BSR set to: 57
  3408   0005BE  0012               	return		;funcret
  3409   0005C0                     __end_of_UART1_Write:
  3410                           	callstack 0
  3411                           
  3412 ;; *************** function _Timer2_Start *****************
  3413 ;; Defined at:
  3414 ;;		line 93 in file "mcc_generated_files/timer/src/tmr2.c"
  3415 ;; Parameters:    Size  Location     Type
  3416 ;;		None
  3417 ;; Auto vars:     Size  Location     Type
  3418 ;;		None
  3419 ;; Return value:  Size  Location     Type
  3420 ;;                  1    wreg      void 
  3421 ;; Registers used:
  3422 ;;		None
  3423 ;; Tracked objects:
  3424 ;;		On entry : 0/0
  3425 ;;		On exit  : 0/0
  3426 ;;		Unchanged: 0/0
  3427 ;; Data sizes:     COMRAM   BANK0   BANK1   BANK2   BANK3   BANK4   BANK5   BANK6   BANK7   BANK8   BANK9  BANK10  BANK1
      +1  BANK12  BANK13  BANK14  BANK15
  3428 ;;      Params:         0       0       0       0       0       0       0       0       0       0       0       0       
      +0       0       0       0       0
  3429 ;;      Locals:         0       0       0       0       0       0       0       0       0       0       0       0       
      +0       0       0       0       0
  3430 ;;      Temps:          0       0       0       0       0       0       0       0       0       0       0       0       
      +0       0       0       0       0
  3431 ;;      Totals:         0       0       0       0       0       0       0       0       0       0       0       0       
      +0       0       0       0       0
  3432 ;;Total ram usage:        0 bytes
  3433 ;; Hardware stack levels used: 1
  3434 ;; Hardware stack levels required when called: 3
  3435 ;; This function calls:
  3436 ;;		Nothing
  3437 ;; This function is called by:
  3438 ;;		_ADC_int
  3439 ;; This function uses a non-reentrant model
  3440 ;;
  3441                           
  3442                           	psect	text26
  3443   0009D2                     __ptext26:
  3444                           	callstack 0
  3445   0009D2                     _Timer2_Start:
  3446                           	callstack 22
  3447   0009D2                     
  3448                           ;mcc_generated_files/timer/src/tmr2.c: 95:     T2CONbits.TMR2ON = 1;
  3449   0009D2  8EAC               	bsf	172,7,c	;volatile
  3450   0009D4  0012               	return		;funcret
  3451   0009D6                     __end_of_Timer2_Start:
  3452                           	callstack 0
  3453                           
  3454 ;; *************** function _SPI1_ByteWrite *****************
  3455 ;; Defined at:
  3456 ;;		line 145 in file "mcc_generated_files/spi/src/spi1.c"
  3457 ;; Parameters:    Size  Location     Type
  3458 ;;  byte            1    wreg     unsigned char 
  3459 ;; Auto vars:     Size  Location     Type
  3460 ;;  byte            1    6[COMRAM] unsigned char 
  3461 ;; Return value:  Size  Location     Type
  3462 ;;                  1    wreg      void 
  3463 ;; Registers used:
  3464 ;;		wreg
  3465 ;; Tracked objects:
  3466 ;;		On entry : 0/0
  3467 ;;		On exit  : 0/0
  3468 ;;		Unchanged: 0/0
  3469 ;; Data sizes:     COMRAM   BANK0   BANK1   BANK2   BANK3   BANK4   BANK5   BANK6   BANK7   BANK8   BANK9  BANK10  BANK1
      +1  BANK12  BANK13  BANK14  BANK15
  3470 ;;      Params:         0       0       0       0       0       0       0       0       0       0       0       0       
      +0       0       0       0       0
  3471 ;;      Locals:         1       0       0       0       0       0       0       0       0       0       0       0       
      +0       0       0       0       0
  3472 ;;      Temps:          0       0       0       0       0       0       0       0       0       0       0       0       
      +0       0       0       0       0
  3473 ;;      Totals:         1       0       0       0       0       0       0       0       0       0       0       0       
      +0       0       0       0       0
  3474 ;;Total ram usage:        1 bytes
  3475 ;; Hardware stack levels used: 1
  3476 ;; Hardware stack levels required when called: 3
  3477 ;; This function calls:
  3478 ;;		Nothing
  3479 ;; This function is called by:
  3480 ;;		_ADC_int
  3481 ;;		_SPI1_WriteByte
  3482 ;; This function uses a non-reentrant model
  3483 ;;
  3484                           
  3485                           	psect	text27
  3486   0009B0                     __ptext27:
  3487                           	callstack 0
  3488   0009B0                     _SPI1_ByteWrite:
  3489                           	callstack 22
  3490                           
  3491                           ;incstack = 0
  3492                           ;SPI1_ByteWrite@byte stored from wreg
  3493   0009B0  6E4A               	movwf	SPI1_ByteWrite@byte^0,c
  3494   0009B2                     
  3495                           ;mcc_generated_files/spi/src/spi1.c: 145: void SPI1_ByteWrite(uint8_t byte);mcc_generate
      +                          d_files/spi/src/spi1.c: 146: {;mcc_generated_files/spi/src/spi1.c: 147:     SPI1TXB = by
      +                          te;
  3496   0009B2  0060  F12B  FD11   	movff	SPI1_ByteWrite@byte,15633	;volatile
  3497   0009B8  0012               	return		;funcret
  3498   0009BA                     __end_of_SPI1_ByteWrite:
  3499                           	callstack 0
  3500                           
  3501 ;; *************** function _ADCC_StartConversion *****************
  3502 ;; Defined at:
  3503 ;;		line 106 in file "mcc_generated_files/adc/src/adcc.c"
  3504 ;; Parameters:    Size  Location     Type
  3505 ;;  channel         1    wreg     enum E15846
  3506 ;; Auto vars:     Size  Location     Type
  3507 ;;  channel         1    6[COMRAM] enum E15846
  3508 ;; Return value:  Size  Location     Type
  3509 ;;                  1    wreg      void 
  3510 ;; Registers used:
  3511 ;;		wreg
  3512 ;; Tracked objects:
  3513 ;;		On entry : 0/0
  3514 ;;		On exit  : 0/0
  3515 ;;		Unchanged: 0/0
  3516 ;; Data sizes:     COMRAM   BANK0   BANK1   BANK2   BANK3   BANK4   BANK5   BANK6   BANK7   BANK8   BANK9  BANK10  BANK1
      +1  BANK12  BANK13  BANK14  BANK15
  3517 ;;      Params:         0       0       0       0       0       0       0       0       0       0       0       0       
      +0       0       0       0       0
  3518 ;;      Locals:         1       0       0       0       0       0       0       0       0       0       0       0       
      +0       0       0       0       0
  3519 ;;      Temps:          0       0       0       0       0       0       0       0       0       0       0       0       
      +0       0       0       0       0
  3520 ;;      Totals:         1       0       0       0       0       0       0       0       0       0       0       0       
      +0       0       0       0       0
  3521 ;;Total ram usage:        1 bytes
  3522 ;; Hardware stack levels used: 1
  3523 ;; Hardware stack levels required when called: 3
  3524 ;; This function calls:
  3525 ;;		Nothing
  3526 ;; This function is called by:
  3527 ;;		_ADC_int
  3528 ;; This function uses a non-reentrant model
  3529 ;;
  3530                           
  3531                           	psect	text28
  3532   000958                     __ptext28:
  3533                           	callstack 0
  3534   000958                     _ADCC_StartConversion:
  3535                           	callstack 22
  3536                           
  3537                           ;incstack = 0
  3538                           ;ADCC_StartConversion@channel stored from wreg
  3539   000958  6E4A               	movwf	ADCC_StartConversion@channel^0,c
  3540   00095A                     
  3541                           ;mcc_generated_files/adc/src/adcc.c: 106: void ADCC_StartConversion(adcc_channel_t chann
      +                          el);mcc_generated_files/adc/src/adcc.c: 107: {;mcc_generated_files/adc/src/adcc.c: 109: 
      +                              ADPCH = channel;
  3542   00095A  0060  F12B  FEF1   	movff	ADCC_StartConversion@channel,16113	;volatile
  3543   000960                     
  3544                           ;mcc_generated_files/adc/src/adcc.c: 112:     ADCON0bits.ADGO = 1;
  3545   000960  013E               	movlb	62	; () banked
  3546   000962  81F8               	bsf	248,0,b	;volatile
  3547   000964                     
  3548                           ; BSR set to: 62
  3549   000964  0012               	return		;funcret
  3550   000966                     __end_of_ADCC_StartConversion:
  3551                           	callstack 0
  3552                           
  3553 ;; *************** function _IOC_ISR *****************
  3554 ;; Defined at:
  3555 ;;		line 99 in file "mcc_generated_files/system/src/interrupt.c"
  3556 ;; Parameters:    Size  Location     Type
  3557 ;;		None
  3558 ;; Auto vars:     Size  Location     Type
  3559 ;;		None
  3560 ;; Return value:  Size  Location     Type
  3561 ;;                  1    wreg      void 
  3562 ;; Registers used:
  3563 ;;		cstack
  3564 ;; Tracked objects:
  3565 ;;		On entry : 0/0
  3566 ;;		On exit  : 0/0
  3567 ;;		Unchanged: 0/0
  3568 ;; Data sizes:     COMRAM   BANK0   BANK1   BANK2   BANK3   BANK4   BANK5   BANK6   BANK7   BANK8   BANK9  BANK10  BANK1
      +1  BANK12  BANK13  BANK14  BANK15
  3569 ;;      Params:         0       0       0       0       0       0       0       0       0       0       0       0       
      +0       0       0       0       0
  3570 ;;      Locals:         0       0       0       0       0       0       0       0       0       0       0       0       
      +0       0       0       0       0
  3571 ;;      Temps:          0       0       0       0       0       0       0       0       0       0       0       0       
      +0       0       0       0       0
  3572 ;;      Totals:         0       0       0       0       0       0       0       0       0       0       0       0       
      +0       0       0       0       0
  3573 ;;Total ram usage:        0 bytes
  3574 ;; Hardware stack levels used: 1
  3575 ;; Hardware stack levels required when called: 4
  3576 ;; This function calls:
  3577 ;;		_PIN_MANAGER_IOC
  3578 ;; This function is called by:
  3579 ;;		Interrupt level 1
  3580 ;; This function uses a non-reentrant model
  3581 ;;
  3582                           
  3583                           	psect	text29
  3584   0009C4                     __ptext29:
  3585                           	callstack 0
  3586   0009C4                     _IOC_ISR:
  3587                           	callstack 23
  3588   0009C4                     
  3589                           ;mcc_generated_files/system/src/interrupt.c: 101:     PIN_MANAGER_IOC();
  3590   0009C4  ECEE  F004         	call	_PIN_MANAGER_IOC	;wreg free
  3591   0009C8  0011               	retfie		f
  3592   0009CA                     __end_of_IOC_ISR:
  3593                           	callstack 0
  3594                           
  3595 ;; *************** function _PIN_MANAGER_IOC *****************
  3596 ;; Defined at:
  3597 ;;		line 141 in file "mcc_generated_files/system/src/pins.c"
  3598 ;; Parameters:    Size  Location     Type
  3599 ;;		None
  3600 ;; Auto vars:     Size  Location     Type
  3601 ;;		None
  3602 ;; Return value:  Size  Location     Type
  3603 ;;                  1    wreg      void 
  3604 ;; Registers used:
  3605 ;;		None
  3606 ;; Tracked objects:
  3607 ;;		On entry : 0/0
  3608 ;;		On exit  : 0/0
  3609 ;;		Unchanged: 0/0
  3610 ;; Data sizes:     COMRAM   BANK0   BANK1   BANK2   BANK3   BANK4   BANK5   BANK6   BANK7   BANK8   BANK9  BANK10  BANK1
      +1  BANK12  BANK13  BANK14  BANK15
  3611 ;;      Params:         0       0       0       0       0       0       0       0       0       0       0       0       
      +0       0       0       0       0
  3612 ;;      Locals:         0       0       0       0       0       0       0       0       0       0       0       0       
      +0       0       0       0       0
  3613 ;;      Temps:          0       0       0       0       0       0       0       0       0       0       0       0       
      +0       0       0       0       0
  3614 ;;      Totals:         0       0       0       0       0       0       0       0       0       0       0       0       
      +0       0       0       0       0
  3615 ;;Total ram usage:        0 bytes
  3616 ;; Hardware stack levels used: 1
  3617 ;; Hardware stack levels required when called: 3
  3618 ;; This function calls:
  3619 ;;		Nothing
  3620 ;; This function is called by:
  3621 ;;		_IOC_ISR
  3622 ;; This function uses a non-reentrant model
  3623 ;;
  3624                           
  3625                           	psect	text30
  3626   0009DC                     __ptext30:
  3627                           	callstack 0
  3628   0009DC                     _PIN_MANAGER_IOC:
  3629                           	callstack 23
  3630   0009DC  0012               	return		;funcret
  3631   0009DE                     __end_of_PIN_MANAGER_IOC:
  3632                           	callstack 0
  3633                           
  3634 ;; *************** function _INT0_ISR *****************
  3635 ;; Defined at:
  3636 ;;		line 112 in file "mcc_generated_files/system/src/interrupt.c"
  3637 ;; Parameters:    Size  Location     Type
  3638 ;;		None
  3639 ;; Auto vars:     Size  Location     Type
  3640 ;;		None
  3641 ;; Return value:  Size  Location     Type
  3642 ;;                  1    wreg      void 
  3643 ;; Registers used:
  3644 ;;		wreg, status,2, status,0, pcl, pclath, pclatu, tosl, cstack
  3645 ;; Tracked objects:
  3646 ;;		On entry : 0/0
  3647 ;;		On exit  : 0/0
  3648 ;;		Unchanged: 0/0
  3649 ;; Data sizes:     COMRAM   BANK0   BANK1   BANK2   BANK3   BANK4   BANK5   BANK6   BANK7   BANK8   BANK9  BANK10  BANK1
      +1  BANK12  BANK13  BANK14  BANK15
  3650 ;;      Params:         0       0       0       0       0       0       0       0       0       0       0       0       
      +0       0       0       0       0
  3651 ;;      Locals:         0       0       0       0       0       0       0       0       0       0       0       0       
      +0       0       0       0       0
  3652 ;;      Temps:          0       3       0       0       0       0       0       0       0       0       0       0       
      +0       0       0       0       0
  3653 ;;      Totals:         0       3       0       0       0       0       0       0       0       0       0       0       
      +0       0       0       0       0
  3654 ;;Total ram usage:        3 bytes
  3655 ;; Hardware stack levels used: 1
  3656 ;; Hardware stack levels required when called: 5
  3657 ;; This function calls:
  3658 ;;		_INT0_CallBack
  3659 ;; This function is called by:
  3660 ;;		Interrupt level 1
  3661 ;; This function uses a non-reentrant model
  3662 ;;
  3663                           
  3664                           	psect	text31
  3665   000700                     __ptext31:
  3666                           	callstack 0
  3667   000700                     _INT0_ISR:
  3668                           	callstack 22
  3669                           
  3670                           ;incstack = 0
  3671   000700  006F FF60  F0F6    	movff	status,??_INT0_ISR
  3672   000706  006F FFE8  F0F7    	movff	pclath,??_INT0_ISR+1
  3673   00070C  006F FFEC  F0F8    	movff	pclatu,??_INT0_ISR+2
  3674   000712                     
  3675                           ;mcc_generated_files/system/src/interrupt.c: 114:     (PIR1bits.INT0IF = 0);
  3676   000712  0139               	movlb	57	; () banked
  3677   000714  91A1               	bcf	161,0,b	;volatile
  3678   000716                     
  3679                           ; BSR set to: 57
  3680                           ;mcc_generated_files/system/src/interrupt.c: 117:     INT0_CallBack();
  3681   000716  ECC7  F003         	call	_INT0_CallBack	;wreg free
  3682   00071A  0060  F3E3  FFFB   	movff	??_INT0_ISR+2,pclatu
  3683   000720  0060  F3DF  FFFA   	movff	??_INT0_ISR+1,pclath
  3684   000726  0060  F3DB  FFD8   	movff	??_INT0_ISR,status
  3685   00072C  0011               	retfie		f
  3686   00072E                     __end_of_INT0_ISR:
  3687                           	callstack 0
  3688                           
  3689 ;; *************** function _INT0_CallBack *****************
  3690 ;; Defined at:
  3691 ;;		line 121 in file "mcc_generated_files/system/src/interrupt.c"
  3692 ;; Parameters:    Size  Location     Type
  3693 ;;		None
  3694 ;; Auto vars:     Size  Location     Type
  3695 ;;		None
  3696 ;; Return value:  Size  Location     Type
  3697 ;;                  1    wreg      void 
  3698 ;; Registers used:
  3699 ;;		wreg, status,2, status,0, pcl, pclath, pclatu, tosl, cstack
  3700 ;; Tracked objects:
  3701 ;;		On entry : 0/0
  3702 ;;		On exit  : 0/0
  3703 ;;		Unchanged: 0/0
  3704 ;; Data sizes:     COMRAM   BANK0   BANK1   BANK2   BANK3   BANK4   BANK5   BANK6   BANK7   BANK8   BANK9  BANK10  BANK1
      +1  BANK12  BANK13  BANK14  BANK15
  3705 ;;      Params:         0       0       0       0       0       0       0       0       0       0       0       0       
      +0       0       0       0       0
  3706 ;;      Locals:         0       0       0       0       0       0       0       0       0       0       0       0       
      +0       0       0       0       0
  3707 ;;      Temps:          0       0       0       0       0       0       0       0       0       0       0       0       
      +0       0       0       0       0
  3708 ;;      Totals:         0       0       0       0       0       0       0       0       0       0       0       0       
      +0       0       0       0       0
  3709 ;;Total ram usage:        0 bytes
  3710 ;; Hardware stack levels used: 1
  3711 ;; Hardware stack levels required when called: 4
  3712 ;; This function calls:
  3713 ;;		Absolute function
  3714 ;;		_INT0_DefaultInterruptHandler
  3715 ;; This function is called by:
  3716 ;;		_INT0_ISR
  3717 ;; This function uses a non-reentrant model
  3718 ;;
  3719                           
  3720                           	psect	text32
  3721   00078E                     __ptext32:
  3722                           	callstack 0
  3723   00078E                     _INT0_CallBack:
  3724                           	callstack 22
  3725   00078E                     
  3726                           ;mcc_generated_files/system/src/interrupt.c: 124:     if(INT0_InterruptHandler)
  3727   00078E  5023               	movf	_INT0_InterruptHandler^0,w,c
  3728   000790  1024               	iorwf	(_INT0_InterruptHandler+1)^0,w,c
  3729   000792  B4D8               	btfsc	status,2,c
  3730   000794  EFCE  F003         	goto	i1u13_21
  3731   000798  EFD0  F003         	goto	i1u13_20
  3732   00079C                     i1u13_21:
  3733   00079C  EFDC  F003         	goto	i1l570
  3734   0007A0                     i1u13_20:
  3735   0007A0                     
  3736                           ;mcc_generated_files/system/src/interrupt.c: 125:     {;mcc_generated_files/system/src/i
      +                          nterrupt.c: 126:         INT0_InterruptHandler();
  3737   0007A0  D802               	call	i1u14_28
  3738   0007A2  EFDC  F003         	goto	i1u14_29
  3739   0007A6                     i1u14_28:
  3740   0007A6  0005               	push	
  3741   0007A8  6EFA               	movwf	pclath,c
  3742   0007AA  5023               	movf	_INT0_InterruptHandler^0,w,c
  3743   0007AC  6EFD               	movwf	tosl,c
  3744   0007AE  5024               	movf	(_INT0_InterruptHandler+1)^0,w,c
  3745   0007B0  6EFE               	movwf	tosh,c
  3746   0007B2  6AFF               	clrf	tosu,c
  3747   0007B4  50FA               	movf	pclath,w,c
  3748   0007B6  0012               	return		;indir
  3749   0007B8                     i1u14_29:
  3750   0007B8                     i1l570:
  3751   0007B8  0012               	return		;funcret
  3752   0007BA                     __end_of_INT0_CallBack:
  3753                           	callstack 0
  3754                           
  3755 ;; *************** function _INT0_DefaultInterruptHandler *****************
  3756 ;; Defined at:
  3757 ;;		line 134 in file "mcc_generated_files/system/src/interrupt.c"
  3758 ;; Parameters:    Size  Location     Type
  3759 ;;		None
  3760 ;; Auto vars:     Size  Location     Type
  3761 ;;		None
  3762 ;; Return value:  Size  Location     Type
  3763 ;;                  1    wreg      void 
  3764 ;; Registers used:
  3765 ;;		None
  3766 ;; Tracked objects:
  3767 ;;		On entry : 0/0
  3768 ;;		On exit  : 0/0
  3769 ;;		Unchanged: 0/0
  3770 ;; Data sizes:     COMRAM   BANK0   BANK1   BANK2   BANK3   BANK4   BANK5   BANK6   BANK7   BANK8   BANK9  BANK10  BANK1
      +1  BANK12  BANK13  BANK14  BANK15
  3771 ;;      Params:         0       0       0       0       0       0       0       0       0       0       0       0       
      +0       0       0       0       0
  3772 ;;      Locals:         0       0       0       0       0       0       0       0       0       0       0       0       
      +0       0       0       0       0
  3773 ;;      Temps:          0       0       0       0       0       0       0       0       0       0       0       0       
      +0       0       0       0       0
  3774 ;;      Totals:         0       0       0       0       0       0       0       0       0       0       0       0       
      +0       0       0       0       0
  3775 ;;Total ram usage:        0 bytes
  3776 ;; Hardware stack levels used: 1
  3777 ;; Hardware stack levels required when called: 3
  3778 ;; This function calls:
  3779 ;;		Nothing
  3780 ;; This function is called by:
  3781 ;;		_INTERRUPT_Initialize
  3782 ;;		_INT0_CallBack
  3783 ;; This function uses a non-reentrant model
  3784 ;;
  3785                           
  3786                           	psect	text33
  3787   0009DE                     __ptext33:
  3788                           	callstack 0
  3789   0009DE                     _INT0_DefaultInterruptHandler:
  3790                           	callstack 22
  3791   0009DE  0012               	return		;funcret
  3792   0009E0                     __end_of_INT0_DefaultInterruptHandler:
  3793                           	callstack 0
  3794                           
  3795 ;; *************** function _INT1_ISR *****************
  3796 ;; Defined at:
  3797 ;;		line 146 in file "mcc_generated_files/system/src/interrupt.c"
  3798 ;; Parameters:    Size  Location     Type
  3799 ;;		None
  3800 ;; Auto vars:     Size  Location     Type
  3801 ;;		None
  3802 ;; Return value:  Size  Location     Type
  3803 ;;                  1    wreg      void 
  3804 ;; Registers used:
  3805 ;;		wreg, status,2, status,0, pcl, pclath, pclatu, tosl, cstack
  3806 ;; Tracked objects:
  3807 ;;		On entry : 0/0
  3808 ;;		On exit  : 0/0
  3809 ;;		Unchanged: 0/0
  3810 ;; Data sizes:     COMRAM   BANK0   BANK1   BANK2   BANK3   BANK4   BANK5   BANK6   BANK7   BANK8   BANK9  BANK10  BANK1
      +1  BANK12  BANK13  BANK14  BANK15
  3811 ;;      Params:         0       0       0       0       0       0       0       0       0       0       0       0       
      +0       0       0       0       0
  3812 ;;      Locals:         0       0       0       0       0       0       0       0       0       0       0       0       
      +0       0       0       0       0
  3813 ;;      Temps:          0       3       0       0       0       0       0       0       0       0       0       0       
      +0       0       0       0       0
  3814 ;;      Totals:         0       3       0       0       0       0       0       0       0       0       0       0       
      +0       0       0       0       0
  3815 ;;Total ram usage:        3 bytes
  3816 ;; Hardware stack levels used: 1
  3817 ;; Hardware stack levels required when called: 5
  3818 ;; This function calls:
  3819 ;;		_INT1_CallBack
  3820 ;; This function is called by:
  3821 ;;		Interrupt level 1
  3822 ;; This function uses a non-reentrant model
  3823 ;;
  3824                           
  3825                           	psect	text34
  3826   000730                     __ptext34:
  3827                           	callstack 0
  3828   000730                     _INT1_ISR:
  3829                           	callstack 22
  3830                           
  3831                           ;incstack = 0
  3832   000730  006F FF60  F0F9    	movff	status,??_INT1_ISR
  3833   000736  006F FFE8  F0FA    	movff	pclath,??_INT1_ISR+1
  3834   00073C  006F FFEC  F0FB    	movff	pclatu,??_INT1_ISR+2
  3835   000742                     
  3836                           ;mcc_generated_files/system/src/interrupt.c: 148:     (PIR5bits.INT1IF = 0);
  3837   000742  0139               	movlb	57	; () banked
  3838   000744  91A5               	bcf	165,0,b	;volatile
  3839   000746                     
  3840                           ; BSR set to: 57
  3841                           ;mcc_generated_files/system/src/interrupt.c: 151:     INT1_CallBack();
  3842   000746  ECDD  F003         	call	_INT1_CallBack	;wreg free
  3843   00074A  0060  F3EF  FFFB   	movff	??_INT1_ISR+2,pclatu
  3844   000750  0060  F3EB  FFFA   	movff	??_INT1_ISR+1,pclath
  3845   000756  0060  F3E7  FFD8   	movff	??_INT1_ISR,status
  3846   00075C  0011               	retfie		f
  3847   00075E                     __end_of_INT1_ISR:
  3848                           	callstack 0
  3849                           
  3850 ;; *************** function _INT1_CallBack *****************
  3851 ;; Defined at:
  3852 ;;		line 155 in file "mcc_generated_files/system/src/interrupt.c"
  3853 ;; Parameters:    Size  Location     Type
  3854 ;;		None
  3855 ;; Auto vars:     Size  Location     Type
  3856 ;;		None
  3857 ;; Return value:  Size  Location     Type
  3858 ;;                  1    wreg      void 
  3859 ;; Registers used:
  3860 ;;		wreg, status,2, status,0, pcl, pclath, pclatu, tosl, cstack
  3861 ;; Tracked objects:
  3862 ;;		On entry : 0/0
  3863 ;;		On exit  : 0/0
  3864 ;;		Unchanged: 0/0
  3865 ;; Data sizes:     COMRAM   BANK0   BANK1   BANK2   BANK3   BANK4   BANK5   BANK6   BANK7   BANK8   BANK9  BANK10  BANK1
      +1  BANK12  BANK13  BANK14  BANK15
  3866 ;;      Params:         0       0       0       0       0       0       0       0       0       0       0       0       
      +0       0       0       0       0
  3867 ;;      Locals:         0       0       0       0       0       0       0       0       0       0       0       0       
      +0       0       0       0       0
  3868 ;;      Temps:          0       0       0       0       0       0       0       0       0       0       0       0       
      +0       0       0       0       0
  3869 ;;      Totals:         0       0       0       0       0       0       0       0       0       0       0       0       
      +0       0       0       0       0
  3870 ;;Total ram usage:        0 bytes
  3871 ;; Hardware stack levels used: 1
  3872 ;; Hardware stack levels required when called: 4
  3873 ;; This function calls:
  3874 ;;		Absolute function
  3875 ;;		_INT1_DefaultInterruptHandler
  3876 ;; This function is called by:
  3877 ;;		_INT1_ISR
  3878 ;; This function uses a non-reentrant model
  3879 ;;
  3880                           
  3881                           	psect	text35
  3882   0007BA                     __ptext35:
  3883                           	callstack 0
  3884   0007BA                     _INT1_CallBack:
  3885                           	callstack 22
  3886   0007BA                     
  3887                           ;mcc_generated_files/system/src/interrupt.c: 158:     if(INT1_InterruptHandler)
  3888   0007BA  5021               	movf	_INT1_InterruptHandler^0,w,c
  3889   0007BC  1022               	iorwf	(_INT1_InterruptHandler+1)^0,w,c
  3890   0007BE  B4D8               	btfsc	status,2,c
  3891   0007C0  EFE4  F003         	goto	i1u15_21
  3892   0007C4  EFE6  F003         	goto	i1u15_20
  3893   0007C8                     i1u15_21:
  3894   0007C8  EFF2  F003         	goto	i1l585
  3895   0007CC                     i1u15_20:
  3896   0007CC                     
  3897                           ;mcc_generated_files/system/src/interrupt.c: 159:     {;mcc_generated_files/system/src/i
      +                          nterrupt.c: 160:         INT1_InterruptHandler();
  3898   0007CC  D802               	call	i1u16_28
  3899   0007CE  EFF2  F003         	goto	i1u16_29
  3900   0007D2                     i1u16_28:
  3901   0007D2  0005               	push	
  3902   0007D4  6EFA               	movwf	pclath,c
  3903   0007D6  5021               	movf	_INT1_InterruptHandler^0,w,c
  3904   0007D8  6EFD               	movwf	tosl,c
  3905   0007DA  5022               	movf	(_INT1_InterruptHandler+1)^0,w,c
  3906   0007DC  6EFE               	movwf	tosh,c
  3907   0007DE  6AFF               	clrf	tosu,c
  3908   0007E0  50FA               	movf	pclath,w,c
  3909   0007E2  0012               	return		;indir
  3910   0007E4                     i1u16_29:
  3911   0007E4                     i1l585:
  3912   0007E4  0012               	return		;funcret
  3913   0007E6                     __end_of_INT1_CallBack:
  3914                           	callstack 0
  3915                           
  3916 ;; *************** function _INT1_DefaultInterruptHandler *****************
  3917 ;; Defined at:
  3918 ;;		line 168 in file "mcc_generated_files/system/src/interrupt.c"
  3919 ;; Parameters:    Size  Location     Type
  3920 ;;		None
  3921 ;; Auto vars:     Size  Location     Type
  3922 ;;		None
  3923 ;; Return value:  Size  Location     Type
  3924 ;;                  1    wreg      void 
  3925 ;; Registers used:
  3926 ;;		None
  3927 ;; Tracked objects:
  3928 ;;		On entry : 0/0
  3929 ;;		On exit  : 0/0
  3930 ;;		Unchanged: 0/0
  3931 ;; Data sizes:     COMRAM   BANK0   BANK1   BANK2   BANK3   BANK4   BANK5   BANK6   BANK7   BANK8   BANK9  BANK10  BANK1
      +1  BANK12  BANK13  BANK14  BANK15
  3932 ;;      Params:         0       0       0       0       0       0       0       0       0       0       0       0       
      +0       0       0       0       0
  3933 ;;      Locals:         0       0       0       0       0       0       0       0       0       0       0       0       
      +0       0       0       0       0
  3934 ;;      Temps:          0       0       0       0       0       0       0       0       0       0       0       0       
      +0       0       0       0       0
  3935 ;;      Totals:         0       0       0       0       0       0       0       0       0       0       0       0       
      +0       0       0       0       0
  3936 ;;Total ram usage:        0 bytes
  3937 ;; Hardware stack levels used: 1
  3938 ;; Hardware stack levels required when called: 3
  3939 ;; This function calls:
  3940 ;;		Nothing
  3941 ;; This function is called by:
  3942 ;;		_INTERRUPT_Initialize
  3943 ;;		_INT1_CallBack
  3944 ;; This function uses a non-reentrant model
  3945 ;;
  3946                           
  3947                           	psect	text36
  3948   0009E0                     __ptext36:
  3949                           	callstack 0
  3950   0009E0                     _INT1_DefaultInterruptHandler:
  3951                           	callstack 22
  3952   0009E0  0012               	return		;funcret
  3953   0009E2                     __end_of_INT1_DefaultInterruptHandler:
  3954                           	callstack 0
  3955                           
  3956 ;; *************** function _INT2_ISR *****************
  3957 ;; Defined at:
  3958 ;;		line 180 in file "mcc_generated_files/system/src/interrupt.c"
  3959 ;; Parameters:    Size  Location     Type
  3960 ;;		None
  3961 ;; Auto vars:     Size  Location     Type
  3962 ;;		None
  3963 ;; Return value:  Size  Location     Type
  3964 ;;                  1    wreg      void 
  3965 ;; Registers used:
  3966 ;;		wreg, status,2, status,0, pcl, pclath, pclatu, tosl, cstack
  3967 ;; Tracked objects:
  3968 ;;		On entry : 0/0
  3969 ;;		On exit  : 0/0
  3970 ;;		Unchanged: 0/0
  3971 ;; Data sizes:     COMRAM   BANK0   BANK1   BANK2   BANK3   BANK4   BANK5   BANK6   BANK7   BANK8   BANK9  BANK10  BANK1
      +1  BANK12  BANK13  BANK14  BANK15
  3972 ;;      Params:         0       0       0       0       0       0       0       0       0       0       0       0       
      +0       0       0       0       0
  3973 ;;      Locals:         0       0       0       0       0       0       0       0       0       0       0       0       
      +0       0       0       0       0
  3974 ;;      Temps:          0       0       3       0       0       0       0       0       0       0       0       0       
      +0       0       0       0       0
  3975 ;;      Totals:         0       0       3       0       0       0       0       0       0       0       0       0       
      +0       0       0       0       0
  3976 ;;Total ram usage:        3 bytes
  3977 ;; Hardware stack levels used: 1
  3978 ;; Hardware stack levels required when called: 5
  3979 ;; This function calls:
  3980 ;;		_INT2_CallBack
  3981 ;; This function is called by:
  3982 ;;		Interrupt level 1
  3983 ;; This function uses a non-reentrant model
  3984 ;;
  3985                           
  3986                           	psect	text37
  3987   000760                     __ptext37:
  3988                           	callstack 0
  3989   000760                     _INT2_ISR:
  3990                           	callstack 22
  3991                           
  3992                           ;incstack = 0
  3993   000760  006F FF60  F180    	movff	status,??_INT2_ISR
  3994   000766  006F FFE8  F181    	movff	pclath,??_INT2_ISR+1
  3995   00076C  006F FFEC  F182    	movff	pclatu,??_INT2_ISR+2
  3996   000772                     
  3997                           ;mcc_generated_files/system/src/interrupt.c: 182:     (PIR7bits.INT2IF = 0);
  3998   000772  0139               	movlb	57	; () banked
  3999   000774  9BA7               	bcf	167,5,b	;volatile
  4000   000776                     
  4001                           ; BSR set to: 57
  4002                           ;mcc_generated_files/system/src/interrupt.c: 185:     INT2_CallBack();
  4003   000776  ECF3  F003         	call	_INT2_CallBack	;wreg free
  4004   00077A  0060  F60B  FFFB   	movff	??_INT2_ISR+2,pclatu
  4005   000780  0060  F607  FFFA   	movff	??_INT2_ISR+1,pclath
  4006   000786  0060  F603  FFD8   	movff	??_INT2_ISR,status
  4007   00078C  0011               	retfie		f
  4008   00078E                     __end_of_INT2_ISR:
  4009                           	callstack 0
  4010                           
  4011 ;; *************** function _INT2_CallBack *****************
  4012 ;; Defined at:
  4013 ;;		line 189 in file "mcc_generated_files/system/src/interrupt.c"
  4014 ;; Parameters:    Size  Location     Type
  4015 ;;		None
  4016 ;; Auto vars:     Size  Location     Type
  4017 ;;		None
  4018 ;; Return value:  Size  Location     Type
  4019 ;;                  1    wreg      void 
  4020 ;; Registers used:
  4021 ;;		wreg, status,2, status,0, pcl, pclath, pclatu, tosl, cstack
  4022 ;; Tracked objects:
  4023 ;;		On entry : 0/0
  4024 ;;		On exit  : 0/0
  4025 ;;		Unchanged: 0/0
  4026 ;; Data sizes:     COMRAM   BANK0   BANK1   BANK2   BANK3   BANK4   BANK5   BANK6   BANK7   BANK8   BANK9  BANK10  BANK1
      +1  BANK12  BANK13  BANK14  BANK15
  4027 ;;      Params:         0       0       0       0       0       0       0       0       0       0       0       0       
      +0       0       0       0       0
  4028 ;;      Locals:         0       0       0       0       0       0       0       0       0       0       0       0       
      +0       0       0       0       0
  4029 ;;      Temps:          0       0       0       0       0       0       0       0       0       0       0       0       
      +0       0       0       0       0
  4030 ;;      Totals:         0       0       0       0       0       0       0       0       0       0       0       0       
      +0       0       0       0       0
  4031 ;;Total ram usage:        0 bytes
  4032 ;; Hardware stack levels used: 1
  4033 ;; Hardware stack levels required when called: 4
  4034 ;; This function calls:
  4035 ;;		Absolute function
  4036 ;;		_INT2_DefaultInterruptHandler
  4037 ;; This function is called by:
  4038 ;;		_INT2_ISR
  4039 ;; This function uses a non-reentrant model
  4040 ;;
  4041                           
  4042                           	psect	text38
  4043   0007E6                     __ptext38:
  4044                           	callstack 0
  4045   0007E6                     _INT2_CallBack:
  4046                           	callstack 22
  4047   0007E6                     
  4048                           ;mcc_generated_files/system/src/interrupt.c: 192:     if(INT2_InterruptHandler)
  4049   0007E6  501F               	movf	_INT2_InterruptHandler^0,w,c
  4050   0007E8  1020               	iorwf	(_INT2_InterruptHandler+1)^0,w,c
  4051   0007EA  B4D8               	btfsc	status,2,c
  4052   0007EC  EFFA  F003         	goto	i1u17_21
  4053   0007F0  EFFC  F003         	goto	i1u17_20
  4054   0007F4                     i1u17_21:
  4055   0007F4  EF08  F004         	goto	i1l600
  4056   0007F8                     i1u17_20:
  4057   0007F8                     
  4058                           ;mcc_generated_files/system/src/interrupt.c: 193:     {;mcc_generated_files/system/src/i
      +                          nterrupt.c: 194:         INT2_InterruptHandler();
  4059   0007F8  D802               	call	i1u18_28
  4060   0007FA  EF08  F004         	goto	i1u18_29
  4061   0007FE                     i1u18_28:
  4062   0007FE  0005               	push	
  4063   000800  6EFA               	movwf	pclath,c
  4064   000802  501F               	movf	_INT2_InterruptHandler^0,w,c
  4065   000804  6EFD               	movwf	tosl,c
  4066   000806  5020               	movf	(_INT2_InterruptHandler+1)^0,w,c
  4067   000808  6EFE               	movwf	tosh,c
  4068   00080A  6AFF               	clrf	tosu,c
  4069   00080C  50FA               	movf	pclath,w,c
  4070   00080E  0012               	return		;indir
  4071   000810                     i1u18_29:
  4072   000810                     i1l600:
  4073   000810  0012               	return		;funcret
  4074   000812                     __end_of_INT2_CallBack:
  4075                           	callstack 0
  4076                           
  4077 ;; *************** function _INT2_DefaultInterruptHandler *****************
  4078 ;; Defined at:
  4079 ;;		line 202 in file "mcc_generated_files/system/src/interrupt.c"
  4080 ;; Parameters:    Size  Location     Type
  4081 ;;		None
  4082 ;; Auto vars:     Size  Location     Type
  4083 ;;		None
  4084 ;; Return value:  Size  Location     Type
  4085 ;;                  1    wreg      void 
  4086 ;; Registers used:
  4087 ;;		None
  4088 ;; Tracked objects:
  4089 ;;		On entry : 0/0
  4090 ;;		On exit  : 0/0
  4091 ;;		Unchanged: 0/0
  4092 ;; Data sizes:     COMRAM   BANK0   BANK1   BANK2   BANK3   BANK4   BANK5   BANK6   BANK7   BANK8   BANK9  BANK10  BANK1
      +1  BANK12  BANK13  BANK14  BANK15
  4093 ;;      Params:         0       0       0       0       0       0       0       0       0       0       0       0       
      +0       0       0       0       0
  4094 ;;      Locals:         0       0       0       0       0       0       0       0       0       0       0       0       
      +0       0       0       0       0
  4095 ;;      Temps:          0       0       0       0       0       0       0       0       0       0       0       0       
      +0       0       0       0       0
  4096 ;;      Totals:         0       0       0       0       0       0       0       0       0       0       0       0       
      +0       0       0       0       0
  4097 ;;Total ram usage:        0 bytes
  4098 ;; Hardware stack levels used: 1
  4099 ;; Hardware stack levels required when called: 3
  4100 ;; This function calls:
  4101 ;;		Nothing
  4102 ;; This function is called by:
  4103 ;;		_INTERRUPT_Initialize
  4104 ;;		_INT2_CallBack
  4105 ;; This function uses a non-reentrant model
  4106 ;;
  4107                           
  4108                           	psect	text39
  4109   0009E2                     __ptext39:
  4110                           	callstack 0
  4111   0009E2                     _INT2_DefaultInterruptHandler:
  4112                           	callstack 22
  4113   0009E2  0012               	return		;funcret
  4114   0009E4                     __end_of_INT2_DefaultInterruptHandler:
  4115                           	callstack 0
  4116                           
  4117 ;; *************** function _Default_ISR *****************
  4118 ;; Defined at:
  4119 ;;		line 95 in file "mcc_generated_files/system/src/interrupt.c"
  4120 ;; Parameters:    Size  Location     Type
  4121 ;;		None
  4122 ;; Auto vars:     Size  Location     Type
  4123 ;;		None
  4124 ;; Return value:  Size  Location     Type
  4125 ;;                  1    wreg      void 
  4126 ;; Registers used:
  4127 ;;		None
  4128 ;; Tracked objects:
  4129 ;;		On entry : 0/0
  4130 ;;		On exit  : 0/0
  4131 ;;		Unchanged: 0/0
  4132 ;; Data sizes:     COMRAM   BANK0   BANK1   BANK2   BANK3   BANK4   BANK5   BANK6   BANK7   BANK8   BANK9  BANK10  BANK1
      +1  BANK12  BANK13  BANK14  BANK15
  4133 ;;      Params:         0       0       0       0       0       0       0       0       0       0       0       0       
      +0       0       0       0       0
  4134 ;;      Locals:         0       0       0       0       0       0       0       0       0       0       0       0       
      +0       0       0       0       0
  4135 ;;      Temps:          0       0       0       0       0       0       0       0       0       0       0       0       
      +0       0       0       0       0
  4136 ;;      Totals:         0       0       0       0       0       0       0       0       0       0       0       0       
      +0       0       0       0       0
  4137 ;;Total ram usage:        0 bytes
  4138 ;; Hardware stack levels used: 1
  4139 ;; This function calls:
  4140 ;;		Nothing
  4141 ;; This function is called by:
  4142 ;;		Interrupt level 2
  4143 ;; This function uses a non-reentrant model
  4144 ;;
  4145                           
  4146                           	psect	text40
  4147   0009E4                     __ptext40:
  4148                           	callstack 0
  4149   0009E4                     _Default_ISR:
  4150                           	callstack 24
  4151   0009E4  0011               	retfie		f
  4152   0009E6                     __end_of_Default_ISR:
  4153                           	callstack 0
  4154                           
  4155 ;; *************** function _Timer_OverflowISR *****************
  4156 ;; Defined at:
  4157 ;;		line 118 in file "mcc_generated_files/timer/src/tmr0.c"
  4158 ;; Parameters:    Size  Location     Type
  4159 ;;		None
  4160 ;; Auto vars:     Size  Location     Type
  4161 ;;		None
  4162 ;; Return value:  Size  Location     Type
  4163 ;;                  1    wreg      void 
  4164 ;; Registers used:
  4165 ;;		wreg, status,2, status,0, pcl, pclath, pclatu, tosl, cstack
  4166 ;; Tracked objects:
  4167 ;;		On entry : 0/0
  4168 ;;		On exit  : 0/0
  4169 ;;		Unchanged: 0/0
  4170 ;; Data sizes:     COMRAM   BANK0   BANK1   BANK2   BANK3   BANK4   BANK5   BANK6   BANK7   BANK8   BANK9  BANK10  BANK1
      +1  BANK12  BANK13  BANK14  BANK15
  4171 ;;      Params:         0       0       0       0       0       0       0       0       0       0       0       0       
      +0       0       0       0       0
  4172 ;;      Locals:         0       0       0       0       0       0       0       0       0       0       0       0       
      +0       0       0       0       0
  4173 ;;      Temps:          2       0       0       0       0       0       0       0       0       0       0       0       
      +0       0       0       0       0
  4174 ;;      Totals:         2       0       0       0       0       0       0       0       0       0       0       0       
      +0       0       0       0       0
  4175 ;;Total ram usage:        2 bytes
  4176 ;; Hardware stack levels used: 1
  4177 ;; Hardware stack levels required when called: 2
  4178 ;; This function calls:
  4179 ;;		Absolute function
  4180 ;;		_Timer2_DefaultOverflowCallback
  4181 ;;		_Timer_DefaultOverflowCallback
  4182 ;;		_Timer_int
  4183 ;; This function is called by:
  4184 ;;		Interrupt level 2
  4185 ;; This function uses a non-reentrant model
  4186 ;;
  4187                           
  4188                           	psect	text41
  4189   00051C                     __ptext41:
  4190                           	callstack 0
  4191   00051C                     _Timer_OverflowISR:
  4192                           	callstack 22
  4193                           
  4194                           ;incstack = 0
  4195   00051C  006F FFE8  F045    	movff	pclath,??_Timer_OverflowISR
  4196   000522  006F FFEC  F046    	movff	pclatu,??_Timer_OverflowISR+1
  4197   000528                     
  4198                           ;mcc_generated_files/timer/src/tmr0.c: 121:     PIR3bits.TMR0IF = 0;
  4199   000528  0139               	movlb	57	; () banked
  4200   00052A  9FA3               	bcf	163,7,b	;volatile
  4201   00052C                     
  4202                           ; BSR set to: 57
  4203                           ;mcc_generated_files/timer/src/tmr0.c: 123:     TMR0H = timerTMR0ReloadVal16bit >> 8;
  4204   00052C  5052               	movf	(_timerTMR0ReloadVal16bit+1)^0,w,c	;volatile
  4205   00052E  6EB7               	movwf	183,c	;volatile
  4206   000530                     
  4207                           ; BSR set to: 57
  4208                           ;mcc_generated_files/timer/src/tmr0.c: 124:     TMR0L = (uint8_t) timerTMR0ReloadVal16bi
      +                          t;
  4209   000530  0060  F147  FFB6   	movff	_timerTMR0ReloadVal16bit,16310	;volatile
  4210   000536                     
  4211                           ; BSR set to: 57
  4212                           ;mcc_generated_files/timer/src/tmr0.c: 128:     if(Timer_OverflowCallback)
  4213   000536  0100               	movlb	0	; () banked
  4214   000538  51EE               	movf	_Timer_OverflowCallback& (0+255),w,b
  4215   00053A  11EF               	iorwf	(_Timer_OverflowCallback+1)& (0+255),w,b
  4216   00053C  B4D8               	btfsc	status,2,c
  4217   00053E  EFA3  F002         	goto	i2u111_41
  4218   000542  EFA5  F002         	goto	i2u111_40
  4219   000546                     i2u111_41:
  4220   000546  EFB1  F002         	goto	i2l665
  4221   00054A                     i2u111_40:
  4222   00054A                     
  4223                           ; BSR set to: 0
  4224                           ;mcc_generated_files/timer/src/tmr0.c: 129:     {;mcc_generated_files/timer/src/tmr0.c: 
      +                          130:         Timer_OverflowCallback();
  4225   00054A  D802               	call	i2u112_48
  4226   00054C  EFB1  F002         	goto	i2u112_49
  4227   000550                     i2u112_48:
  4228   000550  0005               	push	
  4229   000552  6EFA               	movwf	pclath,c
  4230   000554  51EE               	movf	_Timer_OverflowCallback& (0+255),w,b
  4231   000556  6EFD               	movwf	tosl,c
  4232   000558  51EF               	movf	(_Timer_OverflowCallback+1)& (0+255),w,b
  4233   00055A  6EFE               	movwf	tosh,c
  4234   00055C  6AFF               	clrf	tosu,c
  4235   00055E  50FA               	movf	pclath,w,c
  4236   000560  0012               	return		;indir
  4237   000562                     i2u112_49:
  4238   000562                     i2l665:
  4239   000562  0060  F11B  FFFB   	movff	??_Timer_OverflowISR+1,pclatu
  4240   000568  0060  F117  FFFA   	movff	??_Timer_OverflowISR,pclath
  4241   00056E  0011               	retfie		f
  4242   000570                     __end_of_Timer_OverflowISR:
  4243                           	callstack 0
  4244                           
  4245 ;; *************** function _Timer2_DefaultOverflowCallback *****************
  4246 ;; Defined at:
  4247 ;;		line 133 in file "mcc_generated_files/timer/src/tmr2.c"
  4248 ;; Parameters:    Size  Location     Type
  4249 ;;		None
  4250 ;; Auto vars:     Size  Location     Type
  4251 ;;		None
  4252 ;; Return value:  Size  Location     Type
  4253 ;;                  1    wreg      void 
  4254 ;; Registers used:
  4255 ;;		None
  4256 ;; Tracked objects:
  4257 ;;		On entry : 0/0
  4258 ;;		On exit  : 0/0
  4259 ;;		Unchanged: 0/0
  4260 ;; Data sizes:     COMRAM   BANK0   BANK1   BANK2   BANK3   BANK4   BANK5   BANK6   BANK7   BANK8   BANK9  BANK10  BANK1
      +1  BANK12  BANK13  BANK14  BANK15
  4261 ;;      Params:         0       0       0       0       0       0       0       0       0       0       0       0       
      +0       0       0       0       0
  4262 ;;      Locals:         0       0       0       0       0       0       0       0       0       0       0       0       
      +0       0       0       0       0
  4263 ;;      Temps:          0       0       0       0       0       0       0       0       0       0       0       0       
      +0       0       0       0       0
  4264 ;;      Totals:         0       0       0       0       0       0       0       0       0       0       0       0       
      +0       0       0       0       0
  4265 ;;Total ram usage:        0 bytes
  4266 ;; Hardware stack levels used: 1
  4267 ;; This function calls:
  4268 ;;		Nothing
  4269 ;; This function is called by:
  4270 ;;		_Timer2_Initialize
  4271 ;;		_Timer_OverflowISR
  4272 ;; This function uses a non-reentrant model
  4273 ;;
  4274                           
  4275                           	psect	text42
  4276   0009E6                     __ptext42:
  4277                           	callstack 0
  4278   0009E6                     _Timer2_DefaultOverflowCallback:
  4279                           	callstack 23
  4280   0009E6  0012               	return		;funcret
  4281   0009E8                     __end_of_Timer2_DefaultOverflowCallback:
  4282                           	callstack 0
  4283                           
  4284 ;; *************** function _Timer_DefaultOverflowCallback *****************
  4285 ;; Defined at:
  4286 ;;		line 139 in file "mcc_generated_files/timer/src/tmr0.c"
  4287 ;; Parameters:    Size  Location     Type
  4288 ;;		None
  4289 ;; Auto vars:     Size  Location     Type
  4290 ;;		None
  4291 ;; Return value:  Size  Location     Type
  4292 ;;                  1    wreg      void 
  4293 ;; Registers used:
  4294 ;;		None
  4295 ;; Tracked objects:
  4296 ;;		On entry : 0/0
  4297 ;;		On exit  : 0/0
  4298 ;;		Unchanged: 0/0
  4299 ;; Data sizes:     COMRAM   BANK0   BANK1   BANK2   BANK3   BANK4   BANK5   BANK6   BANK7   BANK8   BANK9  BANK10  BANK1
      +1  BANK12  BANK13  BANK14  BANK15
  4300 ;;      Params:         0       0       0       0       0       0       0       0       0       0       0       0       
      +0       0       0       0       0
  4301 ;;      Locals:         0       0       0       0       0       0       0       0       0       0       0       0       
      +0       0       0       0       0
  4302 ;;      Temps:          0       0       0       0       0       0       0       0       0       0       0       0       
      +0       0       0       0       0
  4303 ;;      Totals:         0       0       0       0       0       0       0       0       0       0       0       0       
      +0       0       0       0       0
  4304 ;;Total ram usage:        0 bytes
  4305 ;; Hardware stack levels used: 1
  4306 ;; This function calls:
  4307 ;;		Nothing
  4308 ;; This function is called by:
  4309 ;;		_Timer_Initialize
  4310 ;;		_Timer_OverflowISR
  4311 ;; This function uses a non-reentrant model
  4312 ;;
  4313                           
  4314                           	psect	text43
  4315   0009E8                     __ptext43:
  4316                           	callstack 0
  4317   0009E8                     _Timer_DefaultOverflowCallback:
  4318                           	callstack 23
  4319   0009E8  0012               	return		;funcret
  4320   0009EA                     __end_of_Timer_DefaultOverflowCallback:
  4321                           	callstack 0
  4322                           
  4323 ;; *************** function _Timer_int *****************
  4324 ;; Defined at:
  4325 ;;		line 7 in file "Timer_int.c"
  4326 ;; Parameters:    Size  Location     Type
  4327 ;;		None
  4328 ;; Auto vars:     Size  Location     Type
  4329 ;;		None
  4330 ;; Return value:  Size  Location     Type
  4331 ;;                  1    wreg      void 
  4332 ;; Registers used:
  4333 ;;		wreg, status,2, status,0, cstack
  4334 ;; Tracked objects:
  4335 ;;		On entry : 0/0
  4336 ;;		On exit  : 0/0
  4337 ;;		Unchanged: 0/0
  4338 ;; Data sizes:     COMRAM   BANK0   BANK1   BANK2   BANK3   BANK4   BANK5   BANK6   BANK7   BANK8   BANK9  BANK10  BANK1
      +1  BANK12  BANK13  BANK14  BANK15
  4339 ;;      Params:         0       0       0       0       0       0       0       0       0       0       0       0       
      +0       0       0       0       0
  4340 ;;      Locals:         0       0       0       0       0       0       0       0       0       0       0       0       
      +0       0       0       0       0
  4341 ;;      Temps:          0       0       0       0       0       0       0       0       0       0       0       0       
      +0       0       0       0       0
  4342 ;;      Totals:         0       0       0       0       0       0       0       0       0       0       0       0       
      +0       0       0       0       0
  4343 ;;Total ram usage:        0 bytes
  4344 ;; Hardware stack levels used: 1
  4345 ;; Hardware stack levels required when called: 1
  4346 ;; This function calls:
  4347 ;;		i2_ADCC_StartConversion
  4348 ;; This function is called by:
  4349 ;;		_main
  4350 ;;		_Timer_OverflowISR
  4351 ;; This function uses a non-reentrant model
  4352 ;;
  4353                           
  4354                           	psect	text44
  4355   000812                     __ptext44:
  4356                           	callstack 0
  4357   000812                     _Timer_int:
  4358                           	callstack 22
  4359   000812                     
  4360                           ;Timer_int.c: 10:     static int count = 0;;Timer_int.c: 12:     count++;
  4361   000812  4A11               	infsnz	Timer_int@count^0,f,c
  4362   000814  2A12               	incf	(Timer_int@count+1)^0,f,c
  4363   000816                     
  4364                           ;Timer_int.c: 16:     if(count == PERIOD)
  4365   000816  5042               	movf	_PERIOD^0,w,c
  4366   000818  1811               	xorwf	Timer_int@count^0,w,c
  4367   00081A  E107               	bnz	i2u63_41
  4368   00081C  5043               	movf	(_PERIOD+1)^0,w,c
  4369   00081E  1812               	xorwf	(Timer_int@count+1)^0,w,c
  4370   000820  A4D8               	btfss	status,2,c
  4371   000822  EF15  F004         	goto	i2u63_41
  4372   000826  EF17  F004         	goto	i2u63_40
  4373   00082A                     i2u63_41:
  4374   00082A  EF1E  F004         	goto	i2l1125
  4375   00082E                     i2u63_40:
  4376   00082E                     
  4377                           ;Timer_int.c: 17:     {;Timer_int.c: 19:         count = 0;
  4378   00082E  0E00               	movlw	0
  4379   000830  6E12               	movwf	(Timer_int@count+1)^0,c
  4380   000832  0E00               	movlw	0
  4381   000834  6E11               	movwf	Timer_int@count^0,c
  4382   000836                     
  4383                           ;Timer_int.c: 21:         ADCC_StartConversion(channel_ANA0);
  4384   000836  0E00               	movlw	0
  4385   000838  ECB3  F004         	call	i2_ADCC_StartConversion
  4386   00083C                     i2l1125:
  4387   00083C  0012               	return		;funcret
  4388   00083E                     __end_of_Timer_int:
  4389                           	callstack 0
  4390                           
  4391 ;; *************** function i2_ADCC_StartConversion *****************
  4392 ;; Defined at:
  4393 ;;		line 106 in file "mcc_generated_files/adc/src/adcc.c"
  4394 ;; Parameters:    Size  Location     Type
  4395 ;;  channel         1    wreg     enum E15846
  4396 ;; Auto vars:     Size  Location     Type
  4397 ;;  channel         1    0[COMRAM] enum E15846
  4398 ;; Return value:  Size  Location     Type
  4399 ;;                  1    wreg      void 
  4400 ;; Registers used:
  4401 ;;		wreg
  4402 ;; Tracked objects:
  4403 ;;		On entry : 0/0
  4404 ;;		On exit  : 0/0
  4405 ;;		Unchanged: 0/0
  4406 ;; Data sizes:     COMRAM   BANK0   BANK1   BANK2   BANK3   BANK4   BANK5   BANK6   BANK7   BANK8   BANK9  BANK10  BANK1
      +1  BANK12  BANK13  BANK14  BANK15
  4407 ;;      Params:         0       0       0       0       0       0       0       0       0       0       0       0       
      +0       0       0       0       0
  4408 ;;      Locals:         1       0       0       0       0       0       0       0       0       0       0       0       
      +0       0       0       0       0
  4409 ;;      Temps:          0       0       0       0       0       0       0       0       0       0       0       0       
      +0       0       0       0       0
  4410 ;;      Totals:         1       0       0       0       0       0       0       0       0       0       0       0       
      +0       0       0       0       0
  4411 ;;Total ram usage:        1 bytes
  4412 ;; Hardware stack levels used: 1
  4413 ;; This function calls:
  4414 ;;		Nothing
  4415 ;; This function is called by:
  4416 ;;		_Timer_int
  4417 ;; This function uses a non-reentrant model
  4418 ;;
  4419                           
  4420                           	psect	text45
  4421   000966                     __ptext45:
  4422                           	callstack 0
  4423   000966                     i2_ADCC_StartConversion:
  4424                           	callstack 22
  4425                           
  4426                           ;incstack = 0
  4427                           ;i2ADCC_StartConversion@channel stored from wreg
  4428   000966  6E44               	movwf	i2ADCC_StartConversion@channel^0,c
  4429   000968                     
  4430                           ;mcc_generated_files/adc/src/adcc.c: 106: void ADCC_StartConversion(adcc_channel_t chann
      +                          el);mcc_generated_files/adc/src/adcc.c: 107: {;mcc_generated_files/adc/src/adcc.c: 109: 
      +                              ADPCH = channel;
  4431   000968  0060  F113  FEF1   	movff	i2ADCC_StartConversion@channel,16113	;volatile
  4432   00096E                     
  4433                           ;mcc_generated_files/adc/src/adcc.c: 112:     ADCON0bits.ADGO = 1;
  4434   00096E  013E               	movlb	62	; () banked
  4435   000970  81F8               	bsf	248,0,b	;volatile
  4436   000972                     
  4437                           ; BSR set to: 62
  4438   000972  0012               	return		;funcret
  4439   000974                     __end_ofi2_ADCC_StartConversion:
  4440                           	callstack 0
  4441                           
  4442 ;; *************** function _Timer2_ISR *****************
  4443 ;; Defined at:
  4444 ;;		line 119 in file "mcc_generated_files/timer/src/tmr2.c"
  4445 ;; Parameters:    Size  Location     Type
  4446 ;;		None
  4447 ;; Auto vars:     Size  Location     Type
  4448 ;;		None
  4449 ;; Return value:  Size  Location     Type
  4450 ;;                  1    wreg      void 
  4451 ;; Registers used:
  4452 ;;		cstack
  4453 ;; Tracked objects:
  4454 ;;		On entry : 0/0
  4455 ;;		On exit  : 0/0
  4456 ;;		Unchanged: 0/0
  4457 ;; Data sizes:     COMRAM   BANK0   BANK1   BANK2   BANK3   BANK4   BANK5   BANK6   BANK7   BANK8   BANK9  BANK10  BANK1
      +1  BANK12  BANK13  BANK14  BANK15
  4458 ;;      Params:         0       0       0       0       0       0       0       0       0       0       0       0       
      +0       0       0       0       0
  4459 ;;      Locals:         0       0       0       0       0       0       0       0       0       0       0       0       
      +0       0       0       0       0
  4460 ;;      Temps:          0       0       0       0       0       0       0       0       0       0       0       0       
      +0       0       0       0       0
  4461 ;;      Totals:         0       0       0       0       0       0       0       0       0       0       0       0       
      +0       0       0       0       0
  4462 ;;Total ram usage:        0 bytes
  4463 ;; Hardware stack levels used: 1
  4464 ;; Hardware stack levels required when called: 1
  4465 ;; This function calls:
  4466 ;;		_Timer2_Stop
  4467 ;; This function is called by:
  4468 ;;		Interrupt level 2
  4469 ;; This function uses a non-reentrant model
  4470 ;;
  4471                           
  4472                           	psect	text46
  4473   000948                     __ptext46:
  4474                           	callstack 0
  4475   000948                     _Timer2_ISR:
  4476                           	callstack 23
  4477   000948                     
  4478                           ;mcc_generated_files/timer/src/tmr2.c: 121:     PIR4bits.TMR2IF = 0;
  4479   000948  0139               	movlb	57	; () banked
  4480   00094A  95A4               	bcf	164,2,b	;volatile
  4481                           
  4482                           ;mcc_generated_files/timer/src/tmr2.c: 122:     LATEbits.LATE0 = 1;
  4483   00094C  80BE               	bsf	190,0,c	;volatile
  4484                           
  4485                           ;mcc_generated_files/timer/src/tmr2.c: 123:     LATBbits.LATB4 = 0;
  4486   00094E  98BB               	bcf	187,4,c	;volatile
  4487                           
  4488                           ;mcc_generated_files/timer/src/tmr2.c: 124:     LATBbits.LATB4 = 1;
  4489   000950  88BB               	bsf	187,4,c	;volatile
  4490   000952                     
  4491                           ; BSR set to: 57
  4492                           ;mcc_generated_files/timer/src/tmr2.c: 126:     Timer2_Stop();
  4493   000952  ECEB  F004         	call	_Timer2_Stop	;wreg free
  4494   000956  0011               	retfie		f
  4495   000958                     __end_of_Timer2_ISR:
  4496                           	callstack 0
  4497                           
  4498 ;; *************** function _Timer2_Stop *****************
  4499 ;; Defined at:
  4500 ;;		line 98 in file "mcc_generated_files/timer/src/tmr2.c"
  4501 ;; Parameters:    Size  Location     Type
  4502 ;;		None
  4503 ;; Auto vars:     Size  Location     Type
  4504 ;;		None
  4505 ;; Return value:  Size  Location     Type
  4506 ;;                  1    wreg      void 
  4507 ;; Registers used:
  4508 ;;		None
  4509 ;; Tracked objects:
  4510 ;;		On entry : 0/0
  4511 ;;		On exit  : 0/0
  4512 ;;		Unchanged: 0/0
  4513 ;; Data sizes:     COMRAM   BANK0   BANK1   BANK2   BANK3   BANK4   BANK5   BANK6   BANK7   BANK8   BANK9  BANK10  BANK1
      +1  BANK12  BANK13  BANK14  BANK15
  4514 ;;      Params:         0       0       0       0       0       0       0       0       0       0       0       0       
      +0       0       0       0       0
  4515 ;;      Locals:         0       0       0       0       0       0       0       0       0       0       0       0       
      +0       0       0       0       0
  4516 ;;      Temps:          0       0       0       0       0       0       0       0       0       0       0       0       
      +0       0       0       0       0
  4517 ;;      Totals:         0       0       0       0       0       0       0       0       0       0       0       0       
      +0       0       0       0       0
  4518 ;;Total ram usage:        0 bytes
  4519 ;; Hardware stack levels used: 1
  4520 ;; This function calls:
  4521 ;;		Nothing
  4522 ;; This function is called by:
  4523 ;;		_Timer2_ISR
  4524 ;; This function uses a non-reentrant model
  4525 ;;
  4526                           
  4527                           	psect	text47
  4528   0009D6                     __ptext47:
  4529                           	callstack 0
  4530   0009D6                     _Timer2_Stop:
  4531                           	callstack 23
  4532   0009D6                     
  4533                           ;mcc_generated_files/timer/src/tmr2.c: 100:     T2CONbits.TMR2ON = 0;
  4534   0009D6  9EAC               	bcf	172,7,c	;volatile
  4535   0009D8  0012               	return		;funcret
  4536   0009DA                     __end_of_Timer2_Stop:
  4537                           	callstack 0
  4538                           
  4539 ;; *************** function _UART1_Receive_Vector_ISR *****************
  4540 ;; Defined at:
  4541 ;;		line 308 in file "mcc_generated_files/uart/src/uart1.c"
  4542 ;; Parameters:    Size  Location     Type
  4543 ;;		None
  4544 ;; Auto vars:     Size  Location     Type
  4545 ;;		None
  4546 ;; Return value:  Size  Location     Type
  4547 ;;                  1    wreg      void 
  4548 ;; Registers used:
  4549 ;;		wreg, status,2, status,0
  4550 ;; Tracked objects:
  4551 ;;		On entry : 0/0
  4552 ;;		On exit  : 0/0
  4553 ;;		Unchanged: 0/0
  4554 ;; Data sizes:     COMRAM   BANK0   BANK1   BANK2   BANK3   BANK4   BANK5   BANK6   BANK7   BANK8   BANK9  BANK10  BANK1
      +1  BANK12  BANK13  BANK14  BANK15
  4555 ;;      Params:         0       0       0       0       0       0       0       0       0       0       0       0       
      +0       0       0       0       0
  4556 ;;      Locals:         0       0       0       0       0       0       0       0       0       0       0       0       
      +0       0       0       0       0
  4557 ;;      Temps:          2       0       0       0       0       0       0       0       0       0       0       0       
      +0       0       0       0       0
  4558 ;;      Totals:         2       0       0       0       0       0       0       0       0       0       0       0       
      +0       0       0       0       0
  4559 ;;Total ram usage:        2 bytes
  4560 ;; Hardware stack levels used: 1
  4561 ;; This function calls:
  4562 ;;		Nothing
  4563 ;; This function is called by:
  4564 ;;		Interrupt level 2
  4565 ;; This function uses a non-reentrant model
  4566 ;;
  4567                           
  4568                           	psect	text48
  4569   0005C0                     __ptext48:
  4570                           	callstack 0
  4571   0005C0                     _UART1_Receive_Vector_ISR:
  4572                           	callstack 24
  4573   0005C0                     
  4574                           ;mcc_generated_files/uart/src/uart1.c: 309:     static unsigned char status = 0;;mcc_gen
      +                          erated_files/uart/src/uart1.c: 310:     static uint16_t mesage = 1;;mcc_generated_files/
      +                          uart/src/uart1.c: 312:     if (status == 0) {
  4575   0005C0  5027               	movf	UART1_Receive_Vector_ISR@status^0,w,c
  4576   0005C2  A4D8               	btfss	status,2,c
  4577   0005C4  EFE6  F002         	goto	i2u33_41
  4578   0005C8  EFE8  F002         	goto	i2u33_40
  4579   0005CC                     i2u33_41:
  4580   0005CC  EFEF  F002         	goto	i2l2534
  4581   0005D0                     i2u33_40:
  4582   0005D0                     
  4583                           ;mcc_generated_files/uart/src/uart1.c: 313:         status++;
  4584   0005D0  2A27               	incf	UART1_Receive_Vector_ISR@status^0,f,c
  4585   0005D2                     
  4586                           ;mcc_generated_files/uart/src/uart1.c: 314:         mesage = U1RXB;
  4587   0005D2  006F F7A0  F040    	movff	15848,UART1_Receive_Vector_ISR@mesage	;volatile
  4588   0005D8  6A41               	clrf	(UART1_Receive_Vector_ISR@mesage+1)^0,c
  4589                           
  4590                           ;mcc_generated_files/uart/src/uart1.c: 315:     } else {
  4591   0005DA  EFFC  F002         	goto	i2l972
  4592   0005DE                     i2l2534:
  4593                           
  4594                           ;mcc_generated_files/uart/src/uart1.c: 316:         status = 0;
  4595   0005DE  0E00               	movlw	0
  4596   0005E0  6E27               	movwf	UART1_Receive_Vector_ISR@status^0,c
  4597                           
  4598                           ;mcc_generated_files/uart/src/uart1.c: 317:         mesage = (mesage << 8) + U1RXB;
  4599   0005E2  5040               	movf	UART1_Receive_Vector_ISR@mesage^0,w,c
  4600   0005E4  6E47               	movwf	??_UART1_Receive_Vector_ISR^0,c
  4601   0005E6  013D               	movlb	61	; () banked
  4602   0005E8  51E8               	movf	232,w,b	;volatile
  4603   0005EA  6E40               	movwf	UART1_Receive_Vector_ISR@mesage^0,c
  4604   0005EC  C047  F041         	movff	??_UART1_Receive_Vector_ISR,UART1_Receive_Vector_ISR@mesage+1
  4605   0005F0                     
  4606                           ; BSR set to: 61
  4607                           ;mcc_generated_files/uart/src/uart1.c: 319:         PERIOD = mesage;
  4608   0005F0  C040  F042         	movff	UART1_Receive_Vector_ISR@mesage,_PERIOD
  4609   0005F4  C041  F043         	movff	UART1_Receive_Vector_ISR@mesage+1,_PERIOD+1
  4610   0005F8                     i2l972:
  4611   0005F8  0011               	retfie		f
  4612   0005FA                     __end_of_UART1_Receive_Vector_ISR:
  4613                           	callstack 0
  4614                           
  4615 ;; *************** function _UART1_Transmit_Vector_ISR *****************
  4616 ;; Defined at:
  4617 ;;		line 380 in file "mcc_generated_files/uart/src/uart1.c"
  4618 ;; Parameters:    Size  Location     Type
  4619 ;;		None
  4620 ;; Auto vars:     Size  Location     Type
  4621 ;;		None
  4622 ;; Return value:  Size  Location     Type
  4623 ;;                  1    wreg      void 
  4624 ;; Registers used:
  4625 ;;		wreg, fsr2l, fsr2h, status,2, status,0, cstack
  4626 ;; Tracked objects:
  4627 ;;		On entry : 0/0
  4628 ;;		On exit  : 0/0
  4629 ;;		Unchanged: 0/0
  4630 ;; Data sizes:     COMRAM   BANK0   BANK1   BANK2   BANK3   BANK4   BANK5   BANK6   BANK7   BANK8   BANK9  BANK10  BANK1
      +1  BANK12  BANK13  BANK14  BANK15
  4631 ;;      Params:         0       0       0       0       0       0       0       0       0       0       0       0       
      +0       0       0       0       0
  4632 ;;      Locals:         0       0       0       0       0       0       0       0       0       0       0       0       
      +0       0       0       0       0
  4633 ;;      Temps:          0       0       0       0       0       0       0       0       0       0       0       0       
      +0       0       0       0       0
  4634 ;;      Totals:         0       0       0       0       0       0       0       0       0       0       0       0       
      +0       0       0       0       0
  4635 ;;Total ram usage:        0 bytes
  4636 ;; Hardware stack levels used: 1
  4637 ;; Hardware stack levels required when called: 1
  4638 ;; This function calls:
  4639 ;;		_UART1_TransmitISR
  4640 ;; This function is called by:
  4641 ;;		Interrupt level 2
  4642 ;; This function uses a non-reentrant model
  4643 ;;
  4644                           
  4645                           	psect	text49
  4646   0009CC                     __ptext49:
  4647                           	callstack 0
  4648   0009CC                     _UART1_Transmit_Vector_ISR:
  4649                           	callstack 23
  4650   0009CC                     
  4651                           ;mcc_generated_files/uart/src/uart1.c: 382:     UART1_TransmitISR();
  4652   0009CC  EC19  F003         	call	_UART1_TransmitISR	;wreg free
  4653   0009D0  0011               	retfie		f
  4654   0009D2                     __end_of_UART1_Transmit_Vector_ISR:
  4655                           	callstack 0
  4656                           
  4657 ;; *************** function _UART1_TransmitISR *****************
  4658 ;; Defined at:
  4659 ;;		line 385 in file "mcc_generated_files/uart/src/uart1.c"
  4660 ;; Parameters:    Size  Location     Type
  4661 ;;		None
  4662 ;; Auto vars:     Size  Location     Type
  4663 ;;  tempTxTail      1    5[COMRAM] unsigned char 
  4664 ;; Return value:  Size  Location     Type
  4665 ;;                  1    wreg      void 
  4666 ;; Registers used:
  4667 ;;		wreg, fsr2l, fsr2h, status,2, status,0
  4668 ;; Tracked objects:
  4669 ;;		On entry : 0/0
  4670 ;;		On exit  : 0/0
  4671 ;;		Unchanged: 0/0
  4672 ;; Data sizes:     COMRAM   BANK0   BANK1   BANK2   BANK3   BANK4   BANK5   BANK6   BANK7   BANK8   BANK9  BANK10  BANK1
      +1  BANK12  BANK13  BANK14  BANK15
  4673 ;;      Params:         0       0       0       0       0       0       0       0       0       0       0       0       
      +0       0       0       0       0
  4674 ;;      Locals:         1       0       0       0       0       0       0       0       0       0       0       0       
      +0       0       0       0       0
  4675 ;;      Temps:          0       0       0       0       0       0       0       0       0       0       0       0       
      +0       0       0       0       0
  4676 ;;      Totals:         1       0       0       0       0       0       0       0       0       0       0       0       
      +0       0       0       0       0
  4677 ;;Total ram usage:        1 bytes
  4678 ;; Hardware stack levels used: 1
  4679 ;; This function calls:
  4680 ;;		Nothing
  4681 ;; This function is called by:
  4682 ;;		_UART1_Initialize
  4683 ;;		_UART1_Transmit_Vector_ISR
  4684 ;; This function uses a non-reentrant model
  4685 ;;
  4686                           
  4687                           	psect	text50
  4688   000632                     __ptext50:
  4689                           	callstack 0
  4690   000632                     _UART1_TransmitISR:
  4691                           	callstack 23
  4692   000632                     
  4693                           ;mcc_generated_files/uart/src/uart1.c: 386:     uint8_t tempTxTail;;mcc_generated_files/
      +                          uart/src/uart1.c: 388:     if (sizeof (uart1TxBuffer) > uart1TxBufferRemaining)
  4694   000632  0E10               	movlw	16
  4695   000634  602B               	cpfslt	_uart1TxBufferRemaining^0,c	;volatile
  4696   000636  EF1F  F003         	goto	i2u61_41
  4697   00063A  EF21  F003         	goto	i2u61_40
  4698   00063E                     i2u61_41:
  4699   00063E  EF32  F003         	goto	i2l997
  4700   000642                     i2u61_40:
  4701   000642                     
  4702                           ;mcc_generated_files/uart/src/uart1.c: 389:     {;mcc_generated_files/uart/src/uart1.c: 
      +                          390:         U1TXB = uart1TxBuffer[uart1TxTail];
  4703   000642  0E70               	movlw	low _uart1TxBuffer
  4704   000644  242C               	addwf	_uart1TxTail^0,w,c	;volatile
  4705   000646  6ED9               	movwf	fsr2l,c
  4706   000648  6ADA               	clrf	fsr2h,c
  4707   00064A  0E00               	movlw	high _uart1TxBuffer
  4708   00064C  22DA               	addwfc	fsr2h,f,c
  4709   00064E  50DF               	movf	indf2,w,c
  4710   000650  013D               	movlb	61	; () banked
  4711   000652  6FEA               	movwf	234,b	;volatile
  4712   000654                     
  4713                           ; BSR set to: 61
  4714                           ;mcc_generated_files/uart/src/uart1.c: 392:         tempTxTail = (uart1TxTail + 1) & ((1
      +                          6) - 1);
  4715   000654  282C               	incf	_uart1TxTail^0,w,c	;volatile
  4716   000656  0B0F               	andlw	15
  4717   000658  6E49               	movwf	UART1_TransmitISR@tempTxTail^0,c
  4718   00065A                     
  4719                           ; BSR set to: 61
  4720                           ;mcc_generated_files/uart/src/uart1.c: 394:         uart1TxTail = tempTxTail;
  4721   00065A  C049  F02C         	movff	UART1_TransmitISR@tempTxTail,_uart1TxTail	;volatile
  4722   00065E                     
  4723                           ; BSR set to: 61
  4724                           ;mcc_generated_files/uart/src/uart1.c: 395:         uart1TxBufferRemaining++;
  4725   00065E  2A2B               	incf	_uart1TxBufferRemaining^0,f,c	;volatile
  4726                           
  4727                           ;mcc_generated_files/uart/src/uart1.c: 396:     } else {
  4728   000660  EF34  F003         	goto	i2l999
  4729   000664                     i2l997:
  4730                           
  4731                           ;mcc_generated_files/uart/src/uart1.c: 397:         PIE3bits.U1TXIE = 0;
  4732   000664  0139               	movlb	57	; () banked
  4733   000666  9993               	bcf	147,4,b	;volatile
  4734   000668                     i2l999:
  4735   000668  0012               	return		;funcret
  4736   00066A                     __end_of_UART1_TransmitISR:
  4737                           	callstack 0
  4738                           
  4739                           ;
  4740                           ; Interrupt Vector Table @ 0x8
  4741                           ;
  4742                           
  4743                           	psect	ivt0x8
  4744   000008                     __pivt0x8:
  4745                           	callstack 0
  4746   000008                     ivt0x8_base:
  4747                           	callstack 0
  4748                           
  4749                           ; Vector 0 : SWINT
  4750   000008  0279               	dw	_Default_ISR shr (0+2)
  4751                           
  4752                           ; Vector 1 : HLVD
  4753   00000A  0279               	dw	_Default_ISR shr (0+2)
  4754                           
  4755                           ; Vector 2 : OSF
  4756   00000C  0279               	dw	_Default_ISR shr (0+2)
  4757                           
  4758                           ; Vector 3 : CSW
  4759   00000E  0279               	dw	_Default_ISR shr (0+2)
  4760                           
  4761                           ; Vector 4 : NVM
  4762   000010  0279               	dw	_Default_ISR shr (0+2)
  4763                           
  4764                           ; Vector 5 : SCAN
  4765   000012  0279               	dw	_Default_ISR shr (0+2)
  4766                           
  4767                           ; Vector 6 : CRC
  4768   000014  0279               	dw	_Default_ISR shr (0+2)
  4769                           
  4770                           ; Vector 7 : IOC
  4771   000016  0271               	dw	_IOC_ISR shr (0+2)
  4772                           
  4773                           ; Vector 8 : INT0
  4774   000018  01C0               	dw	_INT0_ISR shr (0+2)
  4775                           
  4776                           ; Vector 9 : ZCD
  4777   00001A  0279               	dw	_Default_ISR shr (0+2)
  4778                           
  4779                           ; Vector 10 : AD
  4780   00001C  0131               	dw	_ADCC_ISR shr (0+2)
  4781                           
  4782                           ; Vector 11 : ADT
  4783   00001E  0279               	dw	_Default_ISR shr (0+2)
  4784                           
  4785                           ; Vector 12 : CMP1
  4786   000020  0279               	dw	_Default_ISR shr (0+2)
  4787                           
  4788                           ; Vector 13 : SMT1
  4789   000022  0279               	dw	_Default_ISR shr (0+2)
  4790                           
  4791                           ; Vector 14 : SMT1PRA
  4792   000024  0279               	dw	_Default_ISR shr (0+2)
  4793                           
  4794                           ; Vector 15 : SMT1PRW
  4795   000026  0279               	dw	_Default_ISR shr (0+2)
  4796                           
  4797                           ; Vector 16 : DMA1SCNT
  4798   000028  0279               	dw	_Default_ISR shr (0+2)
  4799                           
  4800                           ; Vector 17 : DMA1DCNT
  4801   00002A  0279               	dw	_Default_ISR shr (0+2)
  4802                           
  4803                           ; Vector 18 : DMA1OR
  4804   00002C  0279               	dw	_Default_ISR shr (0+2)
  4805                           
  4806                           ; Vector 19 : DMA1A
  4807   00002E  0279               	dw	_Default_ISR shr (0+2)
  4808                           
  4809                           ; Vector 20 : SPI1RX
  4810   000030  0279               	dw	_Default_ISR shr (0+2)
  4811                           
  4812                           ; Vector 21 : SPI1TX
  4813   000032  0279               	dw	_Default_ISR shr (0+2)
  4814                           
  4815                           ; Vector 22 : SPI1
  4816   000034  0279               	dw	_Default_ISR shr (0+2)
  4817                           
  4818                           ; Vector 23 : I2C1RX
  4819   000036  0279               	dw	_Default_ISR shr (0+2)
  4820                           
  4821                           ; Vector 24 : I2C1TX
  4822   000038  0279               	dw	_Default_ISR shr (0+2)
  4823                           
  4824                           ; Vector 25 : I2C1
  4825   00003A  0279               	dw	_Default_ISR shr (0+2)
  4826                           
  4827                           ; Vector 26 : I2C1E
  4828   00003C  0279               	dw	_Default_ISR shr (0+2)
  4829                           
  4830                           ; Vector 27 : U1RX
  4831   00003E  0170               	dw	_UART1_Receive_Vector_ISR shr (0+2)
  4832                           
  4833                           ; Vector 28 : U1TX
  4834   000040  0273               	dw	_UART1_Transmit_Vector_ISR shr (0+2)
  4835                           
  4836                           ; Vector 29 : U1E
  4837   000042  0279               	dw	_Default_ISR shr (0+2)
  4838                           
  4839                           ; Vector 30 : U1
  4840   000044  0279               	dw	_Default_ISR shr (0+2)
  4841                           
  4842                           ; Vector 31 : TMR0
  4843   000046  0147               	dw	_Timer_OverflowISR shr (0+2)
  4844                           
  4845                           ; Vector 32 : TMR1
  4846   000048  0279               	dw	_Default_ISR shr (0+2)
  4847                           
  4848                           ; Vector 33 : TMR1G
  4849   00004A  0279               	dw	_Default_ISR shr (0+2)
  4850                           
  4851                           ; Vector 34 : TMR2
  4852   00004C  0252               	dw	_Timer2_ISR shr (0+2)
  4853                           
  4854                           ; Vector 35 : CCP1
  4855   00004E  0279               	dw	_Default_ISR shr (0+2)
  4856                           
  4857                           ; Vector 36 : Undefined
  4858   000050  002B               	dw	ivt0x8_undefint shr (0+2)
  4859                           
  4860                           ; Vector 37 : NCO1
  4861   000052  0279               	dw	_Default_ISR shr (0+2)
  4862                           
  4863                           ; Vector 38 : CWG1
  4864   000054  0279               	dw	_Default_ISR shr (0+2)
  4865                           
  4866                           ; Vector 39 : CLC1
  4867   000056  0279               	dw	_Default_ISR shr (0+2)
  4868                           
  4869                           ; Vector 40 : INT1
  4870   000058  01CC               	dw	_INT1_ISR shr (0+2)
  4871                           
  4872                           ; Vector 41 : CMP2
  4873   00005A  0279               	dw	_Default_ISR shr (0+2)
  4874                           
  4875                           ; Vector 42 : DMA2SCNT
  4876   00005C  0279               	dw	_Default_ISR shr (0+2)
  4877                           
  4878                           ; Vector 43 : DMA2DCNT
  4879   00005E  0279               	dw	_Default_ISR shr (0+2)
  4880                           
  4881                           ; Vector 44 : DMA2OR
  4882   000060  0279               	dw	_Default_ISR shr (0+2)
  4883                           
  4884                           ; Vector 45 : DMA2A
  4885   000062  0279               	dw	_Default_ISR shr (0+2)
  4886                           
  4887                           ; Vector 46 : I2C2RX
  4888   000064  0279               	dw	_Default_ISR shr (0+2)
  4889                           
  4890                           ; Vector 47 : I2C2TX
  4891   000066  0279               	dw	_Default_ISR shr (0+2)
  4892                           
  4893                           ; Vector 48 : I2C2
  4894   000068  0279               	dw	_Default_ISR shr (0+2)
  4895                           
  4896                           ; Vector 49 : I2C2E
  4897   00006A  0279               	dw	_Default_ISR shr (0+2)
  4898                           
  4899                           ; Vector 50 : U2RX
  4900   00006C  0279               	dw	_Default_ISR shr (0+2)
  4901                           
  4902                           ; Vector 51 : U2TX
  4903   00006E  0279               	dw	_Default_ISR shr (0+2)
  4904                           
  4905                           ; Vector 52 : U2E
  4906   000070  0279               	dw	_Default_ISR shr (0+2)
  4907                           
  4908                           ; Vector 53 : U2
  4909   000072  0279               	dw	_Default_ISR shr (0+2)
  4910                           
  4911                           ; Vector 54 : TMR3
  4912   000074  0279               	dw	_Default_ISR shr (0+2)
  4913                           
  4914                           ; Vector 55 : TMR3G
  4915   000076  0279               	dw	_Default_ISR shr (0+2)
  4916                           
  4917                           ; Vector 56 : TMR4
  4918   000078  0279               	dw	_Default_ISR shr (0+2)
  4919                           
  4920                           ; Vector 57 : CCP2
  4921   00007A  0279               	dw	_Default_ISR shr (0+2)
  4922                           
  4923                           ; Vector 58 : Undefined
  4924   00007C  002B               	dw	ivt0x8_undefint shr (0+2)
  4925                           
  4926                           ; Vector 59 : CWG2
  4927   00007E  0279               	dw	_Default_ISR shr (0+2)
  4928                           
  4929                           ; Vector 60 : CLC2
  4930   000080  0279               	dw	_Default_ISR shr (0+2)
  4931                           
  4932                           ; Vector 61 : INT2
  4933   000082  01D8               	dw	_INT2_ISR shr (0+2)
  4934                           
  4935                           ; Vector 62 : Undefined
  4936   000084  002B               	dw	ivt0x8_undefint shr (0+2)
  4937                           
  4938                           ; Vector 63 : Undefined
  4939   000086  002B               	dw	ivt0x8_undefint shr (0+2)
  4940                           
  4941                           ; Vector 64 : Undefined
  4942   000088  002B               	dw	ivt0x8_undefint shr (0+2)
  4943                           
  4944                           ; Vector 65 : Undefined
  4945   00008A  002B               	dw	ivt0x8_undefint shr (0+2)
  4946                           
  4947                           ; Vector 66 : Undefined
  4948   00008C  002B               	dw	ivt0x8_undefint shr (0+2)
  4949                           
  4950                           ; Vector 67 : Undefined
  4951   00008E  002B               	dw	ivt0x8_undefint shr (0+2)
  4952                           
  4953                           ; Vector 68 : Undefined
  4954   000090  002B               	dw	ivt0x8_undefint shr (0+2)
  4955                           
  4956                           ; Vector 69 : Undefined
  4957   000092  002B               	dw	ivt0x8_undefint shr (0+2)
  4958                           
  4959                           ; Vector 70 : TMR5
  4960   000094  0279               	dw	_Default_ISR shr (0+2)
  4961                           
  4962                           ; Vector 71 : TMR5G
  4963   000096  0279               	dw	_Default_ISR shr (0+2)
  4964                           
  4965                           ; Vector 72 : TMR6
  4966   000098  0279               	dw	_Default_ISR shr (0+2)
  4967                           
  4968                           ; Vector 73 : CCP3
  4969   00009A  0279               	dw	_Default_ISR shr (0+2)
  4970                           
  4971                           ; Vector 74 : CWG3
  4972   00009C  0279               	dw	_Default_ISR shr (0+2)
  4973                           
  4974                           ; Vector 75 : CLC3
  4975   00009E  0279               	dw	_Default_ISR shr (0+2)
  4976                           
  4977                           ; Vector 76 : Undefined
  4978   0000A0  002B               	dw	ivt0x8_undefint shr (0+2)
  4979                           
  4980                           ; Vector 77 : Undefined
  4981   0000A2  002B               	dw	ivt0x8_undefint shr (0+2)
  4982                           
  4983                           ; Vector 78 : Undefined
  4984   0000A4  002B               	dw	ivt0x8_undefint shr (0+2)
  4985                           
  4986                           ; Vector 79 : Undefined
  4987   0000A6  002B               	dw	ivt0x8_undefint shr (0+2)
  4988                           
  4989                           ; Vector 80 : CCP4
  4990   0000A8  0279               	dw	_Default_ISR shr (0+2)
  4991                           
  4992                           ; Vector 81 : CLC4
  4993   0000AA  0279               	dw	_Default_ISR shr (0+2)
  4994   0000AC                     ivt0x8_undefint:
  4995                           	callstack 0
  4996   0000AC  00FF               	reset	
  4997                           
  4998                           	psect	text51
  4999   000000                     __ptext51:
  5000                           	callstack 0
  5001   000000                     
  5002                           	psect	rparam
  5003   000000                     
  5004                           	psect	idloc
  5005                           
  5006                           ;Config register IDLOC0 @ 0x200000
  5007                           ;	unspecified, using default values
  5008   200000                     	org	2097152
  5009   200000  0FFF               	dw	4095
  5010                           
  5011                           ;Config register IDLOC1 @ 0x200002
  5012                           ;	unspecified, using default values
  5013   200002                     	org	2097154
  5014   200002  0FFF               	dw	4095
  5015                           
  5016                           ;Config register IDLOC2 @ 0x200004
  5017                           ;	unspecified, using default values
  5018   200004                     	org	2097156
  5019   200004  0FFF               	dw	4095
  5020                           
  5021                           ;Config register IDLOC3 @ 0x200006
  5022                           ;	unspecified, using default values
  5023   200006                     	org	2097158
  5024   200006  0FFF               	dw	4095
  5025                           
  5026                           ;Config register IDLOC4 @ 0x200008
  5027                           ;	unspecified, using default values
  5028   200008                     	org	2097160
  5029   200008  0FFF               	dw	4095
  5030                           
  5031                           ;Config register IDLOC5 @ 0x20000A
  5032                           ;	unspecified, using default values
  5033   20000A                     	org	2097162
  5034   20000A  0FFF               	dw	4095
  5035                           
  5036                           ;Config register IDLOC6 @ 0x20000C
  5037                           ;	unspecified, using default values
  5038   20000C                     	org	2097164
  5039   20000C  0FFF               	dw	4095
  5040                           
  5041                           ;Config register IDLOC7 @ 0x20000E
  5042                           ;	unspecified, using default values
  5043   20000E                     	org	2097166
  5044   20000E  0FFF               	dw	4095
  5045                           
  5046                           	psect	config
  5047                           
  5048                           ;Config register CONFIG1L @ 0x300000
  5049                           ;	External Oscillator Selection
  5050                           ;	FEXTOSC = HS, HS (crystal oscillator) above 8 MHz; PFM set to high power
  5051                           ;	Reset Oscillator Selection
  5052                           ;	RSTOSC = HFINTOSC_64MHZ, HFINTOSC with HFFRQ = 64 MHz and CDIV = 1:1
  5053   300000                     	org	3145728
  5054   300000  8A                 	db	138
  5055                           
  5056                           ;Config register CONFIG1H @ 0x300001
  5057                           ;	Clock out Enable bit
  5058                           ;	CLKOUTEN = OFF, CLKOUT function is disabled
  5059                           ;	PRLOCKED One-Way Set Enable bit
  5060                           ;	PR1WAY = ON, PRLOCK bit can be cleared and set only once
  5061                           ;	Clock Switch Enable bit
  5062                           ;	CSWEN = ON, Writing to NOSC and NDIV is allowed
  5063                           ;	Fail-Safe Clock Monitor Enable bit
  5064                           ;	FCMEN = ON, Fail-Safe Clock Monitor enabled
  5065   300001                     	org	3145729
  5066   300001  FF                 	db	255
  5067                           
  5068                           ;Config register CONFIG2L @ 0x300002
  5069                           ;	MCLR Enable bit
  5070                           ;	MCLRE = EXTMCLR, If LVP = 0, MCLR pin is MCLR; If LVP = 1, RE3 pin function is MCLR
  5071                           ;	Power-up timer selection bits
  5072                           ;	PWRTS = PWRT_64, PWRT set at 64ms
  5073                           ;	Multi-vector enable bit
  5074                           ;	MVECEN = ON, Multi-vector enabled, Vector table used for interrupts
  5075                           ;	IVTLOCK bit One-way set enable bit
  5076                           ;	IVT1WAY = ON, IVTLOCK bit can be cleared and set only once
  5077                           ;	Low Power BOR Enable bit
  5078                           ;	LPBOREN = OFF, ULPBOR disabled
  5079                           ;	Brown-out Reset Enable bits
  5080                           ;	BOREN = SBORDIS, Brown-out Reset enabled , SBOREN bit is ignored
  5081   300002                     	org	3145730
  5082   300002  FD                 	db	253
  5083                           
  5084                           ;Config register CONFIG2H @ 0x300003
  5085                           ;	Brown-out Reset Voltage Selection bits
  5086                           ;	BORV = VBOR_2P45, Brown-out Reset Voltage (VBOR) set to 2.45V
  5087                           ;	ZCD Disable bit
  5088                           ;	ZCD = OFF, ZCD disabled. ZCD can be enabled by setting the ZCDSEN bit of ZCDCON
  5089                           ;	PPSLOCK bit One-Way Set Enable bit
  5090                           ;	PPS1WAY = ON, PPSLOCK bit can be cleared and set only once; PPS registers remain locke
      +                          d after one clear/set cycle
  5091                           ;	Stack Full/Underflow Reset Enable bit
  5092                           ;	STVREN = ON, Stack full/underflow will cause Reset
  5093                           ;	Debugger Enable bit
  5094                           ;	DEBUG = OFF, Background debugger disabled
  5095                           ;	Extended Instruction Set Enable bit
  5096                           ;	XINST = OFF, Extended Instruction Set and Indexed Addressing Mode disabled
  5097   300003                     	org	3145731
  5098   300003  FF                 	db	255
  5099                           
  5100                           ;Config register CONFIG3L @ 0x300004
  5101                           ;	WDT Period selection bits
  5102                           ;	WDTCPS = WDTCPS_31, Divider ratio 1:65536; software control of WDTPS
  5103                           ;	WDT operating mode
  5104                           ;	WDTE = OFF, WDT Disabled; SWDTEN is ignored
  5105   300004                     	org	3145732
  5106   300004  9F                 	db	159
  5107                           
  5108                           ;Config register CONFIG3H @ 0x300005
  5109                           ;	WDT Window Select bits
  5110                           ;	WDTCWS = WDTCWS_7, window always open (100%); software control; keyed access not requi
      +                          red
  5111                           ;	WDT input clock selector
  5112                           ;	WDTCCS = SC, Software Control
  5113   300005                     	org	3145733
  5114   300005  FF                 	db	255
  5115                           
  5116                           ;Config register CONFIG4L @ 0x300006
  5117                           ;	Boot Block Size selection bits
  5118                           ;	BBSIZE = BBSIZE_512, Boot Block size is 512 words
  5119                           ;	Boot Block enable bit
  5120                           ;	BBEN = OFF, Boot block disabled
  5121                           ;	Storage Area Flash enable bit
  5122                           ;	SAFEN = OFF, SAF disabled
  5123                           ;	Application Block write protection bit
  5124                           ;	WRTAPP = OFF, Application Block not write protected
  5125   300006                     	org	3145734
  5126   300006  FF                 	db	255
  5127                           
  5128                           ;Config register CONFIG4H @ 0x300007
  5129                           ;	Boot Block Write Protection bit
  5130                           ;	WRTB = OFF, Boot Block not write-protected
  5131                           ;	Configuration Register Write Protection bit
  5132                           ;	WRTC = OFF, Configuration registers not write-protected
  5133                           ;	Data EEPROM Write Protection bit
  5134                           ;	WRTD = OFF, Data EEPROM not write-protected
  5135                           ;	SAF Write protection bit
  5136                           ;	WRTSAF = OFF, SAF not Write Protected
  5137                           ;	Low Voltage Programming Enable bit
  5138                           ;	LVP = ON, Low voltage programming enabled. MCLR/VPP pin function is MCLR. MCLRE config
      +                          uration bit is ignored
  5139   300007                     	org	3145735
  5140   300007  FF                 	db	255
  5141                           
  5142                           ;Config register CONFIG5L @ 0x300008
  5143                           ;	PFM and Data EEPROM Code Protection bit
  5144                           ;	CP = OFF, PFM and Data EEPROM code protection disabled
  5145   300008                     	org	3145736
  5146   300008  FF                 	db	255
  5147                           
  5148                           ;Config register CONFIG5H @ 0x300009
  5149                           ;	unspecified, using default values
  5150   300009                     	org	3145737
  5151   300009  FF                 	db	255
  5152                           tosu	equ	0x3FFF
  5153                           tosh	equ	0x3FFE
  5154                           tosl	equ	0x3FFD
  5155                           stkptr	equ	0x3FFC
  5156                           pclatu	equ	0x3FFB
  5157                           pclath	equ	0x3FFA
  5158                           pcl	equ	0x3FF9
  5159                           tblptru	equ	0x3FF8
  5160                           tblptrh	equ	0x3FF7
  5161                           tblptrl	equ	0x3FF6
  5162                           tablat	equ	0x3FF5
  5163                           prodh	equ	0x3FF4
  5164                           prodl	equ	0x3FF3
  5165                           indf0	equ	0x3FEF
  5166                           postinc0	equ	0x3FEE
  5167                           postdec0	equ	0x3FED
  5168                           preinc0	equ	0x3FEC
  5169                           plusw0	equ	0x3FEB
  5170                           fsr0h	equ	0x3FEA
  5171                           fsr0l	equ	0x3FE9
  5172                           wreg	equ	0x3FE8
  5173                           indf1	equ	0x3FE7
  5174                           postinc1	equ	0x3FE6
  5175                           postdec1	equ	0x3FE5
  5176                           preinc1	equ	0x3FE4
  5177                           plusw1	equ	0x3FE3
  5178                           fsr1h	equ	0x3FE2
  5179                           fsr1l	equ	0x3FE1
  5180                           bsr	equ	0x3FE0
  5181                           indf2	equ	0x3FDF
  5182                           postinc2	equ	0x3FDE
  5183                           postdec2	equ	0x3FDD
  5184                           preinc2	equ	0x3FDC
  5185                           plusw2	equ	0x3FDB
  5186                           fsr2h	equ	0x3FDA
  5187                           fsr2l	equ	0x3FD9
  5188                           status	equ	0x3FD8

Data Sizes:
    Strings     0
    Constant    283
    Data        42
    BSS         293
    Persistent  12
    Stack       0

Auto Spaces:
    Space          Size  Autos    Used
    COMRAM           95     13      82
    BANK0           160      6     156
    BANK1           256      7     135
    BANK2           256      0       0
    BANK3           256      0       0
    BANK4           256      0       0
    BANK5           256      0       0
    BANK6           256      0       0
    BANK7           256      0       0
    BANK8           256      0       0
    BANK9           256      0       0
    BANK10          256      0       0
    BANK11          256      0       0
    BANK12          256      0       0
    BANK13          256      0       0
    BANK14          256      0       0
    BANK15          256      0       0

Pointer List with Targets:

    S567$3$0	PTR void  size(2) Largest target is 0

    S567$4$0	PTR void  size(2) Largest target is 0

    S567$5$0	PTR void  size(2) Largest target is 0

    S1244$4$0	PTR FTN()void  size(2) Largest target is 1
		 -> Timer_int(), Timer2_DefaultOverflowCallback(), Timer_DefaultOverflowCallback(), 

    S1877$17$0	PTR FTN()void  size(2) Largest target is 0

    S1877$18$0	PTR FTN()void  size(2) Largest target is 0

    S1877$20$0	PTR FTN()void  size(2) Largest target is 1
		 -> UART1_DefaultFramingErrorCallback(), 

    S1877$21$0	PTR FTN()void  size(2) Largest target is 1
		 -> UART1_DefaultOverrunErrorCallback(), 

    S1877$22$0	PTR FTN()void  size(2) Largest target is 1
		 -> UART1_DefaultParityErrorCallback(), 

    IIR_p2@W_i	PTR  size(2) Largest target is 12
		 -> IIR_p2@W(BANK0[12]), 

    IIR_p2@X_i	PTR  size(2) Largest target is 12
		 -> IIR_p2@X(BANK0[12]), 

    IIR_p1@W_i	PTR  size(2) Largest target is 12
		 -> IIR_p1@W(BANK0[12]), 

    IIR_p1@X_i	PTR  size(2) Largest target is 12
		 -> IIR_p1@X(BANK0[12]), 

    FIR_p@tail_i	PTR int  size(2) Largest target is 64
		 -> FIR_p@buffer(BANK1[64]), 

    FIR_p@head_i	PTR int  size(2) Largest target is 64
		 -> FIR_p@buffer(BANK1[64]), 

    FIR_p@tail	PTR int  size(2) Largest target is 64
		 -> FIR_p@buffer(BANK1[64]), 

    FIR_p@head	PTR int  size(2) Largest target is 64
		 -> FIR_p@buffer(BANK1[64]), 

    FIR_p@endBuffer	PTR int  size(2) Largest target is 64
		 -> FIR_p@buffer(BANK1[64]), 

    FIR_p@startBuffer	PTR int  size(2) Largest target is 64
		 -> FIR_p@buffer(BANK1[64]), 

    UART1_TxCompleteInterruptHandler	PTR FTN()void  size(2) Largest target is 1
		 -> Absolute function(), 

    UART1_ParityErrorHandler	PTR FTN()void  size(2) Largest target is 1
		 -> UART1_DefaultParityErrorCallback(), Absolute function(), 

    UART1_ParityErrorCallbackRegister@callbackHandler	PTR FTN()void  size(2) Largest target is 1
		 -> UART1_DefaultParityErrorCallback(), 

    UART1_OverrunErrorCallbackRegister@callbackHandler	PTR FTN()void  size(2) Largest target is 1
		 -> UART1_DefaultOverrunErrorCallback(), 

    UART1_FramingErrorCallbackRegister@callbackHandler	PTR FTN()void  size(2) Largest target is 1
		 -> UART1_DefaultFramingErrorCallback(), 

    UART1_RxCompleteInterruptHandler	PTR FTN()void  size(2) Largest target is 1
		 -> Absolute function(), 

    UART1_OverrunErrorHandler	PTR FTN()void  size(2) Largest target is 1
		 -> UART1_DefaultOverrunErrorCallback(), Absolute function(), 

    UART1_FramingErrorHandler	PTR FTN()void  size(2) Largest target is 1
		 -> UART1_DefaultFramingErrorCallback(), Absolute function(), 

    UART1_TxInterruptHandler	PTR FTN()void  size(2) Largest target is 1
		 -> UART1_TransmitISR(), Absolute function(), 

    UART1_RxInterruptHandler	PTR FTN()void  size(2) Largest target is 1
		 -> UART1_ReceiveISR(), Absolute function(), 

    S1877$EventCallbackRegister	PTR FTN(PTR FTN()void ,)void  size(2) Largest target is 1
		 -> Absolute function(), 

    UART.EventCallbackRegister	PTR FTN(PTR FTN()void ,)void  size(2) Largest target is 1
		 -> Absolute function(), 

    S1877$ParityErrorCallbackRegister	PTR FTN(PTR FTN()void ,)void  size(2) Largest target is 1
		 -> UART1_ParityErrorCallbackRegister(), 

    UART.ParityErrorCallbackRegister	PTR FTN(PTR FTN()void ,)void  size(2) Largest target is 1
		 -> UART1_ParityErrorCallbackRegister(), 

    S1877$OverrunErrorCallbackRegister	PTR FTN(PTR FTN()void ,)void  size(2) Largest target is 1
		 -> UART1_OverrunErrorCallbackRegister(), 

    UART.OverrunErrorCallbackRegister	PTR FTN(PTR FTN()void ,)void  size(2) Largest target is 1
		 -> UART1_OverrunErrorCallbackRegister(), 

    S1877$FramingErrorCallbackRegister	PTR FTN(PTR FTN()void ,)void  size(2) Largest target is 1
		 -> UART1_FramingErrorCallbackRegister(), 

    UART.FramingErrorCallbackRegister	PTR FTN(PTR FTN()void ,)void  size(2) Largest target is 1
		 -> UART1_FramingErrorCallbackRegister(), 

    S1877$TxCollisionCallbackRegister	PTR FTN(PTR FTN()void ,)void  size(2) Largest target is 1
		 -> Absolute function(), 

    UART.TxCollisionCallbackRegister	PTR FTN(PTR FTN()void ,)void  size(2) Largest target is 1
		 -> Absolute function(), 

    S1877$RxCompleteCallbackRegister	PTR FTN(PTR FTN()void ,)void  size(2) Largest target is 1
		 -> UART1_RxCompleteCallbackRegister(), 

    UART.RxCompleteCallbackRegister	PTR FTN(PTR FTN()void ,)void  size(2) Largest target is 1
		 -> UART1_RxCompleteCallbackRegister(), 

    S1877$TxCompleteCallbackRegister	PTR FTN(PTR FTN()void ,)void  size(2) Largest target is 1
		 -> UART1_TxCompleteCallbackRegister(), 

    UART.TxCompleteCallbackRegister	PTR FTN(PTR FTN()void ,)void  size(2) Largest target is 1
		 -> UART1_TxCompleteCallbackRegister(), 

    S1877$ErrorGet	PTR FTN()unsigned int  size(2) Largest target is 2
		 -> UART1_ErrorGet(), 

    UART.ErrorGet	PTR FTN()unsigned int  size(2) Largest target is 2
		 -> UART1_ErrorGet(), 

    S1877$BaudRateGet	PTR FTN()unsigned long  size(2) Largest target is 1
		 -> Absolute function(), 

    UART.BaudRateGet	PTR FTN()unsigned long  size(2) Largest target is 1
		 -> Absolute function(), 

    S1877$BaudRateSet	PTR FTN(unsigned long ,)void  size(2) Largest target is 1
		 -> Absolute function(), 

    UART.BaudRateSet	PTR FTN(unsigned long ,)void  size(2) Largest target is 1
		 -> Absolute function(), 

    S1877$BRGCountGet	PTR FTN()unsigned long  size(2) Largest target is 1
		 -> Absolute function(), 

    UART.BRGCountGet	PTR FTN()unsigned long  size(2) Largest target is 1
		 -> Absolute function(), 

    S1877$BRGCountSet	PTR FTN(unsigned long ,)void  size(2) Largest target is 1
		 -> Absolute function(), 

    UART.BRGCountSet	PTR FTN(unsigned long ,)void  size(2) Largest target is 1
		 -> Absolute function(), 

    S1877$AutoBaudEventEnableGet	PTR FTN()_Bool  size(2) Largest target is 1
		 -> Absolute function(), 

    UART.AutoBaudEventEnableGet	PTR FTN()_Bool  size(2) Largest target is 1
		 -> Absolute function(), 

    S1877$AutoBaudQuery	PTR FTN()_Bool  size(2) Largest target is 1
		 -> UART1_AutoBaudQuery(), 

    UART.AutoBaudQuery	PTR FTN()_Bool  size(2) Largest target is 1
		 -> UART1_AutoBaudQuery(), 

    S1877$AutoBaudSet	PTR FTN(_Bool ,)void  size(2) Largest target is 1
		 -> UART1_AutoBaudSet(), 

    UART.AutoBaudSet	PTR FTN(_Bool ,)void  size(2) Largest target is 1
		 -> UART1_AutoBaudSet(), 

    S1877$TransmitDisable	PTR FTN()void  size(2) Largest target is 1
		 -> UART1_TransmitDisable(), 

    UART.TransmitDisable	PTR FTN()void  size(2) Largest target is 1
		 -> UART1_TransmitDisable(), 

    S1877$TransmitEnable	PTR FTN()void  size(2) Largest target is 1
		 -> UART1_TransmitEnable(), 

    UART.TransmitEnable	PTR FTN()void  size(2) Largest target is 1
		 -> UART1_TransmitEnable(), 

    S1877$IsTxDone	PTR FTN()_Bool  size(2) Largest target is 1
		 -> UART1_IsTxDone(), 

    UART.IsTxDone	PTR FTN()_Bool  size(2) Largest target is 1
		 -> UART1_IsTxDone(), 

    S1877$IsTxReady	PTR FTN()_Bool  size(2) Largest target is 1
		 -> UART1_IsTxReady(), 

    UART.IsTxReady	PTR FTN()_Bool  size(2) Largest target is 1
		 -> UART1_IsTxReady(), 

    S1877$IsRxReady	PTR FTN()_Bool  size(2) Largest target is 1
		 -> UART1_IsRxReady(), 

    UART.IsRxReady	PTR FTN()_Bool  size(2) Largest target is 1
		 -> UART1_IsRxReady(), 

    S1877$Write	PTR FTN(unsigned char ,)void  size(2) Largest target is 1
		 -> UART1_Write(), 

    UART.Write	PTR FTN(unsigned char ,)void  size(2) Largest target is 1
		 -> UART1_Write(), 

    S1877$Read	PTR FTN()unsigned char  size(2) Largest target is 1
		 -> UART1_Read(), 

    UART.Read	PTR FTN()unsigned char  size(2) Largest target is 1
		 -> UART1_Read(), 

    S1877$Deinitialize	PTR FTN()void  size(2) Largest target is 1
		 -> UART1_Deinitialize(), 

    UART.Deinitialize	PTR FTN()void  size(2) Largest target is 1
		 -> UART1_Deinitialize(), 

    S1877$Initialize	PTR FTN()void  size(2) Largest target is 1
		 -> UART1_Initialize(), 

    UART.Initialize	PTR FTN()void  size(2) Largest target is 1
		 -> UART1_Initialize(), 

    Timer2_OverflowCallbackRegister@InterruptHandler	PTR FTN()void  size(2) Largest target is 1
		 -> Timer_int(), Timer2_DefaultOverflowCallback(), Timer_DefaultOverflowCallback(), 

    Timer2_OverflowCallback	PTR FTN()void  size(2) Largest target is 1
		 -> Timer_int(), Timer2_DefaultOverflowCallback(), Timer_DefaultOverflowCallback(), Absolute function(), 

    Timer2.Tasks	PTR FTN()void  size(2) Largest target is 1
		 -> Absolute function(), 

    Timer2.TimeoutCallbackRegister	PTR FTN(PTR FTN()void ,)void  size(2) Largest target is 1
		 -> Timer2_OverflowCallbackRegister(), Timer_OverflowCallbackRegister(), 

    Timer2.PeriodCountSet	PTR FTN(unsigned int ,)void  size(2) Largest target is 1
		 -> Timer2_PeriodCountSet(), Timer_PeriodCountSet(), 

    Timer2.Stop	PTR FTN()void  size(2) Largest target is 1
		 -> Timer2_Stop(), Timer_Stop(), 

    Timer2.Start	PTR FTN()void  size(2) Largest target is 1
		 -> Timer2_Start(), Timer_Start(), 

    Timer2.Initialize	PTR FTN()void  size(2) Largest target is 1
		 -> Timer2_Initialize(), Timer_Initialize(), 

    Timer_OverflowCallbackRegister@CallbackHandler	PTR FTN()void  size(2) Largest target is 1
		 -> Timer_int(), Timer2_DefaultOverflowCallback(), Timer_DefaultOverflowCallback(), 

    Timer_OverflowCallback	PTR FTN()void  size(2) Largest target is 1
		 -> Timer_int(), Timer2_DefaultOverflowCallback(), Timer_DefaultOverflowCallback(), Absolute function(), 

    S1244TMR_INTERFACE$Tasks	PTR FTN()void  size(2) Largest target is 1
		 -> Absolute function(), 

    Timer.Tasks	PTR FTN()void  size(2) Largest target is 1
		 -> Absolute function(), 

    S1244TMR_INTERFACE$TimeoutCallbackRegister	PTR FTN(PTR FTN()void ,)void  size(2) Largest target is 1
		 -> Timer2_OverflowCallbackRegister(), Timer_OverflowCallbackRegister(), 

    Timer.TimeoutCallbackRegister	PTR FTN(PTR FTN()void ,)void  size(2) Largest target is 1
		 -> Timer2_OverflowCallbackRegister(), Timer_OverflowCallbackRegister(), 

    S1244TMR_INTERFACE$PeriodCountSet	PTR FTN(unsigned int ,)void  size(2) Largest target is 1
		 -> Timer2_PeriodCountSet(), Timer_PeriodCountSet(), 

    Timer.PeriodCountSet	PTR FTN(unsigned int ,)void  size(2) Largest target is 1
		 -> Timer2_PeriodCountSet(), Timer_PeriodCountSet(), 

    S1244TMR_INTERFACE$Stop	PTR FTN()void  size(2) Largest target is 1
		 -> Timer2_Stop(), Timer_Stop(), 

    Timer.Stop	PTR FTN()void  size(2) Largest target is 1
		 -> Timer2_Stop(), Timer_Stop(), 

    S1244TMR_INTERFACE$Start	PTR FTN()void  size(2) Largest target is 1
		 -> Timer2_Start(), Timer_Start(), 

    Timer.Start	PTR FTN()void  size(2) Largest target is 1
		 -> Timer2_Start(), Timer_Start(), 

    S1244TMR_INTERFACE$Initialize	PTR FTN()void  size(2) Largest target is 1
		 -> Timer2_Initialize(), Timer_Initialize(), 

    Timer.Initialize	PTR FTN()void  size(2) Largest target is 1
		 -> Timer2_Initialize(), Timer_Initialize(), 

    INT2_SetInterruptHandler@InterruptHandler	PTR FTN()void  size(2) Largest target is 1
		 -> INT2_DefaultInterruptHandler(), 

    INT2_InterruptHandler	PTR FTN()void  size(2) Largest target is 1
		 -> Absolute function(), INT2_DefaultInterruptHandler(), 

    INT1_SetInterruptHandler@InterruptHandler	PTR FTN()void  size(2) Largest target is 1
		 -> INT1_DefaultInterruptHandler(), 

    INT1_InterruptHandler	PTR FTN()void  size(2) Largest target is 1
		 -> Absolute function(), INT1_DefaultInterruptHandler(), 

    INT0_SetInterruptHandler@InterruptHandler	PTR FTN()void  size(2) Largest target is 1
		 -> INT0_DefaultInterruptHandler(), 

    INT0_InterruptHandler	PTR FTN()void  size(2) Largest target is 1
		 -> Absolute function(), INT0_DefaultInterruptHandler(), 

    S567SPI_INTERFACE$ByteWrite	PTR FTN(unsigned char ,)void  size(2) Largest target is 1
		 -> SPI1_ByteWrite(), 

    SPI1.ByteWrite	PTR FTN(unsigned char ,)void  size(2) Largest target is 1
		 -> SPI1_ByteWrite(), 

    S567SPI_INTERFACE$ByteRead	PTR FTN()unsigned char  size(2) Largest target is 1
		 -> SPI1_ByteRead(), 

    SPI1.ByteRead	PTR FTN()unsigned char  size(2) Largest target is 1
		 -> SPI1_ByteRead(), 

    S567SPI_INTERFACE$ByteExchange	PTR FTN(unsigned char ,)unsigned char  size(2) Largest target is 1
		 -> SPI1_ByteExchange(), 

    SPI1.ByteExchange	PTR FTN(unsigned char ,)unsigned char  size(2) Largest target is 1
		 -> SPI1_ByteExchange(), 

    S567SPI_INTERFACE$BufferWrite	PTR FTN(PTR void ,unsigned int ,)void  size(2) Largest target is 1
		 -> SPI1_BufferWrite(), 

    SPI1.BufferWrite	PTR FTN(PTR void ,unsigned int ,)void  size(2) Largest target is 1
		 -> SPI1_BufferWrite(), 

    S567SPI_INTERFACE$BufferRead	PTR FTN(PTR void ,unsigned int ,)void  size(2) Largest target is 1
		 -> SPI1_BufferRead(), 

    SPI1.BufferRead	PTR FTN(PTR void ,unsigned int ,)void  size(2) Largest target is 1
		 -> SPI1_BufferRead(), 

    S567SPI_INTERFACE$BufferExchange	PTR FTN(PTR void ,unsigned int ,)void  size(2) Largest target is 1
		 -> SPI1_BufferExchange(), 

    SPI1.BufferExchange	PTR FTN(PTR void ,unsigned int ,)void  size(2) Largest target is 1
		 -> SPI1_BufferExchange(), 

    S567SPI_INTERFACE$Open	PTR FTN()_Bool  size(2) Largest target is 1
		 -> SPI1_Open(), 

    SPI1.Open	PTR FTN()_Bool  size(2) Largest target is 1
		 -> SPI1_Open(), 

    S567SPI_INTERFACE$Close	PTR FTN()void  size(2) Largest target is 1
		 -> SPI1_Close(), 

    SPI1.Close	PTR FTN()void  size(2) Largest target is 1
		 -> SPI1_Close(), 

    S567SPI_INTERFACE$Initialize	PTR FTN()void  size(2) Largest target is 1
		 -> SPI1_Initialize(), 

    SPI1.Initialize	PTR FTN()void  size(2) Largest target is 1
		 -> SPI1_Initialize(), 

    ADCC_SetADIInterruptHandler@InterruptHandler	PTR FTN()void  size(2) Largest target is 1
		 -> ADC_int(), ADCC_DefaultADI_ISR(), 

    ADCC_ADI_InterruptHandler	PTR FTN()void  size(2) Largest target is 1
		 -> ADC_int(), Absolute function(), ADCC_DefaultADI_ISR(), 


Critical Paths under _main in COMRAM

    None.

Critical Paths under _ADCC_ISR in COMRAM

    _ADCC_ISR->_ADC_int
    _ADC_int->_UART1_Write

Critical Paths under _IOC_ISR in COMRAM

    None.

Critical Paths under _INT0_ISR in COMRAM

    None.

Critical Paths under _INT1_ISR in COMRAM

    None.

Critical Paths under _INT2_ISR in COMRAM

    None.

Critical Paths under _Default_ISR in COMRAM

    None.

Critical Paths under _Timer_OverflowISR in COMRAM

    _Timer_int->i2_ADCC_StartConversion

Critical Paths under _Timer2_ISR in COMRAM

    None.

Critical Paths under _UART1_Receive_Vector_ISR in COMRAM

    None.

Critical Paths under _UART1_Transmit_Vector_ISR in COMRAM

    _UART1_Transmit_Vector_ISR->_UART1_TransmitISR

Critical Paths under _main in BANK0

    None.

Critical Paths under _ADCC_ISR in BANK0

    None.

Critical Paths under _IOC_ISR in BANK0

    None.

Critical Paths under _INT0_ISR in BANK0

    None.

Critical Paths under _INT1_ISR in BANK0

    None.

Critical Paths under _INT2_ISR in BANK0

    None.

Critical Paths under _Default_ISR in BANK0

    None.

Critical Paths under _Timer_OverflowISR in BANK0

    None.

Critical Paths under _Timer2_ISR in BANK0

    None.

Critical Paths under _UART1_Receive_Vector_ISR in BANK0

    None.

Critical Paths under _UART1_Transmit_Vector_ISR in BANK0

    None.

Critical Paths under _main in BANK1

    _SYSTEM_Initialize->_Timer_Initialize
    _UART1_Initialize->_UART1_FramingErrorCallbackRegister
    _UART1_Initialize->_UART1_OverrunErrorCallbackRegister
    _UART1_Initialize->_UART1_ParityErrorCallbackRegister
    _Timer_Initialize->_Timer_OverflowCallbackRegister
    _Timer2_Initialize->_Timer2_OverflowCallbackRegister
    _INTERRUPT_Initialize->_INT0_SetInterruptHandler
    _INTERRUPT_Initialize->_INT1_SetInterruptHandler
    _INTERRUPT_Initialize->_INT2_SetInterruptHandler
    _ADCC_Initialize->_ADCC_SetADIInterruptHandler

Critical Paths under _ADCC_ISR in BANK1

    None.

Critical Paths under _IOC_ISR in BANK1

    None.

Critical Paths under _INT0_ISR in BANK1

    None.

Critical Paths under _INT1_ISR in BANK1

    None.

Critical Paths under _INT2_ISR in BANK1

    None.

Critical Paths under _Default_ISR in BANK1

    None.

Critical Paths under _Timer_OverflowISR in BANK1

    None.

Critical Paths under _Timer2_ISR in BANK1

    None.

Critical Paths under _UART1_Receive_Vector_ISR in BANK1

    None.

Critical Paths under _UART1_Transmit_Vector_ISR in BANK1

    None.

Critical Paths under _main in BANK2

    None.

Critical Paths under _ADCC_ISR in BANK2

    None.

Critical Paths under _IOC_ISR in BANK2

    None.

Critical Paths under _INT0_ISR in BANK2

    None.

Critical Paths under _INT1_ISR in BANK2

    None.

Critical Paths under _INT2_ISR in BANK2

    None.

Critical Paths under _Default_ISR in BANK2

    None.

Critical Paths under _Timer_OverflowISR in BANK2

    None.

Critical Paths under _Timer2_ISR in BANK2

    None.

Critical Paths under _UART1_Receive_Vector_ISR in BANK2

    None.

Critical Paths under _UART1_Transmit_Vector_ISR in BANK2

    None.

Critical Paths under _main in BANK3

    None.

Critical Paths under _ADCC_ISR in BANK3

    None.

Critical Paths under _IOC_ISR in BANK3

    None.

Critical Paths under _INT0_ISR in BANK3

    None.

Critical Paths under _INT1_ISR in BANK3

    None.

Critical Paths under _INT2_ISR in BANK3

    None.

Critical Paths under _Default_ISR in BANK3

    None.

Critical Paths under _Timer_OverflowISR in BANK3

    None.

Critical Paths under _Timer2_ISR in BANK3

    None.

Critical Paths under _UART1_Receive_Vector_ISR in BANK3

    None.

Critical Paths under _UART1_Transmit_Vector_ISR in BANK3

    None.

Critical Paths under _main in BANK4

    None.

Critical Paths under _ADCC_ISR in BANK4

    None.

Critical Paths under _IOC_ISR in BANK4

    None.

Critical Paths under _INT0_ISR in BANK4

    None.

Critical Paths under _INT1_ISR in BANK4

    None.

Critical Paths under _INT2_ISR in BANK4

    None.

Critical Paths under _Default_ISR in BANK4

    None.

Critical Paths under _Timer_OverflowISR in BANK4

    None.

Critical Paths under _Timer2_ISR in BANK4

    None.

Critical Paths under _UART1_Receive_Vector_ISR in BANK4

    None.

Critical Paths under _UART1_Transmit_Vector_ISR in BANK4

    None.

Critical Paths under _main in BANK5

    None.

Critical Paths under _ADCC_ISR in BANK5

    None.

Critical Paths under _IOC_ISR in BANK5

    None.

Critical Paths under _INT0_ISR in BANK5

    None.

Critical Paths under _INT1_ISR in BANK5

    None.

Critical Paths under _INT2_ISR in BANK5

    None.

Critical Paths under _Default_ISR in BANK5

    None.

Critical Paths under _Timer_OverflowISR in BANK5

    None.

Critical Paths under _Timer2_ISR in BANK5

    None.

Critical Paths under _UART1_Receive_Vector_ISR in BANK5

    None.

Critical Paths under _UART1_Transmit_Vector_ISR in BANK5

    None.

Critical Paths under _main in BANK6

    None.

Critical Paths under _ADCC_ISR in BANK6

    None.

Critical Paths under _IOC_ISR in BANK6

    None.

Critical Paths under _INT0_ISR in BANK6

    None.

Critical Paths under _INT1_ISR in BANK6

    None.

Critical Paths under _INT2_ISR in BANK6

    None.

Critical Paths under _Default_ISR in BANK6

    None.

Critical Paths under _Timer_OverflowISR in BANK6

    None.

Critical Paths under _Timer2_ISR in BANK6

    None.

Critical Paths under _UART1_Receive_Vector_ISR in BANK6

    None.

Critical Paths under _UART1_Transmit_Vector_ISR in BANK6

    None.

Critical Paths under _main in BANK7

    None.

Critical Paths under _ADCC_ISR in BANK7

    None.

Critical Paths under _IOC_ISR in BANK7

    None.

Critical Paths under _INT0_ISR in BANK7

    None.

Critical Paths under _INT1_ISR in BANK7

    None.

Critical Paths under _INT2_ISR in BANK7

    None.

Critical Paths under _Default_ISR in BANK7

    None.

Critical Paths under _Timer_OverflowISR in BANK7

    None.

Critical Paths under _Timer2_ISR in BANK7

    None.

Critical Paths under _UART1_Receive_Vector_ISR in BANK7

    None.

Critical Paths under _UART1_Transmit_Vector_ISR in BANK7

    None.

Critical Paths under _main in BANK8

    None.

Critical Paths under _ADCC_ISR in BANK8

    None.

Critical Paths under _IOC_ISR in BANK8

    None.

Critical Paths under _INT0_ISR in BANK8

    None.

Critical Paths under _INT1_ISR in BANK8

    None.

Critical Paths under _INT2_ISR in BANK8

    None.

Critical Paths under _Default_ISR in BANK8

    None.

Critical Paths under _Timer_OverflowISR in BANK8

    None.

Critical Paths under _Timer2_ISR in BANK8

    None.

Critical Paths under _UART1_Receive_Vector_ISR in BANK8

    None.

Critical Paths under _UART1_Transmit_Vector_ISR in BANK8

    None.

Critical Paths under _main in BANK9

    None.

Critical Paths under _ADCC_ISR in BANK9

    None.

Critical Paths under _IOC_ISR in BANK9

    None.

Critical Paths under _INT0_ISR in BANK9

    None.

Critical Paths under _INT1_ISR in BANK9

    None.

Critical Paths under _INT2_ISR in BANK9

    None.

Critical Paths under _Default_ISR in BANK9

    None.

Critical Paths under _Timer_OverflowISR in BANK9

    None.

Critical Paths under _Timer2_ISR in BANK9

    None.

Critical Paths under _UART1_Receive_Vector_ISR in BANK9

    None.

Critical Paths under _UART1_Transmit_Vector_ISR in BANK9

    None.

Critical Paths under _main in BANK10

    None.

Critical Paths under _ADCC_ISR in BANK10

    None.

Critical Paths under _IOC_ISR in BANK10

    None.

Critical Paths under _INT0_ISR in BANK10

    None.

Critical Paths under _INT1_ISR in BANK10

    None.

Critical Paths under _INT2_ISR in BANK10

    None.

Critical Paths under _Default_ISR in BANK10

    None.

Critical Paths under _Timer_OverflowISR in BANK10

    None.

Critical Paths under _Timer2_ISR in BANK10

    None.

Critical Paths under _UART1_Receive_Vector_ISR in BANK10

    None.

Critical Paths under _UART1_Transmit_Vector_ISR in BANK10

    None.

Critical Paths under _main in BANK11

    None.

Critical Paths under _ADCC_ISR in BANK11

    None.

Critical Paths under _IOC_ISR in BANK11

    None.

Critical Paths under _INT0_ISR in BANK11

    None.

Critical Paths under _INT1_ISR in BANK11

    None.

Critical Paths under _INT2_ISR in BANK11

    None.

Critical Paths under _Default_ISR in BANK11

    None.

Critical Paths under _Timer_OverflowISR in BANK11

    None.

Critical Paths under _Timer2_ISR in BANK11

    None.

Critical Paths under _UART1_Receive_Vector_ISR in BANK11

    None.

Critical Paths under _UART1_Transmit_Vector_ISR in BANK11

    None.

Critical Paths under _main in BANK12

    None.

Critical Paths under _ADCC_ISR in BANK12

    None.

Critical Paths under _IOC_ISR in BANK12

    None.

Critical Paths under _INT0_ISR in BANK12

    None.

Critical Paths under _INT1_ISR in BANK12

    None.

Critical Paths under _INT2_ISR in BANK12

    None.

Critical Paths under _Default_ISR in BANK12

    None.

Critical Paths under _Timer_OverflowISR in BANK12

    None.

Critical Paths under _Timer2_ISR in BANK12

    None.

Critical Paths under _UART1_Receive_Vector_ISR in BANK12

    None.

Critical Paths under _UART1_Transmit_Vector_ISR in BANK12

    None.

Critical Paths under _main in BANK13

    None.

Critical Paths under _ADCC_ISR in BANK13

    None.

Critical Paths under _IOC_ISR in BANK13

    None.

Critical Paths under _INT0_ISR in BANK13

    None.

Critical Paths under _INT1_ISR in BANK13

    None.

Critical Paths under _INT2_ISR in BANK13

    None.

Critical Paths under _Default_ISR in BANK13

    None.

Critical Paths under _Timer_OverflowISR in BANK13

    None.

Critical Paths under _Timer2_ISR in BANK13

    None.

Critical Paths under _UART1_Receive_Vector_ISR in BANK13

    None.

Critical Paths under _UART1_Transmit_Vector_ISR in BANK13

    None.

Critical Paths under _main in BANK14

    None.

Critical Paths under _ADCC_ISR in BANK14

    None.

Critical Paths under _IOC_ISR in BANK14

    None.

Critical Paths under _INT0_ISR in BANK14

    None.

Critical Paths under _INT1_ISR in BANK14

    None.

Critical Paths under _INT2_ISR in BANK14

    None.

Critical Paths under _Default_ISR in BANK14

    None.

Critical Paths under _Timer_OverflowISR in BANK14

    None.

Critical Paths under _Timer2_ISR in BANK14

    None.

Critical Paths under _UART1_Receive_Vector_ISR in BANK14

    None.

Critical Paths under _UART1_Transmit_Vector_ISR in BANK14

    None.

Critical Paths under _main in BANK15

    None.

Critical Paths under _ADCC_ISR in BANK15

    None.

Critical Paths under _IOC_ISR in BANK15

    None.

Critical Paths under _INT0_ISR in BANK15

    None.

Critical Paths under _INT1_ISR in BANK15

    None.

Critical Paths under _INT2_ISR in BANK15

    None.

Critical Paths under _Default_ISR in BANK15

    None.

Critical Paths under _Timer_OverflowISR in BANK15

    None.

Critical Paths under _Timer2_ISR in BANK15

    None.

Critical Paths under _UART1_Receive_Vector_ISR in BANK15

    None.

Critical Paths under _UART1_Transmit_Vector_ISR in BANK15

    None.

Call Graph Tables:

 ---------------------------------------------------------------------------------
 (Depth) Function   	        Calls       Base Space   Used Autos Params    Refs
 ---------------------------------------------------------------------------------
 (0) _main                                                 0     0      0    1818
        _ADCC_SetADIInterruptHandler
                          _SPI1_Open
                  _SYSTEM_Initialize
     _Timer_OverflowCallbackRegister
 ---------------------------------------------------------------------------------
 (1) _SYSTEM_Initialize                                    0     0      0    1396
                    _ADCC_Initialize
                   _CLOCK_Initialize
                     _FVR_Initialize
               _INTERRUPT_Initialize
             _PIN_MANAGER_Initialize
                    _SPI1_Initialize
                  _Timer2_Initialize
                   _Timer_Initialize
                   _UART1_Initialize
                   _UART2_Initialize
 ---------------------------------------------------------------------------------
 (2) _UART2_Initialize                                     0     0      0       0
 ---------------------------------------------------------------------------------
 (2) _UART1_Initialize                                     0     0      0     456
 _UART1_FramingErrorCallbackRegister
 _UART1_OverrunErrorCallbackRegister
  _UART1_ParityErrorCallbackRegister
 ---------------------------------------------------------------------------------
 (3) _UART1_ParityErrorCallbackRegister                    2     0      2     152
                                              3 BANK1      2     0      2
 ---------------------------------------------------------------------------------
 (3) _UART1_OverrunErrorCallbackRegister                   2     0      2     152
                                              3 BANK1      2     0      2
 ---------------------------------------------------------------------------------
 (3) _UART1_FramingErrorCallbackRegister                   2     0      2     152
                                              3 BANK1      2     0      2
 ---------------------------------------------------------------------------------
 (2) _Timer_Initialize                                     2     2      0     211
                                              5 BANK1      2     2      0
     _Timer_OverflowCallbackRegister
 ---------------------------------------------------------------------------------
 (1) _Timer_OverflowCallbackRegister                       2     0      2     211
                                              3 BANK1      2     0      2
 ---------------------------------------------------------------------------------
 (2) _Timer2_Initialize                                    0     0      0     121
    _Timer2_OverflowCallbackRegister
 ---------------------------------------------------------------------------------
 (3) _Timer2_OverflowCallbackRegister                      2     0      2     121
                                              3 BANK1      2     0      2
 ---------------------------------------------------------------------------------
 (2) _SPI1_Initialize                                      0     0      0       0
 ---------------------------------------------------------------------------------
 (2) _PIN_MANAGER_Initialize                               0     0      0       0
 ---------------------------------------------------------------------------------
 (2) _INTERRUPT_Initialize                                 1     1      0     397
                                              5 BANK1      1     1      0
           _INT0_SetInterruptHandler
           _INT1_SetInterruptHandler
           _INT2_SetInterruptHandler
 ---------------------------------------------------------------------------------
 (3) _INT2_SetInterruptHandler                             2     0      2     121
                                              3 BANK1      2     0      2
 ---------------------------------------------------------------------------------
 (3) _INT1_SetInterruptHandler                             2     0      2     121
                                              3 BANK1      2     0      2
 ---------------------------------------------------------------------------------
 (3) _INT0_SetInterruptHandler                             2     0      2     121
                                              3 BANK1      2     0      2
 ---------------------------------------------------------------------------------
 (2) _FVR_Initialize                                       0     0      0       0
 ---------------------------------------------------------------------------------
 (2) _CLOCK_Initialize                                     0     0      0       0
 ---------------------------------------------------------------------------------
 (2) _ADCC_Initialize                                      0     0      0     211
        _ADCC_SetADIInterruptHandler
 ---------------------------------------------------------------------------------
 (3) _ADCC_SetADIInterruptHandler                          2     0      2     211
                                              3 BANK1      2     0      2
 ---------------------------------------------------------------------------------
 (1) _SPI1_Open                                            0     0      0       0
 ---------------------------------------------------------------------------------
 Estimated maximum stack depth 3
 ---------------------------------------------------------------------------------
 (Depth) Function   	        Calls       Base Space   Used Autos Params    Refs
 ---------------------------------------------------------------------------------
 (4) _ADCC_ISR                                             3     3      0     111
                                             10 COMRAM     3     3      0
                   Absolute function *
                _ADCC_DefaultADI_ISR *
                            _ADC_int *
 ---------------------------------------------------------------------------------
 (5) _ADC_int                                              2     2      0     111
                                              8 COMRAM     2     2      0
               _ADCC_StartConversion
                     _SPI1_ByteWrite
                       _Timer2_Start
                        _UART1_Write
 ---------------------------------------------------------------------------------
 (6) _UART1_Write                                          2     2      0      67
                                              6 COMRAM     2     2      0
 ---------------------------------------------------------------------------------
 (6) _Timer2_Start                                         0     0      0       0
 ---------------------------------------------------------------------------------
 (6) _SPI1_ByteWrite                                       1     1      0      22
                                              6 COMRAM     1     1      0
 ---------------------------------------------------------------------------------
 (6) _ADCC_StartConversion                                 1     1      0      22
                                              6 COMRAM     1     1      0
 ---------------------------------------------------------------------------------
 (5) _ADCC_DefaultADI_ISR                                  0     0      0       0
 ---------------------------------------------------------------------------------
 (8) Absolute function(Fake)                               0     0      0       0
 ---------------------------------------------------------------------------------
 Estimated maximum stack depth 8
 ---------------------------------------------------------------------------------
 (Depth) Function   	        Calls       Base Space   Used Autos Params    Refs
 ---------------------------------------------------------------------------------
 (4) _IOC_ISR                                              0     0      0       0
                    _PIN_MANAGER_IOC
 ---------------------------------------------------------------------------------
 (5) _PIN_MANAGER_IOC                                      0     0      0       0
 ---------------------------------------------------------------------------------
 Estimated maximum stack depth 5
 ---------------------------------------------------------------------------------
 (Depth) Function   	        Calls       Base Space   Used Autos Params    Refs
 ---------------------------------------------------------------------------------
 (4) _INT0_ISR                                             3     3      0       0
                                              0 BANK0      3     3      0
                      _INT0_CallBack
 ---------------------------------------------------------------------------------
 (5) _INT0_CallBack                                        0     0      0       0
                   Absolute function *
       _INT0_DefaultInterruptHandler *
 ---------------------------------------------------------------------------------
 (6) _INT0_DefaultInterruptHandler                         0     0      0       0
 ---------------------------------------------------------------------------------
 (8) Absolute function(Fake)                               0     0      0       0
 ---------------------------------------------------------------------------------
 Estimated maximum stack depth 8
 ---------------------------------------------------------------------------------
 (Depth) Function   	        Calls       Base Space   Used Autos Params    Refs
 ---------------------------------------------------------------------------------
 (4) _INT1_ISR                                             3     3      0       0
                                              3 BANK0      3     3      0
                      _INT1_CallBack
 ---------------------------------------------------------------------------------
 (5) _INT1_CallBack                                        0     0      0       0
                   Absolute function *
       _INT1_DefaultInterruptHandler *
 ---------------------------------------------------------------------------------
 (6) _INT1_DefaultInterruptHandler                         0     0      0       0
 ---------------------------------------------------------------------------------
 (8) Absolute function(Fake)                               0     0      0       0
 ---------------------------------------------------------------------------------
 Estimated maximum stack depth 8
 ---------------------------------------------------------------------------------
 (Depth) Function   	        Calls       Base Space   Used Autos Params    Refs
 ---------------------------------------------------------------------------------
 (4) _INT2_ISR                                             3     3      0       0
                                              0 BANK1      3     3      0
                      _INT2_CallBack
 ---------------------------------------------------------------------------------
 (5) _INT2_CallBack                                        0     0      0       0
                   Absolute function *
       _INT2_DefaultInterruptHandler *
 ---------------------------------------------------------------------------------
 (6) _INT2_DefaultInterruptHandler                         0     0      0       0
 ---------------------------------------------------------------------------------
 (8) Absolute function(Fake)                               0     0      0       0
 ---------------------------------------------------------------------------------
 Estimated maximum stack depth 8
 ---------------------------------------------------------------------------------
 (Depth) Function   	        Calls       Base Space   Used Autos Params    Refs
 ---------------------------------------------------------------------------------
 (7) _Default_ISR                                          0     0      0       0
 ---------------------------------------------------------------------------------
 Estimated maximum stack depth 7
 ---------------------------------------------------------------------------------
 (Depth) Function   	        Calls       Base Space   Used Autos Params    Refs
 ---------------------------------------------------------------------------------
 (7) _Timer_OverflowISR                                    2     2      0      22
                                              1 COMRAM     2     2      0
                   Absolute function *
     _Timer2_DefaultOverflowCallback *
      _Timer_DefaultOverflowCallback *
                          _Timer_int *
 ---------------------------------------------------------------------------------
 (8) _Timer_int                                            0     0      0      22
             i2_ADCC_StartConversion
 ---------------------------------------------------------------------------------
 (9) i2_ADCC_StartConversion                               1     1      0      22
                                              0 COMRAM     1     1      0
 ---------------------------------------------------------------------------------
 (8) _Timer_DefaultOverflowCallback                        0     0      0       0
 ---------------------------------------------------------------------------------
 (8) _Timer2_DefaultOverflowCallback                       0     0      0       0
 ---------------------------------------------------------------------------------
 (8) Absolute function(Fake)                               0     0      0       0
 ---------------------------------------------------------------------------------
 Estimated maximum stack depth 9
 ---------------------------------------------------------------------------------
 (Depth) Function   	        Calls       Base Space   Used Autos Params    Refs
 ---------------------------------------------------------------------------------
 (7) _Timer2_ISR                                           0     0      0       0
                        _Timer2_Stop
 ---------------------------------------------------------------------------------
 (8) _Timer2_Stop                                          0     0      0       0
 ---------------------------------------------------------------------------------
 Estimated maximum stack depth 8
 ---------------------------------------------------------------------------------
 (Depth) Function   	        Calls       Base Space   Used Autos Params    Refs
 ---------------------------------------------------------------------------------
 (7) _UART1_Receive_Vector_ISR                             2     2      0       0
                                              3 COMRAM     2     2      0
 ---------------------------------------------------------------------------------
 Estimated maximum stack depth 7
 ---------------------------------------------------------------------------------
 (Depth) Function   	        Calls       Base Space   Used Autos Params    Refs
 ---------------------------------------------------------------------------------
 (7) _UART1_Transmit_Vector_ISR                            0     0      0      23
                  _UART1_TransmitISR
 ---------------------------------------------------------------------------------
 (8) _UART1_TransmitISR                                    1     1      0      23
                                              5 COMRAM     1     1      0
 ---------------------------------------------------------------------------------
 Estimated maximum stack depth 8
 ---------------------------------------------------------------------------------

 Call Graph Graphs:

 _main (ROOT)
   _ADCC_SetADIInterruptHandler
   _SPI1_Open
   _SYSTEM_Initialize
     _ADCC_Initialize
       _ADCC_SetADIInterruptHandler
     _CLOCK_Initialize
     _FVR_Initialize
     _INTERRUPT_Initialize
       _INT0_SetInterruptHandler
       _INT1_SetInterruptHandler
       _INT2_SetInterruptHandler
     _PIN_MANAGER_Initialize
     _SPI1_Initialize
     _Timer2_Initialize
       _Timer2_OverflowCallbackRegister
     _Timer_Initialize
       _Timer_OverflowCallbackRegister
     _UART1_Initialize
       _UART1_FramingErrorCallbackRegister
       _UART1_OverrunErrorCallbackRegister
       _UART1_ParityErrorCallbackRegister
     _UART2_Initialize
   _Timer_OverflowCallbackRegister

 _ADCC_ISR (ROOT)
   Absolute function(Fake) *
   _ADCC_DefaultADI_ISR *
   _ADC_int *
     _ADCC_StartConversion
     _SPI1_ByteWrite
     _Timer2_Start
     _UART1_Write

 _IOC_ISR (ROOT)
   _PIN_MANAGER_IOC

 _INT0_ISR (ROOT)
   _INT0_CallBack
     Absolute function(Fake) *
     _INT0_DefaultInterruptHandler *

 _INT1_ISR (ROOT)
   _INT1_CallBack
     Absolute function(Fake) *
     _INT1_DefaultInterruptHandler *

 _INT2_ISR (ROOT)
   _INT2_CallBack
     Absolute function(Fake) *
     _INT2_DefaultInterruptHandler *

 _Default_ISR (ROOT)

 _Timer_OverflowISR (ROOT)
   Absolute function(Fake) *
   _Timer2_DefaultOverflowCallback *
   _Timer_DefaultOverflowCallback *
   _Timer_int *
     i2_ADCC_StartConversion

 _Timer2_ISR (ROOT)
   _Timer2_Stop

 _UART1_Receive_Vector_ISR (ROOT)

 _UART1_Transmit_Vector_ISR (ROOT)
   _UART1_TransmitISR

 Address spaces:
Name               Size   Autos  Total    Cost      Usage
BIGRAM             FFF      0       0      77        0.0%
EEDATA             400      0       0       0        0.0%
BITBIGSFRlhllll    22A      0       0      54        0.0%
BITBIGSFRlllll     180      0       0      75        0.0%
BITBANK15          100      0       0      34        0.0%
BANK15             100      0       0      35        0.0%
BITBANK14          100      0       0      32        0.0%
BANK14             100      0       0      33        0.0%
BITBANK13          100      0       0      30        0.0%
BANK13             100      0       0      31        0.0%
BITBANK12          100      0       0      28        0.0%
BANK12             100      0       0      29        0.0%
BITBANK11          100      0       0      26        0.0%
BANK11             100      0       0      27        0.0%
BITBANK10          100      0       0      24        0.0%
BANK10             100      0       0      25        0.0%
BITBANK9           100      0       0      22        0.0%
BANK9              100      0       0      23        0.0%
BITBANK8           100      0       0      20        0.0%
BANK8              100      0       0      21        0.0%
BITBANK7           100      0       0      18        0.0%
BANK7              100      0       0      19        0.0%
BITBANK6           100      0       0      16        0.0%
BANK6              100      0       0      17        0.0%
BITBANK5           100      0       0      14        0.0%
BANK5              100      0       0      15        0.0%
BITBANK4           100      0       0      12        0.0%
BANK4              100      0       0      13        0.0%
BITBANK3           100      0       0      10        0.0%
BANK3              100      0       0      11        0.0%
BITBANK2           100      0       0       8        0.0%
BANK2              100      0       0       9        0.0%
BITBANK1           100      0       0       6        0.0%
BANK1              100      7      87       7       52.7%
BITBIGSFRlhlhhh     C6      0       0      44        0.0%
BITBIGSFRlhllhh     B5      0       0      50        0.0%
BITBIGSFRhhhhhh     AA      0       0      41        0.0%
BITBANK0            A0      0       0       4        0.0%
BANK0               A0      6      9C       5       97.5%
BITCOMRAM           5F      0       0       0        0.0%
COMRAM              5F      D      52       1       86.3%
BITBIGSFRlhllll     56      0       0      56        0.0%
BITBIGSFRlhllll     33      0       0      66        0.0%
BITBIGSFRlhllll     31      0       0      69        0.0%
BITBIGSFRlhllll     29      0       0      64        0.0%
BITBIGSFRhhhhhh     28      0       0      36        0.0%
BITBIGSFRlhh        1C      0       0      43        0.0%
BITBIGSFRllhh        C      0       0      71        0.0%
BITBIGSFRlllh        C      0       0      73        0.0%
BITBIGSFRhhhhhh      B      0       0      38        0.0%
BITBIGSFRlhllll      8      0       0      63        0.0%
BITBIGSFRhhhhhh      6      0       0      40        0.0%
BITBIGSFRlhllll      5      0       0      55        0.0%
BITBIGSFRlhllll      5      0       0      58        0.0%
BITBIGSFRlhlhhh      5      0       0      45        0.0%
BITBIGSFRlhllll      4      0       0      57        0.0%
BITBIGSFRlhllll      4      0       0      59        0.0%
BITBIGSFRlhllll      4      0       0      61        0.0%
BITBIGSFRhhhhhh      3      0       0      39        0.0%
BITBIGSFRlhllll      2      0       0      60        0.0%
BITBIGSFRlhllll      2      0       0      62        0.0%
BITBIGSFRlhllhl      2      0       0      51        0.0%
BITBIGSFRlhllhl      2      0       0      52        0.0%
BITBIGSFRlhllll      1      0       0      70        0.0%
BITBIGSFRllllh       1      0       0      74        0.0%
BITBIGSFRhhhhhh      1      0       0      37        0.0%
BITBIGSFRlhllll      1      0       0      67        0.0%
BITBIGSFRlhllll      1      0       0      68        0.0%
BITBIGSFRlhllll      1      0       0      65        0.0%
BITBIGSFRlhlllh      1      0       0      53        0.0%
BITBIGSFRlhlhhh      1      0       0      46        0.0%
BITBIGSFRlhlhhh      1      0       0      47        0.0%
BITBIGSFRlhlhhl      1      0       0      48        0.0%
BITBIGSFRlhlhl       1      0       0      49        0.0%
BITBIGSFRllhl        1      0       0      72        0.0%
BITBIGSFRhhhhhl      1      0       0      42        0.0%
BIGSFR               0      0       0     200        0.0%
BITSFR_8             0      0       0     200        0.0%
SFR_8                0      0       0     200        0.0%
BITSFR_7             0      0       0     200        0.0%
SFR_7                0      0       0     200        0.0%
BITSFR_6             0      0       0     200        0.0%
SFR_6                0      0       0     200        0.0%
BITSFR_5             0      0       0     200        0.0%
SFR_5                0      0       0     200        0.0%
BITSFR_4             0      0       0     200        0.0%
SFR_4                0      0       0     200        0.0%
BITSFR_3             0      0       0     200        0.0%
SFR_3                0      0       0     200        0.0%
BITSFR_2             0      0       0     200        0.0%
SFR_2                0      0       0     200        0.0%
BITSFR_1             0      0       0     200        0.0%
SFR_1                0      0       0     200        0.0%
BITSFR               0      0       0     200        0.0%
SFR                  0      0       0     200        0.0%
STACK                0      0       0       2        0.0%
NULL                 0      0       0       0        0.0%
ABS                  0      0     175      76        0.0%
DATA                 0      0     175       3        0.0%
CODE                 0      0       0       0        0.0%


Microchip Technology PIC18 Macro Assembler V2.40 build 20220703182018 
Symbol Table                                                                                   Wed Mar 29 11:31:44 2023

                                _SPI1_ByteExchange 000000                                                  _B FFCE  
                                               _DL FFB5                                                 l89 04C0  
                                               _NL FFBF                                                 u80 0878  
                                               u81 0874                             __end_of_FVR_Initialize 09C2  
                      UART1_TransmitISR@tempTxTail 0049                                                l221 0630  
                                              l272 0890                                                l353 0866  
                                              l179 09AE                                                l603 0990  
                                              l268 0904                                                l189 09C0  
                                              l551 03D2                                                l720 06FC  
                                              l641 06CE                                                l490 091C  
                                              l474 0296                                                l573 09A4  
                                              l588 099A                                                l668 097C  
                                              l749 0986                                                _DEN FEE3  
                                              l889 0350                                                _GIE 01FE97  
                                              _PR2 003FAB                                                _NUM FF1F  
                       ??_INT0_SetInterruptHandler 0051                                                tosl 003FFD  
                                              wreg 003FE8                                    __end_of_ADC_int 01B8  
                                    _INT0_CallBack 078E                                     _UART1_IsTxDone 000000  
                     ?_ADCC_SetADIInterruptHandler 0183                                      _INT1_CallBack 07BA  
                         _UART1_ParityErrorHandler 0017                                     _UART1_ErrorGet 000000  
                                  __end_of_IOC_ISR 09CA                                               l1012 08EA  
                                             l1020 08AE                                               l1016 08CC  
                                             l2120 0868                                               l1057 0696  
                                             l2122 0878                                               l1058 0696  
                                             l2124 088C                                               l2126 088E  
                                             l1940 08EC                                               l1950 0906  
                                             l1942 08FE                               _ADCC_StartConversion 0958  
                                             l1936 09BA                                               l1960 023C  
                                             l1952 01B8                                               l3800 02C2  
                                             l1962 0242                                               l1954 0236  
                                             l3810 02D6                                               l3802 02C6  
                                             l1938 05FA                                               l3740 0988  
                                             l1964 0244                                               l1956 0238  
                                             l3820 02EA                                               l3812 02DA  
                                             l3804 02CA                                               l3900 084A  
                                             l3734 09A6                                               l1966 0246  
                                             l1958 023A                                               l3742 0974  
                                             l3750 08B0                                               l3830 02FE  
                                             l3822 02EE                                               l3814 02DE  
                                             l3806 02CE                                               l3910 0862  
                                             l3902 084E                                               l3760 04A8  
                                             l3736 099C                                               l1968 0248  
                                             l3744 097E                                               l3752 08C4  
                                             l3840 0334                                               l3832 0302  
                                             l3824 02F2                                               l3816 02E2  
                                             l3808 02D2                                               l3904 0852  
                                             l3762 04AC                                               l3738 0992  
                                             l3770 06B8                                               l3746 08CE  
                                             l3754 0892                                               l3850 0348  
                                             l3842 0338                                               l3834 0310  
                                             l3826 02F6                                               l3818 02E6  
                                             l3906 0856                                               l3930 0680  
                                             l3764 04BA                                               l3860 0368  
                                             l3780 06E4                                               l3772 06C4  
                                             l3748 08E2                                               l3756 08A6  
                                             l3852 034C                                               l3844 033C  
                                             l3836 031E                                               l3828 02FA  
                                             l3908 085A                                               l3932 068E  
                                             l3924 066A                                               l3766 04BE  
                                             l3758 044E                                               l3870 0390  
                                             l3862 037E                                               l3854 0352  
                                             l3782 06F2                                               l3774 06C8  
                                             l3846 0340                                               l3838 032C  
                                             l3790 029C                                               l3934 0690  
                                             l3926 066E                                               l3880 039A  
                                             l3872 0392                                               l3864 0380  
                                             l3856 0354                                               l3784 06F6  
                                             l3776 06CA                                               l3768 069E  
                                             l3848 0344                                               l3792 02A6  
                                             l3936 0692                                               l3928 0672  
                                             l3890 03BE                                               l3882 039C  
                                             l3874 0394                                               l3866 038A  
                                             l3858 035E                                               l3786 06F8  
                                             l3778 06D0                                               l3794 02B4  
                                             l3938 0694                                               l3892 03C2  
                                             l3884 03AA                                               l3876 0396  
                                             l3868 038E                                               l3796 02BA  
                                             l3788 0298                                               l3894 03C4  
                                             l3886 03AE                                               l3878 0398  
                                             l3798 02BE                                               l3888 03B0  
                                             l3896 083E                                               l3898 0846  
                                             _LATA 003FBA                                               _LATB 003FBB  
                                             _LATC 003FBC                                               u1600 08C4  
                                             _LATD 003FBD                                               u1601 08C0  
                                             _LATE 003FBE                                               u1610 08A6  
                                             u1611 08A2                                               u1625 0388  
                                             u1626 038A                                               _T2PR 003FAB  
                                             u1590 08E2                                               u1591 08DE  
                                             i1l92 0964                                               i2l92 0972  
                                             _SPI1 FF8B                                               _UART FF5B  
                                             _TMR2 003FAA                                               _WPUA 003A41  
                                             _WPUB 003A51                                               _WPUC 003A61  
                                             _WPUD 003A71                                               _WPUE 003A81  
                                    _INT2_CallBack 07E6                                   __end_of_ADCC_ISR 051A  
                                             _main 066A                              _Timer2_PeriodCountSet 000000  
                                             indf2 003FDF                                               fsr1l 003FE1  
                                             fsr2l 003FD9                              ??_ADCC_DefaultADI_ISR 004A  
                        ?_INT2_SetInterruptHandler 0183                                  fp__SPI1_ByteWrite 0000  
                                             start 00AE                                    _UART1_IsRxReady 000000  
                                  _UART1_IsTxReady 000000                                       ___param_bank 000000  
                                _Timer_OverflowISR 051C                                   __end_of_INT0_ISR 072E  
                                 __end_of_INT1_ISR 075E                                   __end_of_INT2_ISR 078E  
                                  ?_FVR_Initialize 0044                  fp__Timer2_DefaultOverflowCallback 0000  
                 ??_Timer2_DefaultOverflowCallback 0044                    ?_Timer2_DefaultOverflowCallback 0044  
                                            _ADACT 003EFE                                              _ADCAP 003EF5  
                                            ?_main 0044                                              _ADCLK 003EFF  
                               ?_Timer_OverflowISR 0044                                              _ADCNT 003EEB  
                                            _ADPCH 003EF1                                              _ADREF 003EFD  
                                            _ADRPT 003EEC                   _UART1_TxCompleteCallbackRegister 000000  
                                            _U1P1H 003DED                                              _U1P2H 003DEF  
                                            _U1P1L 003DEC                                              _U1P3H 003DF1  
                                            _U1P2L 003DEE                                              _T2CON 003FAC  
                                            _U1P3L 003DF0                                              _U2P1L 003DD4  
                                            _U2P2L 003DD6                                              _U2P3L 003DD8  
                                            _IOCAF 003A47                                              _T2HLT 003FAD  
                                            _IOCBF 003A57                                              _IOCCF 003A67  
                                            _IOCEF 003A87                                              _IOCAN 003A46  
                                            _IOCBN 003A56                                              _IOCAP 003A45  
                                            _IOCCN 003A66                                              _IOCBP 003A55  
                                            _IOCCP 003A65                                              _IOCEN 003A86  
                                            _IOCEP 003A85                                              _T2TMR 003FAA  
                                            _U1UIR 003DF8                                              i1l305 09B8  
                                            _T2RST 003FAF                                              _U1RXB 003DE8  
                                            i1l182 09DA                                              i1l600 0810  
                                            i1l176 0506                                              _U2UIR 003DE0  
                                            _U1TXB 003DEA                                              i1l606 09E2  
                                            i1l561 09C8                                              i1l570 07B8  
                                            _U2TXB 003DD2                                              i1l581 074A  
                                            i1l477 09DC                                              i1l566 071A  
                                            i1l591 09E0                                              i1l576 09DE  
                                            i1l585 07E4                                              i1l729 09D4  
                                            i1l596 077A                                              i2l732 09D8  
                                            i2l556 09E4                                              i2l671 09E8  
                                            i2l752 09E6                                              i2l665 0562  
                                            i2l746 0956                                              i1l986 05BC  
                                            i1l989 05BE                                              i2l972 05F8  
                                            i2l994 09D0                                              i2l997 0664  
                                            i2l999 0668                                              _OSCEN 0039DD  
                                            _TMR0H 003FB7                                              _TMR0L 003FB6  
                                            _TRISA 003FC2                                              _TRISB 003FC3  
                                   ?_INT0_CallBack 0044                                              _TRISC 003FC4  
                                            _TRISD 003FC5                                              _TRISE 003FC6  
                                      _Default_ISR 09E4              fp__UART1_FramingErrorCallbackRegister 0000  
       __end_of_UART1_FramingErrorCallbackRegister 08EC               ??_UART1_FramingErrorCallbackRegister 0051  
              ?_UART1_FramingErrorCallbackRegister 0183                 _UART1_FramingErrorCallbackRegister 08CE  
                                            _Timer FFA9                                     ?_INT1_CallBack 0044  
                              ??_Timer_OverflowISR 0045                            __end_of_PIN_MANAGER_IOC 09DE  
                   ??_INT1_DefaultInterruptHandler 0051                              ?_ADCC_StartConversion 0044  
                                   fp__UART1_Write 0000                                     ?_INT2_CallBack 0044  
                         _INT1_SetInterruptHandler 0992                                              pclath 003FFA  
                                            pclatu 003FFB                                              tablat 003FF5  
                                      FIR_p@head_i 003A                                        FIR_p@buffer 0140  
                                            status 003FD8                                        FIR_p@tail_i 0038  
                               fp__SPI1_Initialize 0000                        ??_UART1_Transmit_Vector_ISR 004A  
                                     __end_of_SPI1 FF9D                                       __end_of_UART FF8B  
                                  __initialization 03D4                               _UART1_TransmitEnable 000000  
                        __end_of_Timer_OverflowISR 0570                                       __end_of_main 069E  
                 _UART1_RxCompleteInterruptHandler 00A6                                          ??_ADC_int 004C  
                                     ?_UART1_Write 0044                                             ??_main 0051  
                    i2ADCC_StartConversion@channel 0044                                      __activetblptr 000003  
                 __end_of_UART1_Receive_Vector_ISR 05FA                                          ??_IOC_ISR 0051  
                                 _UART1_Initialize 0298   UART1_ParityErrorCallbackRegister@callbackHandler 0183  
UART1_OverrunErrorCallbackRegister@callbackHandler 0183  UART1_FramingErrorCallbackRegister@callbackHandler 0183  
                                           _ADACCH 003EE9                                             _ADACCL 003EE8  
                                           _ADACCU 003EEA                                             _ADACQH 003EF4  
                                           _ADACQL 003EF3                                             _ADCON0 003EF8  
                                           _ADCON1 003EF9                                             _ADCON2 003EFA  
                                           _ADCON3 003EFB                                             _ADERRH 003EE3  
                                           _ADERRL 003EE2                                             _ADLTHH 003EDF  
                                           _ADLTHL 003EDE                                             _ADRESH 003EF0  
                                           _ADRESL 003EEF                                             _ADPREH 003EF7  
                                           _ADPREL 003EF6                                             _ADSTAT 003EFC  
                                           _ADUTHH 003EE1                                             _ADUTHL 003EE0  
                                 _UART1_ReceiveISR 000000                                             _ANSELA 003A40  
                                           _ANSELB 003A50                                             _ANSELC 003A60  
                                           _ANSELD 003A70                                             _ANSELE 003A80  
                                           _T0CON0 003FB8                                             _T0CON1 003FB9  
                                           _RB1I2C 003A5A                                             _RB2I2C 003A5B  
                                           _RD0I2C 003A7A                                             _U1CON0 003DF2  
                                           _U1CON1 003DF3                                             _U1CON2 003DF4  
                                           _RD1I2C 003A7B                                             _RC3I2C 003A6A  
                                           _RC4I2C 003A6B                                             _U1BRGH 003DF6  
                                           _U1FIFO 003DF7                                             _U2CON0 003DDA  
                                           _U2CON1 003DDB                                             _U1BRGL 003DF5  
                                           _U2CON2 003DDC                                             _U2BRGH 003DDE  
                                           _U2FIFO 003DDF                                             _U2BRGL 003DDD  
                                           _RC3PPS 003A13                                             i1l3010 00C6  
                                           _RC5PPS 003A15                                             i1l3020 00FE  
                                           i1l3012 00CC                                             i1l3030 0152  
                                           i1l3022 011C                                             i1l3014 00D0  
                                           i1l3006 00B2                                             i1l1087 0142  
                                           i1l3032 015A                                             i1l3024 0138  
                                           i1l3016 00DA                                             i1l3008 00C4  
                                           i1l1089 01B6                                             _ODCONA 003A42  
                                           i1l3034 0176                                             i1l3026 0144  
                                           i1l3018 00E2                                             _ODCONB 003A52  
                                           _ODCONC 003A62                                             _RC6PPS 003A16  
                                           i1l2180 07A0                                             i1l3036 0194  
                                           i1l3028 0148                                             i1l3300 04EE  
                                           _ODCOND 003A72                                             _ODCONE 003A82  
                                           i1l2182 07BA                                             i1l2414 09C4  
                                           i1l3038 01B0                                             i1l2184 07CC  
                                           i1l2186 07E6                                             i1l2178 078E  
                                           i1l2188 07F8                                             i1l2804 095A  
                                           i2l1125 083C                                             i1l2806 0960  
                                           i2l3000 0654                                             i1l2808 09B2  
                                           i1l3296 04D6                                             i2l3002 065A  
                                           i1l3298 04DA                                             i2l3004 065E  
                                           i1l2940 0572                                             i1l2950 05B4  
                                           i1l2942 0582                                             i2l3040 0812  
                                           i1l3920 0772                                             i1l3912 0712  
                                           i1l2952 05B8                                             i1l2944 058C  
                                           i2l3042 0816                                             i1l3922 0776  
                                           i1l3914 0716                                             i1l2938 09D2  
                                           i1l2954 05BA                                             i1l2946 059C  
                                           i2l3044 082E                                             i1l3916 0742  
                                           i1l2948 05AE                                             i2l2190 09D6  
                                           i2l3046 0836                                             i2l3310 0536  
                                           i1l3918 0746                                             i2l3312 054A  
                                           i2l3304 0528                                             i2l2530 05D0  
                                           i2l3306 052C                                             i2l2532 05D2  
                                           i2l3308 0530                                             i2l3350 09CC  
                                           i2l2534 05DE                                             i2l2470 0952  
                                           i2l2536 05F0                                             i2l2528 05C0  
                                           i2l2468 0948                                             _INLVLA 003A44  
                                           _INLVLB 003A54                                             _INLVLC 003A64  
                                           i2l2956 0968                                             _INLVLD 003A74  
                                           _INLVLE 003A84                                             i2l2958 096E  
                                           i2l2996 0632                                             i2l2998 0642  
                                           _FVRCON 003EC1                                             _PERIOD 0042  
                                           _OSCFRQ 0039DF                                      ??_Timer2_Stop 0047  
                                       _Timer2_ISR 0948                                  __end_of_SPI1_Open 0892  
                                 _UART2_Initialize 05FA                                             _Timer2 FF9D  
                                       _Timer_Stop 000000                                             clear_0 041E  
                                           clear_1 042A                                             clear_2 0436  
                                           isa$std 000001                                    ??_INT0_CallBack 0051  
                                ?_CLOCK_Initialize 0044                                          ?_ADCC_ISR 0044  
                                  _ADCC_Initialize 044E                          _UART1_Transmit_Vector_ISR 09CC  
             __end_of_INT2_DefaultInterruptHandler 09E4                       _INT2_DefaultInterruptHandler 09E2  
                                     __pdataCOMRAM 002E                                    ??_INT1_CallBack 0051  
                               ??_CLOCK_Initialize 0051                                       __mediumconst FEE2  
                                           tblptrh 003FF7                                             tblptrl 003FF6  
                                           tblptru 003FF8              fp__UART1_OverrunErrorCallbackRegister 0000  
       __end_of_UART1_OverrunErrorCallbackRegister 08CE               ??_UART1_OverrunErrorCallbackRegister 0051  
              ?_UART1_OverrunErrorCallbackRegister 0183                 _UART1_OverrunErrorCallbackRegister 08B0  
                           ??_ADCC_StartConversion 004A                                    ??_INT2_CallBack 0051  
         INT2_SetInterruptHandler@InterruptHandler 0183           INT1_SetInterruptHandler@InterruptHandler 0183  
         INT0_SetInterruptHandler@InterruptHandler 0183        ADCC_SetADIInterruptHandler@InterruptHandler 0183  
                                 ?_PIN_MANAGER_IOC 0044                            _Timer2_OverflowCallback 00EC  
                                _UART1_AutoBaudSet 000000                                  _SYSTEM_Initialize 083E  
                                  fp__Timer2_Start 0000                                         __accesstop 0060  
                          __end_of__initialization 0448                                          ?_INT0_ISR 0044  
                                        FIR@buffer 0100                                          ?_INT1_ISR 0044  
                                        ?_INT2_ISR 0044                                     _SPI1_ByteWrite 09B0  
                               ?_SYSTEM_Initialize 0044                                      ___rparam_used 000001  
                   UART1_Receive_Vector_ISR@mesage 0040                     UART1_Receive_Vector_ISR@status 0027  
                                   __pcstackCOMRAM 0044                                      __end_of_Timer FFB5  
                                     __pidataBANK0 0934                                ??_SYSTEM_Initialize 0051  
                            _UART1_TransmitDisable 000000                                     ivt0x8_undefint 00AC  
                                ??_SPI1_Initialize 0051                                          FIR_p@head 003E  
                                        FIR_p@tail 003C                                __end_of_Timer2_Stop 09DA  
                                       __end_of_DL FFBF                                         __end_of_NL FFC9  
                                       ??_ADCC_ISR 004E                                 _spi1_configuration FFC9  
                                        IIR_p1@W_i 0032                                          IIR_p1@X_i 0034  
                                        IIR_p2@W_i 002E                                          IIR_p2@X_i 0030  
                 __end_of_INT2_SetInterruptHandler 0992                          _UART1_FramingErrorHandler 001B  
                  fp__INT2_DefaultInterruptHandler 0000                      ?_INT2_DefaultInterruptHandler 0044  
                      ADCC_StartConversion@channel 004A                           _UART1_Receive_Vector_ISR 05C0  
                        __end_of_SYSTEM_Initialize 0868                                         __pbssBANK0 0060  
                                       __pbssBANK1 0100                             __end_of_SPI1_ByteWrite 09BA  
                            _INT0_InterruptHandler 0023                                         ??_INT0_ISR 00F6  
                                       ??_INT1_ISR 00F9                                         ??_INT2_ISR 0180  
                                       __pnvCOMRAM 0051                                            IIR_p1@W 00C0  
                                          IIR_p1@X 00CC                                            IIR_p1@Y 00A0  
                                          IIR_p2@W 00A8                                            IIR_p2@X 00B4  
                                          IIR_p2@Y 009C                                            IVTBASEH 003FD6  
                                          IVTBASEL 003FD5                                            IVTBASEU 003FD7  
                               _UART1_Deinitialize 000000                                  __end_of_Timer_int 083E  
                                      ?_Timer2_ISR 0044                                      ?_Timer2_Start 0044  
                                 ??_FVR_Initialize 0051                            __end_of_ADCC_Initialize 04C2  
                                          _ADFLTRH 003EE7                                            _ADFLTRL 003EE6  
                                          _ADPREVH 003EEE                                            _ADPREVL 003EED  
                                          _ADSTPTH 003EE5                                            _ADSTPTL 003EE4  
                                          _ADC_int 00B2                                            _U1ERRIE 003DFA  
                                          _U1ERRIR 003DF9                                            _U2ERRIE 003DE2  
                                          _U2ERRIR 003DE1                         ??_INT1_SetInterruptHandler 0051  
                                     ?_Default_ISR 0044                                            _U1RXCHK 003DE9  
                                          _U1TXCHK 003DEB                                            _IOC_ISR 09C4  
                                          _U1RXPPS 003AE5                                            _OSCCON1 0039D9  
                                          _OSCCON3 0039DB                                            i1u13_20 07A0  
                                          i1u13_21 079C                                            i1u15_20 07CC  
                                          i1u14_28 07A6                                            i1u15_21 07C8  
                                          i1u14_29 07B8                                            _IVTLOCK 003FD4  
                                          i1u17_20 07F8                                            i1u16_28 07D2  
                                          i1u17_21 07F4                                            i1u16_29 07E4  
                                          _SPI1CLK 003D1C                                            i1u18_28 07FE  
                                          i1u18_29 0810                                            i1u62_20 00C4  
                                          i1u62_21 00C0                                            i2u33_40 05D0  
                                          i2u33_41 05CC                                            i1u58_20 0582  
                                          i1u58_21 057E                                            i1u59_20 059C  
                                          i1u59_21 0598                                            _SPI1RXB 003D10  
                                          _SPI1TXB 003D11                                            i2u61_40 0642  
                                          i2u61_41 063E                                            _OSCTUNE 0039DE  
                                          i2u63_40 082E                                            i2u63_41 082A  
                                          _SLRCONA 003A43                                            _SLRCONB 003A53  
                                          _SLRCONC 003A63                                            _SLRCOND 003A73  
                                          _SLRCONE 003A83                        __end_of_ADCC_DefaultADI_ISR 09DC  
                              fp__UART1_Initialize 0000             __end_of_Timer2_DefaultOverflowCallback 09E8  
                   _Timer2_DefaultOverflowCallback 09E6                                    ?_SPI1_ByteWrite 0044  
                        ?_INT0_SetInterruptHandler 0183                          INTERRUPT_Initialize@state 0185  
                                   Timer_int@count 0011                                     ??_Timer2_Start 004A  
                                          __Hparam 0000                                            __Lparam 0000  
                         __end_of_UART1_Initialize 0352                                        _Timer2_Stop 09D6  
                         ??i2_ADCC_StartConversion 0044                                            __pcinit 03D4  
                                          __ramtop 1000                                            __ptext0 066A  
                                          __ptext1 083E                                            __ptext2 05FA  
                                          __ptext3 0298                                            __ptext4 0892  
                                          __ptext5 08B0                                            __ptext6 08CE  
                                          __ptext7 069E                                            __ptext8 0974  
                                          __ptext9 06D0                                        _Timer_Start 000000  
                                        _T2CONbits 003FAC                                         fp__ADC_int 0000  
                          _timerTMR0ReloadVal16bit 0051                           ??_PIN_MANAGER_Initialize 0051  
                                        _T2HLTbits 003FAD                           __end_of_UART2_Initialize 0632  
  Timer2_OverflowCallbackRegister@InterruptHandler 0183                               end_of_initialization 0448  
                                        _U1UIRbits 003DF8                                          _T2RSTbits 003FAF  
                         _INT2_SetInterruptHandler 0988                     ??_INT2_DefaultInterruptHandler 0051  
                                 _Timer_Initialize 069E                                    _SPI1_BufferRead 000000  
                                        _SPI1TCNTL 003D12                                            postdec1 003FE5  
                                          postinc0 003FEE                                  _Timer2_Initialize 06D0  
                                 ?_ADCC_Initialize 0044                                          _SPI1_Open 0868  
                                UART1_Write@txData 004B                   _UART1_DefaultParityErrorCallback 000000  
                               ?_Timer2_Initialize 0044                              _INT1_InterruptHandler 0021  
                              _SPI1_BufferExchange 000000                  fp__Timer_OverflowCallbackRegister 0000  
                 ??_Timer_OverflowCallbackRegister 0051                    ?_Timer_OverflowCallbackRegister 0183  
              __end_of_ADCC_SetADIInterruptHandler 09B0                        _ADCC_SetADIInterruptHandler 09A6  
    Timer_OverflowCallbackRegister@CallbackHandler 0183                                          _TRISCbits 003FC4  
                              ??_Timer2_Initialize 0051                   _UART1_TxCompleteInterruptHandler 0015  
                                _UART1_TransmitISR 0632                      ??_ADCC_SetADIInterruptHandler 0051  
                                  _SPI1_Initialize 08EC                    ??_Timer_DefaultOverflowCallback 0044  
                               ?_UART1_TransmitISR 0044                             _Timer_OverflowCallback 00EE  
                        __end_of_Timer2_Initialize 06FE                                ??_UART1_TransmitISR 0049  
                                   __end_of_Timer2 FFA9                       __end_of_INTERRUPT_Initialize 03D4  
             __end_of_INT0_DefaultInterruptHandler 09E0                       _INT0_DefaultInterruptHandler 09DE  
                                       ?_SPI1_Open 0044                                  UART_RX_int@mesage 0013  
                                UART_RX_int@opcode 0025                                      __pidataCOMRAM 091E  
                                UART_RX_int@status 0026                         ??_UART1_Receive_Vector_ISR 0047  
                            __end_of_INT0_CallBack 07BA                                start_initialization 03D4  
                             __end_of_Timer2_Start 09D6                                        __end_of_DEN FF1F  
                                      __end_of_NUM FF5B                              __end_of_INT1_CallBack 07E6  
                        __end_of_UART1_TransmitISR 066A                                         ivt0x8_base 0008  
                            __end_of_INT2_CallBack 0812                                      _uart1RxBuffer 0094  
                                    _uart1TxBuffer 0070                                       ??_Timer2_ISR 0047  
                                        _Timer_int 0812                                        __pdataBANK0 00D8  
               fp__Timer2_OverflowCallbackRegister 0000            __end_of_Timer2_OverflowCallbackRegister 0988  
                ??_Timer2_OverflowCallbackRegister 0051                   ?_Timer2_OverflowCallbackRegister 0183  
                  _Timer2_OverflowCallbackRegister 097E                                           ?_ADC_int 0044  
                  fp__INT0_DefaultInterruptHandler 0000                      ?_INT0_DefaultInterruptHandler 0044  
                                   fp__Timer2_Stop 0000                                      _SPI1_ByteRead 000000  
                                         FIR@index 000F                                           ?_IOC_ISR 0044  
                                         FIR@inpar 00A4                                        __pbssCOMRAM 0001  
                 __end_of_INT0_SetInterruptHandler 09A6                                      __pcstackBANK0 00F6  
                                    __pcstackBANK1 0180                                   ??_SPI1_ByteWrite 004A  
                          __end_of_SPI1_Initialize 0906                           _UART1_RxInterruptHandler 00F0  
                               __end_of_Timer2_ISR 0958                             i2_ADCC_StartConversion 0966  
                                        __end_of_B FFFE                              _INT2_InterruptHandler 001F  
                                        __pnvBANK0 00EC                             fp__ADCC_DefaultADI_ISR 0000  
                           _PIN_MANAGER_Initialize 01B8                                       ?_Timer2_Stop 0044  
                                ?_UART1_Initialize 0044              __end_of_Timer_DefaultOverflowCallback 09EA  
                    _Timer_DefaultOverflowCallback 09E8                                      __pmediumconst FEE2  
                                       ?_Timer_int 0044                              UART1_Write@tempTxHead 004A  
                               ??_UART1_Initialize 0051                                        ??_SPI1_Open 0051  
                              fp__Timer_Initialize 0000                                   _uart1RxLastError 001D  
                                    ??_UART1_Write 004A                                           _ADCC_ISR 04C4  
                       ??_INT2_SetInterruptHandler 0051                           __end_of_Timer_Initialize 06D0  
                                ?_UART2_Initialize 0044                                           _T2CLKCON 003FAE  
                                      _U1ERRIRbits 003DF9                                 ??_UART2_Initialize 0051  
                             _INTERRUPT_Initialize 0352                                   _CLOCK_Initialize 0906  
                                         _INT0_ISR 0700                                           _INT1_ISR 0730  
                                         _INT2_ISR 0760                                           _LATBbits 003FBB  
                                         _LATEbits 003FBE                   _UART1_RxCompleteCallbackRegister 000000  
                        ?_INT1_SetInterruptHandler 0183                                           _IPR0bits 003980  
                                         _IPR1bits 003981                                           _PIE1bits 003991  
                                         _IPR3bits 003983                                           _IPR4bits 003984  
                                         _PIE3bits 003993                                           _PIE4bits 003994  
                                         i1u110_28 04F4                                           i1u110_29 0506  
                                         i1u109_20 04EE                                           i1u109_21 04EA  
                                     _SPI1CON0bits 003D14                                           _IVTBASEH 003FD6  
                                         _IVTBASEL 003FD5                                           _IVTBASEU 003FD7  
                                         i2u111_40 054A                                           i2u111_41 0546  
                                         i2u112_48 0550                                           i2u112_49 0562  
                                         _PIR1bits 0039A1                                           _PIR2bits 0039A2  
                                         _SPI1BAUD 003D19                                           _PIR3bits 0039A3  
                                         _PIR4bits 0039A4                                           _SPI1CON0 003D14  
                                         _SPI1CON1 003D15                                           _SPI1CON2 003D16  
                                         _PIR5bits 0039A5                                           _PIR7bits 0039A7  
                                ??_PIN_MANAGER_IOC 0051                                         _ADCON0bits 003EF8  
                                       _ADCON1bits 003EF9                                         _ADCON2bits 003EFA  
                                       _ADCON3bits 003EFB                     ??_INT0_DefaultInterruptHandler 0051  
                              __end_of_UART1_Write 05C0                                   ?_SPI1_Initialize 0044  
                                      _INTCON0bits 003FD2                                          copy_data0 03E8  
                                        copy_data1 040A                              ?_INTERRUPT_Initialize 0044  
                         _INT0_SetInterruptHandler 099C                             _uart1TxBufferRemaining 002B  
                                     fp__SPI1_Open 0000             __end_of_Timer_OverflowCallbackRegister 097E  
                   _Timer_OverflowCallbackRegister 0974                                       _uart1RxCount 0028  
                                       _ADSTATbits 003EFC                                           __Hrparam 0000  
                                     _Timer2_Start 09D2                                           __Lrparam 0000  
                               SPI1_ByteWrite@byte 004A                                        ??_Timer_int 0045  
                 fp__Timer_DefaultOverflowCallback 0000                     ?_Timer_DefaultOverflowCallback 0044  
                _UART1_DefaultFramingErrorCallback 000000                                         _T0CON0bits 003FB8  
                                         _char_hex 00D8                                           __pivt0x8 0008  
                                         __ptext10 097E                                           __ptext11 08EC  
                                         __ptext20 09A6                                           __ptext12 01B8  
                                         __ptext21 0868                                           __ptext13 0352  
                                         __ptext30 09DC                                           __ptext22 04C4  
                                         __ptext14 0988                                           __ptext31 0700  
                                         __ptext23 09DA                                           __ptext15 0992  
                                         __ptext40 09E4                                           __ptext32 078E  
                                         __ptext24 00B2                                           __ptext16 099C  
                                         __ptext41 051C                                           __ptext33 09DE  
                                         __ptext25 0570                                           __ptext17 09BA  
                                         __ptext50 0632                                           __ptext42 09E6  
                                         __ptext34 0730                                           __ptext26 09D2  
                                         __ptext18 0906                                           __ptext51 0000  
                                         __ptext43 09E8                                           __ptext35 07BA  
                                         __ptext27 09B0                                           __ptext19 044E  
                                         __ptext44 0812                                           __ptext36 09E0  
                                         __ptext28 0958                                           __ptext45 0966  
                                         __ptext37 0760                                           __ptext29 09C4  
                                         __ptext46 0948                                           __ptext38 07E6  
                                         __ptext47 09D6                                           __ptext39 09E2  
                                         __ptext48 05C0                                           __ptext49 09CC  
                                       _U1CON0bits 003DF2                                         _U1CON1bits 003DF3  
                       ?_UART1_Transmit_Vector_ISR 0044                                        _IVTLOCKbits 003FD4  
                        _UART1_OverrunErrorHandler 0019                          _ADCC_ADI_InterruptHandler 00F4  
                                         isa$xinst 000000                       __end_of_ADCC_StartConversion 0966  
                             _Timer_PeriodCountSet 000000                                        _UART1_Write 0570  
             __end_of_INT1_DefaultInterruptHandler 09E2                       _INT1_DefaultInterruptHandler 09E0  
                                    ??_Default_ISR 0044                                        _uart1RxHead 002A  
                          ?i2_ADCC_StartConversion 0044                                        _uart1TxHead 002D  
                                      _uart1RxTail 0029                                        _uart1TxTail 002C  
                                       _FVRCONbits 003EC1                               fp__Timer2_Initialize 0000  
                           ??_INTERRUPT_Initialize 0051                                     FIR_p@endBuffer 00E8  
                                         intlevel1 0000                                           intlevel2 0000  
                                     fp__Timer_int 0000                          ?_UART1_Receive_Vector_ISR 0044  
                          ?_PIN_MANAGER_Initialize 0044                                       FilterIIR@F36 008C  
                                     FilterIIR@W_1 0001                                       FilterIIR@W_2 0080  
                __end_of_UART1_Transmit_Vector_ISR 09D2                                _uart1RxStatusBuffer 0060  
                                       _SPI1SDIPPS 003ADF                                         _SPI1SCKPPS 003ADE  
                                       _UART1_Read 000000                                   _SPI1_BufferWrite 000000  
                                   FIR_p@indexHead 000D                               fp__UART1_TransmitISR 0000  
                                   FIR_p@indexTail 0036                           __end_of_CLOCK_Initialize 091E  
                                       _SPI1_Close 000000                                     _FVR_Initialize 09BA  
                   __end_ofi2_ADCC_StartConversion 0974                    fp__INT1_DefaultInterruptHandler 0000  
                    ?_INT1_DefaultInterruptHandler 0044                                _ADCC_DefaultADI_ISR 09DA  
                 __end_of_INT1_SetInterruptHandler 099C                  _UART1_DefaultOverrunErrorCallback 000000  
                                ?_Timer_Initialize 0044                           _UART1_TxInterruptHandler 00F2  
                              __end_of_Default_ISR 09E6                                 ??_Timer_Initialize 0185  
                   __end_of_PIN_MANAGER_Initialize 0298                                  ??_ADCC_Initialize 0051  
             fp__UART1_ParityErrorCallbackRegister 0000          __end_of_UART1_ParityErrorCallbackRegister 08B0  
              ??_UART1_ParityErrorCallbackRegister 0051                 ?_UART1_ParityErrorCallbackRegister 0183  
                _UART1_ParityErrorCallbackRegister 0892                                    _PIN_MANAGER_IOC 09DC  
                              _UART1_AutoBaudQuery 000000                               ?_ADCC_DefaultADI_ISR 0044  
                       __end_of_spi1_configuration FFCE                                   FIR_p@startBuffer 00EA  
