

Microchip MPLAB XC8 Assembler V2.40 build 20220703182018 
                                                                                               Wed Apr 05 15:30:49 2023

Microchip MPLAB XC8 C Compiler v2.40 (Free license) build 20220703182018 Og1 
     1                           	processor	18F46K42
     2                           	fnconf	rparam,??,?,0
     3                           	pagewidth 120
     4                           	opt	flic
     5                           	psect	idataCOMRAM,global,class=CODE,delta=1,noexec
     6                           	psect	idataBANK0,global,class=CODE,delta=1,noexec
     7                           	psect	idataBANK1,global,class=CODE,delta=1,noexec
     8                           	psect	mediumconst,global,reloc=2,class=MEDIUMCONST,delta=1,noexec
     9                           	psect	nvBANK0,global,class=BANK0,space=1,delta=1,lowdata,noexec
    10                           	psect	cinit,global,reloc=2,class=CODE,delta=1
    11                           	psect	bssCOMRAM,global,class=COMRAM,space=1,delta=1,lowdata,noexec
    12                           	psect	dataCOMRAM,global,class=COMRAM,space=1,delta=1,lowdata,noexec
    13                           	psect	bssBANK0,global,class=BANK0,space=1,delta=1,lowdata,noexec
    14                           	psect	dataBANK0,global,class=BANK0,space=1,delta=1,lowdata,noexec
    15                           	psect	bssBANK1,global,class=BANK1,space=1,delta=1,lowdata,noexec
    16                           	psect	dataBANK1,global,class=BANK1,space=1,delta=1,lowdata,noexec
    17                           	psect	cstackBANK1,global,class=BANK1,space=1,delta=1,lowdata,noexec
    18                           	psect	cstackBANK0,global,class=BANK0,space=1,delta=1,lowdata,noexec
    19                           	psect	cstackCOMRAM,global,class=COMRAM,space=1,delta=1,lowdata,noexec
    20                           	psect	text0,global,reloc=2,class=CODE,delta=1
    21                           	psect	text1,global,reloc=2,class=CODE,delta=1
    22                           	psect	text2,global,reloc=2,class=CODE,delta=1
    23                           	psect	text3,global,reloc=2,class=CODE,delta=1
    24                           	psect	text4,global,reloc=2,class=CODE,delta=1
    25                           	psect	text5,global,reloc=2,class=CODE,delta=1
    26                           	psect	text6,global,reloc=2,class=CODE,delta=1
    27                           	psect	text7,global,reloc=2,class=CODE,delta=1
    28                           	psect	text8,global,reloc=2,class=CODE,delta=1
    29                           	psect	text9,global,reloc=2,class=CODE,delta=1
    30                           	psect	text10,global,reloc=2,class=CODE,delta=1
    31                           	psect	text11,global,reloc=2,class=CODE,delta=1
    32                           	psect	text12,global,reloc=2,class=CODE,delta=1
    33                           	psect	text13,global,reloc=2,class=CODE,delta=1
    34                           	psect	text14,global,reloc=2,class=CODE,delta=1
    35                           	psect	text15,global,reloc=2,class=CODE,delta=1
    36                           	psect	text16,global,reloc=2,class=CODE,delta=1
    37                           	psect	text17,global,reloc=2,class=CODE,delta=1
    38                           	psect	text18,global,reloc=2,class=CODE,delta=1,inline
    39                           	psect	text19,global,reloc=2,class=CODE,delta=1
    40                           	psect	text20,global,reloc=2,class=CODE,delta=1
    41                           	psect	text21,global,reloc=2,class=CODE,delta=1
    42                           	psect	text22,global,reloc=2,class=CODE,delta=1
    43                           	psect	text23,global,reloc=2,class=CODE,delta=1
    44                           	psect	text24,global,reloc=2,class=CODE,delta=1
    45                           	psect	text25,global,reloc=4,class=CODE,delta=1
    46                           	psect	text26,global,reloc=2,class=CODE,delta=1
    47                           	psect	text27,global,reloc=2,class=CODE,delta=1
    48                           	psect	text28,global,reloc=2,class=CODE,delta=1
    49                           	psect	text29,global,reloc=2,class=CODE,delta=1
    50                           	psect	text30,global,reloc=2,class=CODE,delta=1
    51                           	psect	text31,global,reloc=2,class=CODE,delta=1
    52                           	psect	text32,global,reloc=2,class=CODE,delta=1
    53                           	psect	text33,global,reloc=2,class=CODE,delta=1,group=1
    54                           	psect	text34,global,reloc=2,class=CODE,delta=1
    55                           	psect	text35,global,reloc=4,class=CODE,delta=1
    56                           	psect	text36,global,reloc=2,class=CODE,delta=1
    57                           	psect	text37,global,reloc=4,class=CODE,delta=1
    58                           	psect	text38,global,reloc=2,class=CODE,delta=1
    59                           	psect	text39,global,reloc=2,class=CODE,delta=1
    60                           	psect	text40,global,reloc=4,class=CODE,delta=1
    61                           	psect	text41,global,reloc=2,class=CODE,delta=1
    62                           	psect	text42,global,reloc=2,class=CODE,delta=1
    63                           	psect	text43,global,reloc=4,class=CODE,delta=1
    64                           	psect	text44,global,reloc=2,class=CODE,delta=1
    65                           	psect	text45,global,reloc=2,class=CODE,delta=1
    66                           	psect	text46,global,reloc=4,class=CODE,delta=1
    67                           	psect	text47,global,reloc=4,class=CODE,delta=1
    68                           	psect	text48,global,reloc=2,class=CODE,delta=1
    69                           	psect	text49,global,reloc=2,class=CODE,delta=1
    70                           	psect	text50,global,reloc=2,class=CODE,delta=1
    71                           	psect	text51,global,reloc=2,class=CODE,delta=1
    72                           	psect	text52,global,reloc=4,class=CODE,delta=1
    73                           	psect	text53,global,reloc=2,class=CODE,delta=1
    74                           	psect	text54,global,reloc=4,class=CODE,delta=1
    75                           	psect	text55,global,reloc=4,class=CODE,delta=1
    76                           	psect	text56,global,reloc=2,class=CODE,delta=1
    77                           	psect	text57,global,reloc=4,class=CODE,delta=1
    78                           	psect	text58,global,reloc=2,class=CODE,delta=1
    79                           	psect	text59,global,reloc=2,class=CODE,delta=1,inline
    80                           	psect	text60,global,reloc=2,class=CODE,delta=1
    81                           	psect	text61,global,reloc=2,class=CODE,delta=1
    82                           	psect	text62,global,reloc=2,class=CODE,delta=1
    83                           	psect	text63,global,reloc=2,class=CODE,delta=1
    84                           	psect	text64,global,reloc=2,class=CODE,delta=1
    85                           	psect	text65,global,reloc=2,class=CODE,delta=1
    86                           	psect	text66,global,reloc=2,class=CODE,delta=1
    87                           	psect	text67,global,reloc=2,class=CODE,delta=1,inline
    88                           	psect	text68,global,reloc=2,class=CODE,delta=1,inline
    89                           	psect	text69,global,reloc=2,class=CODE,delta=1,inline
    90                           	psect	text70,global,reloc=4,class=CODE,delta=1
    91                           	psect	text71,global,reloc=2,class=CODE,delta=1
    92                           	psect	text72,global,reloc=2,class=CODE,delta=1
    93                           	psect	text73,global,reloc=2,class=CODE,delta=1
    94                           	psect	text74,global,reloc=2,class=CODE,delta=1
    95                           	psect	text75,global,reloc=2,class=CODE,delta=1
    96                           	psect	text76,global,reloc=2,class=CODE,delta=1
    97                           	psect	text77,global,reloc=2,class=CODE,delta=1,inline
    98                           	psect	text78,global,reloc=2,class=CODE,delta=1,inline
    99                           	psect	text79,global,reloc=2,class=CODE,delta=1,inline
   100                           	psect	text80,global,reloc=4,class=CODE,delta=1
   101                           	psect	text81,global,reloc=2,class=CODE,delta=1
   102                           	psect	text82,global,reloc=4,class=CODE,delta=1
   103                           	psect	ivt0x8,global,reloc=2,class=CODE,delta=1,noexec,keep,optim=
   104                           	psect	intsave_regs,global,class=BIGRAM,space=1,delta=1,noexec
   105                           	psect	text83,global,reloc=4,class=CODE,delta=1
   106                           	psect	rparam,global,class=COMRAM,space=1,delta=1,noexec
   107                           	psect	idloc,global,abs,ovrld,class=IDLOC,space=5,delta=1,noexec
   108                           	psect	config,global,abs,ovrld,class=CONFIG,space=4,delta=1,noexec
   109   000000                     
   110                           ; Generated 06/04/2022 GMT
   111                           ; 
   112                           ; Copyright © 2022, Microchip Technology Inc. and its subsidiaries ("Microchip")
   113                           ; All rights reserved.
   114                           ; 
   115                           ; This software is developed by Microchip Technology Inc. and its subsidiaries ("Microch
      +                          ip").
   116                           ; 
   117                           ; Redistribution and use in source and binary forms, with or without modification, are
   118                           ; permitted provided that the following conditions are met:
   119                           ; 
   120                           ;     1. Redistributions of source code must retain the above copyright notice, this lis
      +                          t of
   121                           ;        conditions and the following disclaimer.
   122                           ; 
   123                           ;     2. Redistributions in binary form must reproduce the above copyright notice, this 
      +                          list
   124                           ;        of conditions and the following disclaimer in the documentation and/or other
   125                           ;        materials provided with the distribution. Publication is not required when
   126                           ;        this file is used in an embedded application.
   127                           ; 
   128                           ;     3. Microchip's name may not be used to endorse or promote products derived from th
      +                          is
   129                           ;        software without specific prior written permission.
   130                           ; 
   131                           ; THIS SOFTWARE IS PROVIDED BY MICROCHIP "AS IS" AND ANY EXPRESS OR IMPLIED WARRANTIES,
   132                           ; INCLUDING, BUT NOT LIMITED TO, THE IMPLIED WARRANTIES OF MERCHANTABILITY AND FITNESS F
      +                          OR
   133                           ; PURPOSE ARE DISCLAIMED.  IN NO EVENT SHALL MICROCHIP BE LIABLE FOR ANY DIRECT, INDIREC
      +                          T,
   134                           ; INCIDENTAL, SPECIAL, EXEMPLARY, OR CONSEQUENTIAL DAMAGES (INCLUDING BUT NOT LIMITED TO
   135                           ; PROCUREMENT OF SUBSTITUTE GOODS OR SERVICES; LOSS OF USE, DATA OR PROFITS; OR BUSINESS
   136                           ; INTERRUPTION) HOWSOEVER CAUSED AND ON ANY THEORY OF LIABILITY, WHETHER IN CONTRACT, ST
      +                          RICT
   137                           ; LIABILITY, OR TORT (INCLUDING NEGLIGENCE OR OTHERWISE) ARISING IN ANY WAY OUT OF THE U
      +                          SE OF
   138                           ; THIS SOFTWARE, EVEN IF ADVISED OF THE POSSIBILITY OF SUCH DAMAGE.
   139                           ; 
   140                           ; 
   141                           ; Code-generator required, PIC18F46K42 Definitions
   142                           ; 
   143                           ; SFR Addresses
   144   000000                     
   145 ;; Function _SPI1_Close is unused but had its address taken
   146   000000                     
   147 ;; Function _SPI1_ByteExchange is unused but had its address taken
   148   000000                     
   149 ;; Function _SPI1_BufferExchange is unused but had its address taken
   150   000000                     
   151 ;; Function _SPI1_BufferWrite is unused but had its address taken
   152   000000                     
   153 ;; Function _SPI1_BufferRead is unused but had its address taken
   154   000000                     
   155 ;; Function _SPI1_ByteRead is unused but had its address taken
   156   000000                     
   157 ;; Function _Timer_Start is unused but had its address taken
   158   000000                     
   159 ;; Function _Timer_Stop is unused but had its address taken
   160   000000                     
   161 ;; Function _Timer_PeriodCountSet is unused but had its address taken
   162   000000                     
   163 ;; Function _Timer2_PeriodCountSet is unused but had its address taken
   164   000000                     
   165 ;; Function _UART1_Deinitialize is unused but had its address taken
   166   000000                     
   167 ;; Function _UART1_TransmitEnable is unused but had its address taken
   168   000000                     
   169 ;; Function _UART1_TransmitDisable is unused but had its address taken
   170   000000                     
   171 ;; Function _UART1_AutoBaudSet is unused but had its address taken
   172   000000                     
   173 ;; Function _UART1_AutoBaudQuery is unused but had its address taken
   174   000000                     
   175 ;; Function _UART1_IsRxReady is unused but had its address taken
   176   000000                     
   177 ;; Function _UART1_IsTxReady is unused but had its address taken
   178   000000                     
   179 ;; Function _UART1_IsTxDone is unused but had its address taken
   180   000000                     
   181 ;; Function _UART1_ErrorGet is unused but had its address taken
   182   000000                     
   183 ;; Function _UART1_Read is unused but had its address taken
   184   000000                     
   185 ;; Function _UART1_ReceiveISR is unused but had its address taken
   186   000000                     
   187 ;; Function _UART1_DefaultFramingErrorCallback is unused but had its address taken
   188   000000                     
   189 ;; Function _UART1_DefaultOverrunErrorCallback is unused but had its address taken
   190   000000                     
   191 ;; Function _UART1_DefaultParityErrorCallback is unused but had its address taken
   192   000000                     
   193 ;; Function _UART1_RxCompleteCallbackRegister is unused but had its address taken
   194   000000                     
   195 ;; Function _UART1_TxCompleteCallbackRegister is unused but had its address taken
   196   000000                     
   197 ;; Function _I2C1_Deinitialize is unused but had its address taken
   198   000000                     
   199 ;; Function _I2C1_Write is unused but had its address taken
   200   000000                     
   201 ;; Function _I2C1_Read is unused but had its address taken
   202   000000                     
   203 ;; Function _I2C1_WriteRead is unused but had its address taken
   204   000000                     
   205 ;; Function _I2C1_ErrorGet is unused but had its address taken
   206   000000                     
   207 ;; Function _I2C1_IsBusy is unused but had its address taken
   208   000000                     
   209                           	psect	idataCOMRAM
   210   00116A                     __pidataCOMRAM:
   211                           	callstack 0
   212                           
   213                           ;initializer for FIR_p@head_i
   214   00116A  58                 	db	low FIR_p@buffer
   215   00116B  01                 	db	high FIR_p@buffer
   216                           
   217                           	psect	idataBANK0
   218   000F66                     __pidataBANK0:
   219                           	callstack 0
   220                           
   221                           ;initializer for IIR_p2@W_i
   222   000F66  BF                 	db	low IIR_p2@W
   223   000F67  00                 	db	high IIR_p2@W
   224                           
   225                           ;initializer for IIR_p2@X_i
   226   000F68  98                 	db	low IIR_p2@X
   227   000F69  01                 	db	high IIR_p2@X
   228                           
   229                           ;initializer for IIR_p1@W_i
   230   000F6A  CB                 	db	low IIR_p1@W
   231   000F6B  00                 	db	high IIR_p1@W
   232                           
   233                           ;initializer for IIR_p1@X_i
   234   000F6C  A4                 	db	low IIR_p1@X
   235   000F6D  01                 	db	high IIR_p1@X
   236                           
   237                           ;initializer for FIR_p@indexTail
   238   000F6E  0015               	dw	21
   239                           
   240                           ;initializer for FIR_p@tail_i
   241   000F70  82                 	db	low (FIR_p@buffer+42)
   242   000F71  01                 	db	high (FIR_p@buffer+42)
   243                           
   244                           ;initializer for FIR_p@tail
   245   000F72  80                 	db	low (FIR_p@buffer+40)
   246   000F73  01                 	db	high (FIR_p@buffer+40)
   247                           
   248                           ;initializer for FIR_p@head
   249   000F74  58                 	db	low FIR_p@buffer
   250   000F75  01                 	db	high FIR_p@buffer
   251                           
   252                           ;initializer for FIR_p@endBuffer
   253   000F76  96                 	db	low (FIR_p@buffer+62)
   254   000F77  01                 	db	high (FIR_p@buffer+62)
   255                           
   256                           ;initializer for FIR_p@startBuffer
   257   000F78  58                 	db	low FIR_p@buffer
   258   000F79  01                 	db	high FIR_p@buffer
   259                           
   260                           ;initializer for UART1_Receive_Vector_ISR@mesage
   261   000F7A  0001               	dw	1
   262                           
   263                           ;initializer for _PERIOD
   264   000F7C  0002               	dw	2
   265                           
   266                           	psect	idataBANK1
   267   001078                     __pidataBANK1:
   268                           	callstack 0
   269                           
   270                           ;initializer for _char_hex
   271   001078  30                 	db	48
   272   001079  31                 	db	49
   273   00107A  32                 	db	50
   274   00107B  33                 	db	51
   275   00107C  34                 	db	52
   276   00107D  35                 	db	53
   277   00107E  36                 	db	54
   278   00107F  37                 	db	55
   279   001080  38                 	db	56
   280   001081  39                 	db	57
   281   001082  41                 	db	65
   282   001083  42                 	db	66
   283   001084  43                 	db	67
   284   001085  44                 	db	68
   285   001086  45                 	db	69
   286   001087  46                 	db	70
   287                           
   288                           	psect	mediumconst
   289   00FECE                     __pmediumconst:
   290                           	callstack 0
   291   00FECE  00                 	db	0
   292   00FECF                     _DEN:
   293                           	callstack 0
   294   00FECF  0000               	dw	0
   295   00FED1  3F80               	dw	16256
   296   00FED3  0000               	dw	0
   297   00FED5  0000               	dw	0
   298   00FED7  0000               	dw	0
   299   00FED9  0000               	dw	0
   300   00FEDB  0000               	dw	0
   301   00FEDD  3F80               	dw	16256
   302                           
   303                           ;./Notch 60hzorden4.h: 23: const int NL[5] = { 1,3,1,3,1 };;./Notch 60hzorden4.h: 24: co
      +                          nst double NUM[5][3] = {;./Notch 60hzorden4.h: 41: const int DL[5] = { 1,3,1,3,1 };;./No
      +                          tch 60hzorden4.h: 42: const double DEN[5][3] = {
   304   00FEDF  06FB               	dw	1787
   305   00FEE1  3FC0               	dw	16320
   306                           
   307                           ;./Notch 60hzorden4.h: 23: const int NL[5] = { 1,3,1,3,1 };;./Notch 60hzorden4.h: 24: co
      +                          nst double NUM[5][3] = {;./Notch 60hzorden4.h: 41: const int DL[5] = { 1,3,1,3,1 };;./No
      +                          tch 60hzorden4.h: 42: const double DEN[5][3] = {
   308   00FEE3  5E32               	dw	24114
   309   00FEE5  3F29               	dw	16169
   310   00FEE7  0000               	dw	0
   311   00FEE9  3F80               	dw	16256
   312   00FEEB  0000               	dw	0
   313   00FEED  0000               	dw	0
   314   00FEEF  0000               	dw	0
   315   00FEF1  0000               	dw	0
   316   00FEF3  0000               	dw	0
   317   00FEF5  3F80               	dw	16256
   318                           
   319                           ;./Notch 60hzorden4.h: 23: const int NL[5] = { 1,3,1,3,1 };;./Notch 60hzorden4.h: 24: co
      +                          nst double NUM[5][3] = {;./Notch 60hzorden4.h: 41: const int DL[5] = { 1,3,1,3,1 };;./No
      +                          tch 60hzorden4.h: 42: const double DEN[5][3] = {
   320   00FEF7  55C4               	dw	21956
   321   00FEF9  3EC3               	dw	16067
   322                           
   323                           ;./Notch 60hzorden4.h: 23: const int NL[5] = { 1,3,1,3,1 };;./Notch 60hzorden4.h: 24: co
      +                          nst double NUM[5][3] = {;./Notch 60hzorden4.h: 41: const int DL[5] = { 1,3,1,3,1 };;./No
      +                          tch 60hzorden4.h: 42: const double DEN[5][3] = {
   324   00FEFB  B7AD               	dw	47021
   325   00FEFD  3EBF               	dw	16063
   326   00FEFF  0000               	dw	0
   327   00FF01  3F80               	dw	16256
   328   00FF03  0000               	dw	0
   329   00FF05  0000               	dw	0
   330   00FF07  0000               	dw	0
   331   00FF09  0000               	dw	0
   332   00FF0B                     __end_of_DEN:
   333                           	callstack 0
   334   00FF0B                     _NUM:
   335                           	callstack 0
   336                           
   337                           ;./Notch 60hzorden4.h: 23: const int NL[5] = { 1,3,1,3,1 };;./Notch 60hzorden4.h: 24: co
      +                          nst double NUM[5][3] = {
   338   00FF0B  6BA9               	dw	27561
   339   00FF0D  3F30               	dw	16176
   340   00FF0F  0000               	dw	0
   341   00FF11  0000               	dw	0
   342   00FF13  0000               	dw	0
   343   00FF15  0000               	dw	0
   344   00FF17  0000               	dw	0
   345   00FF19  3F80               	dw	16256
   346                           
   347                           ;./Notch 60hzorden4.h: 23: const int NL[5] = { 1,3,1,3,1 };;./Notch 60hzorden4.h: 24: co
      +                          nst double NUM[5][3] = {
   348   00FF1B  A627               	dw	42535
   349   00FF1D  3FB5               	dw	16309
   350   00FF1F  0000               	dw	0
   351   00FF21  3F80               	dw	16256
   352                           
   353                           ;./Notch 60hzorden4.h: 23: const int NL[5] = { 1,3,1,3,1 };;./Notch 60hzorden4.h: 24: co
      +                          nst double NUM[5][3] = {
   354   00FF23  6BA9               	dw	27561
   355   00FF25  3F30               	dw	16176
   356   00FF27  0000               	dw	0
   357   00FF29  0000               	dw	0
   358   00FF2B  0000               	dw	0
   359   00FF2D  0000               	dw	0
   360   00FF2F  0000               	dw	0
   361   00FF31  3F80               	dw	16256
   362                           
   363                           ;./Notch 60hzorden4.h: 23: const int NL[5] = { 1,3,1,3,1 };;./Notch 60hzorden4.h: 24: co
      +                          nst double NUM[5][3] = {
   364   00FF33  A627               	dw	42535
   365   00FF35  3FB5               	dw	16309
   366   00FF37  0000               	dw	0
   367   00FF39  3F80               	dw	16256
   368   00FF3B  0000               	dw	0
   369   00FF3D  3F80               	dw	16256
   370   00FF3F  0000               	dw	0
   371   00FF41  0000               	dw	0
   372   00FF43  0000               	dw	0
   373   00FF45  0000               	dw	0
   374   00FF47                     __end_of_NUM:
   375                           	callstack 0
   376   00FF47                     _UART:
   377                           	callstack 0
   378   00FF47  30                 	db	low _UART1_Initialize
   379   00FF48  06                 	db	high _UART1_Initialize
   380   00FF49  00                 	db	0
   381   00FF4A  00                 	db	0
   382   00FF4B  00                 	db	0
   383   00FF4C  00                 	db	0
   384   00FF4D  BC                 	db	low _UART1_Write
   385   00FF4E  0A                 	db	high _UART1_Write
   386   00FF4F  00                 	db	0
   387   00FF50  00                 	db	0
   388   00FF51  00                 	db	0
   389   00FF52  00                 	db	0
   390   00FF53  00                 	db	0
   391   00FF54  00                 	db	0
   392   00FF55  00                 	db	0
   393   00FF56  00                 	db	0
   394   00FF57  00                 	db	0
   395   00FF58  00                 	db	0
   396   00FF59  00                 	db	0
   397   00FF5A  00                 	db	0
   398   00FF5B  00                 	db	0
   399   00FF5C  00                 	db	0
   400   00FF5D  00                 	db	0
   401   00FF5E  00                 	db	0
   402   00FF5F  00                 	db	0
   403   00FF60  00                 	db	0
   404   00FF61  00                 	db	0
   405   00FF62  00                 	db	0
   406   00FF63  00                 	db	0
   407   00FF64  00                 	db	0
   408   00FF65  00                 	db	0
   409   00FF66  00                 	db	0
   410   00FF67  00                 	db	0
   411   00FF68  00                 	db	0
   412   00FF69  00                 	db	0
   413   00FF6A  00                 	db	0
   414   00FF6B  00                 	db	0
   415   00FF6C  00                 	db	0
   416   00FF6D  00                 	db	0
   417   00FF6E  00                 	db	0
   418   00FF6F  10                 	db	low _UART1_FramingErrorCallbackRegister
   419   00FF70  0F                 	db	high _UART1_FramingErrorCallbackRegister
   420   00FF71  F2                 	db	low _UART1_OverrunErrorCallbackRegister
   421   00FF72  0E                 	db	high _UART1_OverrunErrorCallbackRegister
   422   00FF73  D4                 	db	low _UART1_ParityErrorCallbackRegister
   423   00FF74  0E                 	db	high _UART1_ParityErrorCallbackRegister
   424   00FF75  00                 	db	0
   425   00FF76  00                 	db	0
   426   00FF77                     __end_of_UART:
   427                           	callstack 0
   428   00FF77                     _I2C1_Host:
   429                           	callstack 0
   430   00FF77  04                 	db	low _I2C1_Initialize
   431   00FF78  0A                 	db	high _I2C1_Initialize
   432   00FF79  00                 	db	0
   433   00FF7A  00                 	db	0
   434   00FF7B  00                 	db	0
   435   00FF7C  00                 	db	0
   436   00FF7D  00                 	db	0
   437   00FF7E  00                 	db	0
   438   00FF7F  00                 	db	0
   439   00FF80  00                 	db	0
   440   00FF81  00                 	db	0
   441   00FF82  00                 	db	0
   442   00FF83  00                 	db	0
   443   00FF84  00                 	db	0
   444   00FF85  00                 	db	0
   445   00FF86  00                 	db	0
   446   00FF87  2E                 	db	low _I2C1_CallbackRegister
   447   00FF88  0F                 	db	high _I2C1_CallbackRegister
   448   00FF89  00                 	db	0
   449   00FF8A  00                 	db	0
   450   00FF8B                     __end_of_I2C1_Host:
   451                           	callstack 0
   452   00FF8B                     _SPI1:
   453                           	callstack 0
   454   00FF8B  4C                 	db	low _SPI1_Initialize
   455   00FF8C  0F                 	db	high _SPI1_Initialize
   456   00FF8D  00                 	db	0
   457   00FF8E  00                 	db	0
   458   00FF8F  36                 	db	low _SPI1_Open
   459   00FF90  0E                 	db	high _SPI1_Open
   460   00FF91  00                 	db	0
   461   00FF92  00                 	db	0
   462   00FF93  00                 	db	0
   463   00FF94  00                 	db	0
   464   00FF95  00                 	db	0
   465   00FF96  00                 	db	0
   466   00FF97  00                 	db	0
   467   00FF98  00                 	db	0
   468   00FF99  00                 	db	0
   469   00FF9A  00                 	db	0
   470   00FF9B  F0                 	db	low _SPI1_ByteWrite
   471   00FF9C  10                 	db	high _SPI1_ByteWrite
   472   00FF9D                     __end_of_SPI1:
   473                           	callstack 0
   474   00FF9D                     _Timer2:
   475                           	callstack 0
   476   00FF9D  C6                 	db	low _Timer2_Initialize
   477   00FF9E  0C                 	db	high _Timer2_Initialize
   478   00FF9F  62                 	db	low _Timer2_Start
   479   00FFA0  11                 	db	high _Timer2_Start
   480   00FFA1  66                 	db	low _Timer2_Stop
   481   00FFA2  11                 	db	high _Timer2_Stop
   482   00FFA3  00                 	db	0
   483   00FFA4  00                 	db	0
   484   00FFA5  BE                 	db	low _Timer2_OverflowCallbackRegister
   485   00FFA6  10                 	db	high _Timer2_OverflowCallbackRegister
   486   00FFA7  00                 	db	0
   487   00FFA8  00                 	db	0
   488   00FFA9                     __end_of_Timer2:
   489                           	callstack 0
   490   00FFA9                     _Timer:
   491                           	callstack 0
   492   00FFA9  FA                 	db	low _Timer_Initialize
   493   00FFAA  0B                 	db	high _Timer_Initialize
   494   00FFAB  00                 	db	0
   495   00FFAC  00                 	db	0
   496   00FFAD  00                 	db	0
   497   00FFAE  00                 	db	0
   498   00FFAF  00                 	db	0
   499   00FFB0  00                 	db	0
   500   00FFB1  B4                 	db	low _Timer_OverflowCallbackRegister
   501   00FFB2  10                 	db	high _Timer_OverflowCallbackRegister
   502   00FFB3  00                 	db	0
   503   00FFB4  00                 	db	0
   504   00FFB5                     __end_of_Timer:
   505                           	callstack 0
   506   00FFB5                     _DL:
   507                           	callstack 0
   508   00FFB5  0001               	dw	1
   509   00FFB7  0003               	dw	3
   510   00FFB9  0001               	dw	1
   511   00FFBB  0003               	dw	3
   512   00FFBD  0001               	dw	1
   513   00FFBF                     __end_of_DL:
   514                           	callstack 0
   515   00FFBF                     _NL:
   516                           	callstack 0
   517   00FFBF  0001               	dw	1
   518   00FFC1  0003               	dw	3
   519   00FFC3  0001               	dw	1
   520   00FFC5  0003               	dw	3
   521   00FFC7  0001               	dw	1
   522   00FFC9                     __end_of_NL:
   523                           	callstack 0
   524   00FFC9  83                 	db	131
   525   00FFCA  40                 	db	64
   526   00FFCB  02                 	db	2
   527   00FFCC  3F                 	db	63
   528   00FFCD  00                 	db	0
   529   00FFCE                     __end_of_spi1_configuration:
   530                           	callstack 0
   531   00FFCE                     _B:
   532                           	callstack 0
   533   00FFCE  0317               	dw	791
   534   00FFD0  0000               	dw	0
   535   00FFD2  0A89               	dw	2697
   536   00FFD4  0000               	dw	0
   537   00FFD6  12CF               	dw	4815
   538   00FFD8  0000               	dw	0
   539   00FFDA  1AA7               	dw	6823
   540   00FFDC  0000               	dw	0
   541   00FFDE  20C8               	dw	8392
   542   00FFE0  0000               	dw	0
   543   00FFE2  2424               	dw	9252
   544   00FFE4  0000               	dw	0
   545   00FFE6  2424               	dw	9252
   546   00FFE8  0000               	dw	0
   547   00FFEA  20C8               	dw	8392
   548   00FFEC  0000               	dw	0
   549   00FFEE  1AA7               	dw	6823
   550   00FFF0  0000               	dw	0
   551   00FFF2  12CF               	dw	4815
   552   00FFF4  0000               	dw	0
   553   00FFF6  0A89               	dw	2697
   554   00FFF8  0000               	dw	0
   555   00FFFA  0317               	dw	791
   556   00FFFC  0000               	dw	0
   557   00FFFE                     __end_of_B:
   558                           	callstack 0
   559   000000                     _I2C1STAT1	set	15736
   560   000000                     _PIE2bits	set	14738
   561   000000                     _I2C1STAT0bits	set	15735
   562   000000                     _I2C1ERR	set	15734
   563   000000                     _I2C1PIE	set	15738
   564   000000                     _I2C1PIR	set	15737
   565   000000                     _I2C1CLK	set	15739
   566   000000                     _I2C1CON2	set	15733
   567   000000                     _I2C1CON1	set	15732
   568   000000                     _T2CON	set	16300
   569   000000                     _PIR4bits	set	14756
   570   000000                     _T0CON0	set	16312
   571   000000                     _PIE3bits	set	14739
   572   000000                     _PIR3bits	set	14755
   573   000000                     _T0CON1	set	16313
   574   000000                     _PIR5bits	set	14757
   575   000000                     _IPR1bits	set	14721
   576   000000                     _IVTBASEL	set	16341
   577   000000                     _IVTBASEH	set	16342
   578   000000                     _IVTBASEU	set	16343
   579   000000                     _OSCTUNE	set	14814
   580   000000                     _OSCFRQ	set	14815
   581   000000                     _OSCCON1	set	14809
   582   000000                     _RC4PPS	set	14868
   583   000000                     _RC3PPS	set	14867
   584   000000                     _RC5PPS	set	14869
   585   000000                     _RC6PPS	set	14870
   586   000000                     _ANSELA	set	14912
   587   000000                     _TRISB	set	16323
   588   000000                     _SPI1RXB	set	15632
   589   000000                     _PIR2bits	set	14754
   590   000000                     _SPI1TXB	set	15633
   591   000000                     _SPI1TCNTL	set	15634
   592   000000                     _SPI1CON0	set	15636
   593   000000                     _SPI1CON1	set	15637
   594   000000                     _U2TXB	set	15826
   595   000000                     _FVRCON	set	16065
   596   000000                     _ADERRL	set	16098
   597   000000                     _ADERRH	set	16099
   598   000000                     _ADPREVL	set	16109
   599   000000                     _ADPREVH	set	16110
   600   000000                     _ADFLTRL	set	16102
   601   000000                     _ADFLTRH	set	16103
   602   000000                     _ADACCL	set	16104
   603   000000                     _ADACCH	set	16105
   604   000000                     _ADCNT	set	16107
   605   000000                     _ADRESL	set	16111
   606   000000                     _ADRESH	set	16112
   607   000000                     _ADCON0	set	16120
   608   000000                     _ADCON1	set	16121
   609   000000                     _ADPREH	set	16119
   610   000000                     _ADPREL	set	16118
   611   000000                     _ADCAP	set	16117
   612   000000                     _ADACQH	set	16116
   613   000000                     _ADPCH	set	16113
   614   000000                     _ADRPT	set	16108
   615   000000                     _ADACCU	set	16106
   616   000000                     _ADSTPTH	set	16101
   617   000000                     _ADSTPTL	set	16100
   618   000000                     _ADUTHH	set	16097
   619   000000                     _ADUTHL	set	16096
   620   000000                     _ADLTHH	set	16095
   621   00FFFE  00                 	db	0	; dummy byte at the end
   622   000000                     
   623                           	psect	nvBANK0
   624   0000F7                     __pnvBANK0:
   625                           	callstack 0
   626   0000F7                     _ADCC_ADI_InterruptHandler:
   627                           	callstack 0
   628   0000F7                     	ds	2
   629   000000                     _I2C1STAT1bits	set	15736
   630   000000                     _I2C1CON1bits	set	15732
   631   000000                     _I2C1ERRbits	set	15734
   632   000000                     _I2C1PIRbits	set	15737
   633   000000                     _I2C1CON0bits	set	15731
   634   000000                     _I2C1PIEbits	set	15738
   635   000000                     _U1ERRIRbits	set	15865
   636   000000                     _U1UIRbits	set	15864
   637   000000                     _U1CON0bits	set	15858
   638   000000                     _U1CON1bits	set	15859
   639   000000                     _SPI1CON0bits	set	15636
   640   000000                     _FVRCONbits	set	16065
   641   000000                     _ADCON1bits	set	16121
   642   000000                     _ADSTATbits	set	16124
   643   000000                     _ADCON2bits	set	16122
   644   000000                     _ADCON3bits	set	16123
   645   000000                     _ADCON0bits	set	16120
   646   000000                     _LATBbits	set	16315
   647   000000                     _LATEbits	set	16318
   648   000000                     _PR2	set	16299
   649   000000                     _TMR2	set	16298
   650   000000                     _T2CONbits	set	16300
   651   000000                     _T2RSTbits	set	16303
   652   000000                     _T2HLTbits	set	16301
   653   000000                     _T0CON0bits	set	16312
   654   000000                     _IVTLOCKbits	set	16340
   655   000000                     _TRISC	set	16324
   656   000000                     _GIE	set	130711
   657   000000                     _IPR0bits	set	14720
   658   000000                     _IPR2bits	set	14722
   659   000000                     _PIE1bits	set	14737
   660   000000                     _PIR1bits	set	14753
   661   000000                     _ADLTHL	set	16094
   662   000000                     _ADACQL	set	16115
   663   000000                     _T2TMR	set	16298
   664   000000                     _T2PR	set	16299
   665   000000                     _T2HLT	set	16301
   666   000000                     _T2CLKCON	set	16302
   667   000000                     _TMR0L	set	16310
   668   000000                     _TMR0H	set	16311
   669   000000                     _LATA	set	16314
   670   000000                     _TRISCbits	set	16324
   671   000000                     _ADCLK	set	16127
   672   000000                     _ADACT	set	16126
   673   000000                     _ADREF	set	16125
   674   000000                     _ADSTAT	set	16124
   675   000000                     _ADCON3	set	16123
   676   000000                     _ADCON2	set	16122
   677   000000                     _U2P1L	set	15828
   678   000000                     _U2P2L	set	15830
   679   000000                     _U2P3L	set	15832
   680   000000                     _U2CON0	set	15834
   681   000000                     _U1RXB	set	15848
   682   000000                     _U2ERRIE	set	15842
   683   000000                     _U2ERRIR	set	15841
   684   000000                     _U2UIR	set	15840
   685   000000                     _U2FIFO	set	15839
   686   000000                     _U2BRGH	set	15838
   687   000000                     _U2BRGL	set	15837
   688   000000                     _U2CON2	set	15836
   689   000000                     _U2CON1	set	15835
   690   000000                     _SPI1BAUD	set	15641
   691   000000                     _SPI1CLK	set	15644
   692   000000                     _SPI1CON2	set	15638
   693   000000                     _I2C1RXB	set	15722
   694   000000                     _I2C1TXB	set	15723
   695   000000                     _I2C1CNT	set	15724
   696   000000                     _I2C1CON0	set	15731
   697   000000                     _INTCON0bits	set	16338
   698   000000                     _TRISE	set	16326
   699   000000                     _TRISD	set	16325
   700   000000                     _TRISA	set	16322
   701   000000                     _LATE	set	16318
   702   000000                     _LATD	set	16317
   703   000000                     _LATC	set	16316
   704   000000                     _LATB	set	16315
   705   000000                     _IOCAF	set	14919
   706   000000                     _IOCAN	set	14918
   707   000000                     _IOCAP	set	14917
   708   000000                     _INLVLA	set	14916
   709   000000                     _SLRCONA	set	14915
   710   000000                     _ODCONA	set	14914
   711   000000                     _WPUA	set	14913
   712   000000                     _ANSELB	set	14928
   713   000000                     _IOCBF	set	14935
   714   000000                     _IOCBN	set	14934
   715   000000                     _IOCBP	set	14933
   716   000000                     _INLVLB	set	14932
   717   000000                     _SLRCONB	set	14931
   718   000000                     _ODCONB	set	14930
   719   000000                     _RB1I2C	set	14938
   720   000000                     _WPUB	set	14929
   721   000000                     _ANSELC	set	14944
   722   000000                     _IOCCF	set	14951
   723   000000                     _IOCCN	set	14950
   724   000000                     _IOCCP	set	14949
   725   000000                     _INLVLC	set	14948
   726   000000                     _SLRCONC	set	14947
   727   000000                     _ODCONC	set	14946
   728   000000                     _RC3I2C	set	14954
   729   000000                     _WPUC	set	14945
   730   000000                     _ANSELD	set	14960
   731   000000                     _INLVLD	set	14964
   732   000000                     _SLRCOND	set	14963
   733   000000                     _ODCOND	set	14962
   734   000000                     _RD0I2C	set	14970
   735   000000                     _WPUD	set	14961
   736   000000                     _ANSELE	set	14976
   737   000000                     _IOCEF	set	14983
   738   000000                     _IOCEN	set	14982
   739   000000                     _IOCEP	set	14981
   740   000000                     _SPI1SCKPPS	set	15070
   741   000000                     _SPI1SDIPPS	set	15071
   742   000000                     _INLVLE	set	14980
   743   000000                     _SLRCONE	set	14979
   744   000000                     _ODCONE	set	14978
   745   000000                     _WPUE	set	14977
   746   000000                     _RB2I2C	set	14939
   747   000000                     _RC4I2C	set	14955
   748   000000                     _RD1I2C	set	14971
   749   000000                     _I2C1SCLPPS	set	15073
   750   000000                     _U1RXPPS	set	15077
   751   000000                     _I2C1SDAPPS	set	15074
   752   000000                     _OSCCON3	set	14811
   753   000000                     _OSCEN	set	14813
   754   000000                     _IVTLOCK	set	16340
   755   000000                     _IPR4bits	set	14724
   756   000000                     _IPR3bits	set	14723
   757   000000                     _PIR7bits	set	14759
   758   000000                     _PIE4bits	set	14740
   759   000000                     _T2RST	set	16303
   760   000000                     _U1ERRIE	set	15866
   761   000000                     _U1ERRIR	set	15865
   762   000000                     _U1UIR	set	15864
   763   000000                     _U1FIFO	set	15863
   764   000000                     _U1BRGH	set	15862
   765   000000                     _U1BRGL	set	15861
   766   000000                     _U1CON2	set	15860
   767   000000                     _U1CON1	set	15859
   768   000000                     _U1CON0	set	15858
   769   000000                     _U1P3H	set	15857
   770   000000                     _U1P3L	set	15856
   771   000000                     _U1P2H	set	15855
   772   000000                     _U1P2L	set	15854
   773   000000                     _U1P1H	set	15853
   774   000000                     _U1P1L	set	15852
   775   000000                     _U1TXCHK	set	15851
   776   000000                     _U1TXB	set	15850
   777   000000                     _U1RXCHK	set	15849
   778   000000                     _I2C1ADB1	set	15726
   779                           
   780                           ; #config settings
   781                           
   782                           	psect	cinit
   783   0006EC                     __pcinit:
   784                           	callstack 0
   785   0006EC                     start_initialization:
   786                           	callstack 0
   787   0006EC                     __initialization:
   788                           	callstack 0
   789                           
   790                           ; Initialize objects allocated to BANK1 (16 bytes)
   791                           ; load TBLPTR registers with __pidataBANK1
   792   0006EC  0E78               	movlw	low __pidataBANK1
   793   0006EE  6EF6               	movwf	tblptrl,c
   794   0006F0  0E10               	movlw	high __pidataBANK1
   795   0006F2  6EF7               	movwf	tblptrh,c
   796   0006F4  0E00               	movlw	low (__pidataBANK1 shr (0+16))
   797   0006F6  6EF8               	movwf	tblptru,c
   798   0006F8  EE00  F1B0         	lfsr	0,__pdataBANK1
   799   0006FC  EE10 F010          	lfsr	1,16
   800   000700                     copy_data0:
   801   000700  0009               	tblrd		*+
   802   000702  006F FFD7 FFEE     	movff	tablat,postinc0
   803   000708  50E5               	movf	postdec1,w,c
   804   00070A  50E1               	movf	fsr1l,w,c
   805   00070C  E1F9               	bnz	copy_data0
   806                           
   807                           ; Initialize objects allocated to BANK0 (24 bytes)
   808                           ; load TBLPTR registers with __pidataBANK0
   809   00070E  0E66               	movlw	low __pidataBANK0
   810   000710  6EF6               	movwf	tblptrl,c
   811   000712  0E0F               	movlw	high __pidataBANK0
   812   000714  6EF7               	movwf	tblptrh,c
   813   000716  0E00               	movlw	low (__pidataBANK0 shr (0+16))
   814   000718  6EF8               	movwf	tblptru,c
   815   00071A  EE00  F0D7         	lfsr	0,__pdataBANK0
   816   00071E  EE10 F018          	lfsr	1,24
   817   000722                     copy_data1:
   818   000722  0009               	tblrd		*+
   819   000724  006F FFD7 FFEE     	movff	tablat,postinc0
   820   00072A  50E5               	movf	postdec1,w,c
   821   00072C  50E1               	movf	fsr1l,w,c
   822   00072E  E1F9               	bnz	copy_data1
   823                           
   824                           ; Initialize objects allocated to COMRAM (2 bytes)
   825                           ; load TBLPTR registers with __pidataCOMRAM
   826   000730  0E6A               	movlw	low __pidataCOMRAM
   827   000732  6EF6               	movwf	tblptrl,c
   828   000734  0E11               	movlw	high __pidataCOMRAM
   829   000736  6EF7               	movwf	tblptrh,c
   830   000738  0E00               	movlw	low (__pidataCOMRAM shr (0+16))
   831   00073A  6EF8               	movwf	tblptru,c
   832   00073C  0009               	tblrd		*+	;fetch initializer
   833   00073E  006F FFD4  F04D    	movff	tablat,__pdataCOMRAM
   834   000744  0009               	tblrd		*+	;fetch initializer
   835   000746  006F FFD4  F04E    	movff	tablat,__pdataCOMRAM+1
   836                           
   837                           ; Clear objects allocated to BANK1 (176 bytes)
   838   00074C  EE00  F100         	lfsr	0,__pbssBANK1
   839   000750  0EB0               	movlw	176
   840   000752                     clear_0:
   841   000752  6AEE               	clrf	postinc0,c
   842   000754  06E8               	decf	wreg,f,c
   843   000756  E1FD               	bnz	clear_0
   844                           
   845                           ; Clear objects allocated to BANK0 (119 bytes)
   846   000758  EE00  F060         	lfsr	0,__pbssBANK0
   847   00075C  0E77               	movlw	119
   848   00075E                     clear_1:
   849   00075E  6AEE               	clrf	postinc0,c
   850   000760  06E8               	decf	wreg,f,c
   851   000762  E1FD               	bnz	clear_1
   852                           
   853                           ; Clear objects allocated to COMRAM (24 bytes)
   854   000764  EE00  F035         	lfsr	0,__pbssCOMRAM
   855   000768  0E18               	movlw	24
   856   00076A                     clear_2:
   857   00076A  6AEE               	clrf	postinc0,c
   858   00076C  06E8               	decf	wreg,f,c
   859   00076E  E1FD               	bnz	clear_2
   860                           
   861                           ;
   862                           ; Setup IVTBASE
   863                           ;
   864   000770  0E08               	movlw	(ivt0x8_base shr 0)& (0+255)
   865   000772  6ED5               	movwf	213,c
   866   000774  0E00               	movlw	(ivt0x8_base shr (0+8))& (0+255)
   867   000776  6ED6               	movwf	214,c
   868   000778  0E00               	movlw	(ivt0x8_base shr (0+16))& (0+255)
   869   00077A  6ED7               	movwf	215,c
   870   00077C                     end_of_initialization:
   871                           	callstack 0
   872   00077C                     __end_of__initialization:
   873                           	callstack 0
   874   00077C  0100               	movlb	0
   875   00077E  EF18  F006         	goto	_main	;jump to C main() function
   876                           
   877                           	psect	bssCOMRAM
   878   000035                     __pbssCOMRAM:
   879                           	callstack 0
   880   000035                     _i2c1Status:
   881                           	callstack 0
   882   000035                     	ds	13
   883   000042                     UART_RX_int@Addres:
   884                           	callstack 0
   885   000042                     	ds	1
   886   000043                     UART_RX_int@TypeV:
   887                           	callstack 0
   888   000043                     	ds	1
   889   000044                     UART_RX_int@OperationV:
   890                           	callstack 0
   891   000044                     	ds	1
   892   000045                     UART_RX_int@status:
   893                           	callstack 0
   894   000045                     	ds	1
   895   000046                     UART1_Receive_Vector_ISR@status:
   896                           	callstack 0
   897   000046                     	ds	1
   898   000047                     _uart1RxCount:
   899                           	callstack 0
   900   000047                     	ds	1
   901   000048                     _uart1RxTail:
   902                           	callstack 0
   903   000048                     	ds	1
   904   000049                     _uart1RxHead:
   905                           	callstack 0
   906   000049                     	ds	1
   907   00004A                     _uart1TxBufferRemaining:
   908                           	callstack 0
   909   00004A                     	ds	1
   910   00004B                     _uart1TxTail:
   911                           	callstack 0
   912   00004B                     	ds	1
   913   00004C                     _uart1TxHead:
   914                           	callstack 0
   915   00004C                     	ds	1
   916                           
   917                           	psect	dataCOMRAM
   918   00004D                     __pdataCOMRAM:
   919                           	callstack 0
   920   00004D                     FIR_p@head_i:
   921                           	callstack 0
   922   00004D                     	ds	2
   923                           
   924                           	psect	bssBANK0
   925   000060                     __pbssBANK0:
   926                           	callstack 0
   927   000060                     _uart1RxStatusBuffer:
   928                           	callstack 0
   929   000060                     	ds	16
   930   000070                     FilterIIR@W_2:
   931                           	callstack 0
   932   000070                     	ds	12
   933   00007C                     FilterIIR@W_1:
   934                           	callstack 0
   935   00007C                     	ds	12
   936   000088                     _uart1RxBuffer:
   937                           	callstack 0
   938   000088                     	ds	8
   939   000090                     IIR_p2@Y:
   940                           	callstack 0
   941   000090                     	ds	4
   942   000094                     IIR_p1@Y:
   943                           	callstack 0
   944   000094                     	ds	4
   945   000098                     _I2C1_Callback:
   946                           	callstack 0
   947   000098                     	ds	2
   948   00009A                     FIR_p@indexHead:
   949                           	callstack 0
   950   00009A                     	ds	2
   951   00009C                     	ds	2
   952   00009E                     FIR@index:
   953                           	callstack 0
   954   00009E                     	ds	2
   955   0000A0                     Timer_int@count:
   956                           	callstack 0
   957   0000A0                     	ds	2
   958   0000A2                     _UART1_RxCompleteInterruptHandler:
   959                           	callstack 0
   960   0000A2                     	ds	2
   961   0000A4                     _UART1_TxCompleteInterruptHandler:
   962                           	callstack 0
   963   0000A4                     	ds	2
   964   0000A6                     _UART1_ParityErrorHandler:
   965                           	callstack 0
   966   0000A6                     	ds	2
   967   0000A8                     _UART1_OverrunErrorHandler:
   968                           	callstack 0
   969   0000A8                     	ds	2
   970   0000AA                     _UART1_FramingErrorHandler:
   971                           	callstack 0
   972   0000AA                     	ds	2
   973   0000AC                     _uart1RxLastError:
   974                           	callstack 0
   975   0000AC                     	ds	2
   976   0000AE                     _Timer2_OverflowCallback:
   977                           	callstack 0
   978   0000AE                     	ds	2
   979   0000B0                     _Timer_OverflowCallback:
   980                           	callstack 0
   981   0000B0                     	ds	2
   982   0000B2                     _timerTMR0ReloadVal16bit:
   983                           	callstack 0
   984   0000B2                     	ds	2
   985   0000B4                     _INT2_InterruptHandler:
   986                           	callstack 0
   987   0000B4                     	ds	2
   988   0000B6                     _INT1_InterruptHandler:
   989                           	callstack 0
   990   0000B6                     	ds	2
   991   0000B8                     _INT0_InterruptHandler:
   992                           	callstack 0
   993   0000B8                     	ds	2
   994   0000BA                     _UART1_RxInterruptHandler:
   995                           	callstack 0
   996   0000BA                     	ds	2
   997   0000BC                     _UART1_TxInterruptHandler:
   998                           	callstack 0
   999   0000BC                     	ds	2
  1000   0000BE                     	ds	1
  1001   0000BF                     IIR_p2@W:
  1002                           	callstack 0
  1003   0000BF                     	ds	12
  1004   0000CB                     IIR_p1@W:
  1005                           	callstack 0
  1006   0000CB                     	ds	12
  1007                           
  1008                           	psect	dataBANK0
  1009   0000D7                     __pdataBANK0:
  1010                           	callstack 0
  1011   0000D7                     IIR_p2@W_i:
  1012                           	callstack 0
  1013   0000D7                     	ds	2
  1014   0000D9                     IIR_p2@X_i:
  1015                           	callstack 0
  1016   0000D9                     	ds	2
  1017   0000DB                     IIR_p1@W_i:
  1018                           	callstack 0
  1019   0000DB                     	ds	2
  1020   0000DD                     IIR_p1@X_i:
  1021                           	callstack 0
  1022   0000DD                     	ds	2
  1023   0000DF                     FIR_p@indexTail:
  1024                           	callstack 0
  1025   0000DF                     	ds	2
  1026   0000E1                     FIR_p@tail_i:
  1027                           	callstack 0
  1028   0000E1                     	ds	2
  1029   0000E3                     FIR_p@tail:
  1030                           	callstack 0
  1031   0000E3                     	ds	2
  1032   0000E5                     FIR_p@head:
  1033                           	callstack 0
  1034   0000E5                     	ds	2
  1035   0000E7                     FIR_p@endBuffer:
  1036                           	callstack 0
  1037   0000E7                     	ds	2
  1038   0000E9                     FIR_p@startBuffer:
  1039                           	callstack 0
  1040   0000E9                     	ds	2
  1041   0000EB                     UART1_Receive_Vector_ISR@mesage:
  1042                           	callstack 0
  1043   0000EB                     	ds	2
  1044   0000ED                     _PERIOD:
  1045                           	callstack 0
  1046   0000ED                     	ds	2
  1047                           
  1048                           	psect	bssBANK1
  1049   000100                     __pbssBANK1:
  1050                           	callstack 0
  1051   000100                     FIR@buffer:
  1052                           	callstack 0
  1053   000100                     	ds	64
  1054   000140                     _uart1TxBuffer:
  1055                           	callstack 0
  1056   000140                     	ds	16
  1057   000150                     	ds	8
  1058   000158                     FIR_p@buffer:
  1059                           	callstack 0
  1060   000158                     	ds	64
  1061   000198                     IIR_p2@X:
  1062                           	callstack 0
  1063   000198                     	ds	12
  1064   0001A4                     IIR_p1@X:
  1065                           	callstack 0
  1066   0001A4                     	ds	12
  1067                           
  1068                           	psect	dataBANK1
  1069   0001B0                     __pdataBANK1:
  1070                           	callstack 0
  1071   0001B0                     _char_hex:
  1072                           	callstack 0
  1073   0001B0                     	ds	16
  1074                           
  1075                           	psect	cstackBANK1
  1076   0001C0                     __pcstackBANK1:
  1077                           	callstack 0
  1078   0001C0                     ??_INT0_ISR:
  1079                           
  1080                           ; 1 bytes @ 0x0
  1081   0001C0                     	ds	3
  1082   0001C3                     ??_INT1_ISR:
  1083                           
  1084                           ; 1 bytes @ 0x3
  1085   0001C3                     	ds	3
  1086   0001C6                     ??_INT2_ISR:
  1087                           
  1088                           ; 1 bytes @ 0x6
  1089   0001C6                     	ds	3
  1090   0001C9                     ADCC_SetADIInterruptHandler@InterruptHandler:
  1091                           	callstack 0
  1092   0001C9                     INT0_SetInterruptHandler@InterruptHandler:
  1093                           	callstack 0
  1094   0001C9                     INT1_SetInterruptHandler@InterruptHandler:
  1095                           	callstack 0
  1096   0001C9                     INT2_SetInterruptHandler@InterruptHandler:
  1097                           	callstack 0
  1098   0001C9                     Timer_OverflowCallbackRegister@CallbackHandler:
  1099                           	callstack 0
  1100   0001C9                     Timer2_OverflowCallbackRegister@InterruptHandler:
  1101                           	callstack 0
  1102   0001C9                     UART1_FramingErrorCallbackRegister@callbackHandler:
  1103                           	callstack 0
  1104   0001C9                     UART1_OverrunErrorCallbackRegister@callbackHandler:
  1105                           	callstack 0
  1106   0001C9                     UART1_ParityErrorCallbackRegister@callbackHandler:
  1107                           	callstack 0
  1108   0001C9                     I2C1_CallbackRegister@callbackHandler:
  1109                           	callstack 0
  1110                           
  1111                           ; 2 bytes @ 0x9
  1112   0001C9                     	ds	2
  1113   0001CB                     ??_Timer_Initialize:
  1114                           
  1115                           ; 1 bytes @ 0xB
  1116   0001CB                     	ds	2
  1117                           
  1118                           	psect	cstackBANK0
  1119   0000EF                     __pcstackBANK0:
  1120                           	callstack 0
  1121   0000EF                     ??_ADCC_ISR:
  1122                           
  1123                           ; 1 bytes @ 0x0
  1124   0000EF                     	ds	7
  1125   0000F6                     INTERRUPT_Initialize@state:
  1126                           	callstack 0
  1127                           
  1128                           ; 1 bytes @ 0x7
  1129   0000F6                     	ds	1
  1130   0000F7                     
  1131                           ; 1 bytes @ 0x8
  1132                           
  1133                           	psect	cstackCOMRAM
  1134   000001                     __pcstackCOMRAM:
  1135                           	callstack 0
  1136   000001                     i2ADCC_StartConversion@channel:
  1137                           	callstack 0
  1138                           
  1139                           ; 1 bytes @ 0x0
  1140   000001                     	ds	1
  1141   000002                     ??_Timer_OverflowISR:
  1142                           
  1143                           ; 1 bytes @ 0x1
  1144   000002                     	ds	2
  1145   000004                     ??_UART1_Receive_Vector_ISR:
  1146                           
  1147                           ; 1 bytes @ 0x3
  1148   000004                     	ds	2
  1149   000006                     UART1_TransmitISR@tempTxTail:
  1150                           	callstack 0
  1151                           
  1152                           ; 1 bytes @ 0x5
  1153   000006                     	ds	1
  1154   000007                     I2C1_AddrTransmit@addr:
  1155                           	callstack 0
  1156                           
  1157                           ; 1 bytes @ 0x6
  1158   000007                     	ds	1
  1159   000008                     I2C1_CounterSet@counter:
  1160                           	callstack 0
  1161                           
  1162                           ; 1 bytes @ 0x7
  1163   000008                     	ds	1
  1164   000009                     ??_I2C1_ERROR_ISR:
  1165                           
  1166                           ; 1 bytes @ 0x8
  1167   000009                     	ds	2
  1168   00000B                     I2C1_DataTransmit@data:
  1169                           	callstack 0
  1170                           
  1171                           ; 1 bytes @ 0xA
  1172   00000B                     	ds	1
  1173   00000C                     ?___lmul:
  1174                           	callstack 0
  1175   00000C                     ADCC_StartConversion@channel:
  1176                           	callstack 0
  1177   00000C                     SPI1_ByteWrite@byte:
  1178                           	callstack 0
  1179   00000C                     UART1_Write@tempTxHead:
  1180                           	callstack 0
  1181   00000C                     ___lmul@multiplier:
  1182                           	callstack 0
  1183                           
  1184                           ; 4 bytes @ 0xB
  1185   00000C                     	ds	1
  1186   00000D                     UART1_Write@txData:
  1187                           	callstack 0
  1188                           
  1189                           ; 1 bytes @ 0xC
  1190   00000D                     	ds	3
  1191   000010                     ___lmul@multiplicand:
  1192                           	callstack 0
  1193                           
  1194                           ; 4 bytes @ 0xF
  1195   000010                     	ds	4
  1196   000014                     ___lmul@product:
  1197                           	callstack 0
  1198                           
  1199                           ; 4 bytes @ 0x13
  1200   000014                     	ds	4
  1201   000018                     ?_FIR_p:
  1202                           	callstack 0
  1203   000018                     FIR_p@coeffs:
  1204                           	callstack 0
  1205                           
  1206                           ; 2 bytes @ 0x17
  1207   000018                     	ds	2
  1208   00001A                     FIR_p@input:
  1209                           	callstack 0
  1210                           
  1211                           ; 2 bytes @ 0x19
  1212   00001A                     	ds	2
  1213   00001C                     ??_FIR_p:
  1214                           
  1215                           ; 1 bytes @ 0x1B
  1216   00001C                     	ds	12
  1217   000028                     FIR_p@output:
  1218                           	callstack 0
  1219                           
  1220                           ; 4 bytes @ 0x27
  1221   000028                     	ds	4
  1222   00002C                     FIR_p@i:
  1223                           	callstack 0
  1224                           
  1225                           ; 2 bytes @ 0x2B
  1226   00002C                     	ds	2
  1227   00002E                     ?_FilterFIR:
  1228                           	callstack 0
  1229   00002E                     FilterFIR@input:
  1230                           	callstack 0
  1231                           
  1232                           ; 2 bytes @ 0x2D
  1233   00002E                     	ds	2
  1234   000030                     ??_ADC_int:
  1235   000030                     
  1236                           ; 1 bytes @ 0x2F
  1237   000030                     	ds	3
  1238   000033                     ADC_int@result:
  1239                           	callstack 0
  1240                           
  1241                           ; 2 bytes @ 0x32
  1242   000033                     	ds	2
  1243                           
  1244 ;;
  1245 ;;Main: autosize = 0, tempsize = 0, incstack = 0, save=0
  1246 ;;
  1247 ;; *************** function _main *****************
  1248 ;; Defined at:
  1249 ;;		line 42 in file "main.c"
  1250 ;; Parameters:    Size  Location     Type
  1251 ;;		None
  1252 ;; Auto vars:     Size  Location     Type
  1253 ;;		None
  1254 ;; Return value:  Size  Location     Type
  1255 ;;                  2  1066[None  ] int 
  1256 ;; Registers used:
  1257 ;;		wreg, status,2, status,0, cstack
  1258 ;; Tracked objects:
  1259 ;;		On entry : 0/0
  1260 ;;		On exit  : 0/0
  1261 ;;		Unchanged: 0/0
  1262 ;; Data sizes:     COMRAM   BANK0   BANK1   BANK2   BANK3   BANK4   BANK5   BANK6   BANK7   BANK8   BANK9  BANK10  BANK1
      +1  BANK12  BANK13  BANK14  BANK15
  1263 ;;      Params:         0       0       0       0       0       0       0       0       0       0       0       0       
      +0       0       0       0       0
  1264 ;;      Locals:         0       0       0       0       0       0       0       0       0       0       0       0       
      +0       0       0       0       0
  1265 ;;      Temps:          0       0       0       0       0       0       0       0       0       0       0       0       
      +0       0       0       0       0
  1266 ;;      Totals:         0       0       0       0       0       0       0       0       0       0       0       0       
      +0       0       0       0       0
  1267 ;;Total ram usage:        0 bytes
  1268 ;; Hardware stack levels required when called: 11
  1269 ;; This function calls:
  1270 ;;		_ADCC_SetADIInterruptHandler
  1271 ;;		_SPI1_Open
  1272 ;;		_SYSTEM_Initialize
  1273 ;;		_Timer_OverflowCallbackRegister
  1274 ;; This function is called by:
  1275 ;;		Startup code after reset
  1276 ;; This function uses a non-reentrant model
  1277 ;;
  1278                           
  1279                           	psect	text0
  1280   000C30                     __ptext0:
  1281                           	callstack 0
  1282   000C30                     _main:
  1283                           	callstack 20
  1284   000C30                     
  1285                           ;main.c: 45:     SYSTEM_Initialize();
  1286   000C30  EC4C  F006         	call	_SYSTEM_Initialize	;wreg free
  1287   000C34                     
  1288                           ;main.c: 46:     SPI1_Open();
  1289   000C34  EC1B  F007         	call	_SPI1_Open	;wreg free
  1290   000C38                     
  1291                           ;main.c: 50:     ADCC_SetADIInterruptHandler(ADC_int);
  1292   000C38  0E0E               	movlw	low _ADC_int
  1293   000C3A  0101               	movlb	1	; () banked
  1294   000C3C  6FC9               	movwf	ADCC_SetADIInterruptHandler@InterruptHandler& (0+255),b
  1295   000C3E  0E03               	movlw	high _ADC_int
  1296   000C40  6FCA               	movwf	(ADCC_SetADIInterruptHandler@InterruptHandler+1)& (0+255),b
  1297   000C42  EC73  F008         	call	_ADCC_SetADIInterruptHandler	;wreg free
  1298   000C46                     
  1299                           ;main.c: 51:     Timer_OverflowCallbackRegister(Timer_int);
  1300   000C46  0E08               	movlw	low _Timer_int
  1301   000C48  0101               	movlb	1	; () banked
  1302   000C4A  6FC9               	movwf	Timer_OverflowCallbackRegister@CallbackHandler& (0+255),b
  1303   000C4C  0E0E               	movlw	high _Timer_int
  1304   000C4E  6FCA               	movwf	(Timer_OverflowCallbackRegister@CallbackHandler+1)& (0+255),b
  1305   000C50  EC5A  F008         	call	_Timer_OverflowCallbackRegister	;wreg free
  1306   000C54                     
  1307                           ;main.c: 53:     LATBbits.LATB4 = 1;
  1308   000C54  88BB               	bsf	187,4,c	;volatile
  1309   000C56                     
  1310                           ;main.c: 54:     LATEbits.LATE0 = 1;
  1311   000C56  80BE               	bsf	190,0,c	;volatile
  1312   000C58                     
  1313                           ;main.c: 57:     (INTCON0bits.GIE = 1);
  1314   000C58  8ED2               	bsf	210,7,c	;volatile
  1315   000C5A                     
  1316                           ;main.c: 60:     (INTCON0bits.GIEL = 1);
  1317   000C5A  8CD2               	bsf	210,6,c	;volatile
  1318   000C5C                     l1067:
  1319   000C5C  EF2E  F006         	goto	l1067
  1320   000C60  EF57  F000         	goto	start
  1321   000C64                     __end_of_main:
  1322                           	callstack 0
  1323                           
  1324 ;; *************** function _SYSTEM_Initialize *****************
  1325 ;; Defined at:
  1326 ;;		line 36 in file "mcc_generated_files/system/src/system.c"
  1327 ;; Parameters:    Size  Location     Type
  1328 ;;		None
  1329 ;; Auto vars:     Size  Location     Type
  1330 ;;		None
  1331 ;; Return value:  Size  Location     Type
  1332 ;;                  1    wreg      void 
  1333 ;; Registers used:
  1334 ;;		wreg, status,2, status,0, cstack
  1335 ;; Tracked objects:
  1336 ;;		On entry : 0/0
  1337 ;;		On exit  : 0/0
  1338 ;;		Unchanged: 0/0
  1339 ;; Data sizes:     COMRAM   BANK0   BANK1   BANK2   BANK3   BANK4   BANK5   BANK6   BANK7   BANK8   BANK9  BANK10  BANK1
      +1  BANK12  BANK13  BANK14  BANK15
  1340 ;;      Params:         0       0       0       0       0       0       0       0       0       0       0       0       
      +0       0       0       0       0
  1341 ;;      Locals:         0       0       0       0       0       0       0       0       0       0       0       0       
      +0       0       0       0       0
  1342 ;;      Temps:          0       0       0       0       0       0       0       0       0       0       0       0       
      +0       0       0       0       0
  1343 ;;      Totals:         0       0       0       0       0       0       0       0       0       0       0       0       
      +0       0       0       0       0
  1344 ;;Total ram usage:        0 bytes
  1345 ;; Hardware stack levels used: 1
  1346 ;; Hardware stack levels required when called: 10
  1347 ;; This function calls:
  1348 ;;		_ADCC_Initialize
  1349 ;;		_CLOCK_Initialize
  1350 ;;		_FVR_Initialize
  1351 ;;		_I2C1_Initialize
  1352 ;;		_INTERRUPT_Initialize
  1353 ;;		_PIN_MANAGER_Initialize
  1354 ;;		_SPI1_Initialize
  1355 ;;		_Timer2_Initialize
  1356 ;;		_Timer_Initialize
  1357 ;;		_UART1_Initialize
  1358 ;;		_UART2_Initialize
  1359 ;; This function is called by:
  1360 ;;		_main
  1361 ;; This function uses a non-reentrant model
  1362 ;;
  1363                           
  1364                           	psect	text1
  1365   000C98                     __ptext1:
  1366                           	callstack 0
  1367   000C98                     _SYSTEM_Initialize:
  1368                           	callstack 20
  1369   000C98                     
  1370                           ;mcc_generated_files/system/src/system.c: 38:     CLOCK_Initialize();
  1371   000C98  ECBF  F007         	call	_CLOCK_Initialize	;wreg free
  1372                           
  1373                           ;mcc_generated_files/system/src/system.c: 39:     PIN_MANAGER_Initialize();
  1374   000C9C  ECA2  F002         	call	_PIN_MANAGER_Initialize	;wreg free
  1375   000CA0                     
  1376                           ;mcc_generated_files/system/src/system.c: 40:     ADCC_Initialize();
  1377   000CA0  EC93  F004         	call	_ADCC_Initialize	;wreg free
  1378   000CA4                     
  1379                           ;mcc_generated_files/system/src/system.c: 41:     FVR_Initialize();
  1380   000CA4  EC96  F008         	call	_FVR_Initialize	;wreg free
  1381                           
  1382                           ;mcc_generated_files/system/src/system.c: 42:     I2C1_Initialize();
  1383   000CA8  EC02  F005         	call	_I2C1_Initialize	;wreg free
  1384   000CAC                     
  1385                           ;mcc_generated_files/system/src/system.c: 43:     SPI1_Initialize();
  1386   000CAC  ECA6  F007         	call	_SPI1_Initialize	;wreg free
  1387   000CB0                     
  1388                           ;mcc_generated_files/system/src/system.c: 44:     Timer_Initialize();
  1389   000CB0  ECFD  F005         	call	_Timer_Initialize	;wreg free
  1390   000CB4                     
  1391                           ;mcc_generated_files/system/src/system.c: 45:     Timer2_Initialize();
  1392   000CB4  EC63  F006         	call	_Timer2_Initialize	;wreg free
  1393   000CB8                     
  1394                           ;mcc_generated_files/system/src/system.c: 46:     UART1_Initialize();
  1395   000CB8  EC18  F003         	call	_UART1_Initialize	;wreg free
  1396                           
  1397                           ;mcc_generated_files/system/src/system.c: 47:     UART2_Initialize();
  1398   000CBC  ECC5  F005         	call	_UART2_Initialize	;wreg free
  1399   000CC0                     
  1400                           ;mcc_generated_files/system/src/system.c: 48:     INTERRUPT_Initialize();
  1401   000CC0  EC0A  F004         	call	_INTERRUPT_Initialize	;wreg free
  1402   000CC4  0012               	return		;funcret
  1403   000CC6                     __end_of_SYSTEM_Initialize:
  1404                           	callstack 0
  1405                           
  1406 ;; *************** function _UART2_Initialize *****************
  1407 ;; Defined at:
  1408 ;;		line 26 in file "mcc_generated_files/peripheral/src/uart2.c"
  1409 ;; Parameters:    Size  Location     Type
  1410 ;;		None
  1411 ;; Auto vars:     Size  Location     Type
  1412 ;;		None
  1413 ;; Return value:  Size  Location     Type
  1414 ;;                  1    wreg      void 
  1415 ;; Registers used:
  1416 ;;		wreg, status,2
  1417 ;; Tracked objects:
  1418 ;;		On entry : 0/0
  1419 ;;		On exit  : 0/0
  1420 ;;		Unchanged: 0/0
  1421 ;; Data sizes:     COMRAM   BANK0   BANK1   BANK2   BANK3   BANK4   BANK5   BANK6   BANK7   BANK8   BANK9  BANK10  BANK1
      +1  BANK12  BANK13  BANK14  BANK15
  1422 ;;      Params:         0       0       0       0       0       0       0       0       0       0       0       0       
      +0       0       0       0       0
  1423 ;;      Locals:         0       0       0       0       0       0       0       0       0       0       0       0       
      +0       0       0       0       0
  1424 ;;      Temps:          0       0       0       0       0       0       0       0       0       0       0       0       
      +0       0       0       0       0
  1425 ;;      Totals:         0       0       0       0       0       0       0       0       0       0       0       0       
      +0       0       0       0       0
  1426 ;;Total ram usage:        0 bytes
  1427 ;; Hardware stack levels used: 1
  1428 ;; Hardware stack levels required when called: 8
  1429 ;; This function calls:
  1430 ;;		Nothing
  1431 ;; This function is called by:
  1432 ;;		_SYSTEM_Initialize
  1433 ;; This function uses a non-reentrant model
  1434 ;;
  1435                           
  1436                           	psect	text2
  1437   000B8A                     __ptext2:
  1438                           	callstack 0
  1439   000B8A                     _UART2_Initialize:
  1440                           	callstack 21
  1441   000B8A                     
  1442                           ;mcc_generated_files/peripheral/src/uart2.c: 28:     U2TXB = 0x0;
  1443   000B8A  0E00               	movlw	0
  1444   000B8C  013D               	movlb	61	; () banked
  1445   000B8E  6FD2               	movwf	210,b	;volatile
  1446                           
  1447                           ;mcc_generated_files/peripheral/src/uart2.c: 30:     U2P1L = 0x0;
  1448   000B90  0E00               	movlw	0
  1449   000B92  6FD4               	movwf	212,b	;volatile
  1450                           
  1451                           ;mcc_generated_files/peripheral/src/uart2.c: 32:     U2P2L = 0x0;
  1452   000B94  0E00               	movlw	0
  1453   000B96  6FD6               	movwf	214,b	;volatile
  1454                           
  1455                           ;mcc_generated_files/peripheral/src/uart2.c: 34:     U2P3L = 0x0;
  1456   000B98  0E00               	movlw	0
  1457   000B9A  6FD8               	movwf	216,b	;volatile
  1458                           
  1459                           ;mcc_generated_files/peripheral/src/uart2.c: 36:     U2CON0 = 0x0;
  1460   000B9C  0E00               	movlw	0
  1461   000B9E  6FDA               	movwf	218,b	;volatile
  1462                           
  1463                           ;mcc_generated_files/peripheral/src/uart2.c: 38:     U2CON1 = 0x0;
  1464   000BA0  0E00               	movlw	0
  1465   000BA2  6FDB               	movwf	219,b	;volatile
  1466                           
  1467                           ;mcc_generated_files/peripheral/src/uart2.c: 40:     U2CON2 = 0x0;
  1468   000BA4  0E00               	movlw	0
  1469   000BA6  6FDC               	movwf	220,b	;volatile
  1470                           
  1471                           ;mcc_generated_files/peripheral/src/uart2.c: 42:     U2BRGL = 0x0;
  1472   000BA8  0E00               	movlw	0
  1473   000BAA  6FDD               	movwf	221,b	;volatile
  1474                           
  1475                           ;mcc_generated_files/peripheral/src/uart2.c: 44:     U2BRGH = 0x0;
  1476   000BAC  0E00               	movlw	0
  1477   000BAE  6FDE               	movwf	222,b	;volatile
  1478                           
  1479                           ;mcc_generated_files/peripheral/src/uart2.c: 46:     U2FIFO = 0x20;
  1480   000BB0  0E20               	movlw	32
  1481   000BB2  6FDF               	movwf	223,b	;volatile
  1482                           
  1483                           ;mcc_generated_files/peripheral/src/uart2.c: 48:     U2UIR = 0x0;
  1484   000BB4  0E00               	movlw	0
  1485   000BB6  6FE0               	movwf	224,b	;volatile
  1486                           
  1487                           ;mcc_generated_files/peripheral/src/uart2.c: 50:     U2ERRIR = 0x80;
  1488   000BB8  0E80               	movlw	128
  1489   000BBA  6FE1               	movwf	225,b	;volatile
  1490                           
  1491                           ;mcc_generated_files/peripheral/src/uart2.c: 52:     U2ERRIE = 0x0;
  1492   000BBC  0E00               	movlw	0
  1493   000BBE  6FE2               	movwf	226,b	;volatile
  1494   000BC0                     
  1495                           ; BSR set to: 61
  1496   000BC0  0012               	return		;funcret
  1497   000BC2                     __end_of_UART2_Initialize:
  1498                           	callstack 0
  1499                           
  1500 ;; *************** function _UART1_Initialize *****************
  1501 ;; Defined at:
  1502 ;;		line 118 in file "mcc_generated_files/uart/src/uart1.c"
  1503 ;; Parameters:    Size  Location     Type
  1504 ;;		None
  1505 ;; Auto vars:     Size  Location     Type
  1506 ;;		None
  1507 ;; Return value:  Size  Location     Type
  1508 ;;                  1    wreg      void 
  1509 ;; Registers used:
  1510 ;;		wreg, status,2, status,0, cstack
  1511 ;; Tracked objects:
  1512 ;;		On entry : 0/0
  1513 ;;		On exit  : 0/0
  1514 ;;		Unchanged: 0/0
  1515 ;; Data sizes:     COMRAM   BANK0   BANK1   BANK2   BANK3   BANK4   BANK5   BANK6   BANK7   BANK8   BANK9  BANK10  BANK1
      +1  BANK12  BANK13  BANK14  BANK15
  1516 ;;      Params:         0       0       0       0       0       0       0       0       0       0       0       0       
      +0       0       0       0       0
  1517 ;;      Locals:         0       0       0       0       0       0       0       0       0       0       0       0       
      +0       0       0       0       0
  1518 ;;      Temps:          0       0       0       0       0       0       0       0       0       0       0       0       
      +0       0       0       0       0
  1519 ;;      Totals:         0       0       0       0       0       0       0       0       0       0       0       0       
      +0       0       0       0       0
  1520 ;;Total ram usage:        0 bytes
  1521 ;; Hardware stack levels used: 1
  1522 ;; Hardware stack levels required when called: 9
  1523 ;; This function calls:
  1524 ;;		_UART1_FramingErrorCallbackRegister
  1525 ;;		_UART1_OverrunErrorCallbackRegister
  1526 ;;		_UART1_ParityErrorCallbackRegister
  1527 ;; This function is called by:
  1528 ;;		_SYSTEM_Initialize
  1529 ;; This function uses a non-reentrant model
  1530 ;;
  1531                           
  1532                           	psect	text3
  1533   000630                     __ptext3:
  1534                           	callstack 0
  1535   000630                     _UART1_Initialize:
  1536                           	callstack 20
  1537   000630                     
  1538                           ;mcc_generated_files/uart/src/uart1.c: 119:     PIE3bits.U1RXIE = 0;
  1539   000630  0139               	movlb	57	; () banked
  1540   000632  9793               	bcf	147,3,b	;volatile
  1541   000634                     
  1542                           ; BSR set to: 57
  1543                           ;mcc_generated_files/uart/src/uart1.c: 120:     UART1_RxInterruptHandler = UART1_Receive
      +                          ISR;
  1544   000634  0E00               	movlw	0
  1545   000636  0100               	movlb	0	; () banked
  1546   000638  6FBA               	movwf	_UART1_RxInterruptHandler& (0+255),b
  1547   00063A  0E00               	movlw	0
  1548   00063C  6FBB               	movwf	(_UART1_RxInterruptHandler+1)& (0+255),b
  1549   00063E                     
  1550                           ; BSR set to: 0
  1551                           ;mcc_generated_files/uart/src/uart1.c: 121:     PIE3bits.U1TXIE = 0;
  1552   00063E  0139               	movlb	57	; () banked
  1553   000640  9993               	bcf	147,4,b	;volatile
  1554                           
  1555                           ;mcc_generated_files/uart/src/uart1.c: 122:     UART1_TxInterruptHandler = UART1_Transmi
      +                          tISR;
  1556   000642  0EC2               	movlw	low _UART1_TransmitISR
  1557   000644  0100               	movlb	0	; () banked
  1558   000646  6FBC               	movwf	_UART1_TxInterruptHandler& (0+255),b
  1559   000648  0E0B               	movlw	high _UART1_TransmitISR
  1560   00064A  6FBD               	movwf	(_UART1_TxInterruptHandler+1)& (0+255),b
  1561   00064C                     
  1562                           ; BSR set to: 0
  1563                           ;mcc_generated_files/uart/src/uart1.c: 127:     U1RXB = 0x0;
  1564   00064C  0E00               	movlw	0
  1565   00064E  013D               	movlb	61	; () banked
  1566   000650  6FE8               	movwf	232,b	;volatile
  1567   000652                     
  1568                           ; BSR set to: 61
  1569                           ;mcc_generated_files/uart/src/uart1.c: 129:     U1RXCHK = 0x0;
  1570   000652  0E00               	movlw	0
  1571   000654  6FE9               	movwf	233,b	;volatile
  1572   000656                     
  1573                           ; BSR set to: 61
  1574                           ;mcc_generated_files/uart/src/uart1.c: 131:     U1TXB = 0x0;
  1575   000656  0E00               	movlw	0
  1576   000658  6FEA               	movwf	234,b	;volatile
  1577   00065A                     
  1578                           ; BSR set to: 61
  1579                           ;mcc_generated_files/uart/src/uart1.c: 133:     U1TXCHK = 0x0;
  1580   00065A  0E00               	movlw	0
  1581   00065C  6FEB               	movwf	235,b	;volatile
  1582   00065E                     
  1583                           ; BSR set to: 61
  1584                           ;mcc_generated_files/uart/src/uart1.c: 135:     U1P1L = 0x0;
  1585   00065E  0E00               	movlw	0
  1586   000660  6FEC               	movwf	236,b	;volatile
  1587   000662                     
  1588                           ; BSR set to: 61
  1589                           ;mcc_generated_files/uart/src/uart1.c: 137:     U1P1H = 0x0;
  1590   000662  0E00               	movlw	0
  1591   000664  6FED               	movwf	237,b	;volatile
  1592   000666                     
  1593                           ; BSR set to: 61
  1594                           ;mcc_generated_files/uart/src/uart1.c: 139:     U1P2L = 0x0;
  1595   000666  0E00               	movlw	0
  1596   000668  6FEE               	movwf	238,b	;volatile
  1597   00066A                     
  1598                           ; BSR set to: 61
  1599                           ;mcc_generated_files/uart/src/uart1.c: 141:     U1P2H = 0x0;
  1600   00066A  0E00               	movlw	0
  1601   00066C  6FEF               	movwf	239,b	;volatile
  1602   00066E                     
  1603                           ; BSR set to: 61
  1604                           ;mcc_generated_files/uart/src/uart1.c: 143:     U1P3L = 0x0;
  1605   00066E  0E00               	movlw	0
  1606   000670  6FF0               	movwf	240,b	;volatile
  1607   000672                     
  1608                           ; BSR set to: 61
  1609                           ;mcc_generated_files/uart/src/uart1.c: 145:     U1P3H = 0x0;
  1610   000672  0E00               	movlw	0
  1611   000674  6FF1               	movwf	241,b	;volatile
  1612   000676                     
  1613                           ; BSR set to: 61
  1614                           ;mcc_generated_files/uart/src/uart1.c: 147:     U1CON0 = 0xB0;
  1615   000676  0EB0               	movlw	176
  1616   000678  6FF2               	movwf	242,b	;volatile
  1617   00067A                     
  1618                           ; BSR set to: 61
  1619                           ;mcc_generated_files/uart/src/uart1.c: 149:     U1CON1 = 0x80;
  1620   00067A  0E80               	movlw	128
  1621   00067C  6FF3               	movwf	243,b	;volatile
  1622   00067E                     
  1623                           ; BSR set to: 61
  1624                           ;mcc_generated_files/uart/src/uart1.c: 151:     U1CON2 = 0x8;
  1625   00067E  0E08               	movlw	8
  1626   000680  6FF4               	movwf	244,b	;volatile
  1627   000682                     
  1628                           ; BSR set to: 61
  1629                           ;mcc_generated_files/uart/src/uart1.c: 153:     U1BRGL = 0x7;
  1630   000682  0E07               	movlw	7
  1631   000684  6FF5               	movwf	245,b	;volatile
  1632   000686                     
  1633                           ; BSR set to: 61
  1634                           ;mcc_generated_files/uart/src/uart1.c: 155:     U1BRGH = 0x0;
  1635   000686  0E00               	movlw	0
  1636   000688  6FF6               	movwf	246,b	;volatile
  1637   00068A                     
  1638                           ; BSR set to: 61
  1639                           ;mcc_generated_files/uart/src/uart1.c: 157:     U1FIFO = 0x20;
  1640   00068A  0E20               	movlw	32
  1641   00068C  6FF7               	movwf	247,b	;volatile
  1642   00068E                     
  1643                           ; BSR set to: 61
  1644                           ;mcc_generated_files/uart/src/uart1.c: 159:     U1UIR = 0x0;
  1645   00068E  0E00               	movlw	0
  1646   000690  6FF8               	movwf	248,b	;volatile
  1647   000692                     
  1648                           ; BSR set to: 61
  1649                           ;mcc_generated_files/uart/src/uart1.c: 161:     U1ERRIR = 0x80;
  1650   000692  0E80               	movlw	128
  1651   000694  6FF9               	movwf	249,b	;volatile
  1652   000696                     
  1653                           ; BSR set to: 61
  1654                           ;mcc_generated_files/uart/src/uart1.c: 163:     U1ERRIE = 0x0;
  1655   000696  0E00               	movlw	0
  1656   000698  6FFA               	movwf	250,b	;volatile
  1657   00069A                     
  1658                           ; BSR set to: 61
  1659                           ;mcc_generated_files/uart/src/uart1.c: 165:     UART1_FramingErrorCallbackRegister(UART1
      +                          _DefaultFramingErrorCallback);
  1660   00069A  0E00               	movlw	0
  1661   00069C  0101               	movlb	1	; () banked
  1662   00069E  6FC9               	movwf	UART1_FramingErrorCallbackRegister@callbackHandler& (0+255),b
  1663   0006A0  0E00               	movlw	0
  1664   0006A2  6FCA               	movwf	(UART1_FramingErrorCallbackRegister@callbackHandler+1)& (0+255),b
  1665   0006A4  EC88  F007         	call	_UART1_FramingErrorCallbackRegister	;wreg free
  1666   0006A8                     
  1667                           ;mcc_generated_files/uart/src/uart1.c: 166:     UART1_OverrunErrorCallbackRegister(UART1
      +                          _DefaultOverrunErrorCallback);
  1668   0006A8  0E00               	movlw	0
  1669   0006AA  0101               	movlb	1	; () banked
  1670   0006AC  6FC9               	movwf	UART1_OverrunErrorCallbackRegister@callbackHandler& (0+255),b
  1671   0006AE  0E00               	movlw	0
  1672   0006B0  6FCA               	movwf	(UART1_OverrunErrorCallbackRegister@callbackHandler+1)& (0+255),b
  1673   0006B2  EC79  F007         	call	_UART1_OverrunErrorCallbackRegister	;wreg free
  1674   0006B6                     
  1675                           ;mcc_generated_files/uart/src/uart1.c: 167:     UART1_ParityErrorCallbackRegister(UART1_
      +                          DefaultParityErrorCallback);
  1676   0006B6  0E00               	movlw	0
  1677   0006B8  0101               	movlb	1	; () banked
  1678   0006BA  6FC9               	movwf	UART1_ParityErrorCallbackRegister@callbackHandler& (0+255),b
  1679   0006BC  0E00               	movlw	0
  1680   0006BE  6FCA               	movwf	(UART1_ParityErrorCallbackRegister@callbackHandler+1)& (0+255),b
  1681   0006C0  EC6A  F007         	call	_UART1_ParityErrorCallbackRegister	;wreg free
  1682   0006C4                     
  1683                           ;mcc_generated_files/uart/src/uart1.c: 169:     uart1RxLastError.status = 0;
  1684   0006C4  0E00               	movlw	0
  1685   0006C6  0100               	movlb	0	; () banked
  1686   0006C8  6FAD               	movwf	(_uart1RxLastError+1)& (0+255),b	;volatile
  1687   0006CA  0E00               	movlw	0
  1688   0006CC  6FAC               	movwf	_uart1RxLastError& (0+255),b	;volatile
  1689   0006CE                     
  1690                           ; BSR set to: 0
  1691                           ;mcc_generated_files/uart/src/uart1.c: 170:     uart1TxHead = 0;
  1692   0006CE  0E00               	movlw	0
  1693   0006D0  6E4C               	movwf	_uart1TxHead^0,c	;volatile
  1694   0006D2                     
  1695                           ; BSR set to: 0
  1696                           ;mcc_generated_files/uart/src/uart1.c: 171:     uart1TxTail = 0;
  1697   0006D2  0E00               	movlw	0
  1698   0006D4  6E4B               	movwf	_uart1TxTail^0,c	;volatile
  1699   0006D6                     
  1700                           ; BSR set to: 0
  1701                           ;mcc_generated_files/uart/src/uart1.c: 172:     uart1TxBufferRemaining = sizeof (uart1Tx
      +                          Buffer);
  1702   0006D6  0E10               	movlw	16
  1703   0006D8  6E4A               	movwf	_uart1TxBufferRemaining^0,c	;volatile
  1704   0006DA                     
  1705                           ; BSR set to: 0
  1706                           ;mcc_generated_files/uart/src/uart1.c: 173:     uart1RxHead = 0;
  1707   0006DA  0E00               	movlw	0
  1708   0006DC  6E49               	movwf	_uart1RxHead^0,c	;volatile
  1709   0006DE                     
  1710                           ; BSR set to: 0
  1711                           ;mcc_generated_files/uart/src/uart1.c: 174:     uart1RxTail = 0;
  1712   0006DE  0E00               	movlw	0
  1713   0006E0  6E48               	movwf	_uart1RxTail^0,c	;volatile
  1714   0006E2                     
  1715                           ; BSR set to: 0
  1716                           ;mcc_generated_files/uart/src/uart1.c: 175:     uart1RxCount = 0;
  1717   0006E2  0E00               	movlw	0
  1718   0006E4  6E47               	movwf	_uart1RxCount^0,c	;volatile
  1719   0006E6                     
  1720                           ; BSR set to: 0
  1721                           ;mcc_generated_files/uart/src/uart1.c: 176:     PIE3bits.U1RXIE = 1;
  1722   0006E6  0139               	movlb	57	; () banked
  1723   0006E8  8793               	bsf	147,3,b	;volatile
  1724   0006EA                     
  1725                           ; BSR set to: 57
  1726   0006EA  0012               	return		;funcret
  1727   0006EC                     __end_of_UART1_Initialize:
  1728                           	callstack 0
  1729                           
  1730 ;; *************** function _UART1_ParityErrorCallbackRegister *****************
  1731 ;; Defined at:
  1732 ;;		line 425 in file "mcc_generated_files/uart/src/uart1.c"
  1733 ;; Parameters:    Size  Location     Type
  1734 ;;  callbackHand    2    9[BANK1 ] PTR FTN()void 
  1735 ;;		 -> UART1_DefaultParityErrorCallback(1), 
  1736 ;; Auto vars:     Size  Location     Type
  1737 ;;		None
  1738 ;; Return value:  Size  Location     Type
  1739 ;;                  1    wreg      void 
  1740 ;; Registers used:
  1741 ;;		wreg, status,2, status,0
  1742 ;; Tracked objects:
  1743 ;;		On entry : 0/0
  1744 ;;		On exit  : 0/0
  1745 ;;		Unchanged: 0/0
  1746 ;; Data sizes:     COMRAM   BANK0   BANK1   BANK2   BANK3   BANK4   BANK5   BANK6   BANK7   BANK8   BANK9  BANK10  BANK1
      +1  BANK12  BANK13  BANK14  BANK15
  1747 ;;      Params:         0       0       2       0       0       0       0       0       0       0       0       0       
      +0       0       0       0       0
  1748 ;;      Locals:         0       0       0       0       0       0       0       0       0       0       0       0       
      +0       0       0       0       0
  1749 ;;      Temps:          0       0       0       0       0       0       0       0       0       0       0       0       
      +0       0       0       0       0
  1750 ;;      Totals:         0       0       2       0       0       0       0       0       0       0       0       0       
      +0       0       0       0       0
  1751 ;;Total ram usage:        2 bytes
  1752 ;; Hardware stack levels used: 1
  1753 ;; Hardware stack levels required when called: 8
  1754 ;; This function calls:
  1755 ;;		Nothing
  1756 ;; This function is called by:
  1757 ;;		_UART1_Initialize
  1758 ;; This function uses a non-reentrant model
  1759 ;;
  1760                           
  1761                           	psect	text4
  1762   000ED4                     __ptext4:
  1763                           	callstack 0
  1764   000ED4                     _UART1_ParityErrorCallbackRegister:
  1765                           	callstack 20
  1766   000ED4                     
  1767                           ;mcc_generated_files/uart/src/uart1.c: 426:     if (((void*)0) != callbackHandler) {
  1768   000ED4  0101               	movlb	1	; () banked
  1769   000ED6  51C9               	movf	UART1_ParityErrorCallbackRegister@callbackHandler& (0+255),w,b
  1770   000ED8  11CA               	iorwf	(UART1_ParityErrorCallbackRegister@callbackHandler+1)& (0+255),w,b
  1771   000EDA  B4D8               	btfsc	status,2,c
  1772   000EDC  EF72  F007         	goto	u2501
  1773   000EE0  EF74  F007         	goto	u2500
  1774   000EE4                     u2501:
  1775   000EE4  EF78  F007         	goto	l1030
  1776   000EE8                     u2500:
  1777   000EE8                     
  1778                           ; BSR set to: 1
  1779                           ;mcc_generated_files/uart/src/uart1.c: 427:         UART1_ParityErrorHandler = callbackH
      +                          andler;
  1780   000EE8  C1C9  F0A6         	movff	UART1_ParityErrorCallbackRegister@callbackHandler,_UART1_ParityErrorHandler
  1781   000EEC  C1CA  F0A7         	movff	UART1_ParityErrorCallbackRegister@callbackHandler+1,_UART1_ParityErrorHandler+1
  1782   000EF0                     l1030:
  1783                           
  1784                           ; BSR set to: 1
  1785   000EF0  0012               	return		;funcret
  1786   000EF2                     __end_of_UART1_ParityErrorCallbackRegister:
  1787                           	callstack 0
  1788                           
  1789 ;; *************** function _UART1_OverrunErrorCallbackRegister *****************
  1790 ;; Defined at:
  1791 ;;		line 419 in file "mcc_generated_files/uart/src/uart1.c"
  1792 ;; Parameters:    Size  Location     Type
  1793 ;;  callbackHand    2    9[BANK1 ] PTR FTN()void 
  1794 ;;		 -> UART1_DefaultOverrunErrorCallback(1), 
  1795 ;; Auto vars:     Size  Location     Type
  1796 ;;		None
  1797 ;; Return value:  Size  Location     Type
  1798 ;;                  1    wreg      void 
  1799 ;; Registers used:
  1800 ;;		wreg, status,2, status,0
  1801 ;; Tracked objects:
  1802 ;;		On entry : 0/0
  1803 ;;		On exit  : 0/0
  1804 ;;		Unchanged: 0/0
  1805 ;; Data sizes:     COMRAM   BANK0   BANK1   BANK2   BANK3   BANK4   BANK5   BANK6   BANK7   BANK8   BANK9  BANK10  BANK1
      +1  BANK12  BANK13  BANK14  BANK15
  1806 ;;      Params:         0       0       2       0       0       0       0       0       0       0       0       0       
      +0       0       0       0       0
  1807 ;;      Locals:         0       0       0       0       0       0       0       0       0       0       0       0       
      +0       0       0       0       0
  1808 ;;      Temps:          0       0       0       0       0       0       0       0       0       0       0       0       
      +0       0       0       0       0
  1809 ;;      Totals:         0       0       2       0       0       0       0       0       0       0       0       0       
      +0       0       0       0       0
  1810 ;;Total ram usage:        2 bytes
  1811 ;; Hardware stack levels used: 1
  1812 ;; Hardware stack levels required when called: 8
  1813 ;; This function calls:
  1814 ;;		Nothing
  1815 ;; This function is called by:
  1816 ;;		_UART1_Initialize
  1817 ;; This function uses a non-reentrant model
  1818 ;;
  1819                           
  1820                           	psect	text5
  1821   000EF2                     __ptext5:
  1822                           	callstack 0
  1823   000EF2                     _UART1_OverrunErrorCallbackRegister:
  1824                           	callstack 20
  1825   000EF2                     
  1826                           ;mcc_generated_files/uart/src/uart1.c: 420:     if (((void*)0) != callbackHandler) {
  1827   000EF2  0101               	movlb	1	; () banked
  1828   000EF4  51C9               	movf	UART1_OverrunErrorCallbackRegister@callbackHandler& (0+255),w,b
  1829   000EF6  11CA               	iorwf	(UART1_OverrunErrorCallbackRegister@callbackHandler+1)& (0+255),w,b
  1830   000EF8  B4D8               	btfsc	status,2,c
  1831   000EFA  EF81  F007         	goto	u2491
  1832   000EFE  EF83  F007         	goto	u2490
  1833   000F02                     u2491:
  1834   000F02  EF87  F007         	goto	l1026
  1835   000F06                     u2490:
  1836   000F06                     
  1837                           ; BSR set to: 1
  1838                           ;mcc_generated_files/uart/src/uart1.c: 421:         UART1_OverrunErrorHandler = callback
      +                          Handler;
  1839   000F06  C1C9  F0A8         	movff	UART1_OverrunErrorCallbackRegister@callbackHandler,_UART1_OverrunErrorHandler
  1840   000F0A  C1CA  F0A9         	movff	UART1_OverrunErrorCallbackRegister@callbackHandler+1,_UART1_OverrunErrorHandler+1
  1841   000F0E                     l1026:
  1842                           
  1843                           ; BSR set to: 1
  1844   000F0E  0012               	return		;funcret
  1845   000F10                     __end_of_UART1_OverrunErrorCallbackRegister:
  1846                           	callstack 0
  1847                           
  1848 ;; *************** function _UART1_FramingErrorCallbackRegister *****************
  1849 ;; Defined at:
  1850 ;;		line 413 in file "mcc_generated_files/uart/src/uart1.c"
  1851 ;; Parameters:    Size  Location     Type
  1852 ;;  callbackHand    2    9[BANK1 ] PTR FTN()void 
  1853 ;;		 -> UART1_DefaultFramingErrorCallback(1), 
  1854 ;; Auto vars:     Size  Location     Type
  1855 ;;		None
  1856 ;; Return value:  Size  Location     Type
  1857 ;;                  1    wreg      void 
  1858 ;; Registers used:
  1859 ;;		wreg, status,2, status,0
  1860 ;; Tracked objects:
  1861 ;;		On entry : 0/0
  1862 ;;		On exit  : 0/0
  1863 ;;		Unchanged: 0/0
  1864 ;; Data sizes:     COMRAM   BANK0   BANK1   BANK2   BANK3   BANK4   BANK5   BANK6   BANK7   BANK8   BANK9  BANK10  BANK1
      +1  BANK12  BANK13  BANK14  BANK15
  1865 ;;      Params:         0       0       2       0       0       0       0       0       0       0       0       0       
      +0       0       0       0       0
  1866 ;;      Locals:         0       0       0       0       0       0       0       0       0       0       0       0       
      +0       0       0       0       0
  1867 ;;      Temps:          0       0       0       0       0       0       0       0       0       0       0       0       
      +0       0       0       0       0
  1868 ;;      Totals:         0       0       2       0       0       0       0       0       0       0       0       0       
      +0       0       0       0       0
  1869 ;;Total ram usage:        2 bytes
  1870 ;; Hardware stack levels used: 1
  1871 ;; Hardware stack levels required when called: 8
  1872 ;; This function calls:
  1873 ;;		Nothing
  1874 ;; This function is called by:
  1875 ;;		_UART1_Initialize
  1876 ;; This function uses a non-reentrant model
  1877 ;;
  1878                           
  1879                           	psect	text6
  1880   000F10                     __ptext6:
  1881                           	callstack 0
  1882   000F10                     _UART1_FramingErrorCallbackRegister:
  1883                           	callstack 20
  1884   000F10                     
  1885                           ;mcc_generated_files/uart/src/uart1.c: 414:     if (((void*)0) != callbackHandler) {
  1886   000F10  0101               	movlb	1	; () banked
  1887   000F12  51C9               	movf	UART1_FramingErrorCallbackRegister@callbackHandler& (0+255),w,b
  1888   000F14  11CA               	iorwf	(UART1_FramingErrorCallbackRegister@callbackHandler+1)& (0+255),w,b
  1889   000F16  B4D8               	btfsc	status,2,c
  1890   000F18  EF90  F007         	goto	u2481
  1891   000F1C  EF92  F007         	goto	u2480
  1892   000F20                     u2481:
  1893   000F20  EF96  F007         	goto	l1022
  1894   000F24                     u2480:
  1895   000F24                     
  1896                           ; BSR set to: 1
  1897                           ;mcc_generated_files/uart/src/uart1.c: 415:         UART1_FramingErrorHandler = callback
      +                          Handler;
  1898   000F24  C1C9  F0AA         	movff	UART1_FramingErrorCallbackRegister@callbackHandler,_UART1_FramingErrorHandler
  1899   000F28  C1CA  F0AB         	movff	UART1_FramingErrorCallbackRegister@callbackHandler+1,_UART1_FramingErrorHandler+1
  1900   000F2C                     l1022:
  1901                           
  1902                           ; BSR set to: 1
  1903   000F2C  0012               	return		;funcret
  1904   000F2E                     __end_of_UART1_FramingErrorCallbackRegister:
  1905                           	callstack 0
  1906                           
  1907 ;; *************** function _Timer_Initialize *****************
  1908 ;; Defined at:
  1909 ;;		line 51 in file "mcc_generated_files/timer/src/tmr0.c"
  1910 ;; Parameters:    Size  Location     Type
  1911 ;;		None
  1912 ;; Auto vars:     Size  Location     Type
  1913 ;;		None
  1914 ;; Return value:  Size  Location     Type
  1915 ;;                  1    wreg      void 
  1916 ;; Registers used:
  1917 ;;		wreg, status,2, status,0, cstack
  1918 ;; Tracked objects:
  1919 ;;		On entry : 0/0
  1920 ;;		On exit  : 0/0
  1921 ;;		Unchanged: 0/0
  1922 ;; Data sizes:     COMRAM   BANK0   BANK1   BANK2   BANK3   BANK4   BANK5   BANK6   BANK7   BANK8   BANK9  BANK10  BANK1
      +1  BANK12  BANK13  BANK14  BANK15
  1923 ;;      Params:         0       0       0       0       0       0       0       0       0       0       0       0       
      +0       0       0       0       0
  1924 ;;      Locals:         0       0       0       0       0       0       0       0       0       0       0       0       
      +0       0       0       0       0
  1925 ;;      Temps:          0       0       2       0       0       0       0       0       0       0       0       0       
      +0       0       0       0       0
  1926 ;;      Totals:         0       0       2       0       0       0       0       0       0       0       0       0       
      +0       0       0       0       0
  1927 ;;Total ram usage:        2 bytes
  1928 ;; Hardware stack levels used: 1
  1929 ;; Hardware stack levels required when called: 9
  1930 ;; This function calls:
  1931 ;;		_Timer_OverflowCallbackRegister
  1932 ;; This function is called by:
  1933 ;;		_SYSTEM_Initialize
  1934 ;; This function uses a non-reentrant model
  1935 ;;
  1936                           
  1937                           	psect	text7
  1938   000BFA                     __ptext7:
  1939                           	callstack 0
  1940   000BFA                     _Timer_Initialize:
  1941                           	callstack 20
  1942   000BFA                     
  1943                           ;mcc_generated_files/timer/src/tmr0.c: 54:     TMR0H = 0xE7;
  1944   000BFA  0EE7               	movlw	231
  1945   000BFC  6EB7               	movwf	183,c	;volatile
  1946                           
  1947                           ;mcc_generated_files/timer/src/tmr0.c: 57:     TMR0L = 0x5F;
  1948   000BFE  0E5F               	movlw	95
  1949   000C00  6EB6               	movwf	182,c	;volatile
  1950                           
  1951                           ;mcc_generated_files/timer/src/tmr0.c: 60:     T0CON1 = 0x70;
  1952   000C02  0E70               	movlw	112
  1953   000C04  6EB9               	movwf	185,c	;volatile
  1954                           
  1955                           ;mcc_generated_files/timer/src/tmr0.c: 63:     timerTMR0ReloadVal16bit = ((uint16_t)TMR0
      +                          H << 8) | TMR0L;
  1956   000C06  50B7               	movf	183,w,c	;volatile
  1957   000C08  0101               	movlb	1	; () banked
  1958   000C0A  6FCB               	movwf	??_Timer_Initialize& (0+255),b
  1959   000C0C  50B6               	movf	182,w,c	;volatile
  1960   000C0E  0100               	movlb	0	; () banked
  1961   000C10  6FB2               	movwf	_timerTMR0ReloadVal16bit& (0+255),b	;volatile
  1962   000C12  C1CB  F0B3         	movff	??_Timer_Initialize,_timerTMR0ReloadVal16bit+1	;volatile
  1963   000C16                     
  1964                           ; BSR set to: 0
  1965                           ;mcc_generated_files/timer/src/tmr0.c: 66:     Timer_OverflowCallbackRegister(Timer_Defa
      +                          ultOverflowCallback);
  1966   000C16  0E7C               	movlw	low _Timer_DefaultOverflowCallback
  1967   000C18  0101               	movlb	1	; () banked
  1968   000C1A  6FC9               	movwf	Timer_OverflowCallbackRegister@CallbackHandler& (0+255),b
  1969   000C1C  0E11               	movlw	high _Timer_DefaultOverflowCallback
  1970   000C1E  6FCA               	movwf	(Timer_OverflowCallbackRegister@CallbackHandler+1)& (0+255),b
  1971   000C20  EC5A  F008         	call	_Timer_OverflowCallbackRegister	;wreg free
  1972   000C24                     
  1973                           ;mcc_generated_files/timer/src/tmr0.c: 69:     PIR3bits.TMR0IF = 0;
  1974   000C24  0139               	movlb	57	; () banked
  1975   000C26  9FA3               	bcf	163,7,b	;volatile
  1976   000C28                     
  1977                           ; BSR set to: 57
  1978                           ;mcc_generated_files/timer/src/tmr0.c: 72:     PIE3bits.TMR0IE = 1;
  1979   000C28  8F93               	bsf	147,7,b	;volatile
  1980   000C2A                     
  1981                           ; BSR set to: 57
  1982                           ;mcc_generated_files/timer/src/tmr0.c: 75:     T0CON0 = 0x90;
  1983   000C2A  0E90               	movlw	144
  1984   000C2C  6EB8               	movwf	184,c	;volatile
  1985   000C2E                     
  1986                           ; BSR set to: 57
  1987   000C2E  0012               	return		;funcret
  1988   000C30                     __end_of_Timer_Initialize:
  1989                           	callstack 0
  1990                           
  1991 ;; *************** function _Timer_OverflowCallbackRegister *****************
  1992 ;; Defined at:
  1993 ;;		line 134 in file "mcc_generated_files/timer/src/tmr0.c"
  1994 ;; Parameters:    Size  Location     Type
  1995 ;;  CallbackHand    2    9[BANK1 ] PTR FTN()void 
  1996 ;;		 -> Timer_int(1), Timer2_DefaultOverflowCallback(1), Timer_DefaultOverflowCallback(1), 
  1997 ;; Auto vars:     Size  Location     Type
  1998 ;;		None
  1999 ;; Return value:  Size  Location     Type
  2000 ;;                  1    wreg      void 
  2001 ;; Registers used:
  2002 ;;		wreg, status,2, status,0
  2003 ;; Tracked objects:
  2004 ;;		On entry : 0/0
  2005 ;;		On exit  : 0/0
  2006 ;;		Unchanged: 0/0
  2007 ;; Data sizes:     COMRAM   BANK0   BANK1   BANK2   BANK3   BANK4   BANK5   BANK6   BANK7   BANK8   BANK9  BANK10  BANK1
      +1  BANK12  BANK13  BANK14  BANK15
  2008 ;;      Params:         0       0       2       0       0       0       0       0       0       0       0       0       
      +0       0       0       0       0
  2009 ;;      Locals:         0       0       0       0       0       0       0       0       0       0       0       0       
      +0       0       0       0       0
  2010 ;;      Temps:          0       0       0       0       0       0       0       0       0       0       0       0       
      +0       0       0       0       0
  2011 ;;      Totals:         0       0       2       0       0       0       0       0       0       0       0       0       
      +0       0       0       0       0
  2012 ;;Total ram usage:        2 bytes
  2013 ;; Hardware stack levels used: 1
  2014 ;; Hardware stack levels required when called: 8
  2015 ;; This function calls:
  2016 ;;		Nothing
  2017 ;; This function is called by:
  2018 ;;		_Timer_Initialize
  2019 ;;		_main
  2020 ;; This function uses a non-reentrant model
  2021 ;;
  2022                           
  2023                           	psect	text8
  2024   0010B4                     __ptext8:
  2025                           	callstack 0
  2026   0010B4                     _Timer_OverflowCallbackRegister:
  2027                           	callstack 22
  2028   0010B4                     
  2029                           ;mcc_generated_files/timer/src/tmr0.c: 134: void Timer_OverflowCallbackRegister(void (* 
      +                          CallbackHandler)(void));mcc_generated_files/timer/src/tmr0.c: 135: {;mcc_generated_files
      +                          /timer/src/tmr0.c: 136:     Timer_OverflowCallback = CallbackHandler;
  2030   0010B4  C1C9  F0B0         	movff	Timer_OverflowCallbackRegister@CallbackHandler,_Timer_OverflowCallback
  2031   0010B8  C1CA  F0B1         	movff	Timer_OverflowCallbackRegister@CallbackHandler+1,_Timer_OverflowCallback+1
  2032   0010BC  0012               	return		;funcret
  2033   0010BE                     __end_of_Timer_OverflowCallbackRegister:
  2034                           	callstack 0
  2035                           
  2036 ;; *************** function _Timer2_Initialize *****************
  2037 ;; Defined at:
  2038 ;;		line 58 in file "mcc_generated_files/timer/src/tmr2.c"
  2039 ;; Parameters:    Size  Location     Type
  2040 ;;		None
  2041 ;; Auto vars:     Size  Location     Type
  2042 ;;		None
  2043 ;; Return value:  Size  Location     Type
  2044 ;;                  1    wreg      void 
  2045 ;; Registers used:
  2046 ;;		wreg, status,2, status,0, cstack
  2047 ;; Tracked objects:
  2048 ;;		On entry : 0/0
  2049 ;;		On exit  : 0/0
  2050 ;;		Unchanged: 0/0
  2051 ;; Data sizes:     COMRAM   BANK0   BANK1   BANK2   BANK3   BANK4   BANK5   BANK6   BANK7   BANK8   BANK9  BANK10  BANK1
      +1  BANK12  BANK13  BANK14  BANK15
  2052 ;;      Params:         0       0       0       0       0       0       0       0       0       0       0       0       
      +0       0       0       0       0
  2053 ;;      Locals:         0       0       0       0       0       0       0       0       0       0       0       0       
      +0       0       0       0       0
  2054 ;;      Temps:          0       0       0       0       0       0       0       0       0       0       0       0       
      +0       0       0       0       0
  2055 ;;      Totals:         0       0       0       0       0       0       0       0       0       0       0       0       
      +0       0       0       0       0
  2056 ;;Total ram usage:        0 bytes
  2057 ;; Hardware stack levels used: 1
  2058 ;; Hardware stack levels required when called: 9
  2059 ;; This function calls:
  2060 ;;		_Timer2_OverflowCallbackRegister
  2061 ;; This function is called by:
  2062 ;;		_SYSTEM_Initialize
  2063 ;; This function uses a non-reentrant model
  2064 ;;
  2065                           
  2066                           	psect	text9
  2067   000CC6                     __ptext9:
  2068                           	callstack 0
  2069   000CC6                     _Timer2_Initialize:
  2070                           	callstack 20
  2071   000CC6                     
  2072                           ;mcc_generated_files/timer/src/tmr2.c: 62:     T2CLKCON = 0x1;
  2073   000CC6  0E01               	movlw	1
  2074   000CC8  6EAE               	movwf	174,c	;volatile
  2075                           
  2076                           ;mcc_generated_files/timer/src/tmr2.c: 64:     T2HLT = 0x20;
  2077   000CCA  0E20               	movlw	32
  2078   000CCC  6EAD               	movwf	173,c	;volatile
  2079                           
  2080                           ;mcc_generated_files/timer/src/tmr2.c: 66:     T2RST = 0x0;
  2081   000CCE  0E00               	movlw	0
  2082   000CD0  6EAF               	movwf	175,c	;volatile
  2083                           
  2084                           ;mcc_generated_files/timer/src/tmr2.c: 68:     T2PR = 0x1F;
  2085   000CD2  0E1F               	movlw	31
  2086   000CD4  6EAB               	movwf	171,c	;volatile
  2087                           
  2088                           ;mcc_generated_files/timer/src/tmr2.c: 70:     T2TMR = 0x0;
  2089   000CD6  0E00               	movlw	0
  2090   000CD8  6EAA               	movwf	170,c	;volatile
  2091   000CDA                     
  2092                           ;mcc_generated_files/timer/src/tmr2.c: 73:     Timer2_OverflowCallbackRegister(Timer2_De
      +                          faultOverflowCallback);
  2093   000CDA  0E7A               	movlw	low _Timer2_DefaultOverflowCallback
  2094   000CDC  0101               	movlb	1	; () banked
  2095   000CDE  6FC9               	movwf	Timer2_OverflowCallbackRegister@InterruptHandler& (0+255),b
  2096   000CE0  0E11               	movlw	high _Timer2_DefaultOverflowCallback
  2097   000CE2  6FCA               	movwf	(Timer2_OverflowCallbackRegister@InterruptHandler+1)& (0+255),b
  2098   000CE4  EC5F  F008         	call	_Timer2_OverflowCallbackRegister	;wreg free
  2099   000CE8                     
  2100                           ;mcc_generated_files/timer/src/tmr2.c: 76:     PIR4bits.TMR2IF = 0;
  2101   000CE8  0139               	movlb	57	; () banked
  2102   000CEA  95A4               	bcf	164,2,b	;volatile
  2103   000CEC                     
  2104                           ; BSR set to: 57
  2105                           ;mcc_generated_files/timer/src/tmr2.c: 78:     PIE4bits.TMR2IE = 1;
  2106   000CEC  8594               	bsf	148,2,b	;volatile
  2107   000CEE                     
  2108                           ; BSR set to: 57
  2109                           ;mcc_generated_files/timer/src/tmr2.c: 80:     T2CON = 0x30;
  2110   000CEE  0E30               	movlw	48
  2111   000CF0  6EAC               	movwf	172,c	;volatile
  2112   000CF2                     
  2113                           ; BSR set to: 57
  2114   000CF2  0012               	return		;funcret
  2115   000CF4                     __end_of_Timer2_Initialize:
  2116                           	callstack 0
  2117                           
  2118 ;; *************** function _Timer2_OverflowCallbackRegister *****************
  2119 ;; Defined at:
  2120 ;;		line 129 in file "mcc_generated_files/timer/src/tmr2.c"
  2121 ;; Parameters:    Size  Location     Type
  2122 ;;  InterruptHan    2    9[BANK1 ] PTR FTN()void 
  2123 ;;		 -> Timer_int(1), Timer2_DefaultOverflowCallback(1), Timer_DefaultOverflowCallback(1), 
  2124 ;; Auto vars:     Size  Location     Type
  2125 ;;		None
  2126 ;; Return value:  Size  Location     Type
  2127 ;;                  1    wreg      void 
  2128 ;; Registers used:
  2129 ;;		wreg, status,2, status,0
  2130 ;; Tracked objects:
  2131 ;;		On entry : 0/0
  2132 ;;		On exit  : 0/0
  2133 ;;		Unchanged: 0/0
  2134 ;; Data sizes:     COMRAM   BANK0   BANK1   BANK2   BANK3   BANK4   BANK5   BANK6   BANK7   BANK8   BANK9  BANK10  BANK1
      +1  BANK12  BANK13  BANK14  BANK15
  2135 ;;      Params:         0       0       2       0       0       0       0       0       0       0       0       0       
      +0       0       0       0       0
  2136 ;;      Locals:         0       0       0       0       0       0       0       0       0       0       0       0       
      +0       0       0       0       0
  2137 ;;      Temps:          0       0       0       0       0       0       0       0       0       0       0       0       
      +0       0       0       0       0
  2138 ;;      Totals:         0       0       2       0       0       0       0       0       0       0       0       0       
      +0       0       0       0       0
  2139 ;;Total ram usage:        2 bytes
  2140 ;; Hardware stack levels used: 1
  2141 ;; Hardware stack levels required when called: 8
  2142 ;; This function calls:
  2143 ;;		Nothing
  2144 ;; This function is called by:
  2145 ;;		_Timer2_Initialize
  2146 ;; This function uses a non-reentrant model
  2147 ;;
  2148                           
  2149                           	psect	text10
  2150   0010BE                     __ptext10:
  2151                           	callstack 0
  2152   0010BE                     _Timer2_OverflowCallbackRegister:
  2153                           	callstack 20
  2154   0010BE                     
  2155                           ;mcc_generated_files/timer/src/tmr2.c: 130:     Timer2_OverflowCallback = InterruptHandl
      +                          er;
  2156   0010BE  C1C9  F0AE         	movff	Timer2_OverflowCallbackRegister@InterruptHandler,_Timer2_OverflowCallback
  2157   0010C2  C1CA  F0AF         	movff	Timer2_OverflowCallbackRegister@InterruptHandler+1,_Timer2_OverflowCallback+1
  2158   0010C6  0012               	return		;funcret
  2159   0010C8                     __end_of_Timer2_OverflowCallbackRegister:
  2160                           	callstack 0
  2161                           
  2162 ;; *************** function _SPI1_Initialize *****************
  2163 ;; Defined at:
  2164 ;;		line 70 in file "mcc_generated_files/spi/src/spi1.c"
  2165 ;; Parameters:    Size  Location     Type
  2166 ;;		None
  2167 ;; Auto vars:     Size  Location     Type
  2168 ;;		None
  2169 ;; Return value:  Size  Location     Type
  2170 ;;                  1    wreg      void 
  2171 ;; Registers used:
  2172 ;;		wreg, status,2
  2173 ;; Tracked objects:
  2174 ;;		On entry : 0/0
  2175 ;;		On exit  : 0/0
  2176 ;;		Unchanged: 0/0
  2177 ;; Data sizes:     COMRAM   BANK0   BANK1   BANK2   BANK3   BANK4   BANK5   BANK6   BANK7   BANK8   BANK9  BANK10  BANK1
      +1  BANK12  BANK13  BANK14  BANK15
  2178 ;;      Params:         0       0       0       0       0       0       0       0       0       0       0       0       
      +0       0       0       0       0
  2179 ;;      Locals:         0       0       0       0       0       0       0       0       0       0       0       0       
      +0       0       0       0       0
  2180 ;;      Temps:          0       0       0       0       0       0       0       0       0       0       0       0       
      +0       0       0       0       0
  2181 ;;      Totals:         0       0       0       0       0       0       0       0       0       0       0       0       
      +0       0       0       0       0
  2182 ;;Total ram usage:        0 bytes
  2183 ;; Hardware stack levels used: 1
  2184 ;; Hardware stack levels required when called: 8
  2185 ;; This function calls:
  2186 ;;		Nothing
  2187 ;; This function is called by:
  2188 ;;		_SYSTEM_Initialize
  2189 ;; This function uses a non-reentrant model
  2190 ;;
  2191                           
  2192                           	psect	text11
  2193   000F4C                     __ptext11:
  2194                           	callstack 0
  2195   000F4C                     _SPI1_Initialize:
  2196                           	callstack 21
  2197   000F4C                     
  2198                           ;mcc_generated_files/spi/src/spi1.c: 73:     SPI1CON1 = 0x40;
  2199   000F4C  0E40               	movlw	64
  2200   000F4E  013D               	movlb	61	; () banked
  2201   000F50  6F15               	movwf	21,b	;volatile
  2202                           
  2203                           ;mcc_generated_files/spi/src/spi1.c: 75:     SPI1CON2 = 0x0;
  2204   000F52  0E00               	movlw	0
  2205   000F54  6F16               	movwf	22,b	;volatile
  2206                           
  2207                           ;mcc_generated_files/spi/src/spi1.c: 77:     SPI1CLK = 0x0;
  2208   000F56  0E00               	movlw	0
  2209   000F58  6F1C               	movwf	28,b	;volatile
  2210                           
  2211                           ;mcc_generated_files/spi/src/spi1.c: 79:     SPI1BAUD = 0x18;
  2212   000F5A  0E18               	movlw	24
  2213   000F5C  6F19               	movwf	25,b	;volatile
  2214   000F5E                     
  2215                           ; BSR set to: 61
  2216                           ;mcc_generated_files/spi/src/spi1.c: 80:     TRISCbits.TRISC3 = 0;
  2217   000F5E  96C4               	bcf	196,3,c	;volatile
  2218                           
  2219                           ;mcc_generated_files/spi/src/spi1.c: 82:     SPI1CON0 = 0x2;
  2220   000F60  0E02               	movlw	2
  2221   000F62  6F14               	movwf	20,b	;volatile
  2222   000F64                     
  2223                           ; BSR set to: 61
  2224   000F64  0012               	return		;funcret
  2225   000F66                     __end_of_SPI1_Initialize:
  2226                           	callstack 0
  2227                           
  2228 ;; *************** function _PIN_MANAGER_Initialize *****************
  2229 ;; Defined at:
  2230 ;;		line 38 in file "mcc_generated_files/system/src/pins.c"
  2231 ;; Parameters:    Size  Location     Type
  2232 ;;		None
  2233 ;; Auto vars:     Size  Location     Type
  2234 ;;		None
  2235 ;; Return value:  Size  Location     Type
  2236 ;;                  1    wreg      void 
  2237 ;; Registers used:
  2238 ;;		wreg, status,2
  2239 ;; Tracked objects:
  2240 ;;		On entry : 0/0
  2241 ;;		On exit  : 0/0
  2242 ;;		Unchanged: 0/0
  2243 ;; Data sizes:     COMRAM   BANK0   BANK1   BANK2   BANK3   BANK4   BANK5   BANK6   BANK7   BANK8   BANK9  BANK10  BANK1
      +1  BANK12  BANK13  BANK14  BANK15
  2244 ;;      Params:         0       0       0       0       0       0       0       0       0       0       0       0       
      +0       0       0       0       0
  2245 ;;      Locals:         0       0       0       0       0       0       0       0       0       0       0       0       
      +0       0       0       0       0
  2246 ;;      Temps:          0       0       0       0       0       0       0       0       0       0       0       0       
      +0       0       0       0       0
  2247 ;;      Totals:         0       0       0       0       0       0       0       0       0       0       0       0       
      +0       0       0       0       0
  2248 ;;Total ram usage:        0 bytes
  2249 ;; Hardware stack levels used: 1
  2250 ;; Hardware stack levels required when called: 8
  2251 ;; This function calls:
  2252 ;;		Nothing
  2253 ;; This function is called by:
  2254 ;;		_SYSTEM_Initialize
  2255 ;; This function uses a non-reentrant model
  2256 ;;
  2257                           
  2258                           	psect	text12
  2259   000544                     __ptext12:
  2260                           	callstack 0
  2261   000544                     _PIN_MANAGER_Initialize:
  2262                           	callstack 21
  2263   000544                     
  2264                           ;mcc_generated_files/system/src/pins.c: 43:     LATA = 0x0;
  2265   000544  0E00               	movlw	0
  2266   000546  6EBA               	movwf	186,c	;volatile
  2267                           
  2268                           ;mcc_generated_files/system/src/pins.c: 44:     LATB = 0x0;
  2269   000548  0E00               	movlw	0
  2270   00054A  6EBB               	movwf	187,c	;volatile
  2271                           
  2272                           ;mcc_generated_files/system/src/pins.c: 45:     LATC = 0x18;
  2273   00054C  0E18               	movlw	24
  2274   00054E  6EBC               	movwf	188,c	;volatile
  2275                           
  2276                           ;mcc_generated_files/system/src/pins.c: 46:     LATD = 0x0;
  2277   000550  0E00               	movlw	0
  2278   000552  6EBD               	movwf	189,c	;volatile
  2279                           
  2280                           ;mcc_generated_files/system/src/pins.c: 47:     LATE = 0x0;
  2281   000554  0E00               	movlw	0
  2282   000556  6EBE               	movwf	190,c	;volatile
  2283                           
  2284                           ;mcc_generated_files/system/src/pins.c: 52:     TRISA = 0x3;
  2285   000558  0E03               	movlw	3
  2286   00055A  6EC2               	movwf	194,c	;volatile
  2287                           
  2288                           ;mcc_generated_files/system/src/pins.c: 53:     TRISB = 0x6;
  2289   00055C  0E06               	movlw	6
  2290   00055E  6EC3               	movwf	195,c	;volatile
  2291                           
  2292                           ;mcc_generated_files/system/src/pins.c: 54:     TRISC = 0x80;
  2293   000560  0E80               	movlw	128
  2294   000562  6EC4               	movwf	196,c	;volatile
  2295                           
  2296                           ;mcc_generated_files/system/src/pins.c: 55:     TRISD = 0x0;
  2297   000564  0E00               	movlw	0
  2298   000566  6EC5               	movwf	197,c	;volatile
  2299                           
  2300                           ;mcc_generated_files/system/src/pins.c: 56:     TRISE = 0x0;
  2301   000568  0E00               	movlw	0
  2302   00056A  6EC6               	movwf	198,c	;volatile
  2303                           
  2304                           ;mcc_generated_files/system/src/pins.c: 61:     ANSELA = 0x3;
  2305   00056C  0E03               	movlw	3
  2306   00056E  013A               	movlb	58	; () banked
  2307   000570  6F40               	movwf	64,b	;volatile
  2308                           
  2309                           ;mcc_generated_files/system/src/pins.c: 62:     ANSELB = 0x6;
  2310   000572  0E06               	movlw	6
  2311   000574  6F50               	movwf	80,b	;volatile
  2312                           
  2313                           ;mcc_generated_files/system/src/pins.c: 63:     ANSELC = 0x0;
  2314   000576  0E00               	movlw	0
  2315   000578  6F60               	movwf	96,b	;volatile
  2316                           
  2317                           ;mcc_generated_files/system/src/pins.c: 64:     ANSELD = 0x0;
  2318   00057A  0E00               	movlw	0
  2319   00057C  6F70               	movwf	112,b	;volatile
  2320                           
  2321                           ;mcc_generated_files/system/src/pins.c: 65:     ANSELE = 0x0;
  2322   00057E  0E00               	movlw	0
  2323   000580  6F80               	movwf	128,b	;volatile
  2324                           
  2325                           ;mcc_generated_files/system/src/pins.c: 70:     WPUA = 0x0;
  2326   000582  0E00               	movlw	0
  2327   000584  6F41               	movwf	65,b	;volatile
  2328                           
  2329                           ;mcc_generated_files/system/src/pins.c: 71:     WPUB = 0x0;
  2330   000586  0E00               	movlw	0
  2331   000588  6F51               	movwf	81,b	;volatile
  2332                           
  2333                           ;mcc_generated_files/system/src/pins.c: 72:     WPUC = 0x0;
  2334   00058A  0E00               	movlw	0
  2335   00058C  6F61               	movwf	97,b	;volatile
  2336                           
  2337                           ;mcc_generated_files/system/src/pins.c: 73:     WPUD = 0x0;
  2338   00058E  0E00               	movlw	0
  2339   000590  6F71               	movwf	113,b	;volatile
  2340                           
  2341                           ;mcc_generated_files/system/src/pins.c: 74:     WPUE = 0x0;
  2342   000592  0E00               	movlw	0
  2343   000594  6F81               	movwf	129,b	;volatile
  2344                           
  2345                           ;mcc_generated_files/system/src/pins.c: 79:     RB1I2C = 0x0;
  2346   000596  0E00               	movlw	0
  2347   000598  6F5A               	movwf	90,b	;volatile
  2348                           
  2349                           ;mcc_generated_files/system/src/pins.c: 80:     RB2I2C = 0x0;
  2350   00059A  0E00               	movlw	0
  2351   00059C  6F5B               	movwf	91,b	;volatile
  2352                           
  2353                           ;mcc_generated_files/system/src/pins.c: 81:     RC3I2C = 0x0;
  2354   00059E  0E00               	movlw	0
  2355   0005A0  6F6A               	movwf	106,b	;volatile
  2356                           
  2357                           ;mcc_generated_files/system/src/pins.c: 82:     RC4I2C = 0x0;
  2358   0005A2  0E00               	movlw	0
  2359   0005A4  6F6B               	movwf	107,b	;volatile
  2360                           
  2361                           ;mcc_generated_files/system/src/pins.c: 83:     RD0I2C = 0x0;
  2362   0005A6  0E00               	movlw	0
  2363   0005A8  6F7A               	movwf	122,b	;volatile
  2364                           
  2365                           ;mcc_generated_files/system/src/pins.c: 84:     RD1I2C = 0x0;
  2366   0005AA  0E00               	movlw	0
  2367   0005AC  6F7B               	movwf	123,b	;volatile
  2368                           
  2369                           ;mcc_generated_files/system/src/pins.c: 89:     ODCONA = 0x0;
  2370   0005AE  0E00               	movlw	0
  2371   0005B0  6F42               	movwf	66,b	;volatile
  2372                           
  2373                           ;mcc_generated_files/system/src/pins.c: 90:     ODCONB = 0x0;
  2374   0005B2  0E00               	movlw	0
  2375   0005B4  6F52               	movwf	82,b	;volatile
  2376                           
  2377                           ;mcc_generated_files/system/src/pins.c: 91:     ODCONC = 0x18;
  2378   0005B6  0E18               	movlw	24
  2379   0005B8  6F62               	movwf	98,b	;volatile
  2380                           
  2381                           ;mcc_generated_files/system/src/pins.c: 92:     ODCOND = 0x0;
  2382   0005BA  0E00               	movlw	0
  2383   0005BC  6F72               	movwf	114,b	;volatile
  2384                           
  2385                           ;mcc_generated_files/system/src/pins.c: 93:     ODCONE = 0x0;
  2386   0005BE  0E00               	movlw	0
  2387   0005C0  6F82               	movwf	130,b	;volatile
  2388   0005C2                     
  2389                           ; BSR set to: 58
  2390                           ;mcc_generated_files/system/src/pins.c: 98:     SLRCONA = 0xFF;
  2391   0005C2  6943               	setf	67,b	;volatile
  2392   0005C4                     
  2393                           ; BSR set to: 58
  2394                           ;mcc_generated_files/system/src/pins.c: 99:     SLRCONB = 0xFF;
  2395   0005C4  6953               	setf	83,b	;volatile
  2396   0005C6                     
  2397                           ; BSR set to: 58
  2398                           ;mcc_generated_files/system/src/pins.c: 100:     SLRCONC = 0xFF;
  2399   0005C6  6963               	setf	99,b	;volatile
  2400   0005C8                     
  2401                           ; BSR set to: 58
  2402                           ;mcc_generated_files/system/src/pins.c: 101:     SLRCOND = 0xFF;
  2403   0005C8  6973               	setf	115,b	;volatile
  2404                           
  2405                           ;mcc_generated_files/system/src/pins.c: 102:     SLRCONE = 0x7;
  2406   0005CA  0E07               	movlw	7
  2407   0005CC  6F83               	movwf	131,b	;volatile
  2408   0005CE                     
  2409                           ; BSR set to: 58
  2410                           ;mcc_generated_files/system/src/pins.c: 107:     INLVLA = 0xFF;
  2411   0005CE  6944               	setf	68,b	;volatile
  2412   0005D0                     
  2413                           ; BSR set to: 58
  2414                           ;mcc_generated_files/system/src/pins.c: 108:     INLVLB = 0xFF;
  2415   0005D0  6954               	setf	84,b	;volatile
  2416   0005D2                     
  2417                           ; BSR set to: 58
  2418                           ;mcc_generated_files/system/src/pins.c: 109:     INLVLC = 0xFF;
  2419   0005D2  6964               	setf	100,b	;volatile
  2420   0005D4                     
  2421                           ; BSR set to: 58
  2422                           ;mcc_generated_files/system/src/pins.c: 110:     INLVLD = 0xFF;
  2423   0005D4  6974               	setf	116,b	;volatile
  2424                           
  2425                           ;mcc_generated_files/system/src/pins.c: 111:     INLVLE = 0xF;
  2426   0005D6  0E0F               	movlw	15
  2427   0005D8  6F84               	movwf	132,b	;volatile
  2428                           
  2429                           ;mcc_generated_files/system/src/pins.c: 115:     SPI1SDIPPS = 0x14;
  2430   0005DA  0E14               	movlw	20
  2431   0005DC  6FDF               	movwf	223,b	;volatile
  2432                           
  2433                           ;mcc_generated_files/system/src/pins.c: 116:     U1RXPPS = 0x17;
  2434   0005DE  0E17               	movlw	23
  2435   0005E0  6FE5               	movwf	229,b	;volatile
  2436                           
  2437                           ;mcc_generated_files/system/src/pins.c: 117:     RC6PPS = 0x13;
  2438   0005E2  0E13               	movlw	19
  2439   0005E4  6F16               	movwf	22,b	;volatile
  2440                           
  2441                           ;mcc_generated_files/system/src/pins.c: 118:     RC5PPS = 0x1F;
  2442   0005E6  0E1F               	movlw	31
  2443   0005E8  6F15               	movwf	21,b	;volatile
  2444                           
  2445                           ;mcc_generated_files/system/src/pins.c: 119:     I2C1SCLPPS = 0x13;
  2446   0005EA  0E13               	movlw	19
  2447   0005EC  6FE1               	movwf	225,b	;volatile
  2448                           
  2449                           ;mcc_generated_files/system/src/pins.c: 120:     RC3PPS = 0x21;
  2450   0005EE  0E21               	movlw	33
  2451   0005F0  6F13               	movwf	19,b	;volatile
  2452                           
  2453                           ;mcc_generated_files/system/src/pins.c: 121:     SPI1SCKPPS = 0x13;
  2454   0005F2  0E13               	movlw	19
  2455   0005F4  6FDE               	movwf	222,b	;volatile
  2456                           
  2457                           ;mcc_generated_files/system/src/pins.c: 122:     I2C1SDAPPS = 0x14;
  2458   0005F6  0E14               	movlw	20
  2459   0005F8  6FE2               	movwf	226,b	;volatile
  2460                           
  2461                           ;mcc_generated_files/system/src/pins.c: 123:     RC4PPS = 0x22;
  2462   0005FA  0E22               	movlw	34
  2463   0005FC  6F14               	movwf	20,b	;volatile
  2464                           
  2465                           ;mcc_generated_files/system/src/pins.c: 128:     IOCAP = 0x0;
  2466   0005FE  0E00               	movlw	0
  2467   000600  6F45               	movwf	69,b	;volatile
  2468                           
  2469                           ;mcc_generated_files/system/src/pins.c: 129:     IOCAN = 0x0;
  2470   000602  0E00               	movlw	0
  2471   000604  6F46               	movwf	70,b	;volatile
  2472                           
  2473                           ;mcc_generated_files/system/src/pins.c: 130:     IOCAF = 0x0;
  2474   000606  0E00               	movlw	0
  2475   000608  6F47               	movwf	71,b	;volatile
  2476                           
  2477                           ;mcc_generated_files/system/src/pins.c: 131:     IOCBP = 0x0;
  2478   00060A  0E00               	movlw	0
  2479   00060C  6F55               	movwf	85,b	;volatile
  2480                           
  2481                           ;mcc_generated_files/system/src/pins.c: 132:     IOCBN = 0x0;
  2482   00060E  0E00               	movlw	0
  2483   000610  6F56               	movwf	86,b	;volatile
  2484                           
  2485                           ;mcc_generated_files/system/src/pins.c: 133:     IOCBF = 0x0;
  2486   000612  0E00               	movlw	0
  2487   000614  6F57               	movwf	87,b	;volatile
  2488                           
  2489                           ;mcc_generated_files/system/src/pins.c: 134:     IOCCP = 0x0;
  2490   000616  0E00               	movlw	0
  2491   000618  6F65               	movwf	101,b	;volatile
  2492                           
  2493                           ;mcc_generated_files/system/src/pins.c: 135:     IOCCN = 0x0;
  2494   00061A  0E00               	movlw	0
  2495   00061C  6F66               	movwf	102,b	;volatile
  2496                           
  2497                           ;mcc_generated_files/system/src/pins.c: 136:     IOCCF = 0x0;
  2498   00061E  0E00               	movlw	0
  2499   000620  6F67               	movwf	103,b	;volatile
  2500                           
  2501                           ;mcc_generated_files/system/src/pins.c: 137:     IOCEP = 0x0;
  2502   000622  0E00               	movlw	0
  2503   000624  6F85               	movwf	133,b	;volatile
  2504                           
  2505                           ;mcc_generated_files/system/src/pins.c: 138:     IOCEN = 0x0;
  2506   000626  0E00               	movlw	0
  2507   000628  6F86               	movwf	134,b	;volatile
  2508                           
  2509                           ;mcc_generated_files/system/src/pins.c: 139:     IOCEF = 0x0;
  2510   00062A  0E00               	movlw	0
  2511   00062C  6F87               	movwf	135,b	;volatile
  2512   00062E                     
  2513                           ; BSR set to: 58
  2514   00062E  0012               	return		;funcret
  2515   000630                     __end_of_PIN_MANAGER_Initialize:
  2516                           	callstack 0
  2517                           
  2518 ;; *************** function _INTERRUPT_Initialize *****************
  2519 ;; Defined at:
  2520 ;;		line 42 in file "mcc_generated_files/system/src/interrupt.c"
  2521 ;; Parameters:    Size  Location     Type
  2522 ;;		None
  2523 ;; Auto vars:     Size  Location     Type
  2524 ;;  state           1    7[BANK0 ] _Bool 
  2525 ;; Return value:  Size  Location     Type
  2526 ;;                  1    wreg      void 
  2527 ;; Registers used:
  2528 ;;		wreg, status,2, status,0, cstack
  2529 ;; Tracked objects:
  2530 ;;		On entry : 0/0
  2531 ;;		On exit  : 0/0
  2532 ;;		Unchanged: 0/0
  2533 ;; Data sizes:     COMRAM   BANK0   BANK1   BANK2   BANK3   BANK4   BANK5   BANK6   BANK7   BANK8   BANK9  BANK10  BANK1
      +1  BANK12  BANK13  BANK14  BANK15
  2534 ;;      Params:         0       0       0       0       0       0       0       0       0       0       0       0       
      +0       0       0       0       0
  2535 ;;      Locals:         0       1       0       0       0       0       0       0       0       0       0       0       
      +0       0       0       0       0
  2536 ;;      Temps:          0       0       0       0       0       0       0       0       0       0       0       0       
      +0       0       0       0       0
  2537 ;;      Totals:         0       1       0       0       0       0       0       0       0       0       0       0       
      +0       0       0       0       0
  2538 ;;Total ram usage:        1 bytes
  2539 ;; Hardware stack levels used: 1
  2540 ;; Hardware stack levels required when called: 9
  2541 ;; This function calls:
  2542 ;;		_INT0_SetInterruptHandler
  2543 ;;		_INT1_SetInterruptHandler
  2544 ;;		_INT2_SetInterruptHandler
  2545 ;; This function is called by:
  2546 ;;		_SYSTEM_Initialize
  2547 ;; This function uses a non-reentrant model
  2548 ;;
  2549                           
  2550                           	psect	text13
  2551   000814                     __ptext13:
  2552                           	callstack 0
  2553   000814                     _INTERRUPT_Initialize:
  2554                           	callstack 20
  2555   000814                     
  2556                           ;mcc_generated_files/system/src/interrupt.c: 44:     INTCON0bits.IPEN = 1;
  2557   000814  8AD2               	bsf	210,5,c	;volatile
  2558   000816                     
  2559                           ;mcc_generated_files/system/src/interrupt.c: 46:     _Bool state = (unsigned char)GIE;
  2560   000816  0E00               	movlw	0
  2561   000818  BED2               	btfsc	16338,7,c	;volatile
  2562   00081A  0E01               	movlw	1
  2563   00081C  0100               	movlb	0	; () banked
  2564   00081E  6FF6               	movwf	INTERRUPT_Initialize@state& (0+255),b
  2565   000820                     
  2566                           ; BSR set to: 0
  2567                           ;mcc_generated_files/system/src/interrupt.c: 47:     GIE = 0;
  2568   000820  9ED2               	bcf	16338,7,c	;volatile
  2569                           
  2570                           ;mcc_generated_files/system/src/interrupt.c: 48:     IVTLOCK = 0x55;
  2571   000822  0E55               	movlw	85
  2572   000824  6ED4               	movwf	212,c	;volatile
  2573                           
  2574                           ;mcc_generated_files/system/src/interrupt.c: 49:     IVTLOCK = 0xAA;
  2575   000826  0EAA               	movlw	170
  2576   000828  6ED4               	movwf	212,c	;volatile
  2577   00082A                     
  2578                           ; BSR set to: 0
  2579                           ;mcc_generated_files/system/src/interrupt.c: 50:     IVTLOCKbits.IVTLOCKED = 0x00;
  2580   00082A  90D4               	bcf	212,0,c	;volatile
  2581                           
  2582                           ;mcc_generated_files/system/src/interrupt.c: 52:     IVTBASEU = 0;
  2583   00082C  0E00               	movlw	0
  2584   00082E  6ED7               	movwf	215,c	;volatile
  2585                           
  2586                           ;mcc_generated_files/system/src/interrupt.c: 53:     IVTBASEH = 0;
  2587   000830  0E00               	movlw	0
  2588   000832  6ED6               	movwf	214,c	;volatile
  2589                           
  2590                           ;mcc_generated_files/system/src/interrupt.c: 54:     IVTBASEL = 8;
  2591   000834  0E08               	movlw	8
  2592   000836  6ED5               	movwf	213,c	;volatile
  2593                           
  2594                           ;mcc_generated_files/system/src/interrupt.c: 56:     IVTLOCK = 0x55;
  2595   000838  0E55               	movlw	85
  2596   00083A  6ED4               	movwf	212,c	;volatile
  2597                           
  2598                           ;mcc_generated_files/system/src/interrupt.c: 57:     IVTLOCK = 0xAA;
  2599   00083C  0EAA               	movlw	170
  2600   00083E  6ED4               	movwf	212,c	;volatile
  2601   000840                     
  2602                           ; BSR set to: 0
  2603                           ;mcc_generated_files/system/src/interrupt.c: 58:     IVTLOCKbits.IVTLOCKED = 0x01;
  2604   000840  80D4               	bsf	212,0,c	;volatile
  2605   000842                     
  2606                           ; BSR set to: 0
  2607                           ;mcc_generated_files/system/src/interrupt.c: 60:     GIE = state;
  2608   000842  B1F6               	btfsc	INTERRUPT_Initialize@state& (0+255),0,b
  2609   000844  D002               	bra	u2525
  2610   000846  9ED2               	bcf	16338,7,c	;volatile
  2611   000848  D001               	bra	u2526
  2612   00084A                     u2525:
  2613   00084A  8ED2               	bsf	16338,7,c	;volatile
  2614   00084C                     u2526:
  2615   00084C                     
  2616                           ;mcc_generated_files/system/src/interrupt.c: 62:     IPR2bits.I2C1RXIP = 1;
  2617   00084C  0139               	movlb	57	; () banked
  2618   00084E  8F82               	bsf	130,7,b	;volatile
  2619   000850                     
  2620                           ; BSR set to: 57
  2621                           ;mcc_generated_files/system/src/interrupt.c: 63:     IPR3bits.I2C1TXIP = 1;
  2622   000850  8183               	bsf	131,0,b	;volatile
  2623   000852                     
  2624                           ; BSR set to: 57
  2625                           ;mcc_generated_files/system/src/interrupt.c: 64:     IPR3bits.I2C1IP = 1;
  2626   000852  8383               	bsf	131,1,b	;volatile
  2627   000854                     
  2628                           ; BSR set to: 57
  2629                           ;mcc_generated_files/system/src/interrupt.c: 65:     IPR3bits.I2C1EIP = 1;
  2630   000854  8583               	bsf	131,2,b	;volatile
  2631   000856                     
  2632                           ; BSR set to: 57
  2633                           ;mcc_generated_files/system/src/interrupt.c: 66:     IPR3bits.U1RXIP = 1;
  2634   000856  8783               	bsf	131,3,b	;volatile
  2635   000858                     
  2636                           ; BSR set to: 57
  2637                           ;mcc_generated_files/system/src/interrupt.c: 67:     IPR3bits.U1TXIP = 1;
  2638   000858  8983               	bsf	131,4,b	;volatile
  2639   00085A                     
  2640                           ; BSR set to: 57
  2641                           ;mcc_generated_files/system/src/interrupt.c: 68:     IPR3bits.TMR0IP = 1;
  2642   00085A  8F83               	bsf	131,7,b	;volatile
  2643   00085C                     
  2644                           ; BSR set to: 57
  2645                           ;mcc_generated_files/system/src/interrupt.c: 69:     IPR4bits.TMR2IP = 1;
  2646   00085C  8584               	bsf	132,2,b	;volatile
  2647   00085E                     
  2648                           ; BSR set to: 57
  2649                           ;mcc_generated_files/system/src/interrupt.c: 70:     IPR0bits.IOCIP = 0;
  2650   00085E  9F80               	bcf	128,7,b	;volatile
  2651   000860                     
  2652                           ; BSR set to: 57
  2653                           ;mcc_generated_files/system/src/interrupt.c: 71:     IPR1bits.ADIP = 0;
  2654   000860  9581               	bcf	129,2,b	;volatile
  2655   000862                     
  2656                           ; BSR set to: 57
  2657                           ;mcc_generated_files/system/src/interrupt.c: 75:     (PIR1bits.INT0IF = 0);
  2658   000862  91A1               	bcf	161,0,b	;volatile
  2659   000864                     
  2660                           ; BSR set to: 57
  2661                           ;mcc_generated_files/system/src/interrupt.c: 76:     (INTCON0bits.INT0EDG = 1);
  2662   000864  80D2               	bsf	210,0,c	;volatile
  2663   000866                     
  2664                           ; BSR set to: 57
  2665                           ;mcc_generated_files/system/src/interrupt.c: 78:     INT0_SetInterruptHandler(INT0_Defau
      +                          ltInterruptHandler);
  2666   000866  0E70               	movlw	low _INT0_DefaultInterruptHandler
  2667   000868  0101               	movlb	1	; () banked
  2668   00086A  6FC9               	movwf	INT0_SetInterruptHandler@InterruptHandler& (0+255),b
  2669   00086C  0E11               	movlw	high _INT0_DefaultInterruptHandler
  2670   00086E  6FCA               	movwf	(INT0_SetInterruptHandler@InterruptHandler+1)& (0+255),b
  2671   000870  EC6E  F008         	call	_INT0_SetInterruptHandler	;wreg free
  2672   000874                     
  2673                           ;mcc_generated_files/system/src/interrupt.c: 83:     (PIR5bits.INT1IF = 0);
  2674   000874  0139               	movlb	57	; () banked
  2675   000876  91A5               	bcf	165,0,b	;volatile
  2676   000878                     
  2677                           ; BSR set to: 57
  2678                           ;mcc_generated_files/system/src/interrupt.c: 84:     (INTCON0bits.INT1EDG = 1);
  2679   000878  82D2               	bsf	210,1,c	;volatile
  2680   00087A                     
  2681                           ; BSR set to: 57
  2682                           ;mcc_generated_files/system/src/interrupt.c: 86:     INT1_SetInterruptHandler(INT1_Defau
      +                          ltInterruptHandler);
  2683   00087A  0E72               	movlw	low _INT1_DefaultInterruptHandler
  2684   00087C  0101               	movlb	1	; () banked
  2685   00087E  6FC9               	movwf	INT1_SetInterruptHandler@InterruptHandler& (0+255),b
  2686   000880  0E11               	movlw	high _INT1_DefaultInterruptHandler
  2687   000882  6FCA               	movwf	(INT1_SetInterruptHandler@InterruptHandler+1)& (0+255),b
  2688   000884  EC69  F008         	call	_INT1_SetInterruptHandler	;wreg free
  2689   000888                     
  2690                           ;mcc_generated_files/system/src/interrupt.c: 91:     (PIR7bits.INT2IF = 0);
  2691   000888  0139               	movlb	57	; () banked
  2692   00088A  9BA7               	bcf	167,5,b	;volatile
  2693   00088C                     
  2694                           ; BSR set to: 57
  2695                           ;mcc_generated_files/system/src/interrupt.c: 92:     (INTCON0bits.INT2EDG = 1);
  2696   00088C  84D2               	bsf	210,2,c	;volatile
  2697   00088E                     
  2698                           ; BSR set to: 57
  2699                           ;mcc_generated_files/system/src/interrupt.c: 94:     INT2_SetInterruptHandler(INT2_Defau
      +                          ltInterruptHandler);
  2700   00088E  0E74               	movlw	low _INT2_DefaultInterruptHandler
  2701   000890  0101               	movlb	1	; () banked
  2702   000892  6FC9               	movwf	INT2_SetInterruptHandler@InterruptHandler& (0+255),b
  2703   000894  0E11               	movlw	high _INT2_DefaultInterruptHandler
  2704   000896  6FCA               	movwf	(INT2_SetInterruptHandler@InterruptHandler+1)& (0+255),b
  2705   000898  EC64  F008         	call	_INT2_SetInterruptHandler	;wreg free
  2706   00089C  0012               	return		;funcret
  2707   00089E                     __end_of_INTERRUPT_Initialize:
  2708                           	callstack 0
  2709                           
  2710 ;; *************** function _INT2_SetInterruptHandler *****************
  2711 ;; Defined at:
  2712 ;;		line 202 in file "mcc_generated_files/system/src/interrupt.c"
  2713 ;; Parameters:    Size  Location     Type
  2714 ;;  InterruptHan    2    9[BANK1 ] PTR FTN()void 
  2715 ;;		 -> INT2_DefaultInterruptHandler(1), 
  2716 ;; Auto vars:     Size  Location     Type
  2717 ;;		None
  2718 ;; Return value:  Size  Location     Type
  2719 ;;                  1    wreg      void 
  2720 ;; Registers used:
  2721 ;;		wreg, status,2, status,0
  2722 ;; Tracked objects:
  2723 ;;		On entry : 0/0
  2724 ;;		On exit  : 0/0
  2725 ;;		Unchanged: 0/0
  2726 ;; Data sizes:     COMRAM   BANK0   BANK1   BANK2   BANK3   BANK4   BANK5   BANK6   BANK7   BANK8   BANK9  BANK10  BANK1
      +1  BANK12  BANK13  BANK14  BANK15
  2727 ;;      Params:         0       0       2       0       0       0       0       0       0       0       0       0       
      +0       0       0       0       0
  2728 ;;      Locals:         0       0       0       0       0       0       0       0       0       0       0       0       
      +0       0       0       0       0
  2729 ;;      Temps:          0       0       0       0       0       0       0       0       0       0       0       0       
      +0       0       0       0       0
  2730 ;;      Totals:         0       0       2       0       0       0       0       0       0       0       0       0       
      +0       0       0       0       0
  2731 ;;Total ram usage:        2 bytes
  2732 ;; Hardware stack levels used: 1
  2733 ;; Hardware stack levels required when called: 8
  2734 ;; This function calls:
  2735 ;;		Nothing
  2736 ;; This function is called by:
  2737 ;;		_INTERRUPT_Initialize
  2738 ;; This function uses a non-reentrant model
  2739 ;;
  2740                           
  2741                           	psect	text14
  2742   0010C8                     __ptext14:
  2743                           	callstack 0
  2744   0010C8                     _INT2_SetInterruptHandler:
  2745                           	callstack 20
  2746   0010C8                     
  2747                           ;mcc_generated_files/system/src/interrupt.c: 203:     INT2_InterruptHandler = InterruptH
      +                          andler;
  2748   0010C8  C1C9  F0B4         	movff	INT2_SetInterruptHandler@InterruptHandler,_INT2_InterruptHandler
  2749   0010CC  C1CA  F0B5         	movff	INT2_SetInterruptHandler@InterruptHandler+1,_INT2_InterruptHandler+1
  2750   0010D0  0012               	return		;funcret
  2751   0010D2                     __end_of_INT2_SetInterruptHandler:
  2752                           	callstack 0
  2753                           
  2754 ;; *************** function _INT1_SetInterruptHandler *****************
  2755 ;; Defined at:
  2756 ;;		line 168 in file "mcc_generated_files/system/src/interrupt.c"
  2757 ;; Parameters:    Size  Location     Type
  2758 ;;  InterruptHan    2    9[BANK1 ] PTR FTN()void 
  2759 ;;		 -> INT1_DefaultInterruptHandler(1), 
  2760 ;; Auto vars:     Size  Location     Type
  2761 ;;		None
  2762 ;; Return value:  Size  Location     Type
  2763 ;;                  1    wreg      void 
  2764 ;; Registers used:
  2765 ;;		wreg, status,2, status,0
  2766 ;; Tracked objects:
  2767 ;;		On entry : 0/0
  2768 ;;		On exit  : 0/0
  2769 ;;		Unchanged: 0/0
  2770 ;; Data sizes:     COMRAM   BANK0   BANK1   BANK2   BANK3   BANK4   BANK5   BANK6   BANK7   BANK8   BANK9  BANK10  BANK1
      +1  BANK12  BANK13  BANK14  BANK15
  2771 ;;      Params:         0       0       2       0       0       0       0       0       0       0       0       0       
      +0       0       0       0       0
  2772 ;;      Locals:         0       0       0       0       0       0       0       0       0       0       0       0       
      +0       0       0       0       0
  2773 ;;      Temps:          0       0       0       0       0       0       0       0       0       0       0       0       
      +0       0       0       0       0
  2774 ;;      Totals:         0       0       2       0       0       0       0       0       0       0       0       0       
      +0       0       0       0       0
  2775 ;;Total ram usage:        2 bytes
  2776 ;; Hardware stack levels used: 1
  2777 ;; Hardware stack levels required when called: 8
  2778 ;; This function calls:
  2779 ;;		Nothing
  2780 ;; This function is called by:
  2781 ;;		_INTERRUPT_Initialize
  2782 ;; This function uses a non-reentrant model
  2783 ;;
  2784                           
  2785                           	psect	text15
  2786   0010D2                     __ptext15:
  2787                           	callstack 0
  2788   0010D2                     _INT1_SetInterruptHandler:
  2789                           	callstack 20
  2790   0010D2                     
  2791                           ;mcc_generated_files/system/src/interrupt.c: 169:     INT1_InterruptHandler = InterruptH
      +                          andler;
  2792   0010D2  C1C9  F0B6         	movff	INT1_SetInterruptHandler@InterruptHandler,_INT1_InterruptHandler
  2793   0010D6  C1CA  F0B7         	movff	INT1_SetInterruptHandler@InterruptHandler+1,_INT1_InterruptHandler+1
  2794   0010DA  0012               	return		;funcret
  2795   0010DC                     __end_of_INT1_SetInterruptHandler:
  2796                           	callstack 0
  2797                           
  2798 ;; *************** function _INT0_SetInterruptHandler *****************
  2799 ;; Defined at:
  2800 ;;		line 134 in file "mcc_generated_files/system/src/interrupt.c"
  2801 ;; Parameters:    Size  Location     Type
  2802 ;;  InterruptHan    2    9[BANK1 ] PTR FTN()void 
  2803 ;;		 -> INT0_DefaultInterruptHandler(1), 
  2804 ;; Auto vars:     Size  Location     Type
  2805 ;;		None
  2806 ;; Return value:  Size  Location     Type
  2807 ;;                  1    wreg      void 
  2808 ;; Registers used:
  2809 ;;		wreg, status,2, status,0
  2810 ;; Tracked objects:
  2811 ;;		On entry : 0/0
  2812 ;;		On exit  : 0/0
  2813 ;;		Unchanged: 0/0
  2814 ;; Data sizes:     COMRAM   BANK0   BANK1   BANK2   BANK3   BANK4   BANK5   BANK6   BANK7   BANK8   BANK9  BANK10  BANK1
      +1  BANK12  BANK13  BANK14  BANK15
  2815 ;;      Params:         0       0       2       0       0       0       0       0       0       0       0       0       
      +0       0       0       0       0
  2816 ;;      Locals:         0       0       0       0       0       0       0       0       0       0       0       0       
      +0       0       0       0       0
  2817 ;;      Temps:          0       0       0       0       0       0       0       0       0       0       0       0       
      +0       0       0       0       0
  2818 ;;      Totals:         0       0       2       0       0       0       0       0       0       0       0       0       
      +0       0       0       0       0
  2819 ;;Total ram usage:        2 bytes
  2820 ;; Hardware stack levels used: 1
  2821 ;; Hardware stack levels required when called: 8
  2822 ;; This function calls:
  2823 ;;		Nothing
  2824 ;; This function is called by:
  2825 ;;		_INTERRUPT_Initialize
  2826 ;; This function uses a non-reentrant model
  2827 ;;
  2828                           
  2829                           	psect	text16
  2830   0010DC                     __ptext16:
  2831                           	callstack 0
  2832   0010DC                     _INT0_SetInterruptHandler:
  2833                           	callstack 20
  2834   0010DC                     
  2835                           ;mcc_generated_files/system/src/interrupt.c: 135:     INT0_InterruptHandler = InterruptH
      +                          andler;
  2836   0010DC  C1C9  F0B8         	movff	INT0_SetInterruptHandler@InterruptHandler,_INT0_InterruptHandler
  2837   0010E0  C1CA  F0B9         	movff	INT0_SetInterruptHandler@InterruptHandler+1,_INT0_InterruptHandler+1
  2838   0010E4  0012               	return		;funcret
  2839   0010E6                     __end_of_INT0_SetInterruptHandler:
  2840                           	callstack 0
  2841                           
  2842 ;; *************** function _I2C1_Initialize *****************
  2843 ;; Defined at:
  2844 ;;		line 91 in file "mcc_generated_files/i2c_host/src/i2c1.c"
  2845 ;; Parameters:    Size  Location     Type
  2846 ;;		None
  2847 ;; Auto vars:     Size  Location     Type
  2848 ;;		None
  2849 ;; Return value:  Size  Location     Type
  2850 ;;                  1    wreg      void 
  2851 ;; Registers used:
  2852 ;;		wreg, status,2, status,0, cstack
  2853 ;; Tracked objects:
  2854 ;;		On entry : 0/0
  2855 ;;		On exit  : 0/0
  2856 ;;		Unchanged: 0/0
  2857 ;; Data sizes:     COMRAM   BANK0   BANK1   BANK2   BANK3   BANK4   BANK5   BANK6   BANK7   BANK8   BANK9  BANK10  BANK1
      +1  BANK12  BANK13  BANK14  BANK15
  2858 ;;      Params:         0       0       0       0       0       0       0       0       0       0       0       0       
      +0       0       0       0       0
  2859 ;;      Locals:         0       0       0       0       0       0       0       0       0       0       0       0       
      +0       0       0       0       0
  2860 ;;      Temps:          0       0       0       0       0       0       0       0       0       0       0       0       
      +0       0       0       0       0
  2861 ;;      Totals:         0       0       0       0       0       0       0       0       0       0       0       0       
      +0       0       0       0       0
  2862 ;;Total ram usage:        0 bytes
  2863 ;; Hardware stack levels used: 1
  2864 ;; Hardware stack levels required when called: 9
  2865 ;; This function calls:
  2866 ;;		_I2C1_CallbackRegister
  2867 ;;		_I2C1_InterruptsEnable
  2868 ;; This function is called by:
  2869 ;;		_SYSTEM_Initialize
  2870 ;; This function uses a non-reentrant model
  2871 ;;
  2872                           
  2873                           	psect	text17
  2874   000A04                     __ptext17:
  2875                           	callstack 0
  2876   000A04                     _I2C1_Initialize:
  2877                           	callstack 20
  2878   000A04                     
  2879                           ;mcc_generated_files/i2c_host/src/i2c1.c: 94:     I2C1CON0 = 0x4;
  2880   000A04  0E04               	movlw	4
  2881   000A06  013D               	movlb	61	; () banked
  2882   000A08  6F73               	movwf	115,b	;volatile
  2883                           
  2884                           ;mcc_generated_files/i2c_host/src/i2c1.c: 96:     I2C1CON1 = 0x80;
  2885   000A0A  0E80               	movlw	128
  2886   000A0C  6F74               	movwf	116,b	;volatile
  2887                           
  2888                           ;mcc_generated_files/i2c_host/src/i2c1.c: 98:     I2C1CON2 = 0x8;
  2889   000A0E  0E08               	movlw	8
  2890   000A10  6F75               	movwf	117,b	;volatile
  2891                           
  2892                           ;mcc_generated_files/i2c_host/src/i2c1.c: 100:     I2C1CLK = 0x1;
  2893   000A12  0E01               	movlw	1
  2894   000A14  6F7B               	movwf	123,b	;volatile
  2895                           
  2896                           ;mcc_generated_files/i2c_host/src/i2c1.c: 102:     I2C1PIR = 0x0;
  2897   000A16  0E00               	movlw	0
  2898   000A18  6F79               	movwf	121,b	;volatile
  2899                           
  2900                           ;mcc_generated_files/i2c_host/src/i2c1.c: 104:     I2C1PIE = 0x0;
  2901   000A1A  0E00               	movlw	0
  2902   000A1C  6F7A               	movwf	122,b	;volatile
  2903                           
  2904                           ;mcc_generated_files/i2c_host/src/i2c1.c: 106:     I2C1ERR = 0x0;
  2905   000A1E  0E00               	movlw	0
  2906   000A20  6F76               	movwf	118,b	;volatile
  2907                           
  2908                           ;mcc_generated_files/i2c_host/src/i2c1.c: 108:     I2C1CNT = 0x0;
  2909   000A22  0E00               	movlw	0
  2910   000A24  6F6C               	movwf	108,b	;volatile
  2911                           
  2912                           ;mcc_generated_files/i2c_host/src/i2c1.c: 110:     RC3I2C = 0x51;
  2913   000A26  0E51               	movlw	81
  2914   000A28  013A               	movlb	58	; () banked
  2915   000A2A  6F6A               	movwf	106,b	;volatile
  2916                           
  2917                           ;mcc_generated_files/i2c_host/src/i2c1.c: 112:     RC4I2C = 0x51;
  2918   000A2C  0E51               	movlw	81
  2919   000A2E  6F6B               	movwf	107,b	;volatile
  2920   000A30                     
  2921                           ; BSR set to: 58
  2922                           ;mcc_generated_files/i2c_host/src/i2c1.c: 113:     I2C1_InterruptsEnable();
  2923   000A30  ECE4  F007         	call	_I2C1_InterruptsEnable	;wreg free
  2924   000A34                     
  2925                           ;mcc_generated_files/i2c_host/src/i2c1.c: 117:     I2C1PIEbits.SCIE = 0;
  2926   000A34  013D               	movlb	61	; () banked
  2927   000A36  917A               	bcf	122,0,b	;volatile
  2928   000A38                     
  2929                           ; BSR set to: 61
  2930                           ;mcc_generated_files/i2c_host/src/i2c1.c: 118:     I2C1PIEbits.PCIE = 0;
  2931   000A38  957A               	bcf	122,2,b	;volatile
  2932   000A3A                     
  2933                           ; BSR set to: 61
  2934                           ;mcc_generated_files/i2c_host/src/i2c1.c: 119:     I2C1CON0bits.EN = 1;
  2935   000A3A  8F73               	bsf	115,7,b	;volatile
  2936   000A3C                     
  2937                           ; BSR set to: 61
  2938                           ;mcc_generated_files/i2c_host/src/i2c1.c: 120:     _delay((unsigned long)((1)*(64000000/
      +                          4000000.0)));
  2939   000A3C  0E05               	movlw	5
  2940   000A3E                     u2557:
  2941   000A3E  2EE8               	decfsz	wreg,f,c
  2942   000A40  D7FE               	bra	u2557
  2943   000A42  F000               	nop	
  2944   000A44                     
  2945                           ;mcc_generated_files/i2c_host/src/i2c1.c: 121:     __nop();
  2946   000A44  F000               	nop	
  2947   000A46                     
  2948                           ;mcc_generated_files/i2c_host/src/i2c1.c: 122:     __nop();
  2949   000A46  F000               	nop	
  2950   000A48                     
  2951                           ;mcc_generated_files/i2c_host/src/i2c1.c: 123:     __nop();
  2952   000A48  F000               	nop	
  2953   000A4A                     
  2954                           ;mcc_generated_files/i2c_host/src/i2c1.c: 124:     __nop();
  2955   000A4A  F000               	nop	
  2956   000A4C                     
  2957                           ;mcc_generated_files/i2c_host/src/i2c1.c: 125:     __nop();
  2958   000A4C  F000               	nop	
  2959   000A4E                     
  2960                           ;mcc_generated_files/i2c_host/src/i2c1.c: 126:     __nop();
  2961   000A4E  F000               	nop	
  2962   000A50                     
  2963                           ;mcc_generated_files/i2c_host/src/i2c1.c: 127:     I2C1PIRbits.SCIF = 0;
  2964   000A50  013D               	movlb	61	; () banked
  2965   000A52  9179               	bcf	121,0,b	;volatile
  2966   000A54                     
  2967                           ; BSR set to: 61
  2968                           ;mcc_generated_files/i2c_host/src/i2c1.c: 128:     I2C1PIRbits.PCIF = 0;
  2969   000A54  9579               	bcf	121,2,b	;volatile
  2970   000A56                     
  2971                           ; BSR set to: 61
  2972                           ;mcc_generated_files/i2c_host/src/i2c1.c: 129:     I2C1PIEbits.PCIE = 1;
  2973   000A56  857A               	bsf	122,2,b	;volatile
  2974   000A58                     
  2975                           ; BSR set to: 61
  2976                           ;mcc_generated_files/i2c_host/src/i2c1.c: 130:     I2C1_CallbackRegister(I2C1_DefaultCal
      +                          lback);
  2977   000A58  0E7E               	movlw	low _I2C1_DefaultCallback
  2978   000A5A  0101               	movlb	1	; () banked
  2979   000A5C  6FC9               	movwf	I2C1_CallbackRegister@callbackHandler& (0+255),b
  2980   000A5E  0E11               	movlw	high _I2C1_DefaultCallback
  2981   000A60  6FCA               	movwf	(I2C1_CallbackRegister@callbackHandler+1)& (0+255),b
  2982   000A62  EC97  F007         	call	_I2C1_CallbackRegister	;wreg free
  2983   000A66  0012               	return		;funcret
  2984   000A68                     __end_of_I2C1_Initialize:
  2985                           	callstack 0
  2986                           
  2987 ;; *************** function _I2C1_InterruptsEnable *****************
  2988 ;; Defined at:
  2989 ;;		line 448 in file "mcc_generated_files/i2c_host/src/i2c1.c"
  2990 ;; Parameters:    Size  Location     Type
  2991 ;;		None
  2992 ;; Auto vars:     Size  Location     Type
  2993 ;;		None
  2994 ;; Return value:  Size  Location     Type
  2995 ;;                  1    wreg      void 
  2996 ;; Registers used:
  2997 ;;		None
  2998 ;; Tracked objects:
  2999 ;;		On entry : 0/0
  3000 ;;		On exit  : 0/0
  3001 ;;		Unchanged: 0/0
  3002 ;; Data sizes:     COMRAM   BANK0   BANK1   BANK2   BANK3   BANK4   BANK5   BANK6   BANK7   BANK8   BANK9  BANK10  BANK1
      +1  BANK12  BANK13  BANK14  BANK15
  3003 ;;      Params:         0       0       0       0       0       0       0       0       0       0       0       0       
      +0       0       0       0       0
  3004 ;;      Locals:         0       0       0       0       0       0       0       0       0       0       0       0       
      +0       0       0       0       0
  3005 ;;      Temps:          0       0       0       0       0       0       0       0       0       0       0       0       
      +0       0       0       0       0
  3006 ;;      Totals:         0       0       0       0       0       0       0       0       0       0       0       0       
      +0       0       0       0       0
  3007 ;;Total ram usage:        0 bytes
  3008 ;; Hardware stack levels used: 1
  3009 ;; Hardware stack levels required when called: 8
  3010 ;; This function calls:
  3011 ;;		Nothing
  3012 ;; This function is called by:
  3013 ;;		_I2C1_Initialize
  3014 ;; This function uses a non-reentrant model
  3015 ;;
  3016                           
  3017                           	psect	text18
  3018   000FC8                     __ptext18:
  3019                           	callstack 0
  3020   000FC8                     _I2C1_InterruptsEnable:
  3021                           	callstack 20
  3022   000FC8                     
  3023                           ;mcc_generated_files/i2c_host/src/i2c1.c: 450:     PIE3bits.I2C1IE = 1;
  3024   000FC8  0139               	movlb	57	; () banked
  3025   000FCA  8393               	bsf	147,1,b	;volatile
  3026                           
  3027                           ;mcc_generated_files/i2c_host/src/i2c1.c: 451:     PIE3bits.I2C1EIE = 1;
  3028   000FCC  8593               	bsf	147,2,b	;volatile
  3029                           
  3030                           ;mcc_generated_files/i2c_host/src/i2c1.c: 452:     PIE2bits.I2C1RXIE = 1;
  3031   000FCE  8F92               	bsf	146,7,b	;volatile
  3032                           
  3033                           ;mcc_generated_files/i2c_host/src/i2c1.c: 453:     PIE3bits.I2C1TXIE = 1;
  3034   000FD0  8193               	bsf	147,0,b	;volatile
  3035                           
  3036                           ;mcc_generated_files/i2c_host/src/i2c1.c: 455:     I2C1PIEbits.PCIE = 1;
  3037   000FD2  013D               	movlb	61	; () banked
  3038   000FD4  857A               	bsf	122,2,b	;volatile
  3039                           
  3040                           ;mcc_generated_files/i2c_host/src/i2c1.c: 456:     I2C1PIEbits.RSCIE = 1;
  3041   000FD6  837A               	bsf	122,1,b	;volatile
  3042                           
  3043                           ;mcc_generated_files/i2c_host/src/i2c1.c: 457:     I2C1PIEbits.CNTIE = 1;
  3044   000FD8  8F7A               	bsf	122,7,b	;volatile
  3045                           
  3046                           ;mcc_generated_files/i2c_host/src/i2c1.c: 458:     I2C1ERRbits.NACKIE = 1;
  3047   000FDA  8176               	bsf	118,0,b	;volatile
  3048   000FDC                     
  3049                           ; BSR set to: 61
  3050   000FDC  0012               	return		;funcret
  3051   000FDE                     __end_of_I2C1_InterruptsEnable:
  3052                           	callstack 0
  3053                           
  3054 ;; *************** function _I2C1_CallbackRegister *****************
  3055 ;; Defined at:
  3056 ;;		line 216 in file "mcc_generated_files/i2c_host/src/i2c1.c"
  3057 ;; Parameters:    Size  Location     Type
  3058 ;;  callbackHand    2    9[BANK1 ] PTR FTN()void 
  3059 ;;		 -> I2C1_DefaultCallback(1), 
  3060 ;; Auto vars:     Size  Location     Type
  3061 ;;		None
  3062 ;; Return value:  Size  Location     Type
  3063 ;;                  1    wreg      void 
  3064 ;; Registers used:
  3065 ;;		wreg, status,2, status,0
  3066 ;; Tracked objects:
  3067 ;;		On entry : 0/0
  3068 ;;		On exit  : 0/0
  3069 ;;		Unchanged: 0/0
  3070 ;; Data sizes:     COMRAM   BANK0   BANK1   BANK2   BANK3   BANK4   BANK5   BANK6   BANK7   BANK8   BANK9  BANK10  BANK1
      +1  BANK12  BANK13  BANK14  BANK15
  3071 ;;      Params:         0       0       2       0       0       0       0       0       0       0       0       0       
      +0       0       0       0       0
  3072 ;;      Locals:         0       0       0       0       0       0       0       0       0       0       0       0       
      +0       0       0       0       0
  3073 ;;      Temps:          0       0       0       0       0       0       0       0       0       0       0       0       
      +0       0       0       0       0
  3074 ;;      Totals:         0       0       2       0       0       0       0       0       0       0       0       0       
      +0       0       0       0       0
  3075 ;;Total ram usage:        2 bytes
  3076 ;; Hardware stack levels used: 1
  3077 ;; Hardware stack levels required when called: 8
  3078 ;; This function calls:
  3079 ;;		Nothing
  3080 ;; This function is called by:
  3081 ;;		_I2C1_Initialize
  3082 ;;		_I2C1_Deinitialize
  3083 ;; This function uses a non-reentrant model
  3084 ;;
  3085                           
  3086                           	psect	text19
  3087   000F2E                     __ptext19:
  3088                           	callstack 0
  3089   000F2E                     _I2C1_CallbackRegister:
  3090                           	callstack 20
  3091   000F2E                     
  3092                           ;mcc_generated_files/i2c_host/src/i2c1.c: 216: void I2C1_CallbackRegister(void (*callbac
      +                          kHandler)(void));mcc_generated_files/i2c_host/src/i2c1.c: 217: {;mcc_generated_files/i2c
      +                          _host/src/i2c1.c: 218:     if (callbackHandler != ((void*)0))
  3093   000F2E  0101               	movlb	1	; () banked
  3094   000F30  51C9               	movf	I2C1_CallbackRegister@callbackHandler& (0+255),w,b
  3095   000F32  11CA               	iorwf	(I2C1_CallbackRegister@callbackHandler+1)& (0+255),w,b
  3096   000F34  B4D8               	btfsc	status,2,c
  3097   000F36  EF9F  F007         	goto	u2511
  3098   000F3A  EFA1  F007         	goto	u2510
  3099   000F3E                     u2511:
  3100   000F3E  EFA5  F007         	goto	l1412
  3101   000F42                     u2510:
  3102   000F42                     
  3103                           ; BSR set to: 1
  3104                           ;mcc_generated_files/i2c_host/src/i2c1.c: 219:     {;mcc_generated_files/i2c_host/src/i2
      +                          c1.c: 220:         I2C1_Callback = callbackHandler;
  3105   000F42  C1C9  F098         	movff	I2C1_CallbackRegister@callbackHandler,_I2C1_Callback
  3106   000F46  C1CA  F099         	movff	I2C1_CallbackRegister@callbackHandler+1,_I2C1_Callback+1
  3107   000F4A                     l1412:
  3108                           
  3109                           ; BSR set to: 1
  3110   000F4A  0012               	return		;funcret
  3111   000F4C                     __end_of_I2C1_CallbackRegister:
  3112                           	callstack 0
  3113                           
  3114 ;; *************** function _FVR_Initialize *****************
  3115 ;; Defined at:
  3116 ;;		line 43 in file "mcc_generated_files/fvr/src/fvr.c"
  3117 ;; Parameters:    Size  Location     Type
  3118 ;;		None
  3119 ;; Auto vars:     Size  Location     Type
  3120 ;;		None
  3121 ;; Return value:  Size  Location     Type
  3122 ;;                  1    wreg      void 
  3123 ;; Registers used:
  3124 ;;		wreg, status,2
  3125 ;; Tracked objects:
  3126 ;;		On entry : 0/0
  3127 ;;		On exit  : 0/0
  3128 ;;		Unchanged: 0/0
  3129 ;; Data sizes:     COMRAM   BANK0   BANK1   BANK2   BANK3   BANK4   BANK5   BANK6   BANK7   BANK8   BANK9  BANK10  BANK1
      +1  BANK12  BANK13  BANK14  BANK15
  3130 ;;      Params:         0       0       0       0       0       0       0       0       0       0       0       0       
      +0       0       0       0       0
  3131 ;;      Locals:         0       0       0       0       0       0       0       0       0       0       0       0       
      +0       0       0       0       0
  3132 ;;      Temps:          0       0       0       0       0       0       0       0       0       0       0       0       
      +0       0       0       0       0
  3133 ;;      Totals:         0       0       0       0       0       0       0       0       0       0       0       0       
      +0       0       0       0       0
  3134 ;;Total ram usage:        0 bytes
  3135 ;; Hardware stack levels used: 1
  3136 ;; Hardware stack levels required when called: 8
  3137 ;; This function calls:
  3138 ;;		Nothing
  3139 ;; This function is called by:
  3140 ;;		_SYSTEM_Initialize
  3141 ;; This function uses a non-reentrant model
  3142 ;;
  3143                           
  3144                           	psect	text20
  3145   00112C                     __ptext20:
  3146                           	callstack 0
  3147   00112C                     _FVR_Initialize:
  3148                           	callstack 21
  3149   00112C                     
  3150                           ;mcc_generated_files/fvr/src/fvr.c: 46:     FVRCON = 0xC2;
  3151   00112C  0EC2               	movlw	194
  3152   00112E  013E               	movlb	62	; () banked
  3153   001130  6FC1               	movwf	193,b	;volatile
  3154   001132                     
  3155                           ; BSR set to: 62
  3156   001132  0012               	return		;funcret
  3157   001134                     __end_of_FVR_Initialize:
  3158                           	callstack 0
  3159                           
  3160 ;; *************** function _CLOCK_Initialize *****************
  3161 ;; Defined at:
  3162 ;;		line 37 in file "mcc_generated_files/system/src/clock.c"
  3163 ;; Parameters:    Size  Location     Type
  3164 ;;		None
  3165 ;; Auto vars:     Size  Location     Type
  3166 ;;		None
  3167 ;; Return value:  Size  Location     Type
  3168 ;;                  1    wreg      void 
  3169 ;; Registers used:
  3170 ;;		wreg, status,2
  3171 ;; Tracked objects:
  3172 ;;		On entry : 0/0
  3173 ;;		On exit  : 0/0
  3174 ;;		Unchanged: 0/0
  3175 ;; Data sizes:     COMRAM   BANK0   BANK1   BANK2   BANK3   BANK4   BANK5   BANK6   BANK7   BANK8   BANK9  BANK10  BANK1
      +1  BANK12  BANK13  BANK14  BANK15
  3176 ;;      Params:         0       0       0       0       0       0       0       0       0       0       0       0       
      +0       0       0       0       0
  3177 ;;      Locals:         0       0       0       0       0       0       0       0       0       0       0       0       
      +0       0       0       0       0
  3178 ;;      Temps:          0       0       0       0       0       0       0       0       0       0       0       0       
      +0       0       0       0       0
  3179 ;;      Totals:         0       0       0       0       0       0       0       0       0       0       0       0       
      +0       0       0       0       0
  3180 ;;Total ram usage:        0 bytes
  3181 ;; Hardware stack levels used: 1
  3182 ;; Hardware stack levels required when called: 8
  3183 ;; This function calls:
  3184 ;;		Nothing
  3185 ;; This function is called by:
  3186 ;;		_SYSTEM_Initialize
  3187 ;; This function uses a non-reentrant model
  3188 ;;
  3189                           
  3190                           	psect	text21
  3191   000F7E                     __ptext21:
  3192                           	callstack 0
  3193   000F7E                     _CLOCK_Initialize:
  3194                           	callstack 21
  3195   000F7E                     
  3196                           ;mcc_generated_files/system/src/clock.c: 41:     OSCCON1 = 0x60;
  3197   000F7E  0E60               	movlw	96
  3198   000F80  0139               	movlb	57	; () banked
  3199   000F82  6FD9               	movwf	217,b	;volatile
  3200                           
  3201                           ;mcc_generated_files/system/src/clock.c: 43:     OSCCON3 = 0x0;
  3202   000F84  0E00               	movlw	0
  3203   000F86  6FDB               	movwf	219,b	;volatile
  3204                           
  3205                           ;mcc_generated_files/system/src/clock.c: 45:     OSCEN = 0x0;
  3206   000F88  0E00               	movlw	0
  3207   000F8A  6FDD               	movwf	221,b	;volatile
  3208                           
  3209                           ;mcc_generated_files/system/src/clock.c: 47:     OSCFRQ = 0x8;
  3210   000F8C  0E08               	movlw	8
  3211   000F8E  6FDF               	movwf	223,b	;volatile
  3212                           
  3213                           ;mcc_generated_files/system/src/clock.c: 49:     OSCTUNE = 0x0;
  3214   000F90  0E00               	movlw	0
  3215   000F92  6FDE               	movwf	222,b	;volatile
  3216   000F94                     
  3217                           ; BSR set to: 57
  3218   000F94  0012               	return		;funcret
  3219   000F96                     __end_of_CLOCK_Initialize:
  3220                           	callstack 0
  3221                           
  3222 ;; *************** function _ADCC_Initialize *****************
  3223 ;; Defined at:
  3224 ;;		line 47 in file "mcc_generated_files/adc/src/adcc.c"
  3225 ;; Parameters:    Size  Location     Type
  3226 ;;		None
  3227 ;; Auto vars:     Size  Location     Type
  3228 ;;		None
  3229 ;; Return value:  Size  Location     Type
  3230 ;;                  1    wreg      void 
  3231 ;; Registers used:
  3232 ;;		wreg, status,2, status,0, cstack
  3233 ;; Tracked objects:
  3234 ;;		On entry : 0/0
  3235 ;;		On exit  : 0/0
  3236 ;;		Unchanged: 0/0
  3237 ;; Data sizes:     COMRAM   BANK0   BANK1   BANK2   BANK3   BANK4   BANK5   BANK6   BANK7   BANK8   BANK9  BANK10  BANK1
      +1  BANK12  BANK13  BANK14  BANK15
  3238 ;;      Params:         0       0       0       0       0       0       0       0       0       0       0       0       
      +0       0       0       0       0
  3239 ;;      Locals:         0       0       0       0       0       0       0       0       0       0       0       0       
      +0       0       0       0       0
  3240 ;;      Temps:          0       0       0       0       0       0       0       0       0       0       0       0       
      +0       0       0       0       0
  3241 ;;      Totals:         0       0       0       0       0       0       0       0       0       0       0       0       
      +0       0       0       0       0
  3242 ;;Total ram usage:        0 bytes
  3243 ;; Hardware stack levels used: 1
  3244 ;; Hardware stack levels required when called: 9
  3245 ;; This function calls:
  3246 ;;		_ADCC_SetADIInterruptHandler
  3247 ;; This function is called by:
  3248 ;;		_SYSTEM_Initialize
  3249 ;; This function uses a non-reentrant model
  3250 ;;
  3251                           
  3252                           	psect	text22
  3253   000926                     __ptext22:
  3254                           	callstack 0
  3255   000926                     _ADCC_Initialize:
  3256                           	callstack 20
  3257   000926                     
  3258                           ;mcc_generated_files/adc/src/adcc.c: 51:     ADLTHL = 0x0;
  3259   000926  0E00               	movlw	0
  3260   000928  013E               	movlb	62	; () banked
  3261   00092A  6FDE               	movwf	222,b	;volatile
  3262                           
  3263                           ;mcc_generated_files/adc/src/adcc.c: 53:     ADLTHH = 0x0;
  3264   00092C  0E00               	movlw	0
  3265   00092E  6FDF               	movwf	223,b	;volatile
  3266                           
  3267                           ;mcc_generated_files/adc/src/adcc.c: 55:     ADUTHL = 0x0;
  3268   000930  0E00               	movlw	0
  3269   000932  6FE0               	movwf	224,b	;volatile
  3270                           
  3271                           ;mcc_generated_files/adc/src/adcc.c: 57:     ADUTHH = 0x0;
  3272   000934  0E00               	movlw	0
  3273   000936  6FE1               	movwf	225,b	;volatile
  3274                           
  3275                           ;mcc_generated_files/adc/src/adcc.c: 59:     ADSTPTL = 0x0;
  3276   000938  0E00               	movlw	0
  3277   00093A  6FE4               	movwf	228,b	;volatile
  3278                           
  3279                           ;mcc_generated_files/adc/src/adcc.c: 61:     ADSTPTH = 0x0;
  3280   00093C  0E00               	movlw	0
  3281   00093E  6FE5               	movwf	229,b	;volatile
  3282                           
  3283                           ;mcc_generated_files/adc/src/adcc.c: 63:     ADACCU = 0x0;
  3284   000940  0E00               	movlw	0
  3285   000942  6FEA               	movwf	234,b	;volatile
  3286                           
  3287                           ;mcc_generated_files/adc/src/adcc.c: 65:     ADRPT = 0x0;
  3288   000944  0E00               	movlw	0
  3289   000946  6FEC               	movwf	236,b	;volatile
  3290                           
  3291                           ;mcc_generated_files/adc/src/adcc.c: 67:     ADPCH = 0x0;
  3292   000948  0E00               	movlw	0
  3293   00094A  6FF1               	movwf	241,b	;volatile
  3294                           
  3295                           ;mcc_generated_files/adc/src/adcc.c: 69:     ADACQL = 0x1;
  3296   00094C  0E01               	movlw	1
  3297   00094E  6FF3               	movwf	243,b	;volatile
  3298                           
  3299                           ;mcc_generated_files/adc/src/adcc.c: 71:     ADACQH = 0x0;
  3300   000950  0E00               	movlw	0
  3301   000952  6FF4               	movwf	244,b	;volatile
  3302                           
  3303                           ;mcc_generated_files/adc/src/adcc.c: 73:     ADCAP = 0x0;
  3304   000954  0E00               	movlw	0
  3305   000956  6FF5               	movwf	245,b	;volatile
  3306                           
  3307                           ;mcc_generated_files/adc/src/adcc.c: 75:     ADPREL = 0x0;
  3308   000958  0E00               	movlw	0
  3309   00095A  6FF6               	movwf	246,b	;volatile
  3310                           
  3311                           ;mcc_generated_files/adc/src/adcc.c: 77:     ADPREH = 0x0;
  3312   00095C  0E00               	movlw	0
  3313   00095E  6FF7               	movwf	247,b	;volatile
  3314                           
  3315                           ;mcc_generated_files/adc/src/adcc.c: 79:     ADCON1 = 0x0;
  3316   000960  0E00               	movlw	0
  3317   000962  6FF9               	movwf	249,b	;volatile
  3318                           
  3319                           ;mcc_generated_files/adc/src/adcc.c: 81:     ADCON2 = 0x10;
  3320   000964  0E10               	movlw	16
  3321   000966  6FFA               	movwf	250,b	;volatile
  3322                           
  3323                           ;mcc_generated_files/adc/src/adcc.c: 83:     ADCON3 = 0x0;
  3324   000968  0E00               	movlw	0
  3325   00096A  6FFB               	movwf	251,b	;volatile
  3326                           
  3327                           ;mcc_generated_files/adc/src/adcc.c: 85:     ADSTAT = 0x0;
  3328   00096C  0E00               	movlw	0
  3329   00096E  6FFC               	movwf	252,b	;volatile
  3330                           
  3331                           ;mcc_generated_files/adc/src/adcc.c: 87:     ADREF = 0x3;
  3332   000970  0E03               	movlw	3
  3333   000972  6FFD               	movwf	253,b	;volatile
  3334                           
  3335                           ;mcc_generated_files/adc/src/adcc.c: 89:     ADACT = 0x0;
  3336   000974  0E00               	movlw	0
  3337   000976  6FFE               	movwf	254,b	;volatile
  3338                           
  3339                           ;mcc_generated_files/adc/src/adcc.c: 91:     ADCLK = 0x1F;
  3340   000978  0E1F               	movlw	31
  3341   00097A  6FFF               	movwf	255,b	;volatile
  3342                           
  3343                           ;mcc_generated_files/adc/src/adcc.c: 93:     ADCON0 = 0x84;
  3344   00097C  0E84               	movlw	132
  3345   00097E  6FF8               	movwf	248,b	;volatile
  3346   000980                     
  3347                           ; BSR set to: 62
  3348                           ;mcc_generated_files/adc/src/adcc.c: 96:     PIR1bits.ADIF = 0;
  3349   000980  0139               	movlb	57	; () banked
  3350   000982  95A1               	bcf	161,2,b	;volatile
  3351   000984                     
  3352                           ; BSR set to: 57
  3353                           ;mcc_generated_files/adc/src/adcc.c: 98:     ADCC_SetADIInterruptHandler(ADCC_DefaultADI
      +                          _ISR);
  3354   000984  0E6C               	movlw	low _ADCC_DefaultADI_ISR
  3355   000986  0101               	movlb	1	; () banked
  3356   000988  6FC9               	movwf	ADCC_SetADIInterruptHandler@InterruptHandler& (0+255),b
  3357   00098A  0E11               	movlw	high _ADCC_DefaultADI_ISR
  3358   00098C  6FCA               	movwf	(ADCC_SetADIInterruptHandler@InterruptHandler+1)& (0+255),b
  3359   00098E  EC73  F008         	call	_ADCC_SetADIInterruptHandler	;wreg free
  3360   000992                     
  3361                           ;mcc_generated_files/adc/src/adcc.c: 100:     PIE1bits.ADIE = 1;
  3362   000992  0139               	movlb	57	; () banked
  3363   000994  8591               	bsf	145,2,b	;volatile
  3364   000996                     
  3365                           ; BSR set to: 57
  3366                           ;mcc_generated_files/adc/src/adcc.c: 103:     PIR1bits.ADTIF = 0;
  3367   000996  97A1               	bcf	161,3,b	;volatile
  3368   000998                     
  3369                           ; BSR set to: 57
  3370   000998  0012               	return		;funcret
  3371   00099A                     __end_of_ADCC_Initialize:
  3372                           	callstack 0
  3373                           
  3374 ;; *************** function _ADCC_SetADIInterruptHandler *****************
  3375 ;; Defined at:
  3376 ;;		line 297 in file "mcc_generated_files/adc/src/adcc.c"
  3377 ;; Parameters:    Size  Location     Type
  3378 ;;  InterruptHan    2    9[BANK1 ] PTR FTN()void 
  3379 ;;		 -> ADC_int(1), ADCC_DefaultADI_ISR(1), 
  3380 ;; Auto vars:     Size  Location     Type
  3381 ;;		None
  3382 ;; Return value:  Size  Location     Type
  3383 ;;                  1    wreg      void 
  3384 ;; Registers used:
  3385 ;;		wreg, status,2, status,0
  3386 ;; Tracked objects:
  3387 ;;		On entry : 0/0
  3388 ;;		On exit  : 0/0
  3389 ;;		Unchanged: 0/0
  3390 ;; Data sizes:     COMRAM   BANK0   BANK1   BANK2   BANK3   BANK4   BANK5   BANK6   BANK7   BANK8   BANK9  BANK10  BANK1
      +1  BANK12  BANK13  BANK14  BANK15
  3391 ;;      Params:         0       0       2       0       0       0       0       0       0       0       0       0       
      +0       0       0       0       0
  3392 ;;      Locals:         0       0       0       0       0       0       0       0       0       0       0       0       
      +0       0       0       0       0
  3393 ;;      Temps:          0       0       0       0       0       0       0       0       0       0       0       0       
      +0       0       0       0       0
  3394 ;;      Totals:         0       0       2       0       0       0       0       0       0       0       0       0       
      +0       0       0       0       0
  3395 ;;Total ram usage:        2 bytes
  3396 ;; Hardware stack levels used: 1
  3397 ;; Hardware stack levels required when called: 8
  3398 ;; This function calls:
  3399 ;;		Nothing
  3400 ;; This function is called by:
  3401 ;;		_ADCC_Initialize
  3402 ;;		_main
  3403 ;; This function uses a non-reentrant model
  3404 ;;
  3405                           
  3406                           	psect	text23
  3407   0010E6                     __ptext23:
  3408                           	callstack 0
  3409   0010E6                     _ADCC_SetADIInterruptHandler:
  3410                           	callstack 20
  3411   0010E6                     
  3412                           ;mcc_generated_files/adc/src/adcc.c: 297: void ADCC_SetADIInterruptHandler(void (* Inter
      +                          ruptHandler)(void));mcc_generated_files/adc/src/adcc.c: 298: {;mcc_generated_files/adc/s
      +                          rc/adcc.c: 299:     ADCC_ADI_InterruptHandler = InterruptHandler;
  3413   0010E6  C1C9  F0F7         	movff	ADCC_SetADIInterruptHandler@InterruptHandler,_ADCC_ADI_InterruptHandler
  3414   0010EA  C1CA  F0F8         	movff	ADCC_SetADIInterruptHandler@InterruptHandler+1,_ADCC_ADI_InterruptHandler+1
  3415   0010EE  0012               	return		;funcret
  3416   0010F0                     __end_of_ADCC_SetADIInterruptHandler:
  3417                           	callstack 0
  3418                           
  3419 ;; *************** function _SPI1_Open *****************
  3420 ;; Defined at:
  3421 ;;		line 85 in file "mcc_generated_files/spi/src/spi1.c"
  3422 ;; Parameters:    Size  Location     Type
  3423 ;;		None
  3424 ;; Auto vars:     Size  Location     Type
  3425 ;;		None
  3426 ;; Return value:  Size  Location     Type
  3427 ;;                  1    wreg      _Bool 
  3428 ;; Registers used:
  3429 ;;		wreg, status,2
  3430 ;; Tracked objects:
  3431 ;;		On entry : 0/0
  3432 ;;		On exit  : 0/0
  3433 ;;		Unchanged: 0/0
  3434 ;; Data sizes:     COMRAM   BANK0   BANK1   BANK2   BANK3   BANK4   BANK5   BANK6   BANK7   BANK8   BANK9  BANK10  BANK1
      +1  BANK12  BANK13  BANK14  BANK15
  3435 ;;      Params:         0       0       0       0       0       0       0       0       0       0       0       0       
      +0       0       0       0       0
  3436 ;;      Locals:         0       0       0       0       0       0       0       0       0       0       0       0       
      +0       0       0       0       0
  3437 ;;      Temps:          0       0       0       0       0       0       0       0       0       0       0       0       
      +0       0       0       0       0
  3438 ;;      Totals:         0       0       0       0       0       0       0       0       0       0       0       0       
      +0       0       0       0       0
  3439 ;;Total ram usage:        0 bytes
  3440 ;; Hardware stack levels used: 1
  3441 ;; Hardware stack levels required when called: 8
  3442 ;; This function calls:
  3443 ;;		Nothing
  3444 ;; This function is called by:
  3445 ;;		_main
  3446 ;; This function uses a non-reentrant model
  3447 ;;
  3448                           
  3449                           	psect	text24
  3450   000E36                     __ptext24:
  3451                           	callstack 0
  3452   000E36                     _SPI1_Open:
  3453                           	callstack 22
  3454   000E36                     
  3455                           ;mcc_generated_files/spi/src/spi1.c: 87:     if(!SPI1CON0bits.EN)
  3456   000E36  013D               	movlb	61	; () banked
  3457   000E38  BF14               	btfsc	20,7,b	;volatile
  3458   000E3A  EF21  F007         	goto	u1211
  3459   000E3E  EF23  F007         	goto	u1210
  3460   000E42                     u1211:
  3461   000E42  EF2F  F007         	goto	l272
  3462   000E46                     u1210:
  3463   000E46                     
  3464                           ; BSR set to: 61
  3465                           ;mcc_generated_files/spi/src/spi1.c: 88:     {;mcc_generated_files/spi/src/spi1.c: 89:  
      +                                 SPI1CON0 = 0b10000011;
  3466   000E46  0E83               	movlw	131
  3467   000E48  6F14               	movwf	20,b	;volatile
  3468                           
  3469                           ;mcc_generated_files/spi/src/spi1.c: 90:         SPI1CON1 = 0x40;
  3470   000E4A  0E40               	movlw	64
  3471   000E4C  6F15               	movwf	21,b	;volatile
  3472                           
  3473                           ;mcc_generated_files/spi/src/spi1.c: 91:         SPI1CON2 = 0b00000010;
  3474   000E4E  0E02               	movlw	2
  3475   000E50  6F16               	movwf	22,b	;volatile
  3476                           
  3477                           ;mcc_generated_files/spi/src/spi1.c: 92:         SPI1CLK = 0x00;
  3478   000E52  0E00               	movlw	0
  3479   000E54  6F1C               	movwf	28,b	;volatile
  3480                           
  3481                           ;mcc_generated_files/spi/src/spi1.c: 93:         SPI1BAUD = 0x18;
  3482   000E56  0E18               	movlw	24
  3483   000E58  6F19               	movwf	25,b	;volatile
  3484   000E5A                     
  3485                           ; BSR set to: 61
  3486                           ;mcc_generated_files/spi/src/spi1.c: 94:         TRISCbits.TRISC3 = 0;
  3487   000E5A  96C4               	bcf	196,3,c	;volatile
  3488   000E5C                     
  3489                           ; BSR set to: 61
  3490                           ;mcc_generated_files/spi/src/spi1.c: 95:         SPI1CON0bits.EN = 1;
  3491   000E5C  8F14               	bsf	20,7,b	;volatile
  3492   000E5E                     l272:
  3493                           
  3494                           ; BSR set to: 61
  3495   000E5E  0012               	return		;funcret
  3496   000E60                     __end_of_SPI1_Open:
  3497                           	callstack 0
  3498                           
  3499 ;; *************** function _ADCC_ISR *****************
  3500 ;; Defined at:
  3501 ;;		line 286 in file "mcc_generated_files/adc/src/adcc.c"
  3502 ;; Parameters:    Size  Location     Type
  3503 ;;		None
  3504 ;; Auto vars:     Size  Location     Type
  3505 ;;		None
  3506 ;; Return value:  Size  Location     Type
  3507 ;;                  1    wreg      void 
  3508 ;; Registers used:
  3509 ;;		wreg, fsr2l, fsr2h, status,2, status,0, pcl, pclath, pclatu, tosl, tblptrl, tblptrh, tblptru, cstack
  3510 ;; Tracked objects:
  3511 ;;		On entry : 0/0
  3512 ;;		On exit  : 0/0
  3513 ;;		Unchanged: 0/0
  3514 ;; Data sizes:     COMRAM   BANK0   BANK1   BANK2   BANK3   BANK4   BANK5   BANK6   BANK7   BANK8   BANK9  BANK10  BANK1
      +1  BANK12  BANK13  BANK14  BANK15
  3515 ;;      Params:         0       0       0       0       0       0       0       0       0       0       0       0       
      +0       0       0       0       0
  3516 ;;      Locals:         0       0       0       0       0       0       0       0       0       0       0       0       
      +0       0       0       0       0
  3517 ;;      Temps:          0       7       0       0       0       0       0       0       0       0       0       0       
      +0       0       0       0       0
  3518 ;;      Totals:         0       7       0       0       0       0       0       0       0       0       0       0       
      +0       0       0       0       0
  3519 ;;Total ram usage:        7 bytes
  3520 ;; Hardware stack levels used: 1
  3521 ;; Hardware stack levels required when called: 7
  3522 ;; This function calls:
  3523 ;;		Absolute function
  3524 ;;		_ADCC_DefaultADI_ISR
  3525 ;;		_ADC_int
  3526 ;; This function is called by:
  3527 ;;		Interrupt level 1
  3528 ;; This function uses a non-reentrant model
  3529 ;;
  3530                           
  3531                           	psect	text25
  3532   0008A0                     __ptext25:
  3533                           	callstack 0
  3534   0008A0                     _ADCC_ISR:
  3535                           	callstack 20
  3536                           
  3537                           ; BSR set to: 61
  3538                           ;incstack = 0
  3539   0008A0  006F FF60  F0EF    	movff	status,??_ADCC_ISR
  3540   0008A6  006F FFE8  F0F0    	movff	pclath,??_ADCC_ISR+1
  3541   0008AC  006F FFEC  F0F1    	movff	pclatu,??_ADCC_ISR+2
  3542   0008B2  006F FFD8  F0F2    	movff	tblptrl,??_ADCC_ISR+3
  3543   0008B8  006F FFDC  F0F3    	movff	tblptrh,??_ADCC_ISR+4
  3544   0008BE  006F FFE0  F0F4    	movff	tblptru,??_ADCC_ISR+5
  3545   0008C4  006F FFD4  F0F5    	movff	tablat,??_ADCC_ISR+6
  3546   0008CA                     
  3547                           ;mcc_generated_files/adc/src/adcc.c: 289:     PIR1bits.ADIF = 0;
  3548   0008CA  0139               	movlb	57	; () banked
  3549   0008CC  95A1               	bcf	161,2,b	;volatile
  3550   0008CE                     
  3551                           ; BSR set to: 57
  3552                           ;mcc_generated_files/adc/src/adcc.c: 291:     if (ADCC_ADI_InterruptHandler != ((void*)0
      +                          ))
  3553   0008CE  0100               	movlb	0	; () banked
  3554   0008D0  51F7               	movf	_ADCC_ADI_InterruptHandler& (0+255),w,b
  3555   0008D2  11F8               	iorwf	(_ADCC_ADI_InterruptHandler+1)& (0+255),w,b
  3556   0008D4  B4D8               	btfsc	status,2,c
  3557   0008D6  EF6F  F004         	goto	i1u253_21
  3558   0008DA  EF71  F004         	goto	i1u253_20
  3559   0008DE                     i1u253_21:
  3560   0008DE  EF7D  F004         	goto	i1l176
  3561   0008E2                     i1u253_20:
  3562   0008E2                     
  3563                           ; BSR set to: 0
  3564                           ;mcc_generated_files/adc/src/adcc.c: 292:     {;mcc_generated_files/adc/src/adcc.c: 293:
      +                                   ADCC_ADI_InterruptHandler();
  3565   0008E2  D802               	call	i1u254_28
  3566   0008E4  EF7D  F004         	goto	i1u254_29
  3567   0008E8                     i1u254_28:
  3568   0008E8  0005               	push	
  3569   0008EA  6EFA               	movwf	pclath,c
  3570   0008EC  51F7               	movf	_ADCC_ADI_InterruptHandler& (0+255),w,b
  3571   0008EE  6EFD               	movwf	tosl,c
  3572   0008F0  51F8               	movf	(_ADCC_ADI_InterruptHandler+1)& (0+255),w,b
  3573   0008F2  6EFE               	movwf	tosh,c
  3574   0008F4  6AFF               	clrf	tosu,c
  3575   0008F6  50FA               	movf	pclath,w,c
  3576   0008F8  0012               	return		;indir
  3577   0008FA                     i1u254_29:
  3578   0008FA                     i1l176:
  3579   0008FA  0060  F3D7  FFF5   	movff	??_ADCC_ISR+6,tablat
  3580   000900  0060  F3D3  FFF8   	movff	??_ADCC_ISR+5,tblptru
  3581   000906  0060  F3CF  FFF7   	movff	??_ADCC_ISR+4,tblptrh
  3582   00090C  0060  F3CB  FFF6   	movff	??_ADCC_ISR+3,tblptrl
  3583   000912  0060  F3C7  FFFB   	movff	??_ADCC_ISR+2,pclatu
  3584   000918  0060  F3C3  FFFA   	movff	??_ADCC_ISR+1,pclath
  3585   00091E  0060  F3BF  FFD8   	movff	??_ADCC_ISR,status
  3586   000924  0011               	retfie		f
  3587   000926                     __end_of_ADCC_ISR:
  3588                           	callstack 0
  3589                           
  3590 ;; *************** function _ADCC_DefaultADI_ISR *****************
  3591 ;; Defined at:
  3592 ;;		line 302 in file "mcc_generated_files/adc/src/adcc.c"
  3593 ;; Parameters:    Size  Location     Type
  3594 ;;		None
  3595 ;; Auto vars:     Size  Location     Type
  3596 ;;		None
  3597 ;; Return value:  Size  Location     Type
  3598 ;;                  1    wreg      void 
  3599 ;; Registers used:
  3600 ;;		None
  3601 ;; Tracked objects:
  3602 ;;		On entry : 0/0
  3603 ;;		On exit  : 0/0
  3604 ;;		Unchanged: 0/0
  3605 ;; Data sizes:     COMRAM   BANK0   BANK1   BANK2   BANK3   BANK4   BANK5   BANK6   BANK7   BANK8   BANK9  BANK10  BANK1
      +1  BANK12  BANK13  BANK14  BANK15
  3606 ;;      Params:         0       0       0       0       0       0       0       0       0       0       0       0       
      +0       0       0       0       0
  3607 ;;      Locals:         0       0       0       0       0       0       0       0       0       0       0       0       
      +0       0       0       0       0
  3608 ;;      Temps:          0       0       0       0       0       0       0       0       0       0       0       0       
      +0       0       0       0       0
  3609 ;;      Totals:         0       0       0       0       0       0       0       0       0       0       0       0       
      +0       0       0       0       0
  3610 ;;Total ram usage:        0 bytes
  3611 ;; Hardware stack levels used: 1
  3612 ;; Hardware stack levels required when called: 3
  3613 ;; This function calls:
  3614 ;;		Nothing
  3615 ;; This function is called by:
  3616 ;;		_ADCC_Initialize
  3617 ;;		_ADCC_ISR
  3618 ;; This function uses a non-reentrant model
  3619 ;;
  3620                           
  3621                           	psect	text26
  3622   00116C                     __ptext26:
  3623                           	callstack 0
  3624   00116C                     _ADCC_DefaultADI_ISR:
  3625                           	callstack 23
  3626   00116C  0012               	return		;funcret
  3627   00116E                     __end_of_ADCC_DefaultADI_ISR:
  3628                           	callstack 0
  3629                           
  3630 ;; *************** function _ADC_int *****************
  3631 ;; Defined at:
  3632 ;;		line 12 in file "ADC_int.c"
  3633 ;; Parameters:    Size  Location     Type
  3634 ;;		None
  3635 ;; Auto vars:     Size  Location     Type
  3636 ;;  result          2   50[COMRAM] int 
  3637 ;; Return value:  Size  Location     Type
  3638 ;;                  1    wreg      void 
  3639 ;; Registers used:
  3640 ;;		wreg, fsr2l, fsr2h, status,2, status,0, tblptrl, tblptrh, tblptru, cstack
  3641 ;; Tracked objects:
  3642 ;;		On entry : 0/0
  3643 ;;		On exit  : 0/0
  3644 ;;		Unchanged: 0/0
  3645 ;; Data sizes:     COMRAM   BANK0   BANK1   BANK2   BANK3   BANK4   BANK5   BANK6   BANK7   BANK8   BANK9  BANK10  BANK1
      +1  BANK12  BANK13  BANK14  BANK15
  3646 ;;      Params:         0       0       0       0       0       0       0       0       0       0       0       0       
      +0       0       0       0       0
  3647 ;;      Locals:         2       0       0       0       0       0       0       0       0       0       0       0       
      +0       0       0       0       0
  3648 ;;      Temps:          3       0       0       0       0       0       0       0       0       0       0       0       
      +0       0       0       0       0
  3649 ;;      Totals:         5       0       0       0       0       0       0       0       0       0       0       0       
      +0       0       0       0       0
  3650 ;;Total ram usage:        5 bytes
  3651 ;; Hardware stack levels used: 1
  3652 ;; Hardware stack levels required when called: 6
  3653 ;; This function calls:
  3654 ;;		_ADCC_StartConversion
  3655 ;;		_FilterFIR
  3656 ;;		_SPI1_ByteWrite
  3657 ;;		_Timer2_Start
  3658 ;;		_UART1_Write
  3659 ;; This function is called by:
  3660 ;;		_main
  3661 ;;		_ADCC_ISR
  3662 ;; This function uses a non-reentrant model
  3663 ;;
  3664                           
  3665                           	psect	text27
  3666   00030E                     __ptext27:
  3667                           	callstack 0
  3668   00030E                     _ADC_int:
  3669                           	callstack 20
  3670   00030E                     
  3671                           ;ADC_int.c: 15:     if(ADPCH == 0)
  3672   00030E  013E               	movlb	62	; () banked
  3673   000310  51F1               	movf	241,w,b	;volatile
  3674   000312  A4D8               	btfss	status,2,c
  3675   000314  EF8E  F001         	goto	i1u129_21
  3676   000318  EF90  F001         	goto	i1u129_20
  3677   00031C                     i1u129_21:
  3678   00031C  EFCF  F001         	goto	i1l3896
  3679   000320                     i1u129_20:
  3680   000320                     
  3681                           ; BSR set to: 62
  3682                           ;ADC_int.c: 16:     {;ADC_int.c: 18:         LATEbits.LATE0 = 0;
  3683   000320  90BE               	bcf	190,0,c	;volatile
  3684   000322                     
  3685                           ; BSR set to: 62
  3686                           ;ADC_int.c: 20:         ADCC_StartConversion(channel_ANA0);
  3687   000322  0E00               	movlw	0
  3688   000324  EC4C  F008         	call	_ADCC_StartConversion
  3689   000328                     
  3690                           ;ADC_int.c: 23:         Timer2_Start();
  3691   000328  ECB1  F008         	call	_Timer2_Start	;wreg free
  3692   00032C                     
  3693                           ;ADC_int.c: 24:         SPI1_ByteWrite(0b00110000 | ADRESH);
  3694   00032C  013E               	movlb	62	; () banked
  3695   00032E  51F0               	movf	240,w,b	;volatile
  3696   000330  0930               	iorlw	48
  3697   000332  EC78  F008         	call	_SPI1_ByteWrite
  3698   000336                     
  3699                           ;ADC_int.c: 25:         SPI1_ByteWrite(ADRESL);
  3700   000336  013E               	movlb	62	; () banked
  3701   000338  51EF               	movf	239,w,b	;volatile
  3702   00033A  EC78  F008         	call	_SPI1_ByteWrite
  3703   00033E                     
  3704                           ;ADC_int.c: 28:         UART1_Write(char_hex[ADRESH & 0b1111]);
  3705   00033E  013E               	movlb	62	; () banked
  3706   000340  51F0               	movf	240,w,b	;volatile
  3707   000342  0B0F               	andlw	15
  3708   000344  6E30               	movwf	??_ADC_int^0,c
  3709   000346  6A31               	clrf	(??_ADC_int+1)^0,c
  3710   000348  0EB0               	movlw	low _char_hex
  3711   00034A  2430               	addwf	??_ADC_int^0,w,c
  3712   00034C  6ED9               	movwf	fsr2l,c
  3713   00034E  0E01               	movlw	high _char_hex
  3714   000350  2031               	addwfc	(??_ADC_int+1)^0,w,c
  3715   000352  6EDA               	movwf	fsr2h,c
  3716   000354  50DF               	movf	indf2,w,c
  3717   000356  EC5E  F005         	call	_UART1_Write
  3718   00035A                     
  3719                           ;ADC_int.c: 29:         UART1_Write(char_hex[(ADRESL >> 4) & 0b1111]);
  3720   00035A  013E               	movlb	62	; () banked
  3721   00035C  39EF               	swapf	239,w,b	;volatile
  3722   00035E  0B0F               	andlw	15
  3723   000360  0B0F               	andlw	15
  3724   000362  6E30               	movwf	??_ADC_int^0,c
  3725   000364  6A31               	clrf	(??_ADC_int+1)^0,c
  3726   000366  0EB0               	movlw	low _char_hex
  3727   000368  2430               	addwf	??_ADC_int^0,w,c
  3728   00036A  6ED9               	movwf	fsr2l,c
  3729   00036C  0E01               	movlw	high _char_hex
  3730   00036E  2031               	addwfc	(??_ADC_int+1)^0,w,c
  3731   000370  6EDA               	movwf	fsr2h,c
  3732   000372  50DF               	movf	indf2,w,c
  3733   000374  EC5E  F005         	call	_UART1_Write
  3734   000378                     
  3735                           ;ADC_int.c: 30:         UART1_Write(char_hex[ADRESL & 0b1111]);
  3736   000378  013E               	movlb	62	; () banked
  3737   00037A  51EF               	movf	239,w,b	;volatile
  3738   00037C  0B0F               	andlw	15
  3739   00037E  6E30               	movwf	??_ADC_int^0,c
  3740   000380  6A31               	clrf	(??_ADC_int+1)^0,c
  3741   000382  0EB0               	movlw	low _char_hex
  3742   000384  2430               	addwf	??_ADC_int^0,w,c
  3743   000386  6ED9               	movwf	fsr2l,c
  3744   000388  0E01               	movlw	high _char_hex
  3745   00038A  2031               	addwfc	(??_ADC_int+1)^0,w,c
  3746   00038C  6EDA               	movwf	fsr2h,c
  3747   00038E  50DF               	movf	indf2,w,c
  3748   000390  EC5E  F005         	call	_UART1_Write
  3749   000394                     
  3750                           ;ADC_int.c: 31:         UART1_Write(',');
  3751   000394  0E2C               	movlw	44
  3752   000396  EC5E  F005         	call	_UART1_Write
  3753                           
  3754                           ;ADC_int.c: 33:     }
  3755   00039A  EF25  F002         	goto	i1l1101
  3756   00039E                     i1l3896:
  3757                           
  3758                           ; BSR set to: 62
  3759                           ;ADC_int.c: 35:     {;ADC_int.c: 38:         int result = FilterFIR((ADRESH << 8) + ADRE
      +                          SL);
  3760   00039E  51F0               	movf	240,w,b	;volatile
  3761   0003A0  6E31               	movwf	(??_ADC_int+1)^0,c
  3762   0003A2  6A30               	clrf	??_ADC_int^0,c
  3763   0003A4  51EF               	movf	239,w,b	;volatile
  3764   0003A6  2430               	addwf	??_ADC_int^0,w,c
  3765   0003A8  6E2E               	movwf	FilterFIR@input^0,c
  3766   0003AA  0E00               	movlw	0
  3767   0003AC  2031               	addwfc	(??_ADC_int+1)^0,w,c
  3768   0003AE  6E2F               	movwf	(FilterFIR@input+1)^0,c
  3769   0003B0  EC32  F006         	call	_FilterFIR	;wreg free
  3770   0003B4  C02E  F033         	movff	?_FilterFIR,ADC_int@result
  3771   0003B8  C02F  F034         	movff	?_FilterFIR+1,ADC_int@result+1
  3772   0003BC                     
  3773                           ;ADC_int.c: 39:         LATEbits.LATE0 = 0;
  3774   0003BC  90BE               	bcf	190,0,c	;volatile
  3775   0003BE                     
  3776                           ;ADC_int.c: 41:         Timer2_Start();
  3777   0003BE  ECB1  F008         	call	_Timer2_Start	;wreg free
  3778   0003C2                     
  3779                           ;ADC_int.c: 43:         SPI1_ByteWrite(0b10110000 | (result >> 8));
  3780   0003C2  5034               	movf	(ADC_int@result+1)^0,w,c
  3781   0003C4  09B0               	iorlw	176
  3782   0003C6  EC78  F008         	call	_SPI1_ByteWrite
  3783   0003CA                     
  3784                           ;ADC_int.c: 44:         SPI1_ByteWrite(result & 0b11111111);
  3785   0003CA  5033               	movf	ADC_int@result^0,w,c
  3786   0003CC  EC78  F008         	call	_SPI1_ByteWrite
  3787   0003D0                     
  3788                           ;ADC_int.c: 47:         UART1_Write(char_hex[(result >> 8) & 0b1111]);
  3789   0003D0  C034  F030         	movff	ADC_int@result+1,??_ADC_int
  3790   0003D4  6A31               	clrf	(??_ADC_int+1)^0,c
  3791   0003D6  BE30               	btfsc	??_ADC_int^0,7,c
  3792   0003D8  6831               	setf	(??_ADC_int+1)^0,c
  3793   0003DA  0E0F               	movlw	15
  3794   0003DC  1630               	andwf	??_ADC_int^0,f,c
  3795   0003DE  0E00               	movlw	0
  3796   0003E0  1631               	andwf	(??_ADC_int+1)^0,f,c
  3797   0003E2  0EB0               	movlw	low _char_hex
  3798   0003E4  2430               	addwf	??_ADC_int^0,w,c
  3799   0003E6  6ED9               	movwf	fsr2l,c
  3800   0003E8  0E01               	movlw	high _char_hex
  3801   0003EA  2031               	addwfc	(??_ADC_int+1)^0,w,c
  3802   0003EC  6EDA               	movwf	fsr2h,c
  3803   0003EE  50DF               	movf	indf2,w,c
  3804   0003F0  EC5E  F005         	call	_UART1_Write
  3805   0003F4                     
  3806                           ;ADC_int.c: 48:         UART1_Write(char_hex[(result >> 4) & 0b1111]);
  3807   0003F4  C033  F030         	movff	ADC_int@result,??_ADC_int
  3808   0003F8  C034  F031         	movff	ADC_int@result+1,??_ADC_int+1
  3809   0003FC  0E04               	movlw	4
  3810   0003FE  6E32               	movwf	(??_ADC_int+2)^0,c
  3811   000400                     i1u130_25:
  3812   000400  3431               	rlcf	(??_ADC_int+1)^0,w,c
  3813   000402  3231               	rrcf	(??_ADC_int+1)^0,f,c
  3814   000404  3230               	rrcf	??_ADC_int^0,f,c
  3815   000406  2E32               	decfsz	(??_ADC_int+2)^0,f,c
  3816   000408  EF00  F002         	goto	i1u130_25
  3817   00040C  0E0F               	movlw	15
  3818   00040E  1630               	andwf	??_ADC_int^0,f,c
  3819   000410  0E00               	movlw	0
  3820   000412  1631               	andwf	(??_ADC_int+1)^0,f,c
  3821   000414  0EB0               	movlw	low _char_hex
  3822   000416  2430               	addwf	??_ADC_int^0,w,c
  3823   000418  6ED9               	movwf	fsr2l,c
  3824   00041A  0E01               	movlw	high _char_hex
  3825   00041C  2031               	addwfc	(??_ADC_int+1)^0,w,c
  3826   00041E  6EDA               	movwf	fsr2h,c
  3827   000420  50DF               	movf	indf2,w,c
  3828   000422  EC5E  F005         	call	_UART1_Write
  3829   000426                     
  3830                           ;ADC_int.c: 49:         UART1_Write(char_hex[result & 0b1111]);
  3831   000426  0E0F               	movlw	15
  3832   000428  1433               	andwf	ADC_int@result^0,w,c
  3833   00042A  6E30               	movwf	??_ADC_int^0,c
  3834   00042C  0E00               	movlw	0
  3835   00042E  1434               	andwf	(ADC_int@result+1)^0,w,c
  3836   000430  6E31               	movwf	(??_ADC_int+1)^0,c
  3837   000432  0EB0               	movlw	low _char_hex
  3838   000434  2430               	addwf	??_ADC_int^0,w,c
  3839   000436  6ED9               	movwf	fsr2l,c
  3840   000438  0E01               	movlw	high _char_hex
  3841   00043A  2031               	addwfc	(??_ADC_int+1)^0,w,c
  3842   00043C  6EDA               	movwf	fsr2h,c
  3843   00043E  50DF               	movf	indf2,w,c
  3844   000440  EC5E  F005         	call	_UART1_Write
  3845   000444                     
  3846                           ;ADC_int.c: 51:         UART1_Write('\n');
  3847   000444  0E0A               	movlw	10
  3848   000446  EC5E  F005         	call	_UART1_Write
  3849   00044A                     i1l1101:
  3850   00044A  0012               	return		;funcret
  3851   00044C                     __end_of_ADC_int:
  3852                           	callstack 0
  3853                           
  3854 ;; *************** function _UART1_Write *****************
  3855 ;; Defined at:
  3856 ;;		line 359 in file "mcc_generated_files/uart/src/uart1.c"
  3857 ;; Parameters:    Size  Location     Type
  3858 ;;  txData          1    wreg     unsigned char 
  3859 ;; Auto vars:     Size  Location     Type
  3860 ;;  txData          1   12[COMRAM] unsigned char 
  3861 ;;  tempTxHead      1   11[COMRAM] unsigned char 
  3862 ;; Return value:  Size  Location     Type
  3863 ;;                  1    wreg      void 
  3864 ;; Registers used:
  3865 ;;		wreg, fsr2l, fsr2h, status,2, status,0
  3866 ;; Tracked objects:
  3867 ;;		On entry : 0/0
  3868 ;;		On exit  : 0/0
  3869 ;;		Unchanged: 0/0
  3870 ;; Data sizes:     COMRAM   BANK0   BANK1   BANK2   BANK3   BANK4   BANK5   BANK6   BANK7   BANK8   BANK9  BANK10  BANK1
      +1  BANK12  BANK13  BANK14  BANK15
  3871 ;;      Params:         0       0       0       0       0       0       0       0       0       0       0       0       
      +0       0       0       0       0
  3872 ;;      Locals:         2       0       0       0       0       0       0       0       0       0       0       0       
      +0       0       0       0       0
  3873 ;;      Temps:          0       0       0       0       0       0       0       0       0       0       0       0       
      +0       0       0       0       0
  3874 ;;      Totals:         2       0       0       0       0       0       0       0       0       0       0       0       
      +0       0       0       0       0
  3875 ;;Total ram usage:        2 bytes
  3876 ;; Hardware stack levels used: 1
  3877 ;; Hardware stack levels required when called: 3
  3878 ;; This function calls:
  3879 ;;		Nothing
  3880 ;; This function is called by:
  3881 ;;		_ADC_int
  3882 ;; This function uses a non-reentrant model
  3883 ;;
  3884                           
  3885                           	psect	text28
  3886   000ABC                     __ptext28:
  3887                           	callstack 0
  3888   000ABC                     _UART1_Write:
  3889                           	callstack 22
  3890                           
  3891                           ;incstack = 0
  3892                           ;UART1_Write@txData stored from wreg
  3893   000ABC  6E0D               	movwf	UART1_Write@txData^0,c
  3894   000ABE                     
  3895                           ;mcc_generated_files/uart/src/uart1.c: 360:     uint8_t tempTxHead;;mcc_generated_files/
      +                          uart/src/uart1.c: 362:     if (0 == PIE3bits.U1TXIE)
  3896   000ABE  0139               	movlb	57	; () banked
  3897   000AC0  B993               	btfsc	147,4,b	;volatile
  3898   000AC2  EF65  F005         	goto	i1u118_21
  3899   000AC6  EF67  F005         	goto	i1u118_20
  3900   000ACA                     i1u118_21:
  3901   000ACA  EF6C  F005         	goto	i1l3786
  3902   000ACE                     i1u118_20:
  3903   000ACE                     
  3904                           ; BSR set to: 57
  3905                           ;mcc_generated_files/uart/src/uart1.c: 363:     {;mcc_generated_files/uart/src/uart1.c: 
      +                          364:         U1TXB = txData;
  3906   000ACE  0060  F037  FDEA   	movff	UART1_Write@txData,15850	;volatile
  3907                           
  3908                           ;mcc_generated_files/uart/src/uart1.c: 365:     } else if (uart1TxBufferRemaining)
  3909   000AD4  EF84  F005         	goto	i1l996
  3910   000AD8                     i1l3786:
  3911                           
  3912                           ; BSR set to: 57
  3913   000AD8  504A               	movf	_uart1TxBufferRemaining^0,w,c	;volatile
  3914   000ADA  B4D8               	btfsc	status,2,c
  3915   000ADC  EF72  F005         	goto	i1u119_21
  3916   000AE0  EF74  F005         	goto	i1u119_20
  3917   000AE4                     i1u119_21:
  3918   000AE4  EF84  F005         	goto	i1l996
  3919   000AE8                     i1u119_20:
  3920   000AE8                     
  3921                           ; BSR set to: 57
  3922                           ;mcc_generated_files/uart/src/uart1.c: 366:     {;mcc_generated_files/uart/src/uart1.c: 
      +                          367:         uart1TxBuffer[uart1TxHead] = txData;
  3923   000AE8  0E40               	movlw	low _uart1TxBuffer
  3924   000AEA  244C               	addwf	_uart1TxHead^0,w,c	;volatile
  3925   000AEC  6ED9               	movwf	fsr2l,c
  3926   000AEE  6ADA               	clrf	fsr2h,c
  3927   000AF0  0E01               	movlw	high _uart1TxBuffer
  3928   000AF2  22DA               	addwfc	fsr2h,f,c
  3929   000AF4  0060  F037  FFDF   	movff	UART1_Write@txData,indf2
  3930   000AFA                     
  3931                           ; BSR set to: 57
  3932                           ;mcc_generated_files/uart/src/uart1.c: 369:         tempTxHead = (uart1TxHead + 1) & ((1
      +                          6) - 1);
  3933   000AFA  284C               	incf	_uart1TxHead^0,w,c	;volatile
  3934   000AFC  0B0F               	andlw	15
  3935   000AFE  6E0C               	movwf	UART1_Write@tempTxHead^0,c
  3936   000B00                     
  3937                           ; BSR set to: 57
  3938                           ;mcc_generated_files/uart/src/uart1.c: 371:         uart1TxHead = tempTxHead;
  3939   000B00  C00C  F04C         	movff	UART1_Write@tempTxHead,_uart1TxHead	;volatile
  3940   000B04                     
  3941                           ; BSR set to: 57
  3942                           ;mcc_generated_files/uart/src/uart1.c: 372:         PIE3bits.U1TXIE = 0;
  3943   000B04  9993               	bcf	147,4,b	;volatile
  3944   000B06                     
  3945                           ; BSR set to: 57
  3946                           ;mcc_generated_files/uart/src/uart1.c: 373:         uart1TxBufferRemaining--;
  3947   000B06  064A               	decf	_uart1TxBufferRemaining^0,f,c	;volatile
  3948   000B08                     i1l996:
  3949                           
  3950                           ; BSR set to: 57
  3951                           ;mcc_generated_files/uart/src/uart1.c: 377:     PIE3bits.U1TXIE = 1;
  3952   000B08  8993               	bsf	147,4,b	;volatile
  3953   000B0A                     
  3954                           ; BSR set to: 57
  3955   000B0A  0012               	return		;funcret
  3956   000B0C                     __end_of_UART1_Write:
  3957                           	callstack 0
  3958                           
  3959 ;; *************** function _Timer2_Start *****************
  3960 ;; Defined at:
  3961 ;;		line 93 in file "mcc_generated_files/timer/src/tmr2.c"
  3962 ;; Parameters:    Size  Location     Type
  3963 ;;		None
  3964 ;; Auto vars:     Size  Location     Type
  3965 ;;		None
  3966 ;; Return value:  Size  Location     Type
  3967 ;;                  1    wreg      void 
  3968 ;; Registers used:
  3969 ;;		None
  3970 ;; Tracked objects:
  3971 ;;		On entry : 0/0
  3972 ;;		On exit  : 0/0
  3973 ;;		Unchanged: 0/0
  3974 ;; Data sizes:     COMRAM   BANK0   BANK1   BANK2   BANK3   BANK4   BANK5   BANK6   BANK7   BANK8   BANK9  BANK10  BANK1
      +1  BANK12  BANK13  BANK14  BANK15
  3975 ;;      Params:         0       0       0       0       0       0       0       0       0       0       0       0       
      +0       0       0       0       0
  3976 ;;      Locals:         0       0       0       0       0       0       0       0       0       0       0       0       
      +0       0       0       0       0
  3977 ;;      Temps:          0       0       0       0       0       0       0       0       0       0       0       0       
      +0       0       0       0       0
  3978 ;;      Totals:         0       0       0       0       0       0       0       0       0       0       0       0       
      +0       0       0       0       0
  3979 ;;Total ram usage:        0 bytes
  3980 ;; Hardware stack levels used: 1
  3981 ;; Hardware stack levels required when called: 3
  3982 ;; This function calls:
  3983 ;;		Nothing
  3984 ;; This function is called by:
  3985 ;;		_ADC_int
  3986 ;; This function uses a non-reentrant model
  3987 ;;
  3988                           
  3989                           	psect	text29
  3990   001162                     __ptext29:
  3991                           	callstack 0
  3992   001162                     _Timer2_Start:
  3993                           	callstack 22
  3994   001162                     
  3995                           ;mcc_generated_files/timer/src/tmr2.c: 95:     T2CONbits.TMR2ON = 1;
  3996   001162  8EAC               	bsf	172,7,c	;volatile
  3997   001164  0012               	return		;funcret
  3998   001166                     __end_of_Timer2_Start:
  3999                           	callstack 0
  4000                           
  4001 ;; *************** function _SPI1_ByteWrite *****************
  4002 ;; Defined at:
  4003 ;;		line 145 in file "mcc_generated_files/spi/src/spi1.c"
  4004 ;; Parameters:    Size  Location     Type
  4005 ;;  byte            1    wreg     unsigned char 
  4006 ;; Auto vars:     Size  Location     Type
  4007 ;;  byte            1   11[COMRAM] unsigned char 
  4008 ;; Return value:  Size  Location     Type
  4009 ;;                  1    wreg      void 
  4010 ;; Registers used:
  4011 ;;		wreg
  4012 ;; Tracked objects:
  4013 ;;		On entry : 0/0
  4014 ;;		On exit  : 0/0
  4015 ;;		Unchanged: 0/0
  4016 ;; Data sizes:     COMRAM   BANK0   BANK1   BANK2   BANK3   BANK4   BANK5   BANK6   BANK7   BANK8   BANK9  BANK10  BANK1
      +1  BANK12  BANK13  BANK14  BANK15
  4017 ;;      Params:         0       0       0       0       0       0       0       0       0       0       0       0       
      +0       0       0       0       0
  4018 ;;      Locals:         1       0       0       0       0       0       0       0       0       0       0       0       
      +0       0       0       0       0
  4019 ;;      Temps:          0       0       0       0       0       0       0       0       0       0       0       0       
      +0       0       0       0       0
  4020 ;;      Totals:         1       0       0       0       0       0       0       0       0       0       0       0       
      +0       0       0       0       0
  4021 ;;Total ram usage:        1 bytes
  4022 ;; Hardware stack levels used: 1
  4023 ;; Hardware stack levels required when called: 3
  4024 ;; This function calls:
  4025 ;;		Nothing
  4026 ;; This function is called by:
  4027 ;;		_ADC_int
  4028 ;;		_SPI1_WriteByte
  4029 ;; This function uses a non-reentrant model
  4030 ;;
  4031                           
  4032                           	psect	text30
  4033   0010F0                     __ptext30:
  4034                           	callstack 0
  4035   0010F0                     _SPI1_ByteWrite:
  4036                           	callstack 22
  4037                           
  4038                           ;incstack = 0
  4039                           ;SPI1_ByteWrite@byte stored from wreg
  4040   0010F0  6E0C               	movwf	SPI1_ByteWrite@byte^0,c
  4041   0010F2                     
  4042                           ;mcc_generated_files/spi/src/spi1.c: 145: void SPI1_ByteWrite(uint8_t byte);mcc_generate
      +                          d_files/spi/src/spi1.c: 146: {;mcc_generated_files/spi/src/spi1.c: 147:     SPI1TXB = by
      +                          te;
  4043   0010F2  0060  F033  FD11   	movff	SPI1_ByteWrite@byte,15633	;volatile
  4044   0010F8  0012               	return		;funcret
  4045   0010FA                     __end_of_SPI1_ByteWrite:
  4046                           	callstack 0
  4047                           
  4048 ;; *************** function _FilterFIR *****************
  4049 ;; Defined at:
  4050 ;;		line 99 in file "FIR.c"
  4051 ;; Parameters:    Size  Location     Type
  4052 ;;  input           2   45[COMRAM] int 
  4053 ;; Auto vars:     Size  Location     Type
  4054 ;;		None
  4055 ;; Return value:  Size  Location     Type
  4056 ;;                  2   45[COMRAM] unsigned short 
  4057 ;; Registers used:
  4058 ;;		wreg, fsr2l, fsr2h, status,2, status,0, tblptrl, tblptrh, tblptru, cstack
  4059 ;; Tracked objects:
  4060 ;;		On entry : 0/0
  4061 ;;		On exit  : 0/0
  4062 ;;		Unchanged: 0/0
  4063 ;; Data sizes:     COMRAM   BANK0   BANK1   BANK2   BANK3   BANK4   BANK5   BANK6   BANK7   BANK8   BANK9  BANK10  BANK1
      +1  BANK12  BANK13  BANK14  BANK15
  4064 ;;      Params:         2       0       0       0       0       0       0       0       0       0       0       0       
      +0       0       0       0       0
  4065 ;;      Locals:         0       0       0       0       0       0       0       0       0       0       0       0       
      +0       0       0       0       0
  4066 ;;      Temps:          0       0       0       0       0       0       0       0       0       0       0       0       
      +0       0       0       0       0
  4067 ;;      Totals:         2       0       0       0       0       0       0       0       0       0       0       0       
      +0       0       0       0       0
  4068 ;;Total ram usage:        2 bytes
  4069 ;; Hardware stack levels used: 1
  4070 ;; Hardware stack levels required when called: 5
  4071 ;; This function calls:
  4072 ;;		_FIR_p
  4073 ;; This function is called by:
  4074 ;;		_ADC_int
  4075 ;; This function uses a non-reentrant model
  4076 ;;
  4077                           
  4078                           	psect	text31
  4079   000C64                     __ptext31:
  4080                           	callstack 0
  4081   000C64                     _FilterFIR:
  4082                           	callstack 20
  4083   000C64                     
  4084                           ;FIR.c: 99: uint16_t FilterFIR(int input);FIR.c: 100: {;FIR.c: 101:     return FIR_p(B, 
      +                          input) >> 16;
  4085   000C64  0ECE               	movlw	low _B
  4086   000C66  6E18               	movwf	FIR_p@coeffs^0,c
  4087   000C68  0EFF               	movlw	high _B
  4088   000C6A  6E19               	movwf	(FIR_p@coeffs+1)^0,c
  4089   000C6C  C02E  F01A         	movff	FilterFIR@input,FIR_p@input
  4090   000C70  C02F  F01B         	movff	FilterFIR@input+1,FIR_p@input+1
  4091   000C74  EC59  F000         	call	_FIR_p	;wreg free
  4092   000C78  0E11               	movlw	17
  4093   000C7A  EF44  F006         	goto	i1u120_20
  4094   000C7E                     i1u120_25:
  4095   000C7E  90D8               	bcf	status,0,c
  4096   000C80  321B               	rrcf	(?_FIR_p+3)^0,f,c
  4097   000C82  321A               	rrcf	(?_FIR_p+2)^0,f,c
  4098   000C84  3219               	rrcf	(?_FIR_p+1)^0,f,c
  4099   000C86  3218               	rrcf	?_FIR_p^0,f,c
  4100   000C88                     i1u120_20:
  4101   000C88  2EE8               	decfsz	wreg,f,c
  4102   000C8A  EF3F  F006         	goto	i1u120_25
  4103   000C8E  C018  F02E         	movff	?_FIR_p,?_FilterFIR
  4104   000C92  C019  F02F         	movff	?_FIR_p+1,?_FilterFIR+1
  4105   000C96  0012               	return		;funcret
  4106   000C98                     __end_of_FilterFIR:
  4107                           	callstack 0
  4108                           
  4109 ;; *************** function _FIR_p *****************
  4110 ;; Defined at:
  4111 ;;		line 37 in file "FIR.c"
  4112 ;; Parameters:    Size  Location     Type
  4113 ;;  coeffs          2   23[COMRAM] PTR const long 
  4114 ;;		 -> B(48), 
  4115 ;;  input           2   25[COMRAM] int 
  4116 ;; Auto vars:     Size  Location     Type
  4117 ;;  i               2   43[COMRAM] int 
  4118 ;;  output          4   39[COMRAM] unsigned long 
  4119 ;; Return value:  Size  Location     Type
  4120 ;;                  4   23[COMRAM] unsigned long 
  4121 ;; Registers used:
  4122 ;;		wreg, fsr2l, fsr2h, status,2, status,0, tblptrl, tblptrh, tblptru, cstack
  4123 ;; Tracked objects:
  4124 ;;		On entry : 0/0
  4125 ;;		On exit  : 0/0
  4126 ;;		Unchanged: 0/0
  4127 ;; Data sizes:     COMRAM   BANK0   BANK1   BANK2   BANK3   BANK4   BANK5   BANK6   BANK7   BANK8   BANK9  BANK10  BANK1
      +1  BANK12  BANK13  BANK14  BANK15
  4128 ;;      Params:         4       0       0       0       0       0       0       0       0       0       0       0       
      +0       0       0       0       0
  4129 ;;      Locals:         6       0       0       0       0       0       0       0       0       0       0       0       
      +0       0       0       0       0
  4130 ;;      Temps:         12       0       0       0       0       0       0       0       0       0       0       0       
      +0       0       0       0       0
  4131 ;;      Totals:        22       0       0       0       0       0       0       0       0       0       0       0       
      +0       0       0       0       0
  4132 ;;Total ram usage:       22 bytes
  4133 ;; Hardware stack levels used: 1
  4134 ;; Hardware stack levels required when called: 4
  4135 ;; This function calls:
  4136 ;;		___lmul
  4137 ;; This function is called by:
  4138 ;;		_FilterFIR
  4139 ;; This function uses a non-reentrant model
  4140 ;;
  4141                           
  4142                           	psect	text32
  4143   0000B2                     __ptext32:
  4144                           	callstack 0
  4145   0000B2                     _FIR_p:
  4146                           	callstack 20
  4147   0000B2                     
  4148                           ;FIR.c: 39:     static int buffer[32] = {0};;FIR.c: 41:     static int *startBuffer = bu
      +                          ffer;;FIR.c: 42:     static int *endBuffer = buffer + (32 - 1);;FIR.c: 44:     static in
      +                          t *head = buffer;;FIR.c: 45:     static int *tail = buffer + ((-12) & (32 - 1)) ;;FIR.c:
      +                           48:     static int *head_i = buffer;;FIR.c: 49:     static int *tail_i = buffer + ((-12
      +                           + 1) & (32 - 1));;FIR.c: 52:     static int indexHead = 0;;FIR.c: 53:     static int in
      +                          dexTail = ((-12 + 1) & (32 - 1));;FIR.c: 55:     unsigned long output = 0;
  4149   0000B2  0E00               	movlw	0
  4150   0000B4  6E28               	movwf	FIR_p@output^0,c
  4151   0000B6  0E00               	movlw	0
  4152   0000B8  6E29               	movwf	(FIR_p@output+1)^0,c
  4153   0000BA  0E00               	movlw	0
  4154   0000BC  6E2A               	movwf	(FIR_p@output+2)^0,c
  4155   0000BE  0E00               	movlw	0
  4156   0000C0  6E2B               	movwf	(FIR_p@output+3)^0,c
  4157   0000C2                     
  4158                           ;FIR.c: 59:     *(head) = input;
  4159   0000C2  0060  F397  FFD9   	movff	FIR_p@head,fsr2l
  4160   0000C8  0060  F39B  FFDA   	movff	FIR_p@head+1,fsr2h
  4161   0000CE  0060  F06B  FFDE   	movff	FIR_p@input,postinc2
  4162   0000D4  0060  F06F  FFDD   	movff	FIR_p@input+1,postdec2
  4163   0000DA                     
  4164                           ;FIR.c: 62:     for (int i = 0; i < 12/2; i++) {
  4165   0000DA  0E00               	movlw	0
  4166   0000DC  6E2D               	movwf	(FIR_p@i+1)^0,c
  4167   0000DE  0E00               	movlw	0
  4168   0000E0  6E2C               	movwf	FIR_p@i^0,c
  4169   0000E2                     i1l3536:
  4170                           
  4171                           ;FIR.c: 64:         output += (unsigned long) *(coeffs++) * ((unsigned long) * (head_i) 
      +                          + (unsigned long) * (tail_i));
  4172   0000E2  0060  F387  FFD9   	movff	FIR_p@tail_i,fsr2l
  4173   0000E8  0060  F38B  FFDA   	movff	FIR_p@tail_i+1,fsr2h
  4174   0000EE  006F FF78  F01C    	movff	postinc2,??_FIR_p
  4175   0000F4  006F FF74  F01D    	movff	postdec2,??_FIR_p+1
  4176   0000FA  C01C  F01E         	movff	??_FIR_p,??_FIR_p+2
  4177   0000FE  C01D  F01F         	movff	??_FIR_p+1,??_FIR_p+3
  4178   000102  0E00               	movlw	0
  4179   000104  BE1F               	btfsc	(??_FIR_p+3)^0,7,c
  4180   000106  0EFF               	movlw	255
  4181   000108  6E20               	movwf	(??_FIR_p+4)^0,c
  4182   00010A  6E21               	movwf	(??_FIR_p+5)^0,c
  4183   00010C  0060  F137  FFD9   	movff	FIR_p@head_i,fsr2l
  4184   000112  0060  F13B  FFDA   	movff	FIR_p@head_i+1,fsr2h
  4185   000118  006F FF78  F022    	movff	postinc2,??_FIR_p+6
  4186   00011E  006F FF74  F023    	movff	postdec2,??_FIR_p+7
  4187   000124  C022  F024         	movff	??_FIR_p+6,??_FIR_p+8
  4188   000128  C023  F025         	movff	??_FIR_p+7,??_FIR_p+9
  4189   00012C  0E00               	movlw	0
  4190   00012E  BE25               	btfsc	(??_FIR_p+9)^0,7,c
  4191   000130  0EFF               	movlw	255
  4192   000132  6E26               	movwf	(??_FIR_p+10)^0,c
  4193   000134  6E27               	movwf	(??_FIR_p+11)^0,c
  4194   000136  501E               	movf	(??_FIR_p+2)^0,w,c
  4195   000138  2424               	addwf	(??_FIR_p+8)^0,w,c
  4196   00013A  6E0C               	movwf	___lmul@multiplier^0,c
  4197   00013C  501F               	movf	(??_FIR_p+3)^0,w,c
  4198   00013E  2025               	addwfc	(??_FIR_p+9)^0,w,c
  4199   000140  6E0D               	movwf	(___lmul@multiplier+1)^0,c
  4200   000142  5020               	movf	(??_FIR_p+4)^0,w,c
  4201   000144  2026               	addwfc	(??_FIR_p+10)^0,w,c
  4202   000146  6E0E               	movwf	(___lmul@multiplier+2)^0,c
  4203   000148  5021               	movf	(??_FIR_p+5)^0,w,c
  4204   00014A  2027               	addwfc	(??_FIR_p+11)^0,w,c
  4205   00014C  6E0F               	movwf	(___lmul@multiplier+3)^0,c
  4206   00014E  0060  F063  FFF6   	movff	FIR_p@coeffs,tblptrl
  4207   000154  0060  F067  FFF7   	movff	FIR_p@coeffs+1,tblptrh
  4208   00015A                     	if	1	;Program memory is < 0x10000, tblptru is always zero
  4209   00015A  6AF8               	clrf	tblptru,c
  4210   00015C                     	endif
  4211   00015C                     	if	0	;tblptru may be non-zero
  4212   00015C                     	endif
  4213   00015C  0009               	tblrd		*+
  4214   00015E  006F FFD4  F010    	movff	tablat,___lmul@multiplicand
  4215   000164  0009               	tblrd		*+
  4216   000166  006F FFD4  F011    	movff	tablat,___lmul@multiplicand+1
  4217   00016C  0009               	tblrd		*+
  4218   00016E  006F FFD4  F012    	movff	tablat,___lmul@multiplicand+2
  4219   000174  000A               	tblrd		*-
  4220   000176  006F FFD4  F013    	movff	tablat,___lmul@multiplicand+3
  4221   00017C  ECCD  F004         	call	___lmul	;wreg free
  4222   000180  500C               	movf	?___lmul^0,w,c
  4223   000182  2628               	addwf	FIR_p@output^0,f,c
  4224   000184  500D               	movf	(?___lmul+1)^0,w,c
  4225   000186  2229               	addwfc	(FIR_p@output+1)^0,f,c
  4226   000188  500E               	movf	(?___lmul+2)^0,w,c
  4227   00018A  222A               	addwfc	(FIR_p@output+2)^0,f,c
  4228   00018C  500F               	movf	(?___lmul+3)^0,w,c
  4229   00018E  222B               	addwfc	(FIR_p@output+3)^0,f,c
  4230   000190  0E04               	movlw	4
  4231   000192  2618               	addwf	FIR_p@coeffs^0,f,c
  4232   000194  0E00               	movlw	0
  4233   000196  2219               	addwfc	(FIR_p@coeffs+1)^0,f,c
  4234   000198                     
  4235                           ;FIR.c: 65:         if(head_i == startBuffer)
  4236   000198  0100               	movlb	0	; () banked
  4237   00019A  51E9               	movf	FIR_p@startBuffer& (0+255),w,b
  4238   00019C  184D               	xorwf	FIR_p@head_i^0,w,c
  4239   00019E  E107               	bnz	i1u112_21
  4240   0001A0  51EA               	movf	(FIR_p@startBuffer+1)& (0+255),w,b
  4241   0001A2  184E               	xorwf	(FIR_p@head_i+1)^0,w,c
  4242   0001A4  A4D8               	btfss	status,2,c
  4243   0001A6  EFD7  F000         	goto	i1u112_21
  4244   0001AA  EFD9  F000         	goto	i1u112_20
  4245   0001AE                     i1u112_21:
  4246   0001AE  EFDF  F000         	goto	i1l3544
  4247   0001B2                     i1u112_20:
  4248   0001B2                     
  4249                           ; BSR set to: 0
  4250                           ;FIR.c: 66:         {;FIR.c: 67:             head_i = endBuffer;
  4251   0001B2  C0E7  F04D         	movff	FIR_p@endBuffer,FIR_p@head_i
  4252   0001B6  C0E8  F04E         	movff	FIR_p@endBuffer+1,FIR_p@head_i+1
  4253                           
  4254                           ;FIR.c: 68:         } else
  4255   0001BA  EFE3  F000         	goto	i1l1204
  4256   0001BE                     i1l3544:
  4257                           
  4258                           ; BSR set to: 0
  4259                           ;FIR.c: 69:         {;FIR.c: 70:             head_i--;
  4260   0001BE  0E02               	movlw	2
  4261   0001C0  5E4D               	subwf	FIR_p@head_i^0,f,c
  4262   0001C2  0E00               	movlw	0
  4263   0001C4  5A4E               	subwfb	(FIR_p@head_i+1)^0,f,c
  4264   0001C6                     i1l1204:
  4265                           
  4266                           ; BSR set to: 0
  4267                           ;FIR.c: 72:         if(tail_i == endBuffer)
  4268   0001C6  51E7               	movf	FIR_p@endBuffer& (0+255),w,b
  4269   0001C8  19E1               	xorwf	FIR_p@tail_i& (0+255),w,b
  4270   0001CA  E107               	bnz	i1u113_21
  4271   0001CC  51E8               	movf	(FIR_p@endBuffer+1)& (0+255),w,b
  4272   0001CE  19E2               	xorwf	(FIR_p@tail_i+1)& (0+255),w,b
  4273   0001D0  A4D8               	btfss	status,2,c
  4274   0001D2  EFED  F000         	goto	i1u113_21
  4275   0001D6  EFEF  F000         	goto	i1u113_20
  4276   0001DA                     i1u113_21:
  4277   0001DA  EFF5  F000         	goto	i1l3548
  4278   0001DE                     i1u113_20:
  4279   0001DE                     
  4280                           ; BSR set to: 0
  4281                           ;FIR.c: 73:         {;FIR.c: 74:             tail_i = startBuffer;
  4282   0001DE  C0E9  F0E1         	movff	FIR_p@startBuffer,FIR_p@tail_i
  4283   0001E2  C0EA  F0E2         	movff	FIR_p@startBuffer+1,FIR_p@tail_i+1
  4284                           
  4285                           ;FIR.c: 75:         } else
  4286   0001E6  EFF9  F000         	goto	i1l1206
  4287   0001EA                     i1l3548:
  4288                           
  4289                           ; BSR set to: 0
  4290                           ;FIR.c: 76:         {;FIR.c: 77:             tail_i++;
  4291   0001EA  0E02               	movlw	2
  4292   0001EC  27E1               	addwf	FIR_p@tail_i& (0+255),f,b
  4293   0001EE  0E00               	movlw	0
  4294   0001F0  23E2               	addwfc	(FIR_p@tail_i+1)& (0+255),f,b
  4295   0001F2                     i1l1206:
  4296                           
  4297                           ; BSR set to: 0
  4298                           ;FIR.c: 79:         if(head_i == tail_i)
  4299   0001F2  51E1               	movf	FIR_p@tail_i& (0+255),w,b
  4300   0001F4  184D               	xorwf	FIR_p@head_i^0,w,c
  4301   0001F6  E107               	bnz	i1u114_21
  4302   0001F8  51E2               	movf	(FIR_p@tail_i+1)& (0+255),w,b
  4303   0001FA  184E               	xorwf	(FIR_p@head_i+1)^0,w,c
  4304   0001FC  A4D8               	btfss	status,2,c
  4305   0001FE  EF03  F001         	goto	i1u114_21
  4306   000202  EF05  F001         	goto	i1u114_20
  4307   000206                     i1u114_21:
  4308   000206  EF37  F001         	goto	i1l3552
  4309   00020A                     i1u114_20:
  4310   00020A                     
  4311                           ; BSR set to: 0
  4312                           ;FIR.c: 80:         {;FIR.c: 81:             output += (unsigned long) *(coeffs) * ((uns
      +                          igned long) * (head_i));
  4313   00020A  0060  F137  FFD9   	movff	FIR_p@head_i,fsr2l
  4314   000210  0060  F13B  FFDA   	movff	FIR_p@head_i+1,fsr2h
  4315   000216  006F FF78  F00C    	movff	postinc2,___lmul@multiplier
  4316   00021C  006F FF74  F00D    	movff	postdec2,___lmul@multiplier+1
  4317   000222  0E00               	movlw	0
  4318   000224  BE0D               	btfsc	(___lmul@multiplier+1)^0,7,c
  4319   000226  0EFF               	movlw	-1
  4320   000228  6E0E               	movwf	(___lmul@multiplier+2)^0,c
  4321   00022A  6E0F               	movwf	(___lmul@multiplier+3)^0,c
  4322   00022C  0060  F063  FFF6   	movff	FIR_p@coeffs,tblptrl
  4323   000232  0060  F067  FFF7   	movff	FIR_p@coeffs+1,tblptrh
  4324   000238                     	if	1	;Program memory is < 0x10000, tblptru is always zero
  4325   000238  6AF8               	clrf	tblptru,c
  4326   00023A                     	endif
  4327   00023A                     	if	0	;tblptru may be non-zero
  4328   00023A                     	endif
  4329   00023A  0009               	tblrd		*+
  4330   00023C  006F FFD4  F010    	movff	tablat,___lmul@multiplicand
  4331   000242  0009               	tblrd		*+
  4332   000244  006F FFD4  F011    	movff	tablat,___lmul@multiplicand+1
  4333   00024A  0009               	tblrd		*+
  4334   00024C  006F FFD4  F012    	movff	tablat,___lmul@multiplicand+2
  4335   000252  000A               	tblrd		*-
  4336   000254  006F FFD4  F013    	movff	tablat,___lmul@multiplicand+3
  4337   00025A  ECCD  F004         	call	___lmul	;wreg free
  4338   00025E  500C               	movf	?___lmul^0,w,c
  4339   000260  2628               	addwf	FIR_p@output^0,f,c
  4340   000262  500D               	movf	(?___lmul+1)^0,w,c
  4341   000264  2229               	addwfc	(FIR_p@output+1)^0,f,c
  4342   000266  500E               	movf	(?___lmul+2)^0,w,c
  4343   000268  222A               	addwfc	(FIR_p@output+2)^0,f,c
  4344   00026A  500F               	movf	(?___lmul+3)^0,w,c
  4345   00026C  222B               	addwfc	(FIR_p@output+3)^0,f,c
  4346   00026E                     i1l3552:
  4347                           
  4348                           ;FIR.c: 83:     }
  4349   00026E  4A2C               	infsnz	FIR_p@i^0,f,c
  4350   000270  2A2D               	incf	(FIR_p@i+1)^0,f,c
  4351   000272  BE2D               	btfsc	(FIR_p@i+1)^0,7,c
  4352   000274  EF45  F001         	goto	i1u115_21
  4353   000278  502D               	movf	(FIR_p@i+1)^0,w,c
  4354   00027A  E109               	bnz	i1u115_20
  4355   00027C  0E06               	movlw	6
  4356   00027E  5C2C               	subwf	FIR_p@i^0,w,c
  4357   000280  A0D8               	btfss	status,0,c
  4358   000282  EF45  F001         	goto	i1u115_21
  4359   000286  EF47  F001         	goto	i1u115_20
  4360   00028A                     i1u115_21:
  4361   00028A  EF71  F000         	goto	i1l3536
  4362   00028E                     i1u115_20:
  4363   00028E                     
  4364                           ;FIR.c: 86:     indexHead = (indexHead + 1) & (32 - 1);
  4365   00028E  0E01               	movlw	1
  4366   000290  0100               	movlb	0	; () banked
  4367   000292  259A               	addwf	FIR_p@indexHead& (0+255),w,b
  4368   000294  6E1C               	movwf	??_FIR_p^0,c
  4369   000296  0E00               	movlw	0
  4370   000298  219B               	addwfc	(FIR_p@indexHead+1)& (0+255),w,b
  4371   00029A  6E1D               	movwf	(??_FIR_p+1)^0,c
  4372   00029C  0E1F               	movlw	31
  4373   00029E  141C               	andwf	??_FIR_p^0,w,c
  4374   0002A0  6F9A               	movwf	FIR_p@indexHead& (0+255),b
  4375   0002A2  6B9B               	clrf	(FIR_p@indexHead+1)& (0+255),b
  4376                           
  4377                           ;FIR.c: 87:     indexTail = (indexTail + 1) & (32 - 1);
  4378   0002A4  0E01               	movlw	1
  4379   0002A6  25DF               	addwf	FIR_p@indexTail& (0+255),w,b
  4380   0002A8  6E1C               	movwf	??_FIR_p^0,c
  4381   0002AA  0E00               	movlw	0
  4382   0002AC  21E0               	addwfc	(FIR_p@indexTail+1)& (0+255),w,b
  4383   0002AE  6E1D               	movwf	(??_FIR_p+1)^0,c
  4384   0002B0  0E1F               	movlw	31
  4385   0002B2  141C               	andwf	??_FIR_p^0,w,c
  4386   0002B4  6FDF               	movwf	FIR_p@indexTail& (0+255),b
  4387   0002B6  6BE0               	clrf	(FIR_p@indexTail+1)& (0+255),b
  4388                           
  4389                           ;FIR.c: 89:     head = (buffer + indexHead);
  4390   0002B8  C09A  F01C         	movff	FIR_p@indexHead,??_FIR_p
  4391   0002BC  C09B  F01D         	movff	FIR_p@indexHead+1,??_FIR_p+1
  4392   0002C0  90D8               	bcf	status,0,c
  4393   0002C2  361C               	rlcf	??_FIR_p^0,f,c
  4394   0002C4  361D               	rlcf	(??_FIR_p+1)^0,f,c
  4395   0002C6  0E58               	movlw	low FIR_p@buffer
  4396   0002C8  241C               	addwf	??_FIR_p^0,w,c
  4397   0002CA  6FE5               	movwf	FIR_p@head& (0+255),b
  4398   0002CC  0E01               	movlw	high FIR_p@buffer
  4399   0002CE  201D               	addwfc	(??_FIR_p+1)^0,w,c
  4400   0002D0  6FE6               	movwf	(FIR_p@head+1)& (0+255),b
  4401                           
  4402                           ;FIR.c: 90:     tail = (buffer + indexTail);
  4403   0002D2  C0DF  F01C         	movff	FIR_p@indexTail,??_FIR_p
  4404   0002D6  C0E0  F01D         	movff	FIR_p@indexTail+1,??_FIR_p+1
  4405   0002DA  90D8               	bcf	status,0,c
  4406   0002DC  361C               	rlcf	??_FIR_p^0,f,c
  4407   0002DE  361D               	rlcf	(??_FIR_p+1)^0,f,c
  4408   0002E0  0E58               	movlw	low FIR_p@buffer
  4409   0002E2  241C               	addwf	??_FIR_p^0,w,c
  4410   0002E4  6FE3               	movwf	FIR_p@tail& (0+255),b
  4411   0002E6  0E01               	movlw	high FIR_p@buffer
  4412   0002E8  201D               	addwfc	(??_FIR_p+1)^0,w,c
  4413   0002EA  6FE4               	movwf	(FIR_p@tail+1)& (0+255),b
  4414                           
  4415                           ;FIR.c: 92:     head_i = head;
  4416   0002EC  C0E5  F04D         	movff	FIR_p@head,FIR_p@head_i
  4417   0002F0  C0E6  F04E         	movff	FIR_p@head+1,FIR_p@head_i+1
  4418                           
  4419                           ;FIR.c: 93:     tail_i = tail;
  4420   0002F4  C0E3  F0E1         	movff	FIR_p@tail,FIR_p@tail_i
  4421   0002F8  C0E4  F0E2         	movff	FIR_p@tail+1,FIR_p@tail_i+1
  4422   0002FC                     
  4423                           ; BSR set to: 0
  4424                           ;FIR.c: 95:     return output;
  4425   0002FC  C028  F018         	movff	FIR_p@output,?_FIR_p
  4426   000300  C029  F019         	movff	FIR_p@output+1,?_FIR_p+1
  4427   000304  C02A  F01A         	movff	FIR_p@output+2,?_FIR_p+2
  4428   000308  C02B  F01B         	movff	FIR_p@output+3,?_FIR_p+3
  4429   00030C                     
  4430                           ; BSR set to: 0
  4431   00030C  0012               	return		;funcret
  4432   00030E                     __end_of_FIR_p:
  4433                           	callstack 0
  4434                           
  4435 ;; *************** function ___lmul *****************
  4436 ;; Defined at:
  4437 ;;		line 15 in file "C:\Program Files\Microchip\xc8\v2.40\pic\sources\c99\common\Umul32.c"
  4438 ;; Parameters:    Size  Location     Type
  4439 ;;  multiplier      4   11[COMRAM] unsigned long 
  4440 ;;  multiplicand    4   15[COMRAM] unsigned long 
  4441 ;; Auto vars:     Size  Location     Type
  4442 ;;  product         4   19[COMRAM] unsigned long 
  4443 ;; Return value:  Size  Location     Type
  4444 ;;                  4   11[COMRAM] unsigned long 
  4445 ;; Registers used:
  4446 ;;		wreg, status,2, status,0
  4447 ;; Tracked objects:
  4448 ;;		On entry : 0/0
  4449 ;;		On exit  : 0/0
  4450 ;;		Unchanged: 0/0
  4451 ;; Data sizes:     COMRAM   BANK0   BANK1   BANK2   BANK3   BANK4   BANK5   BANK6   BANK7   BANK8   BANK9  BANK10  BANK1
      +1  BANK12  BANK13  BANK14  BANK15
  4452 ;;      Params:         8       0       0       0       0       0       0       0       0       0       0       0       
      +0       0       0       0       0
  4453 ;;      Locals:         4       0       0       0       0       0       0       0       0       0       0       0       
      +0       0       0       0       0
  4454 ;;      Temps:          0       0       0       0       0       0       0       0       0       0       0       0       
      +0       0       0       0       0
  4455 ;;      Totals:        12       0       0       0       0       0       0       0       0       0       0       0       
      +0       0       0       0       0
  4456 ;;Total ram usage:       12 bytes
  4457 ;; Hardware stack levels used: 1
  4458 ;; Hardware stack levels required when called: 3
  4459 ;; This function calls:
  4460 ;;		Nothing
  4461 ;; This function is called by:
  4462 ;;		_FIR_p
  4463 ;;		_FIR
  4464 ;; This function uses a non-reentrant model
  4465 ;;
  4466                           
  4467                           	psect	text33
  4468   00099A                     __ptext33:
  4469                           	callstack 0
  4470   00099A                     ___lmul:
  4471                           	callstack 20
  4472   00099A  0E00               	movlw	0
  4473   00099C  6E14               	movwf	___lmul@product^0,c
  4474   00099E  0E00               	movlw	0
  4475   0009A0  6E15               	movwf	(___lmul@product+1)^0,c
  4476   0009A2  0E00               	movlw	0
  4477   0009A4  6E16               	movwf	(___lmul@product+2)^0,c
  4478   0009A6  0E00               	movlw	0
  4479   0009A8  6E17               	movwf	(___lmul@product+3)^0,c
  4480   0009AA                     i1l3494:
  4481   0009AA  A00C               	btfss	___lmul@multiplier^0,0,c
  4482   0009AC  EFDA  F004         	goto	i1u107_21
  4483   0009B0  EFDC  F004         	goto	i1u107_20
  4484   0009B4                     i1u107_21:
  4485   0009B4  EFE4  F004         	goto	i1l3498
  4486   0009B8                     i1u107_20:
  4487   0009B8  5010               	movf	___lmul@multiplicand^0,w,c
  4488   0009BA  2614               	addwf	___lmul@product^0,f,c
  4489   0009BC  5011               	movf	(___lmul@multiplicand+1)^0,w,c
  4490   0009BE  2215               	addwfc	(___lmul@product+1)^0,f,c
  4491   0009C0  5012               	movf	(___lmul@multiplicand+2)^0,w,c
  4492   0009C2  2216               	addwfc	(___lmul@product+2)^0,f,c
  4493   0009C4  5013               	movf	(___lmul@multiplicand+3)^0,w,c
  4494   0009C6  2217               	addwfc	(___lmul@product+3)^0,f,c
  4495   0009C8                     i1l3498:
  4496   0009C8  90D8               	bcf	status,0,c
  4497   0009CA  3610               	rlcf	___lmul@multiplicand^0,f,c
  4498   0009CC  3611               	rlcf	(___lmul@multiplicand+1)^0,f,c
  4499   0009CE  3612               	rlcf	(___lmul@multiplicand+2)^0,f,c
  4500   0009D0  3613               	rlcf	(___lmul@multiplicand+3)^0,f,c
  4501   0009D2  90D8               	bcf	status,0,c
  4502   0009D4  320F               	rrcf	(___lmul@multiplier+3)^0,f,c
  4503   0009D6  320E               	rrcf	(___lmul@multiplier+2)^0,f,c
  4504   0009D8  320D               	rrcf	(___lmul@multiplier+1)^0,f,c
  4505   0009DA  320C               	rrcf	___lmul@multiplier^0,f,c
  4506   0009DC  500C               	movf	___lmul@multiplier^0,w,c
  4507   0009DE  100D               	iorwf	(___lmul@multiplier+1)^0,w,c
  4508   0009E0  100E               	iorwf	(___lmul@multiplier+2)^0,w,c
  4509   0009E2  100F               	iorwf	(___lmul@multiplier+3)^0,w,c
  4510   0009E4  A4D8               	btfss	status,2,c
  4511   0009E6  EFF7  F004         	goto	i1u108_21
  4512   0009EA  EFF9  F004         	goto	i1u108_20
  4513   0009EE                     i1u108_21:
  4514   0009EE  EFD5  F004         	goto	i1l3494
  4515   0009F2                     i1u108_20:
  4516   0009F2  C014  F00C         	movff	___lmul@product,?___lmul
  4517   0009F6  C015  F00D         	movff	___lmul@product+1,?___lmul+1
  4518   0009FA  C016  F00E         	movff	___lmul@product+2,?___lmul+2
  4519   0009FE  C017  F00F         	movff	___lmul@product+3,?___lmul+3
  4520   000A02  0012               	return		;funcret
  4521   000A04                     __end_of___lmul:
  4522                           	callstack 0
  4523                           
  4524 ;; *************** function _ADCC_StartConversion *****************
  4525 ;; Defined at:
  4526 ;;		line 106 in file "mcc_generated_files/adc/src/adcc.c"
  4527 ;; Parameters:    Size  Location     Type
  4528 ;;  channel         1    wreg     enum E15846
  4529 ;; Auto vars:     Size  Location     Type
  4530 ;;  channel         1   11[COMRAM] enum E15846
  4531 ;; Return value:  Size  Location     Type
  4532 ;;                  1    wreg      void 
  4533 ;; Registers used:
  4534 ;;		wreg
  4535 ;; Tracked objects:
  4536 ;;		On entry : 0/0
  4537 ;;		On exit  : 0/0
  4538 ;;		Unchanged: 0/0
  4539 ;; Data sizes:     COMRAM   BANK0   BANK1   BANK2   BANK3   BANK4   BANK5   BANK6   BANK7   BANK8   BANK9  BANK10  BANK1
      +1  BANK12  BANK13  BANK14  BANK15
  4540 ;;      Params:         0       0       0       0       0       0       0       0       0       0       0       0       
      +0       0       0       0       0
  4541 ;;      Locals:         1       0       0       0       0       0       0       0       0       0       0       0       
      +0       0       0       0       0
  4542 ;;      Temps:          0       0       0       0       0       0       0       0       0       0       0       0       
      +0       0       0       0       0
  4543 ;;      Totals:         1       0       0       0       0       0       0       0       0       0       0       0       
      +0       0       0       0       0
  4544 ;;Total ram usage:        1 bytes
  4545 ;; Hardware stack levels used: 1
  4546 ;; Hardware stack levels required when called: 3
  4547 ;; This function calls:
  4548 ;;		Nothing
  4549 ;; This function is called by:
  4550 ;;		_ADC_int
  4551 ;; This function uses a non-reentrant model
  4552 ;;
  4553                           
  4554                           	psect	text34
  4555   001098                     __ptext34:
  4556                           	callstack 0
  4557   001098                     _ADCC_StartConversion:
  4558                           	callstack 22
  4559                           
  4560                           ;incstack = 0
  4561                           ;ADCC_StartConversion@channel stored from wreg
  4562   001098  6E0C               	movwf	ADCC_StartConversion@channel^0,c
  4563   00109A                     
  4564                           ;mcc_generated_files/adc/src/adcc.c: 106: void ADCC_StartConversion(adcc_channel_t chann
      +                          el);mcc_generated_files/adc/src/adcc.c: 107: {;mcc_generated_files/adc/src/adcc.c: 109: 
      +                              ADPCH = channel;
  4565   00109A  0060  F033  FEF1   	movff	ADCC_StartConversion@channel,16113	;volatile
  4566   0010A0                     
  4567                           ;mcc_generated_files/adc/src/adcc.c: 112:     ADCON0bits.ADGO = 1;
  4568   0010A0  013E               	movlb	62	; () banked
  4569   0010A2  81F8               	bsf	248,0,b	;volatile
  4570   0010A4                     
  4571                           ; BSR set to: 62
  4572   0010A4  0012               	return		;funcret
  4573   0010A6                     __end_of_ADCC_StartConversion:
  4574                           	callstack 0
  4575                           
  4576 ;; *************** function _IOC_ISR *****************
  4577 ;; Defined at:
  4578 ;;		line 103 in file "mcc_generated_files/system/src/interrupt.c"
  4579 ;; Parameters:    Size  Location     Type
  4580 ;;		None
  4581 ;; Auto vars:     Size  Location     Type
  4582 ;;		None
  4583 ;; Return value:  Size  Location     Type
  4584 ;;                  1    wreg      void 
  4585 ;; Registers used:
  4586 ;;		cstack
  4587 ;; Tracked objects:
  4588 ;;		On entry : 0/0
  4589 ;;		On exit  : 0/0
  4590 ;;		Unchanged: 0/0
  4591 ;; Data sizes:     COMRAM   BANK0   BANK1   BANK2   BANK3   BANK4   BANK5   BANK6   BANK7   BANK8   BANK9  BANK10  BANK1
      +1  BANK12  BANK13  BANK14  BANK15
  4592 ;;      Params:         0       0       0       0       0       0       0       0       0       0       0       0       
      +0       0       0       0       0
  4593 ;;      Locals:         0       0       0       0       0       0       0       0       0       0       0       0       
      +0       0       0       0       0
  4594 ;;      Temps:          0       0       0       0       0       0       0       0       0       0       0       0       
      +0       0       0       0       0
  4595 ;;      Totals:         0       0       0       0       0       0       0       0       0       0       0       0       
      +0       0       0       0       0
  4596 ;;Total ram usage:        0 bytes
  4597 ;; Hardware stack levels used: 1
  4598 ;; Hardware stack levels required when called: 4
  4599 ;; This function calls:
  4600 ;;		_PIN_MANAGER_IOC
  4601 ;; This function is called by:
  4602 ;;		Interrupt level 1
  4603 ;; This function uses a non-reentrant model
  4604 ;;
  4605                           
  4606                           	psect	text35
  4607   00113C                     __ptext35:
  4608                           	callstack 0
  4609   00113C                     _IOC_ISR:
  4610                           	callstack 23
  4611   00113C                     
  4612                           ;mcc_generated_files/system/src/interrupt.c: 105:     PIN_MANAGER_IOC();
  4613   00113C  ECB7  F008         	call	_PIN_MANAGER_IOC	;wreg free
  4614   001140  0011               	retfie		f
  4615   001142                     __end_of_IOC_ISR:
  4616                           	callstack 0
  4617                           
  4618 ;; *************** function _PIN_MANAGER_IOC *****************
  4619 ;; Defined at:
  4620 ;;		line 144 in file "mcc_generated_files/system/src/pins.c"
  4621 ;; Parameters:    Size  Location     Type
  4622 ;;		None
  4623 ;; Auto vars:     Size  Location     Type
  4624 ;;		None
  4625 ;; Return value:  Size  Location     Type
  4626 ;;                  1    wreg      void 
  4627 ;; Registers used:
  4628 ;;		None
  4629 ;; Tracked objects:
  4630 ;;		On entry : 0/0
  4631 ;;		On exit  : 0/0
  4632 ;;		Unchanged: 0/0
  4633 ;; Data sizes:     COMRAM   BANK0   BANK1   BANK2   BANK3   BANK4   BANK5   BANK6   BANK7   BANK8   BANK9  BANK10  BANK1
      +1  BANK12  BANK13  BANK14  BANK15
  4634 ;;      Params:         0       0       0       0       0       0       0       0       0       0       0       0       
      +0       0       0       0       0
  4635 ;;      Locals:         0       0       0       0       0       0       0       0       0       0       0       0       
      +0       0       0       0       0
  4636 ;;      Temps:          0       0       0       0       0       0       0       0       0       0       0       0       
      +0       0       0       0       0
  4637 ;;      Totals:         0       0       0       0       0       0       0       0       0       0       0       0       
      +0       0       0       0       0
  4638 ;;Total ram usage:        0 bytes
  4639 ;; Hardware stack levels used: 1
  4640 ;; Hardware stack levels required when called: 3
  4641 ;; This function calls:
  4642 ;;		Nothing
  4643 ;; This function is called by:
  4644 ;;		_IOC_ISR
  4645 ;; This function uses a non-reentrant model
  4646 ;;
  4647                           
  4648                           	psect	text36
  4649   00116E                     __ptext36:
  4650                           	callstack 0
  4651   00116E                     _PIN_MANAGER_IOC:
  4652                           	callstack 23
  4653   00116E  0012               	return		;funcret
  4654   001170                     __end_of_PIN_MANAGER_IOC:
  4655                           	callstack 0
  4656                           
  4657 ;; *************** function _INT0_ISR *****************
  4658 ;; Defined at:
  4659 ;;		line 116 in file "mcc_generated_files/system/src/interrupt.c"
  4660 ;; Parameters:    Size  Location     Type
  4661 ;;		None
  4662 ;; Auto vars:     Size  Location     Type
  4663 ;;		None
  4664 ;; Return value:  Size  Location     Type
  4665 ;;                  1    wreg      void 
  4666 ;; Registers used:
  4667 ;;		wreg, status,2, status,0, pcl, pclath, pclatu, tosl, cstack
  4668 ;; Tracked objects:
  4669 ;;		On entry : 0/0
  4670 ;;		On exit  : 0/0
  4671 ;;		Unchanged: 0/0
  4672 ;; Data sizes:     COMRAM   BANK0   BANK1   BANK2   BANK3   BANK4   BANK5   BANK6   BANK7   BANK8   BANK9  BANK10  BANK1
      +1  BANK12  BANK13  BANK14  BANK15
  4673 ;;      Params:         0       0       0       0       0       0       0       0       0       0       0       0       
      +0       0       0       0       0
  4674 ;;      Locals:         0       0       0       0       0       0       0       0       0       0       0       0       
      +0       0       0       0       0
  4675 ;;      Temps:          0       0       3       0       0       0       0       0       0       0       0       0       
      +0       0       0       0       0
  4676 ;;      Totals:         0       0       3       0       0       0       0       0       0       0       0       0       
      +0       0       0       0       0
  4677 ;;Total ram usage:        3 bytes
  4678 ;; Hardware stack levels used: 1
  4679 ;; Hardware stack levels required when called: 5
  4680 ;; This function calls:
  4681 ;;		_INT0_CallBack
  4682 ;; This function is called by:
  4683 ;;		Interrupt level 1
  4684 ;; This function uses a non-reentrant model
  4685 ;;
  4686                           
  4687                           	psect	text37
  4688   000CF4                     __ptext37:
  4689                           	callstack 0
  4690   000CF4                     _INT0_ISR:
  4691                           	callstack 22
  4692                           
  4693                           ;incstack = 0
  4694   000CF4  006F FF60  F1C0    	movff	status,??_INT0_ISR
  4695   000CFA  006F FFE8  F1C1    	movff	pclath,??_INT0_ISR+1
  4696   000D00  006F FFEC  F1C2    	movff	pclatu,??_INT0_ISR+2
  4697   000D06                     
  4698                           ;mcc_generated_files/system/src/interrupt.c: 118:     (PIR1bits.INT0IF = 0);
  4699   000D06  0139               	movlb	57	; () banked
  4700   000D08  91A1               	bcf	161,0,b	;volatile
  4701   000D0A                     
  4702                           ; BSR set to: 57
  4703                           ;mcc_generated_files/system/src/interrupt.c: 121:     INT0_CallBack();
  4704   000D0A  EC91  F006         	call	_INT0_CallBack	;wreg free
  4705   000D0E  0060  F70B  FFFB   	movff	??_INT0_ISR+2,pclatu
  4706   000D14  0060  F707  FFFA   	movff	??_INT0_ISR+1,pclath
  4707   000D1A  0060  F703  FFD8   	movff	??_INT0_ISR,status
  4708   000D20  0011               	retfie		f
  4709   000D22                     __end_of_INT0_ISR:
  4710                           	callstack 0
  4711                           
  4712 ;; *************** function _INT0_CallBack *****************
  4713 ;; Defined at:
  4714 ;;		line 125 in file "mcc_generated_files/system/src/interrupt.c"
  4715 ;; Parameters:    Size  Location     Type
  4716 ;;		None
  4717 ;; Auto vars:     Size  Location     Type
  4718 ;;		None
  4719 ;; Return value:  Size  Location     Type
  4720 ;;                  1    wreg      void 
  4721 ;; Registers used:
  4722 ;;		wreg, status,2, status,0, pcl, pclath, pclatu, tosl, cstack
  4723 ;; Tracked objects:
  4724 ;;		On entry : 0/0
  4725 ;;		On exit  : 0/0
  4726 ;;		Unchanged: 0/0
  4727 ;; Data sizes:     COMRAM   BANK0   BANK1   BANK2   BANK3   BANK4   BANK5   BANK6   BANK7   BANK8   BANK9  BANK10  BANK1
      +1  BANK12  BANK13  BANK14  BANK15
  4728 ;;      Params:         0       0       0       0       0       0       0       0       0       0       0       0       
      +0       0       0       0       0
  4729 ;;      Locals:         0       0       0       0       0       0       0       0       0       0       0       0       
      +0       0       0       0       0
  4730 ;;      Temps:          0       0       0       0       0       0       0       0       0       0       0       0       
      +0       0       0       0       0
  4731 ;;      Totals:         0       0       0       0       0       0       0       0       0       0       0       0       
      +0       0       0       0       0
  4732 ;;Total ram usage:        0 bytes
  4733 ;; Hardware stack levels used: 1
  4734 ;; Hardware stack levels required when called: 4
  4735 ;; This function calls:
  4736 ;;		Absolute function
  4737 ;;		_INT0_DefaultInterruptHandler
  4738 ;; This function is called by:
  4739 ;;		_INT0_ISR
  4740 ;; This function uses a non-reentrant model
  4741 ;;
  4742                           
  4743                           	psect	text38
  4744   000D22                     __ptext38:
  4745                           	callstack 0
  4746   000D22                     _INT0_CallBack:
  4747                           	callstack 22
  4748   000D22                     
  4749                           ;mcc_generated_files/system/src/interrupt.c: 128:     if(INT0_InterruptHandler)
  4750   000D22  0100               	movlb	0	; () banked
  4751   000D24  51B8               	movf	_INT0_InterruptHandler& (0+255),w,b
  4752   000D26  11B9               	iorwf	(_INT0_InterruptHandler+1)& (0+255),w,b
  4753   000D28  B4D8               	btfsc	status,2,c
  4754   000D2A  EF99  F006         	goto	i1u122_21
  4755   000D2E  EF9B  F006         	goto	i1u122_20
  4756   000D32                     i1u122_21:
  4757   000D32  EFA7  F006         	goto	i1l580
  4758   000D36                     i1u122_20:
  4759   000D36                     
  4760                           ; BSR set to: 0
  4761                           ;mcc_generated_files/system/src/interrupt.c: 129:     {;mcc_generated_files/system/src/i
      +                          nterrupt.c: 130:         INT0_InterruptHandler();
  4762   000D36  D802               	call	i1u123_28
  4763   000D38  EFA7  F006         	goto	i1u123_29
  4764   000D3C                     i1u123_28:
  4765   000D3C  0005               	push	
  4766   000D3E  6EFA               	movwf	pclath,c
  4767   000D40  51B8               	movf	_INT0_InterruptHandler& (0+255),w,b
  4768   000D42  6EFD               	movwf	tosl,c
  4769   000D44  51B9               	movf	(_INT0_InterruptHandler+1)& (0+255),w,b
  4770   000D46  6EFE               	movwf	tosh,c
  4771   000D48  6AFF               	clrf	tosu,c
  4772   000D4A  50FA               	movf	pclath,w,c
  4773   000D4C  0012               	return		;indir
  4774   000D4E                     i1u123_29:
  4775   000D4E                     i1l580:
  4776   000D4E  0012               	return		;funcret
  4777   000D50                     __end_of_INT0_CallBack:
  4778                           	callstack 0
  4779                           
  4780 ;; *************** function _INT0_DefaultInterruptHandler *****************
  4781 ;; Defined at:
  4782 ;;		line 138 in file "mcc_generated_files/system/src/interrupt.c"
  4783 ;; Parameters:    Size  Location     Type
  4784 ;;		None
  4785 ;; Auto vars:     Size  Location     Type
  4786 ;;		None
  4787 ;; Return value:  Size  Location     Type
  4788 ;;                  1    wreg      void 
  4789 ;; Registers used:
  4790 ;;		None
  4791 ;; Tracked objects:
  4792 ;;		On entry : 0/0
  4793 ;;		On exit  : 0/0
  4794 ;;		Unchanged: 0/0
  4795 ;; Data sizes:     COMRAM   BANK0   BANK1   BANK2   BANK3   BANK4   BANK5   BANK6   BANK7   BANK8   BANK9  BANK10  BANK1
      +1  BANK12  BANK13  BANK14  BANK15
  4796 ;;      Params:         0       0       0       0       0       0       0       0       0       0       0       0       
      +0       0       0       0       0
  4797 ;;      Locals:         0       0       0       0       0       0       0       0       0       0       0       0       
      +0       0       0       0       0
  4798 ;;      Temps:          0       0       0       0       0       0       0       0       0       0       0       0       
      +0       0       0       0       0
  4799 ;;      Totals:         0       0       0       0       0       0       0       0       0       0       0       0       
      +0       0       0       0       0
  4800 ;;Total ram usage:        0 bytes
  4801 ;; Hardware stack levels used: 1
  4802 ;; Hardware stack levels required when called: 3
  4803 ;; This function calls:
  4804 ;;		Nothing
  4805 ;; This function is called by:
  4806 ;;		_INTERRUPT_Initialize
  4807 ;;		_INT0_CallBack
  4808 ;; This function uses a non-reentrant model
  4809 ;;
  4810                           
  4811                           	psect	text39
  4812   001170                     __ptext39:
  4813                           	callstack 0
  4814   001170                     _INT0_DefaultInterruptHandler:
  4815                           	callstack 22
  4816   001170  0012               	return		;funcret
  4817   001172                     __end_of_INT0_DefaultInterruptHandler:
  4818                           	callstack 0
  4819                           
  4820 ;; *************** function _INT1_ISR *****************
  4821 ;; Defined at:
  4822 ;;		line 150 in file "mcc_generated_files/system/src/interrupt.c"
  4823 ;; Parameters:    Size  Location     Type
  4824 ;;		None
  4825 ;; Auto vars:     Size  Location     Type
  4826 ;;		None
  4827 ;; Return value:  Size  Location     Type
  4828 ;;                  1    wreg      void 
  4829 ;; Registers used:
  4830 ;;		wreg, status,2, status,0, pcl, pclath, pclatu, tosl, cstack
  4831 ;; Tracked objects:
  4832 ;;		On entry : 0/0
  4833 ;;		On exit  : 0/0
  4834 ;;		Unchanged: 0/0
  4835 ;; Data sizes:     COMRAM   BANK0   BANK1   BANK2   BANK3   BANK4   BANK5   BANK6   BANK7   BANK8   BANK9  BANK10  BANK1
      +1  BANK12  BANK13  BANK14  BANK15
  4836 ;;      Params:         0       0       0       0       0       0       0       0       0       0       0       0       
      +0       0       0       0       0
  4837 ;;      Locals:         0       0       0       0       0       0       0       0       0       0       0       0       
      +0       0       0       0       0
  4838 ;;      Temps:          0       0       3       0       0       0       0       0       0       0       0       0       
      +0       0       0       0       0
  4839 ;;      Totals:         0       0       3       0       0       0       0       0       0       0       0       0       
      +0       0       0       0       0
  4840 ;;Total ram usage:        3 bytes
  4841 ;; Hardware stack levels used: 1
  4842 ;; Hardware stack levels required when called: 5
  4843 ;; This function calls:
  4844 ;;		_INT1_CallBack
  4845 ;; This function is called by:
  4846 ;;		Interrupt level 1
  4847 ;; This function uses a non-reentrant model
  4848 ;;
  4849                           
  4850                           	psect	text40
  4851   000D50                     __ptext40:
  4852                           	callstack 0
  4853   000D50                     _INT1_ISR:
  4854                           	callstack 22
  4855                           
  4856                           ;incstack = 0
  4857   000D50  006F FF60  F1C3    	movff	status,??_INT1_ISR
  4858   000D56  006F FFE8  F1C4    	movff	pclath,??_INT1_ISR+1
  4859   000D5C  006F FFEC  F1C5    	movff	pclatu,??_INT1_ISR+2
  4860   000D62                     
  4861                           ;mcc_generated_files/system/src/interrupt.c: 152:     (PIR5bits.INT1IF = 0);
  4862   000D62  0139               	movlb	57	; () banked
  4863   000D64  91A5               	bcf	165,0,b	;volatile
  4864   000D66                     
  4865                           ; BSR set to: 57
  4866                           ;mcc_generated_files/system/src/interrupt.c: 155:     INT1_CallBack();
  4867   000D66  ECBF  F006         	call	_INT1_CallBack	;wreg free
  4868   000D6A  0060  F717  FFFB   	movff	??_INT1_ISR+2,pclatu
  4869   000D70  0060  F713  FFFA   	movff	??_INT1_ISR+1,pclath
  4870   000D76  0060  F70F  FFD8   	movff	??_INT1_ISR,status
  4871   000D7C  0011               	retfie		f
  4872   000D7E                     __end_of_INT1_ISR:
  4873                           	callstack 0
  4874                           
  4875 ;; *************** function _INT1_CallBack *****************
  4876 ;; Defined at:
  4877 ;;		line 159 in file "mcc_generated_files/system/src/interrupt.c"
  4878 ;; Parameters:    Size  Location     Type
  4879 ;;		None
  4880 ;; Auto vars:     Size  Location     Type
  4881 ;;		None
  4882 ;; Return value:  Size  Location     Type
  4883 ;;                  1    wreg      void 
  4884 ;; Registers used:
  4885 ;;		wreg, status,2, status,0, pcl, pclath, pclatu, tosl, cstack
  4886 ;; Tracked objects:
  4887 ;;		On entry : 0/0
  4888 ;;		On exit  : 0/0
  4889 ;;		Unchanged: 0/0
  4890 ;; Data sizes:     COMRAM   BANK0   BANK1   BANK2   BANK3   BANK4   BANK5   BANK6   BANK7   BANK8   BANK9  BANK10  BANK1
      +1  BANK12  BANK13  BANK14  BANK15
  4891 ;;      Params:         0       0       0       0       0       0       0       0       0       0       0       0       
      +0       0       0       0       0
  4892 ;;      Locals:         0       0       0       0       0       0       0       0       0       0       0       0       
      +0       0       0       0       0
  4893 ;;      Temps:          0       0       0       0       0       0       0       0       0       0       0       0       
      +0       0       0       0       0
  4894 ;;      Totals:         0       0       0       0       0       0       0       0       0       0       0       0       
      +0       0       0       0       0
  4895 ;;Total ram usage:        0 bytes
  4896 ;; Hardware stack levels used: 1
  4897 ;; Hardware stack levels required when called: 4
  4898 ;; This function calls:
  4899 ;;		Absolute function
  4900 ;;		_INT1_DefaultInterruptHandler
  4901 ;; This function is called by:
  4902 ;;		_INT1_ISR
  4903 ;; This function uses a non-reentrant model
  4904 ;;
  4905                           
  4906                           	psect	text41
  4907   000D7E                     __ptext41:
  4908                           	callstack 0
  4909   000D7E                     _INT1_CallBack:
  4910                           	callstack 22
  4911   000D7E                     
  4912                           ;mcc_generated_files/system/src/interrupt.c: 162:     if(INT1_InterruptHandler)
  4913   000D7E  0100               	movlb	0	; () banked
  4914   000D80  51B6               	movf	_INT1_InterruptHandler& (0+255),w,b
  4915   000D82  11B7               	iorwf	(_INT1_InterruptHandler+1)& (0+255),w,b
  4916   000D84  B4D8               	btfsc	status,2,c
  4917   000D86  EFC7  F006         	goto	i1u124_21
  4918   000D8A  EFC9  F006         	goto	i1u124_20
  4919   000D8E                     i1u124_21:
  4920   000D8E  EFD5  F006         	goto	i1l595
  4921   000D92                     i1u124_20:
  4922   000D92                     
  4923                           ; BSR set to: 0
  4924                           ;mcc_generated_files/system/src/interrupt.c: 163:     {;mcc_generated_files/system/src/i
      +                          nterrupt.c: 164:         INT1_InterruptHandler();
  4925   000D92  D802               	call	i1u125_28
  4926   000D94  EFD5  F006         	goto	i1u125_29
  4927   000D98                     i1u125_28:
  4928   000D98  0005               	push	
  4929   000D9A  6EFA               	movwf	pclath,c
  4930   000D9C  51B6               	movf	_INT1_InterruptHandler& (0+255),w,b
  4931   000D9E  6EFD               	movwf	tosl,c
  4932   000DA0  51B7               	movf	(_INT1_InterruptHandler+1)& (0+255),w,b
  4933   000DA2  6EFE               	movwf	tosh,c
  4934   000DA4  6AFF               	clrf	tosu,c
  4935   000DA6  50FA               	movf	pclath,w,c
  4936   000DA8  0012               	return		;indir
  4937   000DAA                     i1u125_29:
  4938   000DAA                     i1l595:
  4939   000DAA  0012               	return		;funcret
  4940   000DAC                     __end_of_INT1_CallBack:
  4941                           	callstack 0
  4942                           
  4943 ;; *************** function _INT1_DefaultInterruptHandler *****************
  4944 ;; Defined at:
  4945 ;;		line 172 in file "mcc_generated_files/system/src/interrupt.c"
  4946 ;; Parameters:    Size  Location     Type
  4947 ;;		None
  4948 ;; Auto vars:     Size  Location     Type
  4949 ;;		None
  4950 ;; Return value:  Size  Location     Type
  4951 ;;                  1    wreg      void 
  4952 ;; Registers used:
  4953 ;;		None
  4954 ;; Tracked objects:
  4955 ;;		On entry : 0/0
  4956 ;;		On exit  : 0/0
  4957 ;;		Unchanged: 0/0
  4958 ;; Data sizes:     COMRAM   BANK0   BANK1   BANK2   BANK3   BANK4   BANK5   BANK6   BANK7   BANK8   BANK9  BANK10  BANK1
      +1  BANK12  BANK13  BANK14  BANK15
  4959 ;;      Params:         0       0       0       0       0       0       0       0       0       0       0       0       
      +0       0       0       0       0
  4960 ;;      Locals:         0       0       0       0       0       0       0       0       0       0       0       0       
      +0       0       0       0       0
  4961 ;;      Temps:          0       0       0       0       0       0       0       0       0       0       0       0       
      +0       0       0       0       0
  4962 ;;      Totals:         0       0       0       0       0       0       0       0       0       0       0       0       
      +0       0       0       0       0
  4963 ;;Total ram usage:        0 bytes
  4964 ;; Hardware stack levels used: 1
  4965 ;; Hardware stack levels required when called: 3
  4966 ;; This function calls:
  4967 ;;		Nothing
  4968 ;; This function is called by:
  4969 ;;		_INTERRUPT_Initialize
  4970 ;;		_INT1_CallBack
  4971 ;; This function uses a non-reentrant model
  4972 ;;
  4973                           
  4974                           	psect	text42
  4975   001172                     __ptext42:
  4976                           	callstack 0
  4977   001172                     _INT1_DefaultInterruptHandler:
  4978                           	callstack 22
  4979   001172  0012               	return		;funcret
  4980   001174                     __end_of_INT1_DefaultInterruptHandler:
  4981                           	callstack 0
  4982                           
  4983 ;; *************** function _INT2_ISR *****************
  4984 ;; Defined at:
  4985 ;;		line 184 in file "mcc_generated_files/system/src/interrupt.c"
  4986 ;; Parameters:    Size  Location     Type
  4987 ;;		None
  4988 ;; Auto vars:     Size  Location     Type
  4989 ;;		None
  4990 ;; Return value:  Size  Location     Type
  4991 ;;                  1    wreg      void 
  4992 ;; Registers used:
  4993 ;;		wreg, status,2, status,0, pcl, pclath, pclatu, tosl, cstack
  4994 ;; Tracked objects:
  4995 ;;		On entry : 0/0
  4996 ;;		On exit  : 0/0
  4997 ;;		Unchanged: 0/0
  4998 ;; Data sizes:     COMRAM   BANK0   BANK1   BANK2   BANK3   BANK4   BANK5   BANK6   BANK7   BANK8   BANK9  BANK10  BANK1
      +1  BANK12  BANK13  BANK14  BANK15
  4999 ;;      Params:         0       0       0       0       0       0       0       0       0       0       0       0       
      +0       0       0       0       0
  5000 ;;      Locals:         0       0       0       0       0       0       0       0       0       0       0       0       
      +0       0       0       0       0
  5001 ;;      Temps:          0       0       3       0       0       0       0       0       0       0       0       0       
      +0       0       0       0       0
  5002 ;;      Totals:         0       0       3       0       0       0       0       0       0       0       0       0       
      +0       0       0       0       0
  5003 ;;Total ram usage:        3 bytes
  5004 ;; Hardware stack levels used: 1
  5005 ;; Hardware stack levels required when called: 5
  5006 ;; This function calls:
  5007 ;;		_INT2_CallBack
  5008 ;; This function is called by:
  5009 ;;		Interrupt level 1
  5010 ;; This function uses a non-reentrant model
  5011 ;;
  5012                           
  5013                           	psect	text43
  5014   000DAC                     __ptext43:
  5015                           	callstack 0
  5016   000DAC                     _INT2_ISR:
  5017                           	callstack 22
  5018                           
  5019                           ;incstack = 0
  5020   000DAC  006F FF60  F1C6    	movff	status,??_INT2_ISR
  5021   000DB2  006F FFE8  F1C7    	movff	pclath,??_INT2_ISR+1
  5022   000DB8  006F FFEC  F1C8    	movff	pclatu,??_INT2_ISR+2
  5023   000DBE                     
  5024                           ;mcc_generated_files/system/src/interrupt.c: 186:     (PIR7bits.INT2IF = 0);
  5025   000DBE  0139               	movlb	57	; () banked
  5026   000DC0  9BA7               	bcf	167,5,b	;volatile
  5027   000DC2                     
  5028                           ; BSR set to: 57
  5029                           ;mcc_generated_files/system/src/interrupt.c: 189:     INT2_CallBack();
  5030   000DC2  ECED  F006         	call	_INT2_CallBack	;wreg free
  5031   000DC6  0060  F723  FFFB   	movff	??_INT2_ISR+2,pclatu
  5032   000DCC  0060  F71F  FFFA   	movff	??_INT2_ISR+1,pclath
  5033   000DD2  0060  F71B  FFD8   	movff	??_INT2_ISR,status
  5034   000DD8  0011               	retfie		f
  5035   000DDA                     __end_of_INT2_ISR:
  5036                           	callstack 0
  5037                           
  5038 ;; *************** function _INT2_CallBack *****************
  5039 ;; Defined at:
  5040 ;;		line 193 in file "mcc_generated_files/system/src/interrupt.c"
  5041 ;; Parameters:    Size  Location     Type
  5042 ;;		None
  5043 ;; Auto vars:     Size  Location     Type
  5044 ;;		None
  5045 ;; Return value:  Size  Location     Type
  5046 ;;                  1    wreg      void 
  5047 ;; Registers used:
  5048 ;;		wreg, status,2, status,0, pcl, pclath, pclatu, tosl, cstack
  5049 ;; Tracked objects:
  5050 ;;		On entry : 0/0
  5051 ;;		On exit  : 0/0
  5052 ;;		Unchanged: 0/0
  5053 ;; Data sizes:     COMRAM   BANK0   BANK1   BANK2   BANK3   BANK4   BANK5   BANK6   BANK7   BANK8   BANK9  BANK10  BANK1
      +1  BANK12  BANK13  BANK14  BANK15
  5054 ;;      Params:         0       0       0       0       0       0       0       0       0       0       0       0       
      +0       0       0       0       0
  5055 ;;      Locals:         0       0       0       0       0       0       0       0       0       0       0       0       
      +0       0       0       0       0
  5056 ;;      Temps:          0       0       0       0       0       0       0       0       0       0       0       0       
      +0       0       0       0       0
  5057 ;;      Totals:         0       0       0       0       0       0       0       0       0       0       0       0       
      +0       0       0       0       0
  5058 ;;Total ram usage:        0 bytes
  5059 ;; Hardware stack levels used: 1
  5060 ;; Hardware stack levels required when called: 4
  5061 ;; This function calls:
  5062 ;;		Absolute function
  5063 ;;		_INT2_DefaultInterruptHandler
  5064 ;; This function is called by:
  5065 ;;		_INT2_ISR
  5066 ;; This function uses a non-reentrant model
  5067 ;;
  5068                           
  5069                           	psect	text44
  5070   000DDA                     __ptext44:
  5071                           	callstack 0
  5072   000DDA                     _INT2_CallBack:
  5073                           	callstack 22
  5074   000DDA                     
  5075                           ;mcc_generated_files/system/src/interrupt.c: 196:     if(INT2_InterruptHandler)
  5076   000DDA  0100               	movlb	0	; () banked
  5077   000DDC  51B4               	movf	_INT2_InterruptHandler& (0+255),w,b
  5078   000DDE  11B5               	iorwf	(_INT2_InterruptHandler+1)& (0+255),w,b
  5079   000DE0  B4D8               	btfsc	status,2,c
  5080   000DE2  EFF5  F006         	goto	i1u126_21
  5081   000DE6  EFF7  F006         	goto	i1u126_20
  5082   000DEA                     i1u126_21:
  5083   000DEA  EF03  F007         	goto	i1l610
  5084   000DEE                     i1u126_20:
  5085   000DEE                     
  5086                           ; BSR set to: 0
  5087                           ;mcc_generated_files/system/src/interrupt.c: 197:     {;mcc_generated_files/system/src/i
      +                          nterrupt.c: 198:         INT2_InterruptHandler();
  5088   000DEE  D802               	call	i1u127_28
  5089   000DF0  EF03  F007         	goto	i1u127_29
  5090   000DF4                     i1u127_28:
  5091   000DF4  0005               	push	
  5092   000DF6  6EFA               	movwf	pclath,c
  5093   000DF8  51B4               	movf	_INT2_InterruptHandler& (0+255),w,b
  5094   000DFA  6EFD               	movwf	tosl,c
  5095   000DFC  51B5               	movf	(_INT2_InterruptHandler+1)& (0+255),w,b
  5096   000DFE  6EFE               	movwf	tosh,c
  5097   000E00  6AFF               	clrf	tosu,c
  5098   000E02  50FA               	movf	pclath,w,c
  5099   000E04  0012               	return		;indir
  5100   000E06                     i1u127_29:
  5101   000E06                     i1l610:
  5102   000E06  0012               	return		;funcret
  5103   000E08                     __end_of_INT2_CallBack:
  5104                           	callstack 0
  5105                           
  5106 ;; *************** function _INT2_DefaultInterruptHandler *****************
  5107 ;; Defined at:
  5108 ;;		line 206 in file "mcc_generated_files/system/src/interrupt.c"
  5109 ;; Parameters:    Size  Location     Type
  5110 ;;		None
  5111 ;; Auto vars:     Size  Location     Type
  5112 ;;		None
  5113 ;; Return value:  Size  Location     Type
  5114 ;;                  1    wreg      void 
  5115 ;; Registers used:
  5116 ;;		None
  5117 ;; Tracked objects:
  5118 ;;		On entry : 0/0
  5119 ;;		On exit  : 0/0
  5120 ;;		Unchanged: 0/0
  5121 ;; Data sizes:     COMRAM   BANK0   BANK1   BANK2   BANK3   BANK4   BANK5   BANK6   BANK7   BANK8   BANK9  BANK10  BANK1
      +1  BANK12  BANK13  BANK14  BANK15
  5122 ;;      Params:         0       0       0       0       0       0       0       0       0       0       0       0       
      +0       0       0       0       0
  5123 ;;      Locals:         0       0       0       0       0       0       0       0       0       0       0       0       
      +0       0       0       0       0
  5124 ;;      Temps:          0       0       0       0       0       0       0       0       0       0       0       0       
      +0       0       0       0       0
  5125 ;;      Totals:         0       0       0       0       0       0       0       0       0       0       0       0       
      +0       0       0       0       0
  5126 ;;Total ram usage:        0 bytes
  5127 ;; Hardware stack levels used: 1
  5128 ;; Hardware stack levels required when called: 3
  5129 ;; This function calls:
  5130 ;;		Nothing
  5131 ;; This function is called by:
  5132 ;;		_INTERRUPT_Initialize
  5133 ;;		_INT2_CallBack
  5134 ;; This function uses a non-reentrant model
  5135 ;;
  5136                           
  5137                           	psect	text45
  5138   001174                     __ptext45:
  5139                           	callstack 0
  5140   001174                     _INT2_DefaultInterruptHandler:
  5141                           	callstack 22
  5142   001174  0012               	return		;funcret
  5143   001176                     __end_of_INT2_DefaultInterruptHandler:
  5144                           	callstack 0
  5145                           
  5146 ;; *************** function _Default_ISR *****************
  5147 ;; Defined at:
  5148 ;;		line 99 in file "mcc_generated_files/system/src/interrupt.c"
  5149 ;; Parameters:    Size  Location     Type
  5150 ;;		None
  5151 ;; Auto vars:     Size  Location     Type
  5152 ;;		None
  5153 ;; Return value:  Size  Location     Type
  5154 ;;                  1    wreg      void 
  5155 ;; Registers used:
  5156 ;;		None
  5157 ;; Tracked objects:
  5158 ;;		On entry : 0/0
  5159 ;;		On exit  : 0/0
  5160 ;;		Unchanged: 0/0
  5161 ;; Data sizes:     COMRAM   BANK0   BANK1   BANK2   BANK3   BANK4   BANK5   BANK6   BANK7   BANK8   BANK9  BANK10  BANK1
      +1  BANK12  BANK13  BANK14  BANK15
  5162 ;;      Params:         0       0       0       0       0       0       0       0       0       0       0       0       
      +0       0       0       0       0
  5163 ;;      Locals:         0       0       0       0       0       0       0       0       0       0       0       0       
      +0       0       0       0       0
  5164 ;;      Temps:          0       0       0       0       0       0       0       0       0       0       0       0       
      +0       0       0       0       0
  5165 ;;      Totals:         0       0       0       0       0       0       0       0       0       0       0       0       
      +0       0       0       0       0
  5166 ;;Total ram usage:        0 bytes
  5167 ;; Hardware stack levels used: 1
  5168 ;; This function calls:
  5169 ;;		Nothing
  5170 ;; This function is called by:
  5171 ;;		Interrupt level 2
  5172 ;; This function uses a non-reentrant model
  5173 ;;
  5174                           
  5175                           	psect	text46
  5176   001178                     __ptext46:
  5177                           	callstack 0
  5178   001178                     _Default_ISR:
  5179                           	callstack 22
  5180   001178  0011               	retfie		f
  5181   00117A                     __end_of_Default_ISR:
  5182                           	callstack 0
  5183                           
  5184 ;; *************** function _Timer_OverflowISR *****************
  5185 ;; Defined at:
  5186 ;;		line 118 in file "mcc_generated_files/timer/src/tmr0.c"
  5187 ;; Parameters:    Size  Location     Type
  5188 ;;		None
  5189 ;; Auto vars:     Size  Location     Type
  5190 ;;		None
  5191 ;; Return value:  Size  Location     Type
  5192 ;;                  1    wreg      void 
  5193 ;; Registers used:
  5194 ;;		wreg, status,2, status,0, pcl, pclath, pclatu, tosl, cstack
  5195 ;; Tracked objects:
  5196 ;;		On entry : 0/0
  5197 ;;		On exit  : 0/0
  5198 ;;		Unchanged: 0/0
  5199 ;; Data sizes:     COMRAM   BANK0   BANK1   BANK2   BANK3   BANK4   BANK5   BANK6   BANK7   BANK8   BANK9  BANK10  BANK1
      +1  BANK12  BANK13  BANK14  BANK15
  5200 ;;      Params:         0       0       0       0       0       0       0       0       0       0       0       0       
      +0       0       0       0       0
  5201 ;;      Locals:         0       0       0       0       0       0       0       0       0       0       0       0       
      +0       0       0       0       0
  5202 ;;      Temps:          2       0       0       0       0       0       0       0       0       0       0       0       
      +0       0       0       0       0
  5203 ;;      Totals:         2       0       0       0       0       0       0       0       0       0       0       0       
      +0       0       0       0       0
  5204 ;;Total ram usage:        2 bytes
  5205 ;; Hardware stack levels used: 1
  5206 ;; Hardware stack levels required when called: 2
  5207 ;; This function calls:
  5208 ;;		Absolute function
  5209 ;;		_Timer2_DefaultOverflowCallback
  5210 ;;		_Timer_DefaultOverflowCallback
  5211 ;;		_Timer_int
  5212 ;; This function is called by:
  5213 ;;		Interrupt level 2
  5214 ;; This function uses a non-reentrant model
  5215 ;;
  5216                           
  5217                           	psect	text47
  5218   000A68                     __ptext47:
  5219                           	callstack 0
  5220   000A68                     _Timer_OverflowISR:
  5221                           	callstack 20
  5222                           
  5223                           ;incstack = 0
  5224   000A68  006F FFE8  F002    	movff	pclath,??_Timer_OverflowISR
  5225   000A6E  006F FFEC  F003    	movff	pclatu,??_Timer_OverflowISR+1
  5226   000A74                     
  5227                           ;mcc_generated_files/timer/src/tmr0.c: 121:     PIR3bits.TMR0IF = 0;
  5228   000A74  0139               	movlb	57	; () banked
  5229   000A76  9FA3               	bcf	163,7,b	;volatile
  5230   000A78                     
  5231                           ; BSR set to: 57
  5232                           ;mcc_generated_files/timer/src/tmr0.c: 123:     TMR0H = timerTMR0ReloadVal16bit >> 8;
  5233   000A78  0100               	movlb	0	; () banked
  5234   000A7A  51B3               	movf	(_timerTMR0ReloadVal16bit+1)& (0+255),w,b	;volatile
  5235   000A7C  6EB7               	movwf	183,c	;volatile
  5236   000A7E                     
  5237                           ; BSR set to: 0
  5238                           ;mcc_generated_files/timer/src/tmr0.c: 124:     TMR0L = (uint8_t) timerTMR0ReloadVal16bi
      +                          t;
  5239   000A7E  0060  F2CB  FFB6   	movff	_timerTMR0ReloadVal16bit,16310	;volatile
  5240   000A84                     
  5241                           ; BSR set to: 0
  5242                           ;mcc_generated_files/timer/src/tmr0.c: 128:     if(Timer_OverflowCallback)
  5243   000A84  51B0               	movf	_Timer_OverflowCallback& (0+255),w,b
  5244   000A86  11B1               	iorwf	(_Timer_OverflowCallback+1)& (0+255),w,b
  5245   000A88  B4D8               	btfsc	status,2,c
  5246   000A8A  EF49  F005         	goto	i2u181_41
  5247   000A8E  EF4B  F005         	goto	i2u181_40
  5248   000A92                     i2u181_41:
  5249   000A92  EF57  F005         	goto	i2l675
  5250   000A96                     i2u181_40:
  5251   000A96                     
  5252                           ; BSR set to: 0
  5253                           ;mcc_generated_files/timer/src/tmr0.c: 129:     {;mcc_generated_files/timer/src/tmr0.c: 
      +                          130:         Timer_OverflowCallback();
  5254   000A96  D802               	call	i2u182_48
  5255   000A98  EF57  F005         	goto	i2u182_49
  5256   000A9C                     i2u182_48:
  5257   000A9C  0005               	push	
  5258   000A9E  6EFA               	movwf	pclath,c
  5259   000AA0  51B0               	movf	_Timer_OverflowCallback& (0+255),w,b
  5260   000AA2  6EFD               	movwf	tosl,c
  5261   000AA4  51B1               	movf	(_Timer_OverflowCallback+1)& (0+255),w,b
  5262   000AA6  6EFE               	movwf	tosh,c
  5263   000AA8  6AFF               	clrf	tosu,c
  5264   000AAA  50FA               	movf	pclath,w,c
  5265   000AAC  0012               	return		;indir
  5266   000AAE                     i2u182_49:
  5267   000AAE                     i2l675:
  5268   000AAE  0060  F00F  FFFB   	movff	??_Timer_OverflowISR+1,pclatu
  5269   000AB4  0060  F00B  FFFA   	movff	??_Timer_OverflowISR,pclath
  5270   000ABA  0011               	retfie		f
  5271   000ABC                     __end_of_Timer_OverflowISR:
  5272                           	callstack 0
  5273                           
  5274 ;; *************** function _Timer2_DefaultOverflowCallback *****************
  5275 ;; Defined at:
  5276 ;;		line 133 in file "mcc_generated_files/timer/src/tmr2.c"
  5277 ;; Parameters:    Size  Location     Type
  5278 ;;		None
  5279 ;; Auto vars:     Size  Location     Type
  5280 ;;		None
  5281 ;; Return value:  Size  Location     Type
  5282 ;;                  1    wreg      void 
  5283 ;; Registers used:
  5284 ;;		None
  5285 ;; Tracked objects:
  5286 ;;		On entry : 0/0
  5287 ;;		On exit  : 0/0
  5288 ;;		Unchanged: 0/0
  5289 ;; Data sizes:     COMRAM   BANK0   BANK1   BANK2   BANK3   BANK4   BANK5   BANK6   BANK7   BANK8   BANK9  BANK10  BANK1
      +1  BANK12  BANK13  BANK14  BANK15
  5290 ;;      Params:         0       0       0       0       0       0       0       0       0       0       0       0       
      +0       0       0       0       0
  5291 ;;      Locals:         0       0       0       0       0       0       0       0       0       0       0       0       
      +0       0       0       0       0
  5292 ;;      Temps:          0       0       0       0       0       0       0       0       0       0       0       0       
      +0       0       0       0       0
  5293 ;;      Totals:         0       0       0       0       0       0       0       0       0       0       0       0       
      +0       0       0       0       0
  5294 ;;Total ram usage:        0 bytes
  5295 ;; Hardware stack levels used: 1
  5296 ;; This function calls:
  5297 ;;		Nothing
  5298 ;; This function is called by:
  5299 ;;		_Timer2_Initialize
  5300 ;;		_Timer_OverflowISR
  5301 ;; This function uses a non-reentrant model
  5302 ;;
  5303                           
  5304                           	psect	text48
  5305   00117A                     __ptext48:
  5306                           	callstack 0
  5307   00117A                     _Timer2_DefaultOverflowCallback:
  5308                           	callstack 21
  5309   00117A  0012               	return		;funcret
  5310   00117C                     __end_of_Timer2_DefaultOverflowCallback:
  5311                           	callstack 0
  5312                           
  5313 ;; *************** function _Timer_DefaultOverflowCallback *****************
  5314 ;; Defined at:
  5315 ;;		line 139 in file "mcc_generated_files/timer/src/tmr0.c"
  5316 ;; Parameters:    Size  Location     Type
  5317 ;;		None
  5318 ;; Auto vars:     Size  Location     Type
  5319 ;;		None
  5320 ;; Return value:  Size  Location     Type
  5321 ;;                  1    wreg      void 
  5322 ;; Registers used:
  5323 ;;		None
  5324 ;; Tracked objects:
  5325 ;;		On entry : 0/0
  5326 ;;		On exit  : 0/0
  5327 ;;		Unchanged: 0/0
  5328 ;; Data sizes:     COMRAM   BANK0   BANK1   BANK2   BANK3   BANK4   BANK5   BANK6   BANK7   BANK8   BANK9  BANK10  BANK1
      +1  BANK12  BANK13  BANK14  BANK15
  5329 ;;      Params:         0       0       0       0       0       0       0       0       0       0       0       0       
      +0       0       0       0       0
  5330 ;;      Locals:         0       0       0       0       0       0       0       0       0       0       0       0       
      +0       0       0       0       0
  5331 ;;      Temps:          0       0       0       0       0       0       0       0       0       0       0       0       
      +0       0       0       0       0
  5332 ;;      Totals:         0       0       0       0       0       0       0       0       0       0       0       0       
      +0       0       0       0       0
  5333 ;;Total ram usage:        0 bytes
  5334 ;; Hardware stack levels used: 1
  5335 ;; This function calls:
  5336 ;;		Nothing
  5337 ;; This function is called by:
  5338 ;;		_Timer_Initialize
  5339 ;;		_Timer_OverflowISR
  5340 ;; This function uses a non-reentrant model
  5341 ;;
  5342                           
  5343                           	psect	text49
  5344   00117C                     __ptext49:
  5345                           	callstack 0
  5346   00117C                     _Timer_DefaultOverflowCallback:
  5347                           	callstack 21
  5348   00117C  0012               	return		;funcret
  5349   00117E                     __end_of_Timer_DefaultOverflowCallback:
  5350                           	callstack 0
  5351                           
  5352 ;; *************** function _Timer_int *****************
  5353 ;; Defined at:
  5354 ;;		line 7 in file "Timer_int.c"
  5355 ;; Parameters:    Size  Location     Type
  5356 ;;		None
  5357 ;; Auto vars:     Size  Location     Type
  5358 ;;		None
  5359 ;; Return value:  Size  Location     Type
  5360 ;;                  1    wreg      void 
  5361 ;; Registers used:
  5362 ;;		wreg, status,2, status,0, cstack
  5363 ;; Tracked objects:
  5364 ;;		On entry : 0/0
  5365 ;;		On exit  : 0/0
  5366 ;;		Unchanged: 0/0
  5367 ;; Data sizes:     COMRAM   BANK0   BANK1   BANK2   BANK3   BANK4   BANK5   BANK6   BANK7   BANK8   BANK9  BANK10  BANK1
      +1  BANK12  BANK13  BANK14  BANK15
  5368 ;;      Params:         0       0       0       0       0       0       0       0       0       0       0       0       
      +0       0       0       0       0
  5369 ;;      Locals:         0       0       0       0       0       0       0       0       0       0       0       0       
      +0       0       0       0       0
  5370 ;;      Temps:          0       0       0       0       0       0       0       0       0       0       0       0       
      +0       0       0       0       0
  5371 ;;      Totals:         0       0       0       0       0       0       0       0       0       0       0       0       
      +0       0       0       0       0
  5372 ;;Total ram usage:        0 bytes
  5373 ;; Hardware stack levels used: 1
  5374 ;; Hardware stack levels required when called: 1
  5375 ;; This function calls:
  5376 ;;		i2_ADCC_StartConversion
  5377 ;; This function is called by:
  5378 ;;		_main
  5379 ;;		_Timer_OverflowISR
  5380 ;; This function uses a non-reentrant model
  5381 ;;
  5382                           
  5383                           	psect	text50
  5384   000E08                     __ptext50:
  5385                           	callstack 0
  5386   000E08                     _Timer_int:
  5387                           	callstack 20
  5388   000E08                     
  5389                           ;Timer_int.c: 10:     static int count = 0;;Timer_int.c: 12:     count++;
  5390   000E08  0100               	movlb	0	; () banked
  5391   000E0A  4BA0               	infsnz	Timer_int@count& (0+255),f,b
  5392   000E0C  2BA1               	incf	(Timer_int@count+1)& (0+255),f,b
  5393   000E0E                     
  5394                           ; BSR set to: 0
  5395                           ;Timer_int.c: 16:     if(count == PERIOD)
  5396   000E0E  51ED               	movf	_PERIOD& (0+255),w,b
  5397   000E10  19A0               	xorwf	Timer_int@count& (0+255),w,b
  5398   000E12  E107               	bnz	i2u131_41
  5399   000E14  51EE               	movf	(_PERIOD+1)& (0+255),w,b
  5400   000E16  19A1               	xorwf	(Timer_int@count+1)& (0+255),w,b
  5401   000E18  A4D8               	btfss	status,2,c
  5402   000E1A  EF11  F007         	goto	i2u131_41
  5403   000E1E  EF13  F007         	goto	i2u131_40
  5404   000E22                     i2u131_41:
  5405   000E22  EF1A  F007         	goto	i2l1167
  5406   000E26                     i2u131_40:
  5407   000E26                     
  5408                           ; BSR set to: 0
  5409                           ;Timer_int.c: 17:     {;Timer_int.c: 19:         count = 0;
  5410   000E26  0E00               	movlw	0
  5411   000E28  6FA1               	movwf	(Timer_int@count+1)& (0+255),b
  5412   000E2A  0E00               	movlw	0
  5413   000E2C  6FA0               	movwf	Timer_int@count& (0+255),b
  5414   000E2E                     
  5415                           ; BSR set to: 0
  5416                           ;Timer_int.c: 21:         ADCC_StartConversion(channel_ANA0);
  5417   000E2E  0E00               	movlw	0
  5418   000E30  EC53  F008         	call	i2_ADCC_StartConversion
  5419   000E34                     i2l1167:
  5420   000E34  0012               	return		;funcret
  5421   000E36                     __end_of_Timer_int:
  5422                           	callstack 0
  5423                           
  5424 ;; *************** function i2_ADCC_StartConversion *****************
  5425 ;; Defined at:
  5426 ;;		line 106 in file "mcc_generated_files/adc/src/adcc.c"
  5427 ;; Parameters:    Size  Location     Type
  5428 ;;  channel         1    wreg     enum E15846
  5429 ;; Auto vars:     Size  Location     Type
  5430 ;;  channel         1    0[COMRAM] enum E15846
  5431 ;; Return value:  Size  Location     Type
  5432 ;;                  1    wreg      void 
  5433 ;; Registers used:
  5434 ;;		wreg
  5435 ;; Tracked objects:
  5436 ;;		On entry : 0/0
  5437 ;;		On exit  : 0/0
  5438 ;;		Unchanged: 0/0
  5439 ;; Data sizes:     COMRAM   BANK0   BANK1   BANK2   BANK3   BANK4   BANK5   BANK6   BANK7   BANK8   BANK9  BANK10  BANK1
      +1  BANK12  BANK13  BANK14  BANK15
  5440 ;;      Params:         0       0       0       0       0       0       0       0       0       0       0       0       
      +0       0       0       0       0
  5441 ;;      Locals:         1       0       0       0       0       0       0       0       0       0       0       0       
      +0       0       0       0       0
  5442 ;;      Temps:          0       0       0       0       0       0       0       0       0       0       0       0       
      +0       0       0       0       0
  5443 ;;      Totals:         1       0       0       0       0       0       0       0       0       0       0       0       
      +0       0       0       0       0
  5444 ;;Total ram usage:        1 bytes
  5445 ;; Hardware stack levels used: 1
  5446 ;; This function calls:
  5447 ;;		Nothing
  5448 ;; This function is called by:
  5449 ;;		_Timer_int
  5450 ;; This function uses a non-reentrant model
  5451 ;;
  5452                           
  5453                           	psect	text51
  5454   0010A6                     __ptext51:
  5455                           	callstack 0
  5456   0010A6                     i2_ADCC_StartConversion:
  5457                           	callstack 20
  5458                           
  5459                           ;incstack = 0
  5460                           ;i2ADCC_StartConversion@channel stored from wreg
  5461   0010A6  6E01               	movwf	i2ADCC_StartConversion@channel^0,c
  5462   0010A8                     
  5463                           ;mcc_generated_files/adc/src/adcc.c: 106: void ADCC_StartConversion(adcc_channel_t chann
      +                          el);mcc_generated_files/adc/src/adcc.c: 107: {;mcc_generated_files/adc/src/adcc.c: 109: 
      +                              ADPCH = channel;
  5464   0010A8  0060  F007  FEF1   	movff	i2ADCC_StartConversion@channel,16113	;volatile
  5465   0010AE                     
  5466                           ;mcc_generated_files/adc/src/adcc.c: 112:     ADCON0bits.ADGO = 1;
  5467   0010AE  013E               	movlb	62	; () banked
  5468   0010B0  81F8               	bsf	248,0,b	;volatile
  5469   0010B2                     
  5470                           ; BSR set to: 62
  5471   0010B2  0012               	return		;funcret
  5472   0010B4                     __end_ofi2_ADCC_StartConversion:
  5473                           	callstack 0
  5474                           
  5475 ;; *************** function _Timer2_ISR *****************
  5476 ;; Defined at:
  5477 ;;		line 119 in file "mcc_generated_files/timer/src/tmr2.c"
  5478 ;; Parameters:    Size  Location     Type
  5479 ;;		None
  5480 ;; Auto vars:     Size  Location     Type
  5481 ;;		None
  5482 ;; Return value:  Size  Location     Type
  5483 ;;                  1    wreg      void 
  5484 ;; Registers used:
  5485 ;;		cstack
  5486 ;; Tracked objects:
  5487 ;;		On entry : 0/0
  5488 ;;		On exit  : 0/0
  5489 ;;		Unchanged: 0/0
  5490 ;; Data sizes:     COMRAM   BANK0   BANK1   BANK2   BANK3   BANK4   BANK5   BANK6   BANK7   BANK8   BANK9  BANK10  BANK1
      +1  BANK12  BANK13  BANK14  BANK15
  5491 ;;      Params:         0       0       0       0       0       0       0       0       0       0       0       0       
      +0       0       0       0       0
  5492 ;;      Locals:         0       0       0       0       0       0       0       0       0       0       0       0       
      +0       0       0       0       0
  5493 ;;      Temps:          0       0       0       0       0       0       0       0       0       0       0       0       
      +0       0       0       0       0
  5494 ;;      Totals:         0       0       0       0       0       0       0       0       0       0       0       0       
      +0       0       0       0       0
  5495 ;;Total ram usage:        0 bytes
  5496 ;; Hardware stack levels used: 1
  5497 ;; Hardware stack levels required when called: 1
  5498 ;; This function calls:
  5499 ;;		_Timer2_Stop
  5500 ;; This function is called by:
  5501 ;;		Interrupt level 2
  5502 ;; This function uses a non-reentrant model
  5503 ;;
  5504                           
  5505                           	psect	text52
  5506   001088                     __ptext52:
  5507                           	callstack 0
  5508   001088                     _Timer2_ISR:
  5509                           	callstack 21
  5510   001088                     
  5511                           ;mcc_generated_files/timer/src/tmr2.c: 121:     PIR4bits.TMR2IF = 0;
  5512   001088  0139               	movlb	57	; () banked
  5513   00108A  95A4               	bcf	164,2,b	;volatile
  5514                           
  5515                           ;mcc_generated_files/timer/src/tmr2.c: 122:     LATEbits.LATE0 = 1;
  5516   00108C  80BE               	bsf	190,0,c	;volatile
  5517                           
  5518                           ;mcc_generated_files/timer/src/tmr2.c: 123:     LATBbits.LATB4 = 0;
  5519   00108E  98BB               	bcf	187,4,c	;volatile
  5520                           
  5521                           ;mcc_generated_files/timer/src/tmr2.c: 124:     LATBbits.LATB4 = 1;
  5522   001090  88BB               	bsf	187,4,c	;volatile
  5523   001092                     
  5524                           ; BSR set to: 57
  5525                           ;mcc_generated_files/timer/src/tmr2.c: 126:     Timer2_Stop();
  5526   001092  ECB3  F008         	call	_Timer2_Stop	;wreg free
  5527   001096  0011               	retfie		f
  5528   001098                     __end_of_Timer2_ISR:
  5529                           	callstack 0
  5530                           
  5531 ;; *************** function _Timer2_Stop *****************
  5532 ;; Defined at:
  5533 ;;		line 98 in file "mcc_generated_files/timer/src/tmr2.c"
  5534 ;; Parameters:    Size  Location     Type
  5535 ;;		None
  5536 ;; Auto vars:     Size  Location     Type
  5537 ;;		None
  5538 ;; Return value:  Size  Location     Type
  5539 ;;                  1    wreg      void 
  5540 ;; Registers used:
  5541 ;;		None
  5542 ;; Tracked objects:
  5543 ;;		On entry : 0/0
  5544 ;;		On exit  : 0/0
  5545 ;;		Unchanged: 0/0
  5546 ;; Data sizes:     COMRAM   BANK0   BANK1   BANK2   BANK3   BANK4   BANK5   BANK6   BANK7   BANK8   BANK9  BANK10  BANK1
      +1  BANK12  BANK13  BANK14  BANK15
  5547 ;;      Params:         0       0       0       0       0       0       0       0       0       0       0       0       
      +0       0       0       0       0
  5548 ;;      Locals:         0       0       0       0       0       0       0       0       0       0       0       0       
      +0       0       0       0       0
  5549 ;;      Temps:          0       0       0       0       0       0       0       0       0       0       0       0       
      +0       0       0       0       0
  5550 ;;      Totals:         0       0       0       0       0       0       0       0       0       0       0       0       
      +0       0       0       0       0
  5551 ;;Total ram usage:        0 bytes
  5552 ;; Hardware stack levels used: 1
  5553 ;; This function calls:
  5554 ;;		Nothing
  5555 ;; This function is called by:
  5556 ;;		_Timer2_ISR
  5557 ;; This function uses a non-reentrant model
  5558 ;;
  5559                           
  5560                           	psect	text53
  5561   001166                     __ptext53:
  5562                           	callstack 0
  5563   001166                     _Timer2_Stop:
  5564                           	callstack 21
  5565   001166                     
  5566                           ;mcc_generated_files/timer/src/tmr2.c: 100:     T2CONbits.TMR2ON = 0;
  5567   001166  9EAC               	bcf	172,7,c	;volatile
  5568   001168  0012               	return		;funcret
  5569   00116A                     __end_of_Timer2_Stop:
  5570                           	callstack 0
  5571                           
  5572 ;; *************** function _UART1_Receive_Vector_ISR *****************
  5573 ;; Defined at:
  5574 ;;		line 308 in file "mcc_generated_files/uart/src/uart1.c"
  5575 ;; Parameters:    Size  Location     Type
  5576 ;;		None
  5577 ;; Auto vars:     Size  Location     Type
  5578 ;;		None
  5579 ;; Return value:  Size  Location     Type
  5580 ;;                  1    wreg      void 
  5581 ;; Registers used:
  5582 ;;		wreg, status,2, status,0
  5583 ;; Tracked objects:
  5584 ;;		On entry : 0/0
  5585 ;;		On exit  : 0/0
  5586 ;;		Unchanged: 0/0
  5587 ;; Data sizes:     COMRAM   BANK0   BANK1   BANK2   BANK3   BANK4   BANK5   BANK6   BANK7   BANK8   BANK9  BANK10  BANK1
      +1  BANK12  BANK13  BANK14  BANK15
  5588 ;;      Params:         0       0       0       0       0       0       0       0       0       0       0       0       
      +0       0       0       0       0
  5589 ;;      Locals:         0       0       0       0       0       0       0       0       0       0       0       0       
      +0       0       0       0       0
  5590 ;;      Temps:          2       0       0       0       0       0       0       0       0       0       0       0       
      +0       0       0       0       0
  5591 ;;      Totals:         2       0       0       0       0       0       0       0       0       0       0       0       
      +0       0       0       0       0
  5592 ;;Total ram usage:        2 bytes
  5593 ;; Hardware stack levels used: 1
  5594 ;; This function calls:
  5595 ;;		Nothing
  5596 ;; This function is called by:
  5597 ;;		Interrupt level 2
  5598 ;; This function uses a non-reentrant model
  5599 ;;
  5600                           
  5601                           	psect	text54
  5602   000B0C                     __ptext54:
  5603                           	callstack 0
  5604   000B0C                     _UART1_Receive_Vector_ISR:
  5605                           	callstack 22
  5606   000B0C                     
  5607                           ;mcc_generated_files/uart/src/uart1.c: 309:     static unsigned char status = 0;;mcc_gen
      +                          erated_files/uart/src/uart1.c: 310:     static uint16_t mesage = 1;;mcc_generated_files/
      +                          uart/src/uart1.c: 312:     if (status == 0) {
  5608   000B0C  5046               	movf	UART1_Receive_Vector_ISR@status^0,w,c
  5609   000B0E  A4D8               	btfss	status,2,c
  5610   000B10  EF8C  F005         	goto	i2u184_41
  5611   000B14  EF8E  F005         	goto	i2u184_40
  5612   000B18                     i2u184_41:
  5613   000B18  EF96  F005         	goto	i2l4274
  5614   000B1C                     i2u184_40:
  5615   000B1C                     
  5616                           ;mcc_generated_files/uart/src/uart1.c: 313:         status++;
  5617   000B1C  2A46               	incf	UART1_Receive_Vector_ISR@status^0,f,c
  5618   000B1E                     
  5619                           ;mcc_generated_files/uart/src/uart1.c: 314:         mesage = U1RXB;
  5620   000B1E  006F F7A0  F0EB    	movff	15848,UART1_Receive_Vector_ISR@mesage	;volatile
  5621   000B24  0100               	movlb	0	; () banked
  5622   000B26  6BEC               	clrf	(UART1_Receive_Vector_ISR@mesage+1)& (0+255),b
  5623                           
  5624                           ;mcc_generated_files/uart/src/uart1.c: 315:     } else {
  5625   000B28  EFA5  F005         	goto	i2l982
  5626   000B2C                     i2l4274:
  5627                           
  5628                           ;mcc_generated_files/uart/src/uart1.c: 316:         status = 0;
  5629   000B2C  0E00               	movlw	0
  5630   000B2E  6E46               	movwf	UART1_Receive_Vector_ISR@status^0,c
  5631                           
  5632                           ;mcc_generated_files/uart/src/uart1.c: 317:         mesage = (mesage << 8) + U1RXB;
  5633   000B30  0100               	movlb	0	; () banked
  5634   000B32  51EB               	movf	UART1_Receive_Vector_ISR@mesage& (0+255),w,b
  5635   000B34  6E04               	movwf	??_UART1_Receive_Vector_ISR^0,c
  5636   000B36  013D               	movlb	61	; () banked
  5637   000B38  51E8               	movf	232,w,b	;volatile
  5638   000B3A  0100               	movlb	0	; () banked
  5639   000B3C  6FEB               	movwf	UART1_Receive_Vector_ISR@mesage& (0+255),b
  5640   000B3E  C004  F0EC         	movff	??_UART1_Receive_Vector_ISR,UART1_Receive_Vector_ISR@mesage+1
  5641   000B42                     
  5642                           ; BSR set to: 0
  5643                           ;mcc_generated_files/uart/src/uart1.c: 319:         PERIOD = mesage;
  5644   000B42  C0EB  F0ED         	movff	UART1_Receive_Vector_ISR@mesage,_PERIOD
  5645   000B46  C0EC  F0EE         	movff	UART1_Receive_Vector_ISR@mesage+1,_PERIOD+1
  5646   000B4A                     i2l982:
  5647                           
  5648                           ; BSR set to: 0
  5649   000B4A  0011               	retfie		f
  5650   000B4C                     __end_of_UART1_Receive_Vector_ISR:
  5651                           	callstack 0
  5652                           
  5653 ;; *************** function _UART1_Transmit_Vector_ISR *****************
  5654 ;; Defined at:
  5655 ;;		line 380 in file "mcc_generated_files/uart/src/uart1.c"
  5656 ;; Parameters:    Size  Location     Type
  5657 ;;		None
  5658 ;; Auto vars:     Size  Location     Type
  5659 ;;		None
  5660 ;; Return value:  Size  Location     Type
  5661 ;;                  1    wreg      void 
  5662 ;; Registers used:
  5663 ;;		wreg, fsr2l, fsr2h, status,2, status,0, cstack
  5664 ;; Tracked objects:
  5665 ;;		On entry : 0/0
  5666 ;;		On exit  : 0/0
  5667 ;;		Unchanged: 0/0
  5668 ;; Data sizes:     COMRAM   BANK0   BANK1   BANK2   BANK3   BANK4   BANK5   BANK6   BANK7   BANK8   BANK9  BANK10  BANK1
      +1  BANK12  BANK13  BANK14  BANK15
  5669 ;;      Params:         0       0       0       0       0       0       0       0       0       0       0       0       
      +0       0       0       0       0
  5670 ;;      Locals:         0       0       0       0       0       0       0       0       0       0       0       0       
      +0       0       0       0       0
  5671 ;;      Temps:          0       0       0       0       0       0       0       0       0       0       0       0       
      +0       0       0       0       0
  5672 ;;      Totals:         0       0       0       0       0       0       0       0       0       0       0       0       
      +0       0       0       0       0
  5673 ;;Total ram usage:        0 bytes
  5674 ;; Hardware stack levels used: 1
  5675 ;; Hardware stack levels required when called: 1
  5676 ;; This function calls:
  5677 ;;		_UART1_TransmitISR
  5678 ;; This function is called by:
  5679 ;;		Interrupt level 2
  5680 ;; This function uses a non-reentrant model
  5681 ;;
  5682                           
  5683                           	psect	text55
  5684   001144                     __ptext55:
  5685                           	callstack 0
  5686   001144                     _UART1_Transmit_Vector_ISR:
  5687                           	callstack 21
  5688   001144                     
  5689                           ;mcc_generated_files/uart/src/uart1.c: 382:     UART1_TransmitISR();
  5690   001144  ECE1  F005         	call	_UART1_TransmitISR	;wreg free
  5691   001148  0011               	retfie		f
  5692   00114A                     __end_of_UART1_Transmit_Vector_ISR:
  5693                           	callstack 0
  5694                           
  5695 ;; *************** function _UART1_TransmitISR *****************
  5696 ;; Defined at:
  5697 ;;		line 385 in file "mcc_generated_files/uart/src/uart1.c"
  5698 ;; Parameters:    Size  Location     Type
  5699 ;;		None
  5700 ;; Auto vars:     Size  Location     Type
  5701 ;;  tempTxTail      1    5[COMRAM] unsigned char 
  5702 ;; Return value:  Size  Location     Type
  5703 ;;                  1    wreg      void 
  5704 ;; Registers used:
  5705 ;;		wreg, fsr2l, fsr2h, status,2, status,0
  5706 ;; Tracked objects:
  5707 ;;		On entry : 0/0
  5708 ;;		On exit  : 0/0
  5709 ;;		Unchanged: 0/0
  5710 ;; Data sizes:     COMRAM   BANK0   BANK1   BANK2   BANK3   BANK4   BANK5   BANK6   BANK7   BANK8   BANK9  BANK10  BANK1
      +1  BANK12  BANK13  BANK14  BANK15
  5711 ;;      Params:         0       0       0       0       0       0       0       0       0       0       0       0       
      +0       0       0       0       0
  5712 ;;      Locals:         1       0       0       0       0       0       0       0       0       0       0       0       
      +0       0       0       0       0
  5713 ;;      Temps:          0       0       0       0       0       0       0       0       0       0       0       0       
      +0       0       0       0       0
  5714 ;;      Totals:         1       0       0       0       0       0       0       0       0       0       0       0       
      +0       0       0       0       0
  5715 ;;Total ram usage:        1 bytes
  5716 ;; Hardware stack levels used: 1
  5717 ;; This function calls:
  5718 ;;		Nothing
  5719 ;; This function is called by:
  5720 ;;		_UART1_Initialize
  5721 ;;		_UART1_Transmit_Vector_ISR
  5722 ;; This function uses a non-reentrant model
  5723 ;;
  5724                           
  5725                           	psect	text56
  5726   000BC2                     __ptext56:
  5727                           	callstack 0
  5728   000BC2                     _UART1_TransmitISR:
  5729                           	callstack 21
  5730   000BC2                     
  5731                           ;mcc_generated_files/uart/src/uart1.c: 386:     uint8_t tempTxTail;;mcc_generated_files/
      +                          uart/src/uart1.c: 388:     if (sizeof (uart1TxBuffer) > uart1TxBufferRemaining)
  5732   000BC2  0E10               	movlw	16
  5733   000BC4  604A               	cpfslt	_uart1TxBufferRemaining^0,c	;volatile
  5734   000BC6  EFE7  F005         	goto	i2u128_41
  5735   000BCA  EFE9  F005         	goto	i2u128_40
  5736   000BCE                     i2u128_41:
  5737   000BCE  EFFA  F005         	goto	i2l1007
  5738   000BD2                     i2u128_40:
  5739   000BD2                     
  5740                           ;mcc_generated_files/uart/src/uart1.c: 389:     {;mcc_generated_files/uart/src/uart1.c: 
      +                          390:         U1TXB = uart1TxBuffer[uart1TxTail];
  5741   000BD2  0E40               	movlw	low _uart1TxBuffer
  5742   000BD4  244B               	addwf	_uart1TxTail^0,w,c	;volatile
  5743   000BD6  6ED9               	movwf	fsr2l,c
  5744   000BD8  6ADA               	clrf	fsr2h,c
  5745   000BDA  0E01               	movlw	high _uart1TxBuffer
  5746   000BDC  22DA               	addwfc	fsr2h,f,c
  5747   000BDE  50DF               	movf	indf2,w,c
  5748   000BE0  013D               	movlb	61	; () banked
  5749   000BE2  6FEA               	movwf	234,b	;volatile
  5750   000BE4                     
  5751                           ; BSR set to: 61
  5752                           ;mcc_generated_files/uart/src/uart1.c: 392:         tempTxTail = (uart1TxTail + 1) & ((1
      +                          6) - 1);
  5753   000BE4  284B               	incf	_uart1TxTail^0,w,c	;volatile
  5754   000BE6  0B0F               	andlw	15
  5755   000BE8  6E06               	movwf	UART1_TransmitISR@tempTxTail^0,c
  5756   000BEA                     
  5757                           ; BSR set to: 61
  5758                           ;mcc_generated_files/uart/src/uart1.c: 394:         uart1TxTail = tempTxTail;
  5759   000BEA  C006  F04B         	movff	UART1_TransmitISR@tempTxTail,_uart1TxTail	;volatile
  5760   000BEE                     
  5761                           ; BSR set to: 61
  5762                           ;mcc_generated_files/uart/src/uart1.c: 395:         uart1TxBufferRemaining++;
  5763   000BEE  2A4A               	incf	_uart1TxBufferRemaining^0,f,c	;volatile
  5764                           
  5765                           ;mcc_generated_files/uart/src/uart1.c: 396:     } else {
  5766   000BF0  EFFC  F005         	goto	i2l1009
  5767   000BF4                     i2l1007:
  5768                           
  5769                           ;mcc_generated_files/uart/src/uart1.c: 397:         PIE3bits.U1TXIE = 0;
  5770   000BF4  0139               	movlb	57	; () banked
  5771   000BF6  9993               	bcf	147,4,b	;volatile
  5772   000BF8                     i2l1009:
  5773   000BF8  0012               	return		;funcret
  5774   000BFA                     __end_of_UART1_TransmitISR:
  5775                           	callstack 0
  5776                           
  5777 ;; *************** function _I2C1_ISR *****************
  5778 ;; Defined at:
  5779 ;;		line 224 in file "mcc_generated_files/i2c_host/src/i2c1.c"
  5780 ;; Parameters:    Size  Location     Type
  5781 ;;		None
  5782 ;; Auto vars:     Size  Location     Type
  5783 ;;		None
  5784 ;; Return value:  Size  Location     Type
  5785 ;;                  1    wreg      void 
  5786 ;; Registers used:
  5787 ;;		wreg, status,2, status,0, cstack
  5788 ;; Tracked objects:
  5789 ;;		On entry : 0/0
  5790 ;;		On exit  : 0/0
  5791 ;;		Unchanged: 0/0
  5792 ;; Data sizes:     COMRAM   BANK0   BANK1   BANK2   BANK3   BANK4   BANK5   BANK6   BANK7   BANK8   BANK9  BANK10  BANK1
      +1  BANK12  BANK13  BANK14  BANK15
  5793 ;;      Params:         0       0       0       0       0       0       0       0       0       0       0       0       
      +0       0       0       0       0
  5794 ;;      Locals:         0       0       0       0       0       0       0       0       0       0       0       0       
      +0       0       0       0       0
  5795 ;;      Temps:          0       0       0       0       0       0       0       0       0       0       0       0       
      +0       0       0       0       0
  5796 ;;      Totals:         0       0       0       0       0       0       0       0       0       0       0       0       
      +0       0       0       0       0
  5797 ;;Total ram usage:        0 bytes
  5798 ;; Hardware stack levels used: 1
  5799 ;; Hardware stack levels required when called: 2
  5800 ;; This function calls:
  5801 ;;		_I2C1_Close
  5802 ;;		_I2C1_ReadStart
  5803 ;;		_I2C1_RestartDisable
  5804 ;;		_I2C1_StopSend
  5805 ;; This function is called by:
  5806 ;;		Interrupt level 2
  5807 ;; This function uses a non-reentrant model
  5808 ;;
  5809                           
  5810                           	psect	text57
  5811   000784                     __ptext57:
  5812                           	callstack 0
  5813   000784                     _I2C1_ISR:
  5814                           	callstack 20
  5815   000784                     
  5816                           ;mcc_generated_files/i2c_host/src/i2c1.c: 226:     if (I2C1PIEbits.PCIE && I2C1PIRbits.P
      +                          CIF)
  5817   000784  013D               	movlb	61	; () banked
  5818   000786  A57A               	btfss	122,2,b	;volatile
  5819   000788  EFC8  F003         	goto	i2u206_41
  5820   00078C  EFCA  F003         	goto	i2u206_40
  5821   000790                     i2u206_41:
  5822   000790  EFD5  F003         	goto	i2l1417
  5823   000794                     i2u206_40:
  5824   000794                     
  5825                           ; BSR set to: 61
  5826   000794  A579               	btfss	121,2,b	;volatile
  5827   000796  EFCF  F003         	goto	i2u207_41
  5828   00079A  EFD1  F003         	goto	i2u207_40
  5829   00079E                     i2u207_41:
  5830   00079E  EFD5  F003         	goto	i2l1417
  5831   0007A2                     i2u207_40:
  5832   0007A2                     i2l4568:
  5833                           
  5834                           ;mcc_generated_files/i2c_host/src/i2c1.c: 227:     {;mcc_generated_files/i2c_host/src/i2
      +                          c1.c: 228:         I2C1_Close();
  5835   0007A2  EC30  F007         	call	_I2C1_Close	;wreg free
  5836                           
  5837                           ;mcc_generated_files/i2c_host/src/i2c1.c: 229:     }
  5838   0007A6  EF09  F004         	goto	i2l1424
  5839   0007AA                     i2l1417:
  5840                           
  5841                           ; BSR set to: 61
  5842   0007AA  AF7A               	btfss	122,7,b	;volatile
  5843   0007AC  EFDA  F003         	goto	i2u208_41
  5844   0007B0  EFDC  F003         	goto	i2u208_40
  5845   0007B4                     i2u208_41:
  5846   0007B4  EFF7  F003         	goto	i2l1419
  5847   0007B8                     i2u208_40:
  5848   0007B8                     
  5849                           ; BSR set to: 61
  5850   0007B8  AF79               	btfss	121,7,b	;volatile
  5851   0007BA  EFE1  F003         	goto	i2u209_41
  5852   0007BE  EFE3  F003         	goto	i2u209_40
  5853   0007C2                     i2u209_41:
  5854   0007C2  EFF7  F003         	goto	i2l1419
  5855   0007C6                     i2u209_40:
  5856   0007C6                     
  5857                           ; BSR set to: 61
  5858                           ;mcc_generated_files/i2c_host/src/i2c1.c: 231:     {;mcc_generated_files/i2c_host/src/i2
      +                          c1.c: 233:         if (i2c1Status.switchToRead)
  5859   0007C6  5040               	movf	(_i2c1Status+11)^0,w,c	;volatile
  5860   0007C8  B4D8               	btfsc	status,2,c
  5861   0007CA  EFE9  F003         	goto	i2u210_41
  5862   0007CE  EFEB  F003         	goto	i2u210_40
  5863   0007D2                     i2u210_41:
  5864   0007D2  EFF3  F003         	goto	i2l4582
  5865   0007D6                     i2u210_40:
  5866   0007D6                     
  5867                           ; BSR set to: 61
  5868                           ;mcc_generated_files/i2c_host/src/i2c1.c: 234:         {;mcc_generated_files/i2c_host/sr
      +                          c/i2c1.c: 235:             i2c1Status.switchToRead = 0;
  5869   0007D6  0E00               	movlw	0
  5870   0007D8  6E40               	movwf	(_i2c1Status+11)^0,c	;volatile
  5871   0007DA                     
  5872                           ; BSR set to: 61
  5873                           ;mcc_generated_files/i2c_host/src/i2c1.c: 236:             I2C1PIRbits.SCIF = 0;
  5874   0007DA  9179               	bcf	121,0,b	;volatile
  5875   0007DC                     
  5876                           ; BSR set to: 61
  5877                           ;mcc_generated_files/i2c_host/src/i2c1.c: 237:             I2C1PIRbits.CNTIF = 0;
  5878   0007DC  9F79               	bcf	121,7,b	;volatile
  5879   0007DE                     
  5880                           ; BSR set to: 61
  5881                           ;mcc_generated_files/i2c_host/src/i2c1.c: 238:             I2C1_ReadStart();
  5882   0007DE  EC57  F007         	call	_I2C1_ReadStart	;wreg free
  5883                           
  5884                           ;mcc_generated_files/i2c_host/src/i2c1.c: 239:         }
  5885   0007E2  EF09  F004         	goto	i2l1424
  5886   0007E6                     i2l4582:
  5887                           
  5888                           ; BSR set to: 61
  5889                           ;mcc_generated_files/i2c_host/src/i2c1.c: 241:         {;mcc_generated_files/i2c_host/sr
      +                          c/i2c1.c: 242:             I2C1_StopSend();
  5890   0007E6  EC44  F007         	call	_I2C1_StopSend	;wreg free
  5891   0007EA  EFD1  F003         	goto	i2l4568
  5892   0007EE                     i2l1419:
  5893                           
  5894                           ; BSR set to: 61
  5895   0007EE  A37A               	btfss	122,1,b	;volatile
  5896   0007F0  EFFC  F003         	goto	i2u211_41
  5897   0007F4  EFFE  F003         	goto	i2u211_40
  5898   0007F8                     i2u211_41:
  5899   0007F8  EF09  F004         	goto	i2l1424
  5900   0007FC                     i2u211_40:
  5901   0007FC                     
  5902                           ; BSR set to: 61
  5903   0007FC  A379               	btfss	121,1,b	;volatile
  5904   0007FE  EF03  F004         	goto	i2u212_41
  5905   000802  EF05  F004         	goto	i2u212_40
  5906   000806                     i2u212_41:
  5907   000806  EF09  F004         	goto	i2l1424
  5908   00080A                     i2u212_40:
  5909   00080A                     
  5910                           ; BSR set to: 61
  5911                           ;mcc_generated_files/i2c_host/src/i2c1.c: 247:     {;mcc_generated_files/i2c_host/src/i2
      +                          c1.c: 248:         I2C1_RestartDisable();
  5912   00080A  ECA5  F008         	call	_I2C1_RestartDisable	;wreg free
  5913   00080E                     
  5914                           ;mcc_generated_files/i2c_host/src/i2c1.c: 249:         I2C1PIRbits.RSCIF = 0;
  5915   00080E  013D               	movlb	61	; () banked
  5916   000810  9379               	bcf	121,1,b	;volatile
  5917   000812                     i2l1424:
  5918   000812  0011               	retfie		f
  5919   000814                     __end_of_I2C1_ISR:
  5920                           	callstack 0
  5921                           
  5922 ;; *************** function _I2C1_StopSend *****************
  5923 ;; Defined at:
  5924 ;;		line 413 in file "mcc_generated_files/i2c_host/src/i2c1.c"
  5925 ;; Parameters:    Size  Location     Type
  5926 ;;		None
  5927 ;; Auto vars:     Size  Location     Type
  5928 ;;		None
  5929 ;; Return value:  Size  Location     Type
  5930 ;;                  1    wreg      void 
  5931 ;; Registers used:
  5932 ;;		wreg, status,2, cstack
  5933 ;; Tracked objects:
  5934 ;;		On entry : 0/0
  5935 ;;		On exit  : 0/0
  5936 ;;		Unchanged: 0/0
  5937 ;; Data sizes:     COMRAM   BANK0   BANK1   BANK2   BANK3   BANK4   BANK5   BANK6   BANK7   BANK8   BANK9  BANK10  BANK1
      +1  BANK12  BANK13  BANK14  BANK15
  5938 ;;      Params:         0       0       0       0       0       0       0       0       0       0       0       0       
      +0       0       0       0       0
  5939 ;;      Locals:         0       0       0       0       0       0       0       0       0       0       0       0       
      +0       0       0       0       0
  5940 ;;      Temps:          0       0       0       0       0       0       0       0       0       0       0       0       
      +0       0       0       0       0
  5941 ;;      Totals:         0       0       0       0       0       0       0       0       0       0       0       0       
      +0       0       0       0       0
  5942 ;;Total ram usage:        0 bytes
  5943 ;; Hardware stack levels used: 1
  5944 ;; Hardware stack levels required when called: 1
  5945 ;; This function calls:
  5946 ;;		_I2C1_CounterGet
  5947 ;;		_I2C1_CounterSet
  5948 ;;		_I2C1_DataTransmit
  5949 ;;		_I2C1_RestartDisable
  5950 ;; This function is called by:
  5951 ;;		_I2C1_ISR
  5952 ;;		_I2C1_ERROR_ISR
  5953 ;; This function uses a non-reentrant model
  5954 ;;
  5955                           
  5956                           	psect	text58
  5957   000E88                     __ptext58:
  5958                           	callstack 0
  5959   000E88                     _I2C1_StopSend:
  5960                           	callstack 20
  5961   000E88                     
  5962                           ;mcc_generated_files/i2c_host/src/i2c1.c: 415:     I2C1_RestartDisable();
  5963   000E88  ECA5  F008         	call	_I2C1_RestartDisable	;wreg free
  5964   000E8C                     
  5965                           ;mcc_generated_files/i2c_host/src/i2c1.c: 416:     if (I2C1_CounterGet())
  5966   000E8C  ECA8  F008         	call	_I2C1_CounterGet	;wreg free
  5967   000E90  0900               	iorlw	0
  5968   000E92  B4D8               	btfsc	status,2,c
  5969   000E94  EF4E  F007         	goto	i2u133_41
  5970   000E98  EF50  F007         	goto	i2u133_40
  5971   000E9C                     i2u133_41:
  5972   000E9C  EF56  F007         	goto	i2l1494
  5973   000EA0                     i2u133_40:
  5974   000EA0                     
  5975                           ;mcc_generated_files/i2c_host/src/i2c1.c: 417:     {;mcc_generated_files/i2c_host/src/i2
      +                          c1.c: 418:         I2C1_CounterSet(0);
  5976   000EA0  0E00               	movlw	0
  5977   000EA2  EC82  F008         	call	_I2C1_CounterSet
  5978                           
  5979                           ;mcc_generated_files/i2c_host/src/i2c1.c: 419:         I2C1_DataTransmit(0);
  5980   000EA6  0E00               	movlw	0
  5981   000EA8  EC7D  F008         	call	_I2C1_DataTransmit
  5982   000EAC                     i2l1494:
  5983   000EAC  0012               	return		;funcret
  5984   000EAE                     __end_of_I2C1_StopSend:
  5985                           	callstack 0
  5986                           
  5987 ;; *************** function _I2C1_RestartDisable *****************
  5988 ;; Defined at:
  5989 ;;		line 408 in file "mcc_generated_files/i2c_host/src/i2c1.c"
  5990 ;; Parameters:    Size  Location     Type
  5991 ;;		None
  5992 ;; Auto vars:     Size  Location     Type
  5993 ;;		None
  5994 ;; Return value:  Size  Location     Type
  5995 ;;                  1    wreg      void 
  5996 ;; Registers used:
  5997 ;;		None
  5998 ;; Tracked objects:
  5999 ;;		On entry : 0/0
  6000 ;;		On exit  : 0/0
  6001 ;;		Unchanged: 0/0
  6002 ;; Data sizes:     COMRAM   BANK0   BANK1   BANK2   BANK3   BANK4   BANK5   BANK6   BANK7   BANK8   BANK9  BANK10  BANK1
      +1  BANK12  BANK13  BANK14  BANK15
  6003 ;;      Params:         0       0       0       0       0       0       0       0       0       0       0       0       
      +0       0       0       0       0
  6004 ;;      Locals:         0       0       0       0       0       0       0       0       0       0       0       0       
      +0       0       0       0       0
  6005 ;;      Temps:          0       0       0       0       0       0       0       0       0       0       0       0       
      +0       0       0       0       0
  6006 ;;      Totals:         0       0       0       0       0       0       0       0       0       0       0       0       
      +0       0       0       0       0
  6007 ;;Total ram usage:        0 bytes
  6008 ;; Hardware stack levels used: 1
  6009 ;; This function calls:
  6010 ;;		Nothing
  6011 ;; This function is called by:
  6012 ;;		_I2C1_ISR
  6013 ;;		_I2C1_StopSend
  6014 ;; This function uses a non-reentrant model
  6015 ;;
  6016                           
  6017                           	psect	text59
  6018   00114A                     __ptext59:
  6019                           	callstack 0
  6020   00114A                     _I2C1_RestartDisable:
  6021                           	callstack 20
  6022   00114A                     
  6023                           ;mcc_generated_files/i2c_host/src/i2c1.c: 410:     I2C1CON0bits.RSEN = 0;
  6024   00114A  013D               	movlb	61	; () banked
  6025   00114C  9D73               	bcf	115,6,b	;volatile
  6026   00114E                     
  6027                           ; BSR set to: 61
  6028   00114E  0012               	return		;funcret
  6029   001150                     __end_of_I2C1_RestartDisable:
  6030                           	callstack 0
  6031                           
  6032 ;; *************** function _I2C1_DataTransmit *****************
  6033 ;; Defined at:
  6034 ;;		line 357 in file "mcc_generated_files/i2c_host/src/i2c1.c"
  6035 ;; Parameters:    Size  Location     Type
  6036 ;;  data            1    wreg     unsigned char 
  6037 ;; Auto vars:     Size  Location     Type
  6038 ;;  data            1   10[COMRAM] unsigned char 
  6039 ;; Return value:  Size  Location     Type
  6040 ;;                  1    wreg      void 
  6041 ;; Registers used:
  6042 ;;		wreg
  6043 ;; Tracked objects:
  6044 ;;		On entry : 0/0
  6045 ;;		On exit  : 0/0
  6046 ;;		Unchanged: 0/0
  6047 ;; Data sizes:     COMRAM   BANK0   BANK1   BANK2   BANK3   BANK4   BANK5   BANK6   BANK7   BANK8   BANK9  BANK10  BANK1
      +1  BANK12  BANK13  BANK14  BANK15
  6048 ;;      Params:         0       0       0       0       0       0       0       0       0       0       0       0       
      +0       0       0       0       0
  6049 ;;      Locals:         1       0       0       0       0       0       0       0       0       0       0       0       
      +0       0       0       0       0
  6050 ;;      Temps:          0       0       0       0       0       0       0       0       0       0       0       0       
      +0       0       0       0       0
  6051 ;;      Totals:         1       0       0       0       0       0       0       0       0       0       0       0       
      +0       0       0       0       0
  6052 ;;Total ram usage:        1 bytes
  6053 ;; Hardware stack levels used: 1
  6054 ;; This function calls:
  6055 ;;		Nothing
  6056 ;; This function is called by:
  6057 ;;		_I2C1_TX_ISR
  6058 ;;		_I2C1_StopSend
  6059 ;; This function uses a non-reentrant model
  6060 ;;
  6061                           
  6062                           	psect	text60
  6063   0010FA                     __ptext60:
  6064                           	callstack 0
  6065   0010FA                     _I2C1_DataTransmit:
  6066                           	callstack 21
  6067                           
  6068                           ; BSR set to: 61
  6069                           ;incstack = 0
  6070                           ;I2C1_DataTransmit@data stored from wreg
  6071   0010FA  6E0B               	movwf	I2C1_DataTransmit@data^0,c
  6072   0010FC                     
  6073                           ;mcc_generated_files/i2c_host/src/i2c1.c: 357: static void I2C1_DataTransmit(uint8_t dat
      +                          a);mcc_generated_files/i2c_host/src/i2c1.c: 358: {;mcc_generated_files/i2c_host/src/i2c1
      +                          .c: 359:     I2C1TXB = data;
  6074   0010FC  0060  F02F  FD6B   	movff	I2C1_DataTransmit@data,15723	;volatile
  6075   001102  0012               	return		;funcret
  6076   001104                     __end_of_I2C1_DataTransmit:
  6077                           	callstack 0
  6078                           
  6079 ;; *************** function _I2C1_CounterGet *****************
  6080 ;; Defined at:
  6081 ;;		line 372 in file "mcc_generated_files/i2c_host/src/i2c1.c"
  6082 ;; Parameters:    Size  Location     Type
  6083 ;;		None
  6084 ;; Auto vars:     Size  Location     Type
  6085 ;;		None
  6086 ;; Return value:  Size  Location     Type
  6087 ;;                  1    wreg      unsigned char 
  6088 ;; Registers used:
  6089 ;;		wreg, status,2
  6090 ;; Tracked objects:
  6091 ;;		On entry : 0/0
  6092 ;;		On exit  : 0/0
  6093 ;;		Unchanged: 0/0
  6094 ;; Data sizes:     COMRAM   BANK0   BANK1   BANK2   BANK3   BANK4   BANK5   BANK6   BANK7   BANK8   BANK9  BANK10  BANK1
      +1  BANK12  BANK13  BANK14  BANK15
  6095 ;;      Params:         0       0       0       0       0       0       0       0       0       0       0       0       
      +0       0       0       0       0
  6096 ;;      Locals:         0       0       0       0       0       0       0       0       0       0       0       0       
      +0       0       0       0       0
  6097 ;;      Temps:          0       0       0       0       0       0       0       0       0       0       0       0       
      +0       0       0       0       0
  6098 ;;      Totals:         0       0       0       0       0       0       0       0       0       0       0       0       
      +0       0       0       0       0
  6099 ;;Total ram usage:        0 bytes
  6100 ;; Hardware stack levels used: 1
  6101 ;; This function calls:
  6102 ;;		Nothing
  6103 ;; This function is called by:
  6104 ;;		_I2C1_StopSend
  6105 ;; This function uses a non-reentrant model
  6106 ;;
  6107                           
  6108                           	psect	text61
  6109   001150                     __ptext61:
  6110                           	callstack 0
  6111   001150                     _I2C1_CounterGet:
  6112                           	callstack 20
  6113   001150                     
  6114                           ;mcc_generated_files/i2c_host/src/i2c1.c: 374:     return (uint8_t) I2C1CNT;
  6115   001150  013D               	movlb	61	; () banked
  6116   001152  516C               	movf	108,w,b	;volatile
  6117   001154                     
  6118                           ; BSR set to: 61
  6119   001154  0012               	return		;funcret
  6120   001156                     __end_of_I2C1_CounterGet:
  6121                           	callstack 0
  6122                           
  6123 ;; *************** function _I2C1_ReadStart *****************
  6124 ;; Defined at:
  6125 ;;		line 302 in file "mcc_generated_files/i2c_host/src/i2c1.c"
  6126 ;; Parameters:    Size  Location     Type
  6127 ;;		None
  6128 ;; Auto vars:     Size  Location     Type
  6129 ;;		None
  6130 ;; Return value:  Size  Location     Type
  6131 ;;                  1    wreg      void 
  6132 ;; Registers used:
  6133 ;;		wreg, status,2, status,0, cstack
  6134 ;; Tracked objects:
  6135 ;;		On entry : 0/0
  6136 ;;		On exit  : 0/0
  6137 ;;		Unchanged: 0/0
  6138 ;; Data sizes:     COMRAM   BANK0   BANK1   BANK2   BANK3   BANK4   BANK5   BANK6   BANK7   BANK8   BANK9  BANK10  BANK1
      +1  BANK12  BANK13  BANK14  BANK15
  6139 ;;      Params:         0       0       0       0       0       0       0       0       0       0       0       0       
      +0       0       0       0       0
  6140 ;;      Locals:         0       0       0       0       0       0       0       0       0       0       0       0       
      +0       0       0       0       0
  6141 ;;      Temps:          0       0       0       0       0       0       0       0       0       0       0       0       
      +0       0       0       0       0
  6142 ;;      Totals:         0       0       0       0       0       0       0       0       0       0       0       0       
      +0       0       0       0       0
  6143 ;;Total ram usage:        0 bytes
  6144 ;; Hardware stack levels used: 1
  6145 ;; Hardware stack levels required when called: 1
  6146 ;; This function calls:
  6147 ;;		_I2C1_AddrTransmit
  6148 ;;		_I2C1_CounterSet
  6149 ;;		_I2C1_StartSend
  6150 ;; This function is called by:
  6151 ;;		_I2C1_ISR
  6152 ;;		_I2C1_Read
  6153 ;; This function uses a non-reentrant model
  6154 ;;
  6155                           
  6156                           	psect	text62
  6157   000EAE                     __ptext62:
  6158                           	callstack 0
  6159   000EAE                     _I2C1_ReadStart:
  6160                           	callstack 20
  6161   000EAE                     
  6162                           ;mcc_generated_files/i2c_host/src/i2c1.c: 304:     if (i2c1Status.readLength)
  6163   000EAE  503E               	movf	(_i2c1Status+9)^0,w,c	;volatile
  6164   000EB0  103F               	iorwf	(_i2c1Status+10)^0,w,c	;volatile
  6165   000EB2  B4D8               	btfsc	status,2,c
  6166   000EB4  EF5E  F007         	goto	i2u132_41
  6167   000EB8  EF60  F007         	goto	i2u132_40
  6168   000EBC                     i2u132_41:
  6169   000EBC  EF63  F007         	goto	i2l3926
  6170   000EC0                     i2u132_40:
  6171   000EC0                     
  6172                           ;mcc_generated_files/i2c_host/src/i2c1.c: 305:     {;mcc_generated_files/i2c_host/src/i2
      +                          c1.c: 306:         I2C1_CounterSet((uint8_t) i2c1Status.readLength);
  6173   000EC0  503E               	movf	(_i2c1Status+9)^0,w,c	;volatile
  6174   000EC2  EC82  F008         	call	_I2C1_CounterSet
  6175   000EC6                     i2l3926:
  6176                           
  6177                           ;mcc_generated_files/i2c_host/src/i2c1.c: 309:     I2C1_AddrTransmit((uint8_t) (i2c1Stat
      +                          us.address << 1 | 1));
  6178   000EC6  80D8               	bsf	status,0,c
  6179   000EC8  3436               	rlcf	(_i2c1Status+1)^0,w,c	;volatile
  6180   000ECA  EC87  F008         	call	_I2C1_AddrTransmit
  6181   000ECE                     
  6182                           ;mcc_generated_files/i2c_host/src/i2c1.c: 310:     I2C1_StartSend();
  6183   000ECE  ECAB  F008         	call	_I2C1_StartSend	;wreg free
  6184   000ED2  0012               	return		;funcret
  6185   000ED4                     __end_of_I2C1_ReadStart:
  6186                           	callstack 0
  6187                           
  6188 ;; *************** function _I2C1_StartSend *****************
  6189 ;; Defined at:
  6190 ;;		line 347 in file "mcc_generated_files/i2c_host/src/i2c1.c"
  6191 ;; Parameters:    Size  Location     Type
  6192 ;;		None
  6193 ;; Auto vars:     Size  Location     Type
  6194 ;;		None
  6195 ;; Return value:  Size  Location     Type
  6196 ;;                  1    wreg      void 
  6197 ;; Registers used:
  6198 ;;		None
  6199 ;; Tracked objects:
  6200 ;;		On entry : 0/0
  6201 ;;		On exit  : 0/0
  6202 ;;		Unchanged: 0/0
  6203 ;; Data sizes:     COMRAM   BANK0   BANK1   BANK2   BANK3   BANK4   BANK5   BANK6   BANK7   BANK8   BANK9  BANK10  BANK1
      +1  BANK12  BANK13  BANK14  BANK15
  6204 ;;      Params:         0       0       0       0       0       0       0       0       0       0       0       0       
      +0       0       0       0       0
  6205 ;;      Locals:         0       0       0       0       0       0       0       0       0       0       0       0       
      +0       0       0       0       0
  6206 ;;      Temps:          0       0       0       0       0       0       0       0       0       0       0       0       
      +0       0       0       0       0
  6207 ;;      Totals:         0       0       0       0       0       0       0       0       0       0       0       0       
      +0       0       0       0       0
  6208 ;;Total ram usage:        0 bytes
  6209 ;; Hardware stack levels used: 1
  6210 ;; This function calls:
  6211 ;;		Nothing
  6212 ;; This function is called by:
  6213 ;;		_I2C1_ReadStart
  6214 ;;		_I2C1_WriteStart
  6215 ;; This function uses a non-reentrant model
  6216 ;;
  6217                           
  6218                           	psect	text63
  6219   001156                     __ptext63:
  6220                           	callstack 0
  6221   001156                     _I2C1_StartSend:
  6222                           	callstack 20
  6223   001156                     
  6224                           ;mcc_generated_files/i2c_host/src/i2c1.c: 349:     I2C1CON0bits.S = 1;
  6225   001156  013D               	movlb	61	; () banked
  6226   001158  8B73               	bsf	115,5,b	;volatile
  6227   00115A                     
  6228                           ; BSR set to: 61
  6229   00115A  0012               	return		;funcret
  6230   00115C                     __end_of_I2C1_StartSend:
  6231                           	callstack 0
  6232                           
  6233 ;; *************** function _I2C1_CounterSet *****************
  6234 ;; Defined at:
  6235 ;;		line 367 in file "mcc_generated_files/i2c_host/src/i2c1.c"
  6236 ;; Parameters:    Size  Location     Type
  6237 ;;  counter         1    wreg     unsigned char 
  6238 ;; Auto vars:     Size  Location     Type
  6239 ;;  counter         1    7[COMRAM] unsigned char 
  6240 ;; Return value:  Size  Location     Type
  6241 ;;                  1    wreg      void 
  6242 ;; Registers used:
  6243 ;;		wreg
  6244 ;; Tracked objects:
  6245 ;;		On entry : 0/0
  6246 ;;		On exit  : 0/0
  6247 ;;		Unchanged: 0/0
  6248 ;; Data sizes:     COMRAM   BANK0   BANK1   BANK2   BANK3   BANK4   BANK5   BANK6   BANK7   BANK8   BANK9  BANK10  BANK1
      +1  BANK12  BANK13  BANK14  BANK15
  6249 ;;      Params:         0       0       0       0       0       0       0       0       0       0       0       0       
      +0       0       0       0       0
  6250 ;;      Locals:         1       0       0       0       0       0       0       0       0       0       0       0       
      +0       0       0       0       0
  6251 ;;      Temps:          0       0       0       0       0       0       0       0       0       0       0       0       
      +0       0       0       0       0
  6252 ;;      Totals:         1       0       0       0       0       0       0       0       0       0       0       0       
      +0       0       0       0       0
  6253 ;;Total ram usage:        1 bytes
  6254 ;; Hardware stack levels used: 1
  6255 ;; This function calls:
  6256 ;;		Nothing
  6257 ;; This function is called by:
  6258 ;;		_I2C1_ReadStart
  6259 ;;		_I2C1_StopSend
  6260 ;;		_I2C1_WriteStart
  6261 ;; This function uses a non-reentrant model
  6262 ;;
  6263                           
  6264                           	psect	text64
  6265   001104                     __ptext64:
  6266                           	callstack 0
  6267   001104                     _I2C1_CounterSet:
  6268                           	callstack 20
  6269                           
  6270                           ; BSR set to: 61
  6271                           ;incstack = 0
  6272                           ;I2C1_CounterSet@counter stored from wreg
  6273   001104  6E08               	movwf	I2C1_CounterSet@counter^0,c
  6274   001106                     
  6275                           ;mcc_generated_files/i2c_host/src/i2c1.c: 367: static void I2C1_CounterSet(uint8_t count
      +                          er);mcc_generated_files/i2c_host/src/i2c1.c: 368: {;mcc_generated_files/i2c_host/src/i2c
      +                          1.c: 369:     I2C1CNT = counter;
  6276   001106  0060  F023  FD6C   	movff	I2C1_CounterSet@counter,15724	;volatile
  6277   00110C  0012               	return		;funcret
  6278   00110E                     __end_of_I2C1_CounterSet:
  6279                           	callstack 0
  6280                           
  6281 ;; *************** function _I2C1_AddrTransmit *****************
  6282 ;; Defined at:
  6283 ;;		line 352 in file "mcc_generated_files/i2c_host/src/i2c1.c"
  6284 ;; Parameters:    Size  Location     Type
  6285 ;;  addr            1    wreg     unsigned char 
  6286 ;; Auto vars:     Size  Location     Type
  6287 ;;  addr            1    6[COMRAM] unsigned char 
  6288 ;; Return value:  Size  Location     Type
  6289 ;;                  1    wreg      void 
  6290 ;; Registers used:
  6291 ;;		wreg
  6292 ;; Tracked objects:
  6293 ;;		On entry : 0/0
  6294 ;;		On exit  : 0/0
  6295 ;;		Unchanged: 0/0
  6296 ;; Data sizes:     COMRAM   BANK0   BANK1   BANK2   BANK3   BANK4   BANK5   BANK6   BANK7   BANK8   BANK9  BANK10  BANK1
      +1  BANK12  BANK13  BANK14  BANK15
  6297 ;;      Params:         0       0       0       0       0       0       0       0       0       0       0       0       
      +0       0       0       0       0
  6298 ;;      Locals:         1       0       0       0       0       0       0       0       0       0       0       0       
      +0       0       0       0       0
  6299 ;;      Temps:          0       0       0       0       0       0       0       0       0       0       0       0       
      +0       0       0       0       0
  6300 ;;      Totals:         1       0       0       0       0       0       0       0       0       0       0       0       
      +0       0       0       0       0
  6301 ;;Total ram usage:        1 bytes
  6302 ;; Hardware stack levels used: 1
  6303 ;; This function calls:
  6304 ;;		Nothing
  6305 ;; This function is called by:
  6306 ;;		_I2C1_ReadStart
  6307 ;;		_I2C1_WriteStart
  6308 ;; This function uses a non-reentrant model
  6309 ;;
  6310                           
  6311                           	psect	text65
  6312   00110E                     __ptext65:
  6313                           	callstack 0
  6314   00110E                     _I2C1_AddrTransmit:
  6315                           	callstack 20
  6316                           
  6317                           ;incstack = 0
  6318                           ;I2C1_AddrTransmit@addr stored from wreg
  6319   00110E  6E07               	movwf	I2C1_AddrTransmit@addr^0,c
  6320   001110                     
  6321                           ;mcc_generated_files/i2c_host/src/i2c1.c: 352: static void I2C1_AddrTransmit(uint8_t add
      +                          r);mcc_generated_files/i2c_host/src/i2c1.c: 353: {;mcc_generated_files/i2c_host/src/i2c1
      +                          .c: 354:     I2C1ADB1 = addr;
  6322   001110  0060  F01F  FD6E   	movff	I2C1_AddrTransmit@addr,15726	;volatile
  6323   001116  0012               	return		;funcret
  6324   001118                     __end_of_I2C1_AddrTransmit:
  6325                           	callstack 0
  6326                           
  6327 ;; *************** function _I2C1_Close *****************
  6328 ;; Defined at:
  6329 ;;		line 328 in file "mcc_generated_files/i2c_host/src/i2c1.c"
  6330 ;; Parameters:    Size  Location     Type
  6331 ;;		None
  6332 ;; Auto vars:     Size  Location     Type
  6333 ;;		None
  6334 ;; Return value:  Size  Location     Type
  6335 ;;                  1    wreg      void 
  6336 ;; Registers used:
  6337 ;;		wreg, status,2, status,0, cstack
  6338 ;; Tracked objects:
  6339 ;;		On entry : 0/0
  6340 ;;		On exit  : 0/0
  6341 ;;		Unchanged: 0/0
  6342 ;; Data sizes:     COMRAM   BANK0   BANK1   BANK2   BANK3   BANK4   BANK5   BANK6   BANK7   BANK8   BANK9  BANK10  BANK1
      +1  BANK12  BANK13  BANK14  BANK15
  6343 ;;      Params:         0       0       0       0       0       0       0       0       0       0       0       0       
      +0       0       0       0       0
  6344 ;;      Locals:         0       0       0       0       0       0       0       0       0       0       0       0       
      +0       0       0       0       0
  6345 ;;      Temps:          0       0       0       0       0       0       0       0       0       0       0       0       
      +0       0       0       0       0
  6346 ;;      Totals:         0       0       0       0       0       0       0       0       0       0       0       0       
      +0       0       0       0       0
  6347 ;;Total ram usage:        0 bytes
  6348 ;; Hardware stack levels used: 1
  6349 ;; Hardware stack levels required when called: 1
  6350 ;; This function calls:
  6351 ;;		_I2C1_BufferClear
  6352 ;;		_I2C1_ErrorFlagsClear
  6353 ;;		_I2C1_InterruptsClear
  6354 ;; This function is called by:
  6355 ;;		_I2C1_ISR
  6356 ;; This function uses a non-reentrant model
  6357 ;;
  6358                           
  6359                           	psect	text66
  6360   000E60                     __ptext66:
  6361                           	callstack 0
  6362   000E60                     _I2C1_Close:
  6363                           	callstack 20
  6364   000E60                     
  6365                           ;mcc_generated_files/i2c_host/src/i2c1.c: 330:     i2c1Status.busy = 0;
  6366   000E60  0E00               	movlw	0
  6367   000E62  6E35               	movwf	_i2c1Status^0,c	;volatile
  6368                           
  6369                           ;mcc_generated_files/i2c_host/src/i2c1.c: 331:     i2c1Status.address = 0xFF;
  6370   000E64  0E00               	movlw	0
  6371   000E66  6E37               	movwf	(_i2c1Status+2)^0,c	;volatile
  6372   000E68  6836               	setf	(_i2c1Status+1)^0,c	;volatile
  6373   000E6A                     
  6374                           ;mcc_generated_files/i2c_host/src/i2c1.c: 332:     i2c1Status.writePtr = ((void*)0);
  6375   000E6A  0E00               	movlw	0
  6376   000E6C  6E38               	movwf	(_i2c1Status+3)^0,c	;volatile
  6377   000E6E  0E00               	movlw	0
  6378   000E70  6E39               	movwf	(_i2c1Status+4)^0,c	;volatile
  6379   000E72                     
  6380                           ;mcc_generated_files/i2c_host/src/i2c1.c: 333:     i2c1Status.readPtr = ((void*)0);
  6381   000E72  0E00               	movlw	0
  6382   000E74  6E3C               	movwf	(_i2c1Status+7)^0,c	;volatile
  6383   000E76  0E00               	movlw	0
  6384   000E78  6E3D               	movwf	(_i2c1Status+8)^0,c	;volatile
  6385   000E7A                     
  6386                           ;mcc_generated_files/i2c_host/src/i2c1.c: 334:     I2C1_InterruptsClear();
  6387   000E7A  EC9A  F008         	call	_I2C1_InterruptsClear	;wreg free
  6388                           
  6389                           ;mcc_generated_files/i2c_host/src/i2c1.c: 335:     I2C1_ErrorFlagsClear();
  6390   000E7E  EC8C  F008         	call	_I2C1_ErrorFlagsClear	;wreg free
  6391   000E82                     
  6392                           ;mcc_generated_files/i2c_host/src/i2c1.c: 336:     I2C1_BufferClear();
  6393   000E82  EC91  F008         	call	_I2C1_BufferClear	;wreg free
  6394   000E86  0012               	return		;funcret
  6395   000E88                     __end_of_I2C1_Close:
  6396                           	callstack 0
  6397                           
  6398 ;; *************** function _I2C1_InterruptsClear *****************
  6399 ;; Defined at:
  6400 ;;		line 471 in file "mcc_generated_files/i2c_host/src/i2c1.c"
  6401 ;; Parameters:    Size  Location     Type
  6402 ;;		None
  6403 ;; Auto vars:     Size  Location     Type
  6404 ;;		None
  6405 ;; Return value:  Size  Location     Type
  6406 ;;                  1    wreg      void 
  6407 ;; Registers used:
  6408 ;;		wreg, status,2
  6409 ;; Tracked objects:
  6410 ;;		On entry : 0/0
  6411 ;;		On exit  : 0/0
  6412 ;;		Unchanged: 0/0
  6413 ;; Data sizes:     COMRAM   BANK0   BANK1   BANK2   BANK3   BANK4   BANK5   BANK6   BANK7   BANK8   BANK9  BANK10  BANK1
      +1  BANK12  BANK13  BANK14  BANK15
  6414 ;;      Params:         0       0       0       0       0       0       0       0       0       0       0       0       
      +0       0       0       0       0
  6415 ;;      Locals:         0       0       0       0       0       0       0       0       0       0       0       0       
      +0       0       0       0       0
  6416 ;;      Temps:          0       0       0       0       0       0       0       0       0       0       0       0       
      +0       0       0       0       0
  6417 ;;      Totals:         0       0       0       0       0       0       0       0       0       0       0       0       
      +0       0       0       0       0
  6418 ;;Total ram usage:        0 bytes
  6419 ;; Hardware stack levels used: 1
  6420 ;; This function calls:
  6421 ;;		Nothing
  6422 ;; This function is called by:
  6423 ;;		_I2C1_Close
  6424 ;;		_I2C1_BusReset
  6425 ;; This function uses a non-reentrant model
  6426 ;;
  6427                           
  6428                           	psect	text67
  6429   001134                     __ptext67:
  6430                           	callstack 0
  6431   001134                     _I2C1_InterruptsClear:
  6432                           	callstack 20
  6433   001134                     
  6434                           ;mcc_generated_files/i2c_host/src/i2c1.c: 473:     I2C1PIR = 0x00;
  6435   001134  0E00               	movlw	0
  6436   001136  013D               	movlb	61	; () banked
  6437   001138  6F79               	movwf	121,b	;volatile
  6438   00113A                     
  6439                           ; BSR set to: 61
  6440   00113A  0012               	return		;funcret
  6441   00113C                     __end_of_I2C1_InterruptsClear:
  6442                           	callstack 0
  6443                           
  6444 ;; *************** function _I2C1_ErrorFlagsClear *****************
  6445 ;; Defined at:
  6446 ;;		line 476 in file "mcc_generated_files/i2c_host/src/i2c1.c"
  6447 ;; Parameters:    Size  Location     Type
  6448 ;;		None
  6449 ;; Auto vars:     Size  Location     Type
  6450 ;;		None
  6451 ;; Return value:  Size  Location     Type
  6452 ;;                  1    wreg      void 
  6453 ;; Registers used:
  6454 ;;		None
  6455 ;; Tracked objects:
  6456 ;;		On entry : 0/0
  6457 ;;		On exit  : 0/0
  6458 ;;		Unchanged: 0/0
  6459 ;; Data sizes:     COMRAM   BANK0   BANK1   BANK2   BANK3   BANK4   BANK5   BANK6   BANK7   BANK8   BANK9  BANK10  BANK1
      +1  BANK12  BANK13  BANK14  BANK15
  6460 ;;      Params:         0       0       0       0       0       0       0       0       0       0       0       0       
      +0       0       0       0       0
  6461 ;;      Locals:         0       0       0       0       0       0       0       0       0       0       0       0       
      +0       0       0       0       0
  6462 ;;      Temps:          0       0       0       0       0       0       0       0       0       0       0       0       
      +0       0       0       0       0
  6463 ;;      Totals:         0       0       0       0       0       0       0       0       0       0       0       0       
      +0       0       0       0       0
  6464 ;;Total ram usage:        0 bytes
  6465 ;; Hardware stack levels used: 1
  6466 ;; This function calls:
  6467 ;;		Nothing
  6468 ;; This function is called by:
  6469 ;;		_I2C1_Close
  6470 ;;		_I2C1_BusReset
  6471 ;; This function uses a non-reentrant model
  6472 ;;
  6473                           
  6474                           	psect	text68
  6475   001118                     __ptext68:
  6476                           	callstack 0
  6477   001118                     _I2C1_ErrorFlagsClear:
  6478                           	callstack 20
  6479   001118                     
  6480                           ;mcc_generated_files/i2c_host/src/i2c1.c: 478:     I2C1ERRbits.BCLIF = 0;
  6481   001118  013D               	movlb	61	; () banked
  6482   00111A  9B76               	bcf	118,5,b	;volatile
  6483                           
  6484                           ;mcc_generated_files/i2c_host/src/i2c1.c: 479:     I2C1ERRbits.BTOIF = 0;
  6485   00111C  9D76               	bcf	118,6,b	;volatile
  6486                           
  6487                           ;mcc_generated_files/i2c_host/src/i2c1.c: 480:     I2C1ERRbits.NACKIF = 0;
  6488   00111E  9976               	bcf	118,4,b	;volatile
  6489   001120                     
  6490                           ; BSR set to: 61
  6491   001120  0012               	return		;funcret
  6492   001122                     __end_of_I2C1_ErrorFlagsClear:
  6493                           	callstack 0
  6494                           
  6495 ;; *************** function _I2C1_BufferClear *****************
  6496 ;; Defined at:
  6497 ;;		line 483 in file "mcc_generated_files/i2c_host/src/i2c1.c"
  6498 ;; Parameters:    Size  Location     Type
  6499 ;;		None
  6500 ;; Auto vars:     Size  Location     Type
  6501 ;;		None
  6502 ;; Return value:  Size  Location     Type
  6503 ;;                  1    wreg      void 
  6504 ;; Registers used:
  6505 ;;		wreg, status,2
  6506 ;; Tracked objects:
  6507 ;;		On entry : 0/0
  6508 ;;		On exit  : 0/0
  6509 ;;		Unchanged: 0/0
  6510 ;; Data sizes:     COMRAM   BANK0   BANK1   BANK2   BANK3   BANK4   BANK5   BANK6   BANK7   BANK8   BANK9  BANK10  BANK1
      +1  BANK12  BANK13  BANK14  BANK15
  6511 ;;      Params:         0       0       0       0       0       0       0       0       0       0       0       0       
      +0       0       0       0       0
  6512 ;;      Locals:         0       0       0       0       0       0       0       0       0       0       0       0       
      +0       0       0       0       0
  6513 ;;      Temps:          0       0       0       0       0       0       0       0       0       0       0       0       
      +0       0       0       0       0
  6514 ;;      Totals:         0       0       0       0       0       0       0       0       0       0       0       0       
      +0       0       0       0       0
  6515 ;;Total ram usage:        0 bytes
  6516 ;; Hardware stack levels used: 1
  6517 ;; This function calls:
  6518 ;;		Nothing
  6519 ;; This function is called by:
  6520 ;;		_I2C1_Close
  6521 ;;		_I2C1_BusReset
  6522 ;; This function uses a non-reentrant model
  6523 ;;
  6524                           
  6525                           	psect	text69
  6526   001122                     __ptext69:
  6527                           	callstack 0
  6528   001122                     _I2C1_BufferClear:
  6529                           	callstack 20
  6530   001122                     
  6531                           ;mcc_generated_files/i2c_host/src/i2c1.c: 485:     I2C1STAT1 = 0x00;
  6532   001122  0E00               	movlw	0
  6533   001124  013D               	movlb	61	; () banked
  6534   001126  6F78               	movwf	120,b	;volatile
  6535   001128                     
  6536                           ; BSR set to: 61
  6537                           ;mcc_generated_files/i2c_host/src/i2c1.c: 486:     I2C1STAT1bits.CLRBF = 1;
  6538   001128  8578               	bsf	120,2,b	;volatile
  6539   00112A                     
  6540                           ; BSR set to: 61
  6541   00112A  0012               	return		;funcret
  6542   00112C                     __end_of_I2C1_BufferClear:
  6543                           	callstack 0
  6544                           
  6545 ;; *************** function _I2C1_ERROR_ISR *****************
  6546 ;; Defined at:
  6547 ;;		line 253 in file "mcc_generated_files/i2c_host/src/i2c1.c"
  6548 ;; Parameters:    Size  Location     Type
  6549 ;;		None
  6550 ;; Auto vars:     Size  Location     Type
  6551 ;;		None
  6552 ;; Return value:  Size  Location     Type
  6553 ;;                  1    wreg      void 
  6554 ;; Registers used:
  6555 ;;		wreg, status,2, pcl, pclath, pclatu, tosl, cstack
  6556 ;; Tracked objects:
  6557 ;;		On entry : 0/0
  6558 ;;		On exit  : 0/0
  6559 ;;		Unchanged: 0/0
  6560 ;; Data sizes:     COMRAM   BANK0   BANK1   BANK2   BANK3   BANK4   BANK5   BANK6   BANK7   BANK8   BANK9  BANK10  BANK1
      +1  BANK12  BANK13  BANK14  BANK15
  6561 ;;      Params:         0       0       0       0       0       0       0       0       0       0       0       0       
      +0       0       0       0       0
  6562 ;;      Locals:         0       0       0       0       0       0       0       0       0       0       0       0       
      +0       0       0       0       0
  6563 ;;      Temps:          2       0       0       0       0       0       0       0       0       0       0       0       
      +0       0       0       0       0
  6564 ;;      Totals:         2       0       0       0       0       0       0       0       0       0       0       0       
      +0       0       0       0       0
  6565 ;;Total ram usage:        2 bytes
  6566 ;; Hardware stack levels used: 1
  6567 ;; Hardware stack levels required when called: 2
  6568 ;; This function calls:
  6569 ;;		Absolute function
  6570 ;;		_I2C1_BusReset
  6571 ;;		_I2C1_DefaultCallback
  6572 ;;		_I2C1_IsAddr
  6573 ;;		_I2C1_IsBusCol
  6574 ;;		_I2C1_IsBusTimeOut
  6575 ;;		_I2C1_IsData
  6576 ;;		_I2C1_IsNack
  6577 ;;		_I2C1_StopSend
  6578 ;; This function is called by:
  6579 ;;		Interrupt level 2
  6580 ;; This function uses a non-reentrant model
  6581 ;;
  6582                           
  6583                           	psect	text70
  6584   00044C                     __ptext70:
  6585                           	callstack 0
  6586   00044C                     _I2C1_ERROR_ISR:
  6587                           	callstack 20
  6588                           
  6589                           ; BSR set to: 61
  6590                           ;incstack = 0
  6591   00044C  006F FFE8  F009    	movff	pclath,??_I2C1_ERROR_ISR
  6592   000452  006F FFEC  F00A    	movff	pclatu,??_I2C1_ERROR_ISR+1
  6593   000458                     
  6594                           ;mcc_generated_files/i2c_host/src/i2c1.c: 255:     if (I2C1_IsBusCol())
  6595   000458  EC10  F008         	call	_I2C1_IsBusCol	;wreg free
  6596   00045C  0900               	iorlw	0
  6597   00045E  B4D8               	btfsc	status,2,c
  6598   000460  EF34  F002         	goto	i2u213_41
  6599   000464  EF36  F002         	goto	i2u213_40
  6600   000468                     i2u213_41:
  6601   000468  EF3E  F002         	goto	i2l4600
  6602   00046C                     i2u213_40:
  6603   00046C                     
  6604                           ;mcc_generated_files/i2c_host/src/i2c1.c: 256:     {;mcc_generated_files/i2c_host/src/i2
      +                          c1.c: 257:         i2c1Status.errorState = I2C_ERROR_BUS_COLLISION;
  6605   00046C  0E03               	movlw	3
  6606   00046E  6E41               	movwf	(_i2c1Status+12)^0,c	;volatile
  6607   000470                     
  6608                           ;mcc_generated_files/i2c_host/src/i2c1.c: 258:         I2C1ERRbits.BCLIF = 0;
  6609   000470  013D               	movlb	61	; () banked
  6610   000472  9B76               	bcf	118,5,b	;volatile
  6611   000474                     
  6612                           ; BSR set to: 61
  6613                           ;mcc_generated_files/i2c_host/src/i2c1.c: 259:         I2C1_BusReset();
  6614   000474  ECA6  F005         	call	_I2C1_BusReset	;wreg free
  6615                           
  6616                           ;mcc_generated_files/i2c_host/src/i2c1.c: 260:     }
  6617   000478  EF86  F002         	goto	i2l4626
  6618   00047C                     i2l4600:
  6619   00047C  EC1B  F008         	call	_I2C1_IsAddr	;wreg free
  6620   000480  0900               	iorlw	0
  6621   000482  B4D8               	btfsc	status,2,c
  6622   000484  EF46  F002         	goto	i2u214_41
  6623   000488  EF48  F002         	goto	i2u214_40
  6624   00048C                     i2u214_41:
  6625   00048C  EF5A  F002         	goto	i2l4610
  6626   000490                     i2u214_40:
  6627   000490  ECEF  F007         	call	_I2C1_IsNack	;wreg free
  6628   000494  0900               	iorlw	0
  6629   000496  B4D8               	btfsc	status,2,c
  6630   000498  EF50  F002         	goto	i2u215_41
  6631   00049C  EF52  F002         	goto	i2u215_40
  6632   0004A0                     i2u215_41:
  6633   0004A0  EF5A  F002         	goto	i2l4610
  6634   0004A4                     i2u215_40:
  6635   0004A4                     
  6636                           ;mcc_generated_files/i2c_host/src/i2c1.c: 262:     {;mcc_generated_files/i2c_host/src/i2
      +                          c1.c: 263:         i2c1Status.errorState = I2C_ERROR_ADDR_NACK;
  6637   0004A4  0E01               	movlw	1
  6638   0004A6  6E41               	movwf	(_i2c1Status+12)^0,c	;volatile
  6639   0004A8                     
  6640                           ;mcc_generated_files/i2c_host/src/i2c1.c: 264:         I2C1ERRbits.NACKIF = 0;
  6641   0004A8  013D               	movlb	61	; () banked
  6642   0004AA  9976               	bcf	118,4,b	;volatile
  6643   0004AC                     i2l4608:
  6644                           
  6645                           ; BSR set to: 61
  6646                           ;mcc_generated_files/i2c_host/src/i2c1.c: 265:         I2C1_StopSend();
  6647   0004AC  EC44  F007         	call	_I2C1_StopSend	;wreg free
  6648                           
  6649                           ;mcc_generated_files/i2c_host/src/i2c1.c: 266:     }
  6650   0004B0  EF86  F002         	goto	i2l4626
  6651   0004B4                     i2l4610:
  6652   0004B4  ECFA  F007         	call	_I2C1_IsData	;wreg free
  6653   0004B8  0900               	iorlw	0
  6654   0004BA  B4D8               	btfsc	status,2,c
  6655   0004BC  EF62  F002         	goto	i2u216_41
  6656   0004C0  EF64  F002         	goto	i2u216_40
  6657   0004C4                     i2u216_41:
  6658   0004C4  EF74  F002         	goto	i2l4620
  6659   0004C8                     i2u216_40:
  6660   0004C8  ECEF  F007         	call	_I2C1_IsNack	;wreg free
  6661   0004CC  0900               	iorlw	0
  6662   0004CE  B4D8               	btfsc	status,2,c
  6663   0004D0  EF6C  F002         	goto	i2u217_41
  6664   0004D4  EF6E  F002         	goto	i2u217_40
  6665   0004D8                     i2u217_41:
  6666   0004D8  EF74  F002         	goto	i2l4620
  6667   0004DC                     i2u217_40:
  6668   0004DC                     
  6669                           ;mcc_generated_files/i2c_host/src/i2c1.c: 268:     {;mcc_generated_files/i2c_host/src/i2
      +                          c1.c: 269:         i2c1Status.errorState = I2C_ERROR_DATA_NACK;
  6670   0004DC  0E02               	movlw	2
  6671   0004DE  6E41               	movwf	(_i2c1Status+12)^0,c	;volatile
  6672   0004E0                     
  6673                           ;mcc_generated_files/i2c_host/src/i2c1.c: 270:         I2C1ERRbits.NACKIF = 0;
  6674   0004E0  013D               	movlb	61	; () banked
  6675   0004E2  9976               	bcf	118,4,b	;volatile
  6676   0004E4  EF56  F002         	goto	i2l4608
  6677   0004E8                     i2l4620:
  6678   0004E8  EC05  F008         	call	_I2C1_IsBusTimeOut	;wreg free
  6679   0004EC  0900               	iorlw	0
  6680   0004EE  B4D8               	btfsc	status,2,c
  6681   0004F0  EF7C  F002         	goto	i2u218_41
  6682   0004F4  EF7E  F002         	goto	i2u218_40
  6683   0004F8                     i2u218_41:
  6684   0004F8  EF84  F002         	goto	i2l1435
  6685   0004FC                     i2u218_40:
  6686   0004FC                     
  6687                           ;mcc_generated_files/i2c_host/src/i2c1.c: 274:     {;mcc_generated_files/i2c_host/src/i2
      +                          c1.c: 275:         i2c1Status.errorState = I2C_ERROR_BUS_COLLISION;
  6688   0004FC  0E03               	movlw	3
  6689   0004FE  6E41               	movwf	(_i2c1Status+12)^0,c	;volatile
  6690   000500                     
  6691                           ;mcc_generated_files/i2c_host/src/i2c1.c: 276:         I2C1ERRbits.BTOIF = 0;
  6692   000500  013D               	movlb	61	; () banked
  6693   000502  9D76               	bcf	118,6,b	;volatile
  6694                           
  6695                           ;mcc_generated_files/i2c_host/src/i2c1.c: 277:     }
  6696   000504  EF86  F002         	goto	i2l4626
  6697   000508                     i2l1435:
  6698                           
  6699                           ;mcc_generated_files/i2c_host/src/i2c1.c: 279:     {;mcc_generated_files/i2c_host/src/i2
      +                          c1.c: 280:         I2C1ERRbits.NACKIF = 0;
  6700   000508  013D               	movlb	61	; () banked
  6701   00050A  9976               	bcf	118,4,b	;volatile
  6702   00050C                     i2l4626:
  6703                           
  6704                           ;mcc_generated_files/i2c_host/src/i2c1.c: 283:     if (i2c1Status.errorState != I2C_ERRO
      +                          R_NONE)
  6705   00050C  5041               	movf	(_i2c1Status+12)^0,w,c	;volatile
  6706   00050E  B4D8               	btfsc	status,2,c
  6707   000510  EF8C  F002         	goto	i2u219_41
  6708   000514  EF8E  F002         	goto	i2u219_40
  6709   000518                     i2u219_41:
  6710   000518  EF9B  F002         	goto	i2l1438
  6711   00051C                     i2u219_40:
  6712   00051C                     
  6713                           ;mcc_generated_files/i2c_host/src/i2c1.c: 284:     {;mcc_generated_files/i2c_host/src/i2
      +                          c1.c: 285:         I2C1_Callback();
  6714   00051C  D802               	call	i2u220_48
  6715   00051E  EF9B  F002         	goto	i2u220_49
  6716   000522                     i2u220_48:
  6717   000522  0005               	push	
  6718   000524  6EFA               	movwf	pclath,c
  6719   000526  0100               	movlb	0	; () banked
  6720   000528  5198               	movf	_I2C1_Callback& (0+255),w,b
  6721   00052A  6EFD               	movwf	tosl,c
  6722   00052C  5199               	movf	(_I2C1_Callback+1)& (0+255),w,b
  6723   00052E  6EFE               	movwf	tosh,c
  6724   000530  6AFF               	clrf	tosu,c
  6725   000532  50FA               	movf	pclath,w,c
  6726   000534  0012               	return		;indir
  6727   000536                     i2u220_49:
  6728   000536                     i2l1438:
  6729   000536  0060  F02B  FFFB   	movff	??_I2C1_ERROR_ISR+1,pclatu
  6730   00053C  0060  F027  FFFA   	movff	??_I2C1_ERROR_ISR,pclath
  6731   000542  0011               	retfie		f
  6732   000544                     __end_of_I2C1_ERROR_ISR:
  6733                           	callstack 0
  6734                           
  6735 ;; *************** function _I2C1_IsNack *****************
  6736 ;; Defined at:
  6737 ;;		line 423 in file "mcc_generated_files/i2c_host/src/i2c1.c"
  6738 ;; Parameters:    Size  Location     Type
  6739 ;;		None
  6740 ;; Auto vars:     Size  Location     Type
  6741 ;;		None
  6742 ;; Return value:  Size  Location     Type
  6743 ;;                  1    wreg      _Bool 
  6744 ;; Registers used:
  6745 ;;		wreg
  6746 ;; Tracked objects:
  6747 ;;		On entry : 0/0
  6748 ;;		On exit  : 0/0
  6749 ;;		Unchanged: 0/0
  6750 ;; Data sizes:     COMRAM   BANK0   BANK1   BANK2   BANK3   BANK4   BANK5   BANK6   BANK7   BANK8   BANK9  BANK10  BANK1
      +1  BANK12  BANK13  BANK14  BANK15
  6751 ;;      Params:         0       0       0       0       0       0       0       0       0       0       0       0       
      +0       0       0       0       0
  6752 ;;      Locals:         0       0       0       0       0       0       0       0       0       0       0       0       
      +0       0       0       0       0
  6753 ;;      Temps:          0       0       0       0       0       0       0       0       0       0       0       0       
      +0       0       0       0       0
  6754 ;;      Totals:         0       0       0       0       0       0       0       0       0       0       0       0       
      +0       0       0       0       0
  6755 ;;Total ram usage:        0 bytes
  6756 ;; Hardware stack levels used: 1
  6757 ;; This function calls:
  6758 ;;		Nothing
  6759 ;; This function is called by:
  6760 ;;		_I2C1_ERROR_ISR
  6761 ;; This function uses a non-reentrant model
  6762 ;;
  6763                           
  6764                           	psect	text71
  6765   000FDE                     __ptext71:
  6766                           	callstack 0
  6767   000FDE                     _I2C1_IsNack:
  6768                           	callstack 21
  6769   000FDE                     
  6770                           ;mcc_generated_files/i2c_host/src/i2c1.c: 425:     return I2C1CON1bits.ACKSTAT;
  6771   000FDE  013D               	movlb	61	; () banked
  6772   000FE0  BB74               	btfsc	116,5,b	;volatile
  6773   000FE2  EFF5  F007         	goto	i2u137_41
  6774   000FE6  EFF8  F007         	goto	i2u137_40
  6775   000FEA                     i2u137_41:
  6776   000FEA  0E01               	movlw	1
  6777   000FEC  EFF9  F007         	goto	i2u137_46
  6778   000FF0                     i2u137_40:
  6779   000FF0  0E00               	movlw	0
  6780   000FF2                     i2u137_46:
  6781   000FF2                     
  6782                           ; BSR set to: 61
  6783   000FF2  0012               	return		;funcret
  6784   000FF4                     __end_of_I2C1_IsNack:
  6785                           	callstack 0
  6786                           
  6787 ;; *************** function _I2C1_IsData *****************
  6788 ;; Defined at:
  6789 ;;		line 438 in file "mcc_generated_files/i2c_host/src/i2c1.c"
  6790 ;; Parameters:    Size  Location     Type
  6791 ;;		None
  6792 ;; Auto vars:     Size  Location     Type
  6793 ;;		None
  6794 ;; Return value:  Size  Location     Type
  6795 ;;                  1    wreg      _Bool 
  6796 ;; Registers used:
  6797 ;;		wreg
  6798 ;; Tracked objects:
  6799 ;;		On entry : 0/0
  6800 ;;		On exit  : 0/0
  6801 ;;		Unchanged: 0/0
  6802 ;; Data sizes:     COMRAM   BANK0   BANK1   BANK2   BANK3   BANK4   BANK5   BANK6   BANK7   BANK8   BANK9  BANK10  BANK1
      +1  BANK12  BANK13  BANK14  BANK15
  6803 ;;      Params:         0       0       0       0       0       0       0       0       0       0       0       0       
      +0       0       0       0       0
  6804 ;;      Locals:         0       0       0       0       0       0       0       0       0       0       0       0       
      +0       0       0       0       0
  6805 ;;      Temps:          0       0       0       0       0       0       0       0       0       0       0       0       
      +0       0       0       0       0
  6806 ;;      Totals:         0       0       0       0       0       0       0       0       0       0       0       0       
      +0       0       0       0       0
  6807 ;;Total ram usage:        0 bytes
  6808 ;; Hardware stack levels used: 1
  6809 ;; This function calls:
  6810 ;;		Nothing
  6811 ;; This function is called by:
  6812 ;;		_I2C1_ERROR_ISR
  6813 ;; This function uses a non-reentrant model
  6814 ;;
  6815                           
  6816                           	psect	text72
  6817   000FF4                     __ptext72:
  6818                           	callstack 0
  6819   000FF4                     _I2C1_IsData:
  6820                           	callstack 21
  6821   000FF4                     
  6822                           ;mcc_generated_files/i2c_host/src/i2c1.c: 440:     return I2C1STAT0bits.D;
  6823   000FF4  013D               	movlb	61	; () banked
  6824   000FF6  B777               	btfsc	119,3,b	;volatile
  6825   000FF8  EF00  F008         	goto	i2u138_41
  6826   000FFC  EF03  F008         	goto	i2u138_40
  6827   001000                     i2u138_41:
  6828   001000  0E01               	movlw	1
  6829   001002  EF04  F008         	goto	i2u138_46
  6830   001006                     i2u138_40:
  6831   001006  0E00               	movlw	0
  6832   001008                     i2u138_46:
  6833   001008                     
  6834                           ; BSR set to: 61
  6835   001008  0012               	return		;funcret
  6836   00100A                     __end_of_I2C1_IsData:
  6837                           	callstack 0
  6838                           
  6839 ;; *************** function _I2C1_IsBusTimeOut *****************
  6840 ;; Defined at:
  6841 ;;		line 433 in file "mcc_generated_files/i2c_host/src/i2c1.c"
  6842 ;; Parameters:    Size  Location     Type
  6843 ;;		None
  6844 ;; Auto vars:     Size  Location     Type
  6845 ;;		None
  6846 ;; Return value:  Size  Location     Type
  6847 ;;                  1    wreg      _Bool 
  6848 ;; Registers used:
  6849 ;;		wreg
  6850 ;; Tracked objects:
  6851 ;;		On entry : 0/0
  6852 ;;		On exit  : 0/0
  6853 ;;		Unchanged: 0/0
  6854 ;; Data sizes:     COMRAM   BANK0   BANK1   BANK2   BANK3   BANK4   BANK5   BANK6   BANK7   BANK8   BANK9  BANK10  BANK1
      +1  BANK12  BANK13  BANK14  BANK15
  6855 ;;      Params:         0       0       0       0       0       0       0       0       0       0       0       0       
      +0       0       0       0       0
  6856 ;;      Locals:         0       0       0       0       0       0       0       0       0       0       0       0       
      +0       0       0       0       0
  6857 ;;      Temps:          0       0       0       0       0       0       0       0       0       0       0       0       
      +0       0       0       0       0
  6858 ;;      Totals:         0       0       0       0       0       0       0       0       0       0       0       0       
      +0       0       0       0       0
  6859 ;;Total ram usage:        0 bytes
  6860 ;; Hardware stack levels used: 1
  6861 ;; This function calls:
  6862 ;;		Nothing
  6863 ;; This function is called by:
  6864 ;;		_I2C1_ERROR_ISR
  6865 ;; This function uses a non-reentrant model
  6866 ;;
  6867                           
  6868                           	psect	text73
  6869   00100A                     __ptext73:
  6870                           	callstack 0
  6871   00100A                     _I2C1_IsBusTimeOut:
  6872                           	callstack 21
  6873   00100A                     
  6874                           ;mcc_generated_files/i2c_host/src/i2c1.c: 435:     return I2C1ERRbits.BTOIF;
  6875   00100A  013D               	movlb	61	; () banked
  6876   00100C  BD76               	btfsc	118,6,b	;volatile
  6877   00100E  EF0B  F008         	goto	i2u139_41
  6878   001012  EF0E  F008         	goto	i2u139_40
  6879   001016                     i2u139_41:
  6880   001016  0E01               	movlw	1
  6881   001018  EF0F  F008         	goto	i2u139_46
  6882   00101C                     i2u139_40:
  6883   00101C  0E00               	movlw	0
  6884   00101E                     i2u139_46:
  6885   00101E                     
  6886                           ; BSR set to: 61
  6887   00101E  0012               	return		;funcret
  6888   001020                     __end_of_I2C1_IsBusTimeOut:
  6889                           	callstack 0
  6890                           
  6891 ;; *************** function _I2C1_IsBusCol *****************
  6892 ;; Defined at:
  6893 ;;		line 428 in file "mcc_generated_files/i2c_host/src/i2c1.c"
  6894 ;; Parameters:    Size  Location     Type
  6895 ;;		None
  6896 ;; Auto vars:     Size  Location     Type
  6897 ;;		None
  6898 ;; Return value:  Size  Location     Type
  6899 ;;                  1    wreg      _Bool 
  6900 ;; Registers used:
  6901 ;;		wreg
  6902 ;; Tracked objects:
  6903 ;;		On entry : 0/0
  6904 ;;		On exit  : 0/0
  6905 ;;		Unchanged: 0/0
  6906 ;; Data sizes:     COMRAM   BANK0   BANK1   BANK2   BANK3   BANK4   BANK5   BANK6   BANK7   BANK8   BANK9  BANK10  BANK1
      +1  BANK12  BANK13  BANK14  BANK15
  6907 ;;      Params:         0       0       0       0       0       0       0       0       0       0       0       0       
      +0       0       0       0       0
  6908 ;;      Locals:         0       0       0       0       0       0       0       0       0       0       0       0       
      +0       0       0       0       0
  6909 ;;      Temps:          0       0       0       0       0       0       0       0       0       0       0       0       
      +0       0       0       0       0
  6910 ;;      Totals:         0       0       0       0       0       0       0       0       0       0       0       0       
      +0       0       0       0       0
  6911 ;;Total ram usage:        0 bytes
  6912 ;; Hardware stack levels used: 1
  6913 ;; This function calls:
  6914 ;;		Nothing
  6915 ;; This function is called by:
  6916 ;;		_I2C1_ERROR_ISR
  6917 ;; This function uses a non-reentrant model
  6918 ;;
  6919                           
  6920                           	psect	text74
  6921   001020                     __ptext74:
  6922                           	callstack 0
  6923   001020                     _I2C1_IsBusCol:
  6924                           	callstack 21
  6925   001020                     
  6926                           ;mcc_generated_files/i2c_host/src/i2c1.c: 430:     return I2C1ERRbits.BCLIF;
  6927   001020  013D               	movlb	61	; () banked
  6928   001022  BB76               	btfsc	118,5,b	;volatile
  6929   001024  EF16  F008         	goto	i2u134_41
  6930   001028  EF19  F008         	goto	i2u134_40
  6931   00102C                     i2u134_41:
  6932   00102C  0E01               	movlw	1
  6933   00102E  EF1A  F008         	goto	i2u134_46
  6934   001032                     i2u134_40:
  6935   001032  0E00               	movlw	0
  6936   001034                     i2u134_46:
  6937   001034                     
  6938                           ; BSR set to: 61
  6939   001034  0012               	return		;funcret
  6940   001036                     __end_of_I2C1_IsBusCol:
  6941                           	callstack 0
  6942                           
  6943 ;; *************** function _I2C1_IsAddr *****************
  6944 ;; Defined at:
  6945 ;;		line 443 in file "mcc_generated_files/i2c_host/src/i2c1.c"
  6946 ;; Parameters:    Size  Location     Type
  6947 ;;		None
  6948 ;; Auto vars:     Size  Location     Type
  6949 ;;		None
  6950 ;; Return value:  Size  Location     Type
  6951 ;;                  1    wreg      _Bool 
  6952 ;; Registers used:
  6953 ;;		wreg
  6954 ;; Tracked objects:
  6955 ;;		On entry : 0/0
  6956 ;;		On exit  : 0/0
  6957 ;;		Unchanged: 0/0
  6958 ;; Data sizes:     COMRAM   BANK0   BANK1   BANK2   BANK3   BANK4   BANK5   BANK6   BANK7   BANK8   BANK9  BANK10  BANK1
      +1  BANK12  BANK13  BANK14  BANK15
  6959 ;;      Params:         0       0       0       0       0       0       0       0       0       0       0       0       
      +0       0       0       0       0
  6960 ;;      Locals:         0       0       0       0       0       0       0       0       0       0       0       0       
      +0       0       0       0       0
  6961 ;;      Temps:          0       0       0       0       0       0       0       0       0       0       0       0       
      +0       0       0       0       0
  6962 ;;      Totals:         0       0       0       0       0       0       0       0       0       0       0       0       
      +0       0       0       0       0
  6963 ;;Total ram usage:        0 bytes
  6964 ;; Hardware stack levels used: 1
  6965 ;; This function calls:
  6966 ;;		Nothing
  6967 ;; This function is called by:
  6968 ;;		_I2C1_ERROR_ISR
  6969 ;; This function uses a non-reentrant model
  6970 ;;
  6971                           
  6972                           	psect	text75
  6973   001036                     __ptext75:
  6974                           	callstack 0
  6975   001036                     _I2C1_IsAddr:
  6976                           	callstack 21
  6977   001036                     
  6978                           ;mcc_generated_files/i2c_host/src/i2c1.c: 445:     return !I2C1STAT0bits.D;
  6979   001036  013D               	movlb	61	; () banked
  6980   001038  A777               	btfss	119,3,b	;volatile
  6981   00103A  EF21  F008         	goto	i2u135_41
  6982   00103E  EF24  F008         	goto	i2u135_40
  6983   001042                     i2u135_41:
  6984   001042  0E01               	movlw	1
  6985   001044  EF25  F008         	goto	i2u136_40
  6986   001048                     i2u135_40:
  6987   001048  0E00               	movlw	0
  6988   00104A                     i2u136_40:
  6989   00104A                     
  6990                           ; BSR set to: 61
  6991   00104A  0012               	return		;funcret
  6992   00104C                     __end_of_I2C1_IsAddr:
  6993                           	callstack 0
  6994                           
  6995 ;; *************** function _I2C1_DefaultCallback *****************
  6996 ;; Defined at:
  6997 ;;		line 339 in file "mcc_generated_files/i2c_host/src/i2c1.c"
  6998 ;; Parameters:    Size  Location     Type
  6999 ;;		None
  7000 ;; Auto vars:     Size  Location     Type
  7001 ;;		None
  7002 ;; Return value:  Size  Location     Type
  7003 ;;                  1    wreg      void 
  7004 ;; Registers used:
  7005 ;;		None
  7006 ;; Tracked objects:
  7007 ;;		On entry : 0/0
  7008 ;;		On exit  : 0/0
  7009 ;;		Unchanged: 0/0
  7010 ;; Data sizes:     COMRAM   BANK0   BANK1   BANK2   BANK3   BANK4   BANK5   BANK6   BANK7   BANK8   BANK9  BANK10  BANK1
      +1  BANK12  BANK13  BANK14  BANK15
  7011 ;;      Params:         0       0       0       0       0       0       0       0       0       0       0       0       
      +0       0       0       0       0
  7012 ;;      Locals:         0       0       0       0       0       0       0       0       0       0       0       0       
      +0       0       0       0       0
  7013 ;;      Temps:          0       0       0       0       0       0       0       0       0       0       0       0       
      +0       0       0       0       0
  7014 ;;      Totals:         0       0       0       0       0       0       0       0       0       0       0       0       
      +0       0       0       0       0
  7015 ;;Total ram usage:        0 bytes
  7016 ;; Hardware stack levels used: 1
  7017 ;; This function calls:
  7018 ;;		Nothing
  7019 ;; This function is called by:
  7020 ;;		_I2C1_Initialize
  7021 ;;		_I2C1_Deinitialize
  7022 ;;		_I2C1_ERROR_ISR
  7023 ;; This function uses a non-reentrant model
  7024 ;;
  7025                           
  7026                           	psect	text76
  7027   00117E                     __ptext76:
  7028                           	callstack 0
  7029   00117E                     _I2C1_DefaultCallback:
  7030                           	callstack 21
  7031   00117E  0012               	return		;funcret
  7032   001180                     __end_of_I2C1_DefaultCallback:
  7033                           	callstack 0
  7034                           
  7035 ;; *************** function _I2C1_BusReset *****************
  7036 ;; Defined at:
  7037 ;;		line 377 in file "mcc_generated_files/i2c_host/src/i2c1.c"
  7038 ;; Parameters:    Size  Location     Type
  7039 ;;		None
  7040 ;; Auto vars:     Size  Location     Type
  7041 ;;		None
  7042 ;; Return value:  Size  Location     Type
  7043 ;;                  1    wreg      void 
  7044 ;; Registers used:
  7045 ;;		wreg, status,2, cstack
  7046 ;; Tracked objects:
  7047 ;;		On entry : 0/0
  7048 ;;		On exit  : 0/0
  7049 ;;		Unchanged: 0/0
  7050 ;; Data sizes:     COMRAM   BANK0   BANK1   BANK2   BANK3   BANK4   BANK5   BANK6   BANK7   BANK8   BANK9  BANK10  BANK1
      +1  BANK12  BANK13  BANK14  BANK15
  7051 ;;      Params:         0       0       0       0       0       0       0       0       0       0       0       0       
      +0       0       0       0       0
  7052 ;;      Locals:         0       0       0       0       0       0       0       0       0       0       0       0       
      +0       0       0       0       0
  7053 ;;      Temps:          0       0       0       0       0       0       0       0       0       0       0       0       
      +0       0       0       0       0
  7054 ;;      Totals:         0       0       0       0       0       0       0       0       0       0       0       0       
      +0       0       0       0       0
  7055 ;;Total ram usage:        0 bytes
  7056 ;; Hardware stack levels used: 1
  7057 ;; Hardware stack levels required when called: 1
  7058 ;; This function calls:
  7059 ;;		_I2C1_BufferClear
  7060 ;;		_I2C1_ErrorFlagsClear
  7061 ;;		_I2C1_InterruptsClear
  7062 ;;		_I2C1_InterruptsDisable
  7063 ;;		i2_I2C1_InterruptsEnable
  7064 ;; This function is called by:
  7065 ;;		_I2C1_ERROR_ISR
  7066 ;; This function uses a non-reentrant model
  7067 ;;
  7068                           
  7069                           	psect	text77
  7070   000B4C                     __ptext77:
  7071                           	callstack 0
  7072   000B4C                     _I2C1_BusReset:
  7073                           	callstack 20
  7074   000B4C                     
  7075                           ;mcc_generated_files/i2c_host/src/i2c1.c: 379:     I2C1_InterruptsClear();
  7076   000B4C  EC9A  F008         	call	_I2C1_InterruptsClear	;wreg free
  7077   000B50                     
  7078                           ;mcc_generated_files/i2c_host/src/i2c1.c: 380:     I2C1_ErrorFlagsClear();
  7079   000B50  EC8C  F008         	call	_I2C1_ErrorFlagsClear	;wreg free
  7080   000B54                     
  7081                           ;mcc_generated_files/i2c_host/src/i2c1.c: 381:     I2C1_InterruptsDisable();
  7082   000B54  EC31  F008         	call	_I2C1_InterruptsDisable	;wreg free
  7083   000B58                     
  7084                           ;mcc_generated_files/i2c_host/src/i2c1.c: 382:     I2C1_BufferClear();
  7085   000B58  EC91  F008         	call	_I2C1_BufferClear	;wreg free
  7086   000B5C                     
  7087                           ;mcc_generated_files/i2c_host/src/i2c1.c: 383:     I2C1CON0bits.EN = 0;
  7088   000B5C  013D               	movlb	61	; () banked
  7089   000B5E  9F73               	bcf	115,7,b	;volatile
  7090   000B60                     
  7091                           ; BSR set to: 61
  7092                           ;mcc_generated_files/i2c_host/src/i2c1.c: 384:     I2C1_InterruptsEnable();
  7093   000B60  EC26  F008         	call	i2_I2C1_InterruptsEnable	;wreg free
  7094   000B64                     
  7095                           ;mcc_generated_files/i2c_host/src/i2c1.c: 388:     I2C1PIEbits.SCIE = 0;
  7096   000B64  013D               	movlb	61	; () banked
  7097   000B66  917A               	bcf	122,0,b	;volatile
  7098   000B68                     
  7099                           ; BSR set to: 61
  7100                           ;mcc_generated_files/i2c_host/src/i2c1.c: 389:     I2C1PIEbits.PCIE = 0;
  7101   000B68  957A               	bcf	122,2,b	;volatile
  7102   000B6A                     
  7103                           ; BSR set to: 61
  7104                           ;mcc_generated_files/i2c_host/src/i2c1.c: 390:     I2C1CON0bits.EN = 1;
  7105   000B6A  8F73               	bsf	115,7,b	;volatile
  7106   000B6C                     
  7107                           ; BSR set to: 61
  7108                           ;mcc_generated_files/i2c_host/src/i2c1.c: 391:     _delay((unsigned long)((1)*(64000000/
      +                          4000000.0)));
  7109   000B6C  0E05               	movlw	5
  7110   000B6E                     i2u256_47:
  7111   000B6E  2EE8               	decfsz	wreg,f,c
  7112   000B70  D7FE               	bra	i2u256_47
  7113   000B72  F000               	nop	
  7114   000B74                     
  7115                           ;mcc_generated_files/i2c_host/src/i2c1.c: 392:     __nop();
  7116   000B74  F000               	nop	
  7117   000B76                     
  7118                           ;mcc_generated_files/i2c_host/src/i2c1.c: 393:     __nop();
  7119   000B76  F000               	nop	
  7120   000B78                     
  7121                           ;mcc_generated_files/i2c_host/src/i2c1.c: 394:     __nop();
  7122   000B78  F000               	nop	
  7123   000B7A                     
  7124                           ;mcc_generated_files/i2c_host/src/i2c1.c: 395:     __nop();
  7125   000B7A  F000               	nop	
  7126   000B7C                     
  7127                           ;mcc_generated_files/i2c_host/src/i2c1.c: 396:     __nop();
  7128   000B7C  F000               	nop	
  7129   000B7E                     
  7130                           ;mcc_generated_files/i2c_host/src/i2c1.c: 397:     __nop();
  7131   000B7E  F000               	nop	
  7132   000B80                     
  7133                           ;mcc_generated_files/i2c_host/src/i2c1.c: 398:     I2C1PIRbits.SCIF = 0;
  7134   000B80  013D               	movlb	61	; () banked
  7135   000B82  9179               	bcf	121,0,b	;volatile
  7136   000B84                     
  7137                           ; BSR set to: 61
  7138                           ;mcc_generated_files/i2c_host/src/i2c1.c: 399:     I2C1PIRbits.PCIF = 0;
  7139   000B84  9579               	bcf	121,2,b	;volatile
  7140   000B86                     
  7141                           ; BSR set to: 61
  7142                           ;mcc_generated_files/i2c_host/src/i2c1.c: 400:     I2C1PIEbits.PCIE = 1;
  7143   000B86  857A               	bsf	122,2,b	;volatile
  7144   000B88                     
  7145                           ; BSR set to: 61
  7146   000B88  0012               	return		;funcret
  7147   000B8A                     __end_of_I2C1_BusReset:
  7148                           	callstack 0
  7149                           
  7150 ;; *************** function i2_I2C1_InterruptsEnable *****************
  7151 ;; Defined at:
  7152 ;;		line 448 in file "mcc_generated_files/i2c_host/src/i2c1.c"
  7153 ;; Parameters:    Size  Location     Type
  7154 ;;		None
  7155 ;; Auto vars:     Size  Location     Type
  7156 ;;		None
  7157 ;; Return value:  Size  Location     Type
  7158 ;;                  1    wreg      void 
  7159 ;; Registers used:
  7160 ;;		None
  7161 ;; Tracked objects:
  7162 ;;		On entry : 0/0
  7163 ;;		On exit  : 0/0
  7164 ;;		Unchanged: 0/0
  7165 ;; Data sizes:     COMRAM   BANK0   BANK1   BANK2   BANK3   BANK4   BANK5   BANK6   BANK7   BANK8   BANK9  BANK10  BANK1
      +1  BANK12  BANK13  BANK14  BANK15
  7166 ;;      Params:         0       0       0       0       0       0       0       0       0       0       0       0       
      +0       0       0       0       0
  7167 ;;      Locals:         0       0       0       0       0       0       0       0       0       0       0       0       
      +0       0       0       0       0
  7168 ;;      Temps:          0       0       0       0       0       0       0       0       0       0       0       0       
      +0       0       0       0       0
  7169 ;;      Totals:         0       0       0       0       0       0       0       0       0       0       0       0       
      +0       0       0       0       0
  7170 ;;Total ram usage:        0 bytes
  7171 ;; Hardware stack levels used: 1
  7172 ;; This function calls:
  7173 ;;		Nothing
  7174 ;; This function is called by:
  7175 ;;		_I2C1_BusReset
  7176 ;; This function uses a non-reentrant model
  7177 ;;
  7178                           
  7179                           	psect	text78
  7180   00104C                     __ptext78:
  7181                           	callstack 0
  7182   00104C                     i2_I2C1_InterruptsEnable:
  7183                           	callstack 20
  7184   00104C                     
  7185                           ;mcc_generated_files/i2c_host/src/i2c1.c: 450:     PIE3bits.I2C1IE = 1;
  7186   00104C  0139               	movlb	57	; () banked
  7187   00104E  8393               	bsf	147,1,b	;volatile
  7188                           
  7189                           ;mcc_generated_files/i2c_host/src/i2c1.c: 451:     PIE3bits.I2C1EIE = 1;
  7190   001050  8593               	bsf	147,2,b	;volatile
  7191                           
  7192                           ;mcc_generated_files/i2c_host/src/i2c1.c: 452:     PIE2bits.I2C1RXIE = 1;
  7193   001052  8F92               	bsf	146,7,b	;volatile
  7194                           
  7195                           ;mcc_generated_files/i2c_host/src/i2c1.c: 453:     PIE3bits.I2C1TXIE = 1;
  7196   001054  8193               	bsf	147,0,b	;volatile
  7197                           
  7198                           ;mcc_generated_files/i2c_host/src/i2c1.c: 455:     I2C1PIEbits.PCIE = 1;
  7199   001056  013D               	movlb	61	; () banked
  7200   001058  857A               	bsf	122,2,b	;volatile
  7201                           
  7202                           ;mcc_generated_files/i2c_host/src/i2c1.c: 456:     I2C1PIEbits.RSCIE = 1;
  7203   00105A  837A               	bsf	122,1,b	;volatile
  7204                           
  7205                           ;mcc_generated_files/i2c_host/src/i2c1.c: 457:     I2C1PIEbits.CNTIE = 1;
  7206   00105C  8F7A               	bsf	122,7,b	;volatile
  7207                           
  7208                           ;mcc_generated_files/i2c_host/src/i2c1.c: 458:     I2C1ERRbits.NACKIE = 1;
  7209   00105E  8176               	bsf	118,0,b	;volatile
  7210   001060                     
  7211                           ; BSR set to: 61
  7212   001060  0012               	return		;funcret
  7213   001062                     __end_ofi2_I2C1_InterruptsEnable:
  7214                           	callstack 0
  7215                           
  7216 ;; *************** function _I2C1_InterruptsDisable *****************
  7217 ;; Defined at:
  7218 ;;		line 461 in file "mcc_generated_files/i2c_host/src/i2c1.c"
  7219 ;; Parameters:    Size  Location     Type
  7220 ;;		None
  7221 ;; Auto vars:     Size  Location     Type
  7222 ;;		None
  7223 ;; Return value:  Size  Location     Type
  7224 ;;                  1    wreg      void 
  7225 ;; Registers used:
  7226 ;;		wreg, status,2
  7227 ;; Tracked objects:
  7228 ;;		On entry : 0/0
  7229 ;;		On exit  : 0/0
  7230 ;;		Unchanged: 0/0
  7231 ;; Data sizes:     COMRAM   BANK0   BANK1   BANK2   BANK3   BANK4   BANK5   BANK6   BANK7   BANK8   BANK9  BANK10  BANK1
      +1  BANK12  BANK13  BANK14  BANK15
  7232 ;;      Params:         0       0       0       0       0       0       0       0       0       0       0       0       
      +0       0       0       0       0
  7233 ;;      Locals:         0       0       0       0       0       0       0       0       0       0       0       0       
      +0       0       0       0       0
  7234 ;;      Temps:          0       0       0       0       0       0       0       0       0       0       0       0       
      +0       0       0       0       0
  7235 ;;      Totals:         0       0       0       0       0       0       0       0       0       0       0       0       
      +0       0       0       0       0
  7236 ;;Total ram usage:        0 bytes
  7237 ;; Hardware stack levels used: 1
  7238 ;; This function calls:
  7239 ;;		Nothing
  7240 ;; This function is called by:
  7241 ;;		_I2C1_BusReset
  7242 ;;		_I2C1_Deinitialize
  7243 ;; This function uses a non-reentrant model
  7244 ;;
  7245                           
  7246                           	psect	text79
  7247   001062                     __ptext79:
  7248                           	callstack 0
  7249   001062                     _I2C1_InterruptsDisable:
  7250                           	callstack 20
  7251   001062                     
  7252                           ;mcc_generated_files/i2c_host/src/i2c1.c: 463:     PIE3bits.I2C1IE = 0;
  7253   001062  0139               	movlb	57	; () banked
  7254   001064  9393               	bcf	147,1,b	;volatile
  7255                           
  7256                           ;mcc_generated_files/i2c_host/src/i2c1.c: 464:     PIE3bits.I2C1EIE = 0;
  7257   001066  9593               	bcf	147,2,b	;volatile
  7258                           
  7259                           ;mcc_generated_files/i2c_host/src/i2c1.c: 465:     PIE2bits.I2C1RXIE = 0;
  7260   001068  9F92               	bcf	146,7,b	;volatile
  7261                           
  7262                           ;mcc_generated_files/i2c_host/src/i2c1.c: 466:     PIE3bits.I2C1TXIE = 0;
  7263   00106A  9193               	bcf	147,0,b	;volatile
  7264   00106C                     
  7265                           ; BSR set to: 57
  7266                           ;mcc_generated_files/i2c_host/src/i2c1.c: 467:     I2C1PIE = 0x00;
  7267   00106C  0E00               	movlw	0
  7268   00106E  013D               	movlb	61	; () banked
  7269   001070  6F7A               	movwf	122,b	;volatile
  7270                           
  7271                           ;mcc_generated_files/i2c_host/src/i2c1.c: 468:     I2C1ERR = 0x00;
  7272   001072  0E00               	movlw	0
  7273   001074  6F76               	movwf	118,b	;volatile
  7274   001076                     
  7275                           ; BSR set to: 61
  7276   001076  0012               	return		;funcret
  7277   001078                     __end_of_I2C1_InterruptsDisable:
  7278                           	callstack 0
  7279                           
  7280 ;; *************** function _I2C1_RX_ISR *****************
  7281 ;; Defined at:
  7282 ;;		line 289 in file "mcc_generated_files/i2c_host/src/i2c1.c"
  7283 ;; Parameters:    Size  Location     Type
  7284 ;;		None
  7285 ;; Auto vars:     Size  Location     Type
  7286 ;;		None
  7287 ;; Return value:  Size  Location     Type
  7288 ;;                  1    wreg      void 
  7289 ;; Registers used:
  7290 ;;		wreg, fsr2l, fsr2h, status,2, status,0, cstack
  7291 ;; Tracked objects:
  7292 ;;		On entry : 0/0
  7293 ;;		On exit  : 0/0
  7294 ;;		Unchanged: 0/0
  7295 ;; Data sizes:     COMRAM   BANK0   BANK1   BANK2   BANK3   BANK4   BANK5   BANK6   BANK7   BANK8   BANK9  BANK10  BANK1
      +1  BANK12  BANK13  BANK14  BANK15
  7296 ;;      Params:         0       0       0       0       0       0       0       0       0       0       0       0       
      +0       0       0       0       0
  7297 ;;      Locals:         0       0       0       0       0       0       0       0       0       0       0       0       
      +0       0       0       0       0
  7298 ;;      Temps:          0       0       0       0       0       0       0       0       0       0       0       0       
      +0       0       0       0       0
  7299 ;;      Totals:         0       0       0       0       0       0       0       0       0       0       0       0       
      +0       0       0       0       0
  7300 ;;Total ram usage:        0 bytes
  7301 ;; Hardware stack levels used: 1
  7302 ;; Hardware stack levels required when called: 1
  7303 ;; This function calls:
  7304 ;;		_I2C1_DataReceive
  7305 ;; This function is called by:
  7306 ;;		Interrupt level 2
  7307 ;; This function uses a non-reentrant model
  7308 ;;
  7309                           
  7310                           	psect	text80
  7311   000F98                     __ptext80:
  7312                           	callstack 0
  7313   000F98                     _I2C1_RX_ISR:
  7314                           	callstack 21
  7315   000F98                     
  7316                           ;mcc_generated_files/i2c_host/src/i2c1.c: 291:     *i2c1Status.readPtr++ = I2C1_DataRece
      +                          ive();
  7317   000F98  ECAE  F008         	call	_I2C1_DataReceive	;wreg free
  7318   000F9C  0060  F0F3  FFD9   	movff	_i2c1Status+7,fsr2l	;volatile
  7319   000FA2  0060  F0F7  FFDA   	movff	_i2c1Status+8,fsr2h	;volatile
  7320   000FA8  6EDF               	movwf	indf2,c
  7321   000FAA  4A3C               	infsnz	(_i2c1Status+7)^0,f,c	;volatile
  7322   000FAC  2A3D               	incf	(_i2c1Status+8)^0,f,c	;volatile
  7323   000FAE  0011               	retfie		f
  7324   000FB0                     __end_of_I2C1_RX_ISR:
  7325                           	callstack 0
  7326                           
  7327 ;; *************** function _I2C1_DataReceive *****************
  7328 ;; Defined at:
  7329 ;;		line 362 in file "mcc_generated_files/i2c_host/src/i2c1.c"
  7330 ;; Parameters:    Size  Location     Type
  7331 ;;		None
  7332 ;; Auto vars:     Size  Location     Type
  7333 ;;		None
  7334 ;; Return value:  Size  Location     Type
  7335 ;;                  1    wreg      unsigned char 
  7336 ;; Registers used:
  7337 ;;		wreg, status,2
  7338 ;; Tracked objects:
  7339 ;;		On entry : 0/0
  7340 ;;		On exit  : 0/0
  7341 ;;		Unchanged: 0/0
  7342 ;; Data sizes:     COMRAM   BANK0   BANK1   BANK2   BANK3   BANK4   BANK5   BANK6   BANK7   BANK8   BANK9  BANK10  BANK1
      +1  BANK12  BANK13  BANK14  BANK15
  7343 ;;      Params:         0       0       0       0       0       0       0       0       0       0       0       0       
      +0       0       0       0       0
  7344 ;;      Locals:         0       0       0       0       0       0       0       0       0       0       0       0       
      +0       0       0       0       0
  7345 ;;      Temps:          0       0       0       0       0       0       0       0       0       0       0       0       
      +0       0       0       0       0
  7346 ;;      Totals:         0       0       0       0       0       0       0       0       0       0       0       0       
      +0       0       0       0       0
  7347 ;;Total ram usage:        0 bytes
  7348 ;; Hardware stack levels used: 1
  7349 ;; This function calls:
  7350 ;;		Nothing
  7351 ;; This function is called by:
  7352 ;;		_I2C1_RX_ISR
  7353 ;; This function uses a non-reentrant model
  7354 ;;
  7355                           
  7356                           	psect	text81
  7357   00115C                     __ptext81:
  7358                           	callstack 0
  7359   00115C                     _I2C1_DataReceive:
  7360                           	callstack 21
  7361   00115C                     
  7362                           ;mcc_generated_files/i2c_host/src/i2c1.c: 364:     return I2C1RXB;
  7363   00115C  013D               	movlb	61	; () banked
  7364   00115E  516A               	movf	106,w,b	;volatile
  7365   001160                     
  7366                           ; BSR set to: 61
  7367   001160  0012               	return		;funcret
  7368   001162                     __end_of_I2C1_DataReceive:
  7369                           	callstack 0
  7370                           
  7371 ;; *************** function _I2C1_TX_ISR *****************
  7372 ;; Defined at:
  7373 ;;		line 294 in file "mcc_generated_files/i2c_host/src/i2c1.c"
  7374 ;; Parameters:    Size  Location     Type
  7375 ;;		None
  7376 ;; Auto vars:     Size  Location     Type
  7377 ;;		None
  7378 ;; Return value:  Size  Location     Type
  7379 ;;                  1    wreg      void 
  7380 ;; Registers used:
  7381 ;;		wreg, fsr2l, fsr2h, status,2, status,0, cstack
  7382 ;; Tracked objects:
  7383 ;;		On entry : 0/0
  7384 ;;		On exit  : 0/0
  7385 ;;		Unchanged: 0/0
  7386 ;; Data sizes:     COMRAM   BANK0   BANK1   BANK2   BANK3   BANK4   BANK5   BANK6   BANK7   BANK8   BANK9  BANK10  BANK1
      +1  BANK12  BANK13  BANK14  BANK15
  7387 ;;      Params:         0       0       0       0       0       0       0       0       0       0       0       0       
      +0       0       0       0       0
  7388 ;;      Locals:         0       0       0       0       0       0       0       0       0       0       0       0       
      +0       0       0       0       0
  7389 ;;      Temps:          0       0       0       0       0       0       0       0       0       0       0       0       
      +0       0       0       0       0
  7390 ;;      Totals:         0       0       0       0       0       0       0       0       0       0       0       0       
      +0       0       0       0       0
  7391 ;;Total ram usage:        0 bytes
  7392 ;; Hardware stack levels used: 1
  7393 ;; Hardware stack levels required when called: 1
  7394 ;; This function calls:
  7395 ;;		_I2C1_DataTransmit
  7396 ;; This function is called by:
  7397 ;;		Interrupt level 2
  7398 ;; This function uses a non-reentrant model
  7399 ;;
  7400                           
  7401                           	psect	text82
  7402   000FB0                     __ptext82:
  7403                           	callstack 0
  7404   000FB0                     _I2C1_TX_ISR:
  7405                           	callstack 21
  7406   000FB0                     
  7407                           ;mcc_generated_files/i2c_host/src/i2c1.c: 296:     I2C1_DataTransmit(*i2c1Status.writePt
      +                          r++);
  7408   000FB0  0060  F0E3  FFD9   	movff	_i2c1Status+3,fsr2l	;volatile
  7409   000FB6  0060  F0E7  FFDA   	movff	_i2c1Status+4,fsr2h	;volatile
  7410   000FBC  4A38               	infsnz	(_i2c1Status+3)^0,f,c	;volatile
  7411   000FBE  2A39               	incf	(_i2c1Status+4)^0,f,c	;volatile
  7412   000FC0  50DF               	movf	indf2,w,c
  7413   000FC2  EC7D  F008         	call	_I2C1_DataTransmit
  7414   000FC6  0011               	retfie		f
  7415   000FC8                     __end_of_I2C1_TX_ISR:
  7416                           	callstack 0
  7417                           
  7418                           ;
  7419                           ; Interrupt Vector Table @ 0x8
  7420                           ;
  7421                           
  7422                           	psect	ivt0x8
  7423   000008                     __pivt0x8:
  7424                           	callstack 0
  7425   000008                     ivt0x8_base:
  7426                           	callstack 0
  7427                           
  7428                           ; Vector 0 : SWINT
  7429   000008  045E               	dw	_Default_ISR shr (0+2)
  7430                           
  7431                           ; Vector 1 : HLVD
  7432   00000A  045E               	dw	_Default_ISR shr (0+2)
  7433                           
  7434                           ; Vector 2 : OSF
  7435   00000C  045E               	dw	_Default_ISR shr (0+2)
  7436                           
  7437                           ; Vector 3 : CSW
  7438   00000E  045E               	dw	_Default_ISR shr (0+2)
  7439                           
  7440                           ; Vector 4 : NVM
  7441   000010  045E               	dw	_Default_ISR shr (0+2)
  7442                           
  7443                           ; Vector 5 : SCAN
  7444   000012  045E               	dw	_Default_ISR shr (0+2)
  7445                           
  7446                           ; Vector 6 : CRC
  7447   000014  045E               	dw	_Default_ISR shr (0+2)
  7448                           
  7449                           ; Vector 7 : IOC
  7450   000016  044F               	dw	_IOC_ISR shr (0+2)
  7451                           
  7452                           ; Vector 8 : INT0
  7453   000018  033D               	dw	_INT0_ISR shr (0+2)
  7454                           
  7455                           ; Vector 9 : ZCD
  7456   00001A  045E               	dw	_Default_ISR shr (0+2)
  7457                           
  7458                           ; Vector 10 : AD
  7459   00001C  0228               	dw	_ADCC_ISR shr (0+2)
  7460                           
  7461                           ; Vector 11 : ADT
  7462   00001E  045E               	dw	_Default_ISR shr (0+2)
  7463                           
  7464                           ; Vector 12 : CMP1
  7465   000020  045E               	dw	_Default_ISR shr (0+2)
  7466                           
  7467                           ; Vector 13 : SMT1
  7468   000022  045E               	dw	_Default_ISR shr (0+2)
  7469                           
  7470                           ; Vector 14 : SMT1PRA
  7471   000024  045E               	dw	_Default_ISR shr (0+2)
  7472                           
  7473                           ; Vector 15 : SMT1PRW
  7474   000026  045E               	dw	_Default_ISR shr (0+2)
  7475                           
  7476                           ; Vector 16 : DMA1SCNT
  7477   000028  045E               	dw	_Default_ISR shr (0+2)
  7478                           
  7479                           ; Vector 17 : DMA1DCNT
  7480   00002A  045E               	dw	_Default_ISR shr (0+2)
  7481                           
  7482                           ; Vector 18 : DMA1OR
  7483   00002C  045E               	dw	_Default_ISR shr (0+2)
  7484                           
  7485                           ; Vector 19 : DMA1A
  7486   00002E  045E               	dw	_Default_ISR shr (0+2)
  7487                           
  7488                           ; Vector 20 : SPI1RX
  7489   000030  045E               	dw	_Default_ISR shr (0+2)
  7490                           
  7491                           ; Vector 21 : SPI1TX
  7492   000032  045E               	dw	_Default_ISR shr (0+2)
  7493                           
  7494                           ; Vector 22 : SPI1
  7495   000034  045E               	dw	_Default_ISR shr (0+2)
  7496                           
  7497                           ; Vector 23 : I2C1RX
  7498   000036  03E6               	dw	_I2C1_RX_ISR shr (0+2)
  7499                           
  7500                           ; Vector 24 : I2C1TX
  7501   000038  03EC               	dw	_I2C1_TX_ISR shr (0+2)
  7502                           
  7503                           ; Vector 25 : I2C1
  7504   00003A  01E1               	dw	_I2C1_ISR shr (0+2)
  7505                           
  7506                           ; Vector 26 : I2C1E
  7507   00003C  0113               	dw	_I2C1_ERROR_ISR shr (0+2)
  7508                           
  7509                           ; Vector 27 : U1RX
  7510   00003E  02C3               	dw	_UART1_Receive_Vector_ISR shr (0+2)
  7511                           
  7512                           ; Vector 28 : U1TX
  7513   000040  0451               	dw	_UART1_Transmit_Vector_ISR shr (0+2)
  7514                           
  7515                           ; Vector 29 : U1E
  7516   000042  045E               	dw	_Default_ISR shr (0+2)
  7517                           
  7518                           ; Vector 30 : U1
  7519   000044  045E               	dw	_Default_ISR shr (0+2)
  7520                           
  7521                           ; Vector 31 : TMR0
  7522   000046  029A               	dw	_Timer_OverflowISR shr (0+2)
  7523                           
  7524                           ; Vector 32 : TMR1
  7525   000048  045E               	dw	_Default_ISR shr (0+2)
  7526                           
  7527                           ; Vector 33 : TMR1G
  7528   00004A  045E               	dw	_Default_ISR shr (0+2)
  7529                           
  7530                           ; Vector 34 : TMR2
  7531   00004C  0422               	dw	_Timer2_ISR shr (0+2)
  7532                           
  7533                           ; Vector 35 : CCP1
  7534   00004E  045E               	dw	_Default_ISR shr (0+2)
  7535                           
  7536                           ; Vector 36 : Undefined
  7537   000050  002B               	dw	ivt0x8_undefint shr (0+2)
  7538                           
  7539                           ; Vector 37 : NCO1
  7540   000052  045E               	dw	_Default_ISR shr (0+2)
  7541                           
  7542                           ; Vector 38 : CWG1
  7543   000054  045E               	dw	_Default_ISR shr (0+2)
  7544                           
  7545                           ; Vector 39 : CLC1
  7546   000056  045E               	dw	_Default_ISR shr (0+2)
  7547                           
  7548                           ; Vector 40 : INT1
  7549   000058  0354               	dw	_INT1_ISR shr (0+2)
  7550                           
  7551                           ; Vector 41 : CMP2
  7552   00005A  045E               	dw	_Default_ISR shr (0+2)
  7553                           
  7554                           ; Vector 42 : DMA2SCNT
  7555   00005C  045E               	dw	_Default_ISR shr (0+2)
  7556                           
  7557                           ; Vector 43 : DMA2DCNT
  7558   00005E  045E               	dw	_Default_ISR shr (0+2)
  7559                           
  7560                           ; Vector 44 : DMA2OR
  7561   000060  045E               	dw	_Default_ISR shr (0+2)
  7562                           
  7563                           ; Vector 45 : DMA2A
  7564   000062  045E               	dw	_Default_ISR shr (0+2)
  7565                           
  7566                           ; Vector 46 : I2C2RX
  7567   000064  045E               	dw	_Default_ISR shr (0+2)
  7568                           
  7569                           ; Vector 47 : I2C2TX
  7570   000066  045E               	dw	_Default_ISR shr (0+2)
  7571                           
  7572                           ; Vector 48 : I2C2
  7573   000068  045E               	dw	_Default_ISR shr (0+2)
  7574                           
  7575                           ; Vector 49 : I2C2E
  7576   00006A  045E               	dw	_Default_ISR shr (0+2)
  7577                           
  7578                           ; Vector 50 : U2RX
  7579   00006C  045E               	dw	_Default_ISR shr (0+2)
  7580                           
  7581                           ; Vector 51 : U2TX
  7582   00006E  045E               	dw	_Default_ISR shr (0+2)
  7583                           
  7584                           ; Vector 52 : U2E
  7585   000070  045E               	dw	_Default_ISR shr (0+2)
  7586                           
  7587                           ; Vector 53 : U2
  7588   000072  045E               	dw	_Default_ISR shr (0+2)
  7589                           
  7590                           ; Vector 54 : TMR3
  7591   000074  045E               	dw	_Default_ISR shr (0+2)
  7592                           
  7593                           ; Vector 55 : TMR3G
  7594   000076  045E               	dw	_Default_ISR shr (0+2)
  7595                           
  7596                           ; Vector 56 : TMR4
  7597   000078  045E               	dw	_Default_ISR shr (0+2)
  7598                           
  7599                           ; Vector 57 : CCP2
  7600   00007A  045E               	dw	_Default_ISR shr (0+2)
  7601                           
  7602                           ; Vector 58 : Undefined
  7603   00007C  002B               	dw	ivt0x8_undefint shr (0+2)
  7604                           
  7605                           ; Vector 59 : CWG2
  7606   00007E  045E               	dw	_Default_ISR shr (0+2)
  7607                           
  7608                           ; Vector 60 : CLC2
  7609   000080  045E               	dw	_Default_ISR shr (0+2)
  7610                           
  7611                           ; Vector 61 : INT2
  7612   000082  036B               	dw	_INT2_ISR shr (0+2)
  7613                           
  7614                           ; Vector 62 : Undefined
  7615   000084  002B               	dw	ivt0x8_undefint shr (0+2)
  7616                           
  7617                           ; Vector 63 : Undefined
  7618   000086  002B               	dw	ivt0x8_undefint shr (0+2)
  7619                           
  7620                           ; Vector 64 : Undefined
  7621   000088  002B               	dw	ivt0x8_undefint shr (0+2)
  7622                           
  7623                           ; Vector 65 : Undefined
  7624   00008A  002B               	dw	ivt0x8_undefint shr (0+2)
  7625                           
  7626                           ; Vector 66 : Undefined
  7627   00008C  002B               	dw	ivt0x8_undefint shr (0+2)
  7628                           
  7629                           ; Vector 67 : Undefined
  7630   00008E  002B               	dw	ivt0x8_undefint shr (0+2)
  7631                           
  7632                           ; Vector 68 : Undefined
  7633   000090  002B               	dw	ivt0x8_undefint shr (0+2)
  7634                           
  7635                           ; Vector 69 : Undefined
  7636   000092  002B               	dw	ivt0x8_undefint shr (0+2)
  7637                           
  7638                           ; Vector 70 : TMR5
  7639   000094  045E               	dw	_Default_ISR shr (0+2)
  7640                           
  7641                           ; Vector 71 : TMR5G
  7642   000096  045E               	dw	_Default_ISR shr (0+2)
  7643                           
  7644                           ; Vector 72 : TMR6
  7645   000098  045E               	dw	_Default_ISR shr (0+2)
  7646                           
  7647                           ; Vector 73 : CCP3
  7648   00009A  045E               	dw	_Default_ISR shr (0+2)
  7649                           
  7650                           ; Vector 74 : CWG3
  7651   00009C  045E               	dw	_Default_ISR shr (0+2)
  7652                           
  7653                           ; Vector 75 : CLC3
  7654   00009E  045E               	dw	_Default_ISR shr (0+2)
  7655                           
  7656                           ; Vector 76 : Undefined
  7657   0000A0  002B               	dw	ivt0x8_undefint shr (0+2)
  7658                           
  7659                           ; Vector 77 : Undefined
  7660   0000A2  002B               	dw	ivt0x8_undefint shr (0+2)
  7661                           
  7662                           ; Vector 78 : Undefined
  7663   0000A4  002B               	dw	ivt0x8_undefint shr (0+2)
  7664                           
  7665                           ; Vector 79 : Undefined
  7666   0000A6  002B               	dw	ivt0x8_undefint shr (0+2)
  7667                           
  7668                           ; Vector 80 : CCP4
  7669   0000A8  045E               	dw	_Default_ISR shr (0+2)
  7670                           
  7671                           ; Vector 81 : CLC4
  7672   0000AA  045E               	dw	_Default_ISR shr (0+2)
  7673   0000AC                     ivt0x8_undefint:
  7674                           	callstack 0
  7675   0000AC  00FF               	reset	
  7676                           
  7677                           	psect	text83
  7678   000000                     __ptext83:
  7679                           	callstack 0
  7680   000000                     
  7681                           	psect	rparam
  7682   000000                     
  7683                           	psect	idloc
  7684                           
  7685                           ;Config register IDLOC0 @ 0x200000
  7686                           ;	unspecified, using default values
  7687   200000                     	org	2097152
  7688   200000  0FFF               	dw	4095
  7689                           
  7690                           ;Config register IDLOC1 @ 0x200002
  7691                           ;	unspecified, using default values
  7692   200002                     	org	2097154
  7693   200002  0FFF               	dw	4095
  7694                           
  7695                           ;Config register IDLOC2 @ 0x200004
  7696                           ;	unspecified, using default values
  7697   200004                     	org	2097156
  7698   200004  0FFF               	dw	4095
  7699                           
  7700                           ;Config register IDLOC3 @ 0x200006
  7701                           ;	unspecified, using default values
  7702   200006                     	org	2097158
  7703   200006  0FFF               	dw	4095
  7704                           
  7705                           ;Config register IDLOC4 @ 0x200008
  7706                           ;	unspecified, using default values
  7707   200008                     	org	2097160
  7708   200008  0FFF               	dw	4095
  7709                           
  7710                           ;Config register IDLOC5 @ 0x20000A
  7711                           ;	unspecified, using default values
  7712   20000A                     	org	2097162
  7713   20000A  0FFF               	dw	4095
  7714                           
  7715                           ;Config register IDLOC6 @ 0x20000C
  7716                           ;	unspecified, using default values
  7717   20000C                     	org	2097164
  7718   20000C  0FFF               	dw	4095
  7719                           
  7720                           ;Config register IDLOC7 @ 0x20000E
  7721                           ;	unspecified, using default values
  7722   20000E                     	org	2097166
  7723   20000E  0FFF               	dw	4095
  7724                           
  7725                           	psect	config
  7726                           
  7727                           ;Config register CONFIG1L @ 0x300000
  7728                           ;	External Oscillator Selection
  7729                           ;	FEXTOSC = HS, HS (crystal oscillator) above 8 MHz; PFM set to high power
  7730                           ;	Reset Oscillator Selection
  7731                           ;	RSTOSC = HFINTOSC_64MHZ, HFINTOSC with HFFRQ = 64 MHz and CDIV = 1:1
  7732   300000                     	org	3145728
  7733   300000  8A                 	db	138
  7734                           
  7735                           ;Config register CONFIG1H @ 0x300001
  7736                           ;	Clock out Enable bit
  7737                           ;	CLKOUTEN = OFF, CLKOUT function is disabled
  7738                           ;	PRLOCKED One-Way Set Enable bit
  7739                           ;	PR1WAY = ON, PRLOCK bit can be cleared and set only once
  7740                           ;	Clock Switch Enable bit
  7741                           ;	CSWEN = ON, Writing to NOSC and NDIV is allowed
  7742                           ;	Fail-Safe Clock Monitor Enable bit
  7743                           ;	FCMEN = ON, Fail-Safe Clock Monitor enabled
  7744   300001                     	org	3145729
  7745   300001  FF                 	db	255
  7746                           
  7747                           ;Config register CONFIG2L @ 0x300002
  7748                           ;	MCLR Enable bit
  7749                           ;	MCLRE = EXTMCLR, If LVP = 0, MCLR pin is MCLR; If LVP = 1, RE3 pin function is MCLR
  7750                           ;	Power-up timer selection bits
  7751                           ;	PWRTS = PWRT_64, PWRT set at 64ms
  7752                           ;	Multi-vector enable bit
  7753                           ;	MVECEN = ON, Multi-vector enabled, Vector table used for interrupts
  7754                           ;	IVTLOCK bit One-way set enable bit
  7755                           ;	IVT1WAY = ON, IVTLOCK bit can be cleared and set only once
  7756                           ;	Low Power BOR Enable bit
  7757                           ;	LPBOREN = OFF, ULPBOR disabled
  7758                           ;	Brown-out Reset Enable bits
  7759                           ;	BOREN = SBORDIS, Brown-out Reset enabled , SBOREN bit is ignored
  7760   300002                     	org	3145730
  7761   300002  FD                 	db	253
  7762                           
  7763                           ;Config register CONFIG2H @ 0x300003
  7764                           ;	Brown-out Reset Voltage Selection bits
  7765                           ;	BORV = VBOR_2P45, Brown-out Reset Voltage (VBOR) set to 2.45V
  7766                           ;	ZCD Disable bit
  7767                           ;	ZCD = OFF, ZCD disabled. ZCD can be enabled by setting the ZCDSEN bit of ZCDCON
  7768                           ;	PPSLOCK bit One-Way Set Enable bit
  7769                           ;	PPS1WAY = ON, PPSLOCK bit can be cleared and set only once; PPS registers remain locke
      +                          d after one clear/set cycle
  7770                           ;	Stack Full/Underflow Reset Enable bit
  7771                           ;	STVREN = ON, Stack full/underflow will cause Reset
  7772                           ;	Debugger Enable bit
  7773                           ;	DEBUG = OFF, Background debugger disabled
  7774                           ;	Extended Instruction Set Enable bit
  7775                           ;	XINST = OFF, Extended Instruction Set and Indexed Addressing Mode disabled
  7776   300003                     	org	3145731
  7777   300003  FF                 	db	255
  7778                           
  7779                           ;Config register CONFIG3L @ 0x300004
  7780                           ;	WDT Period selection bits
  7781                           ;	WDTCPS = WDTCPS_31, Divider ratio 1:65536; software control of WDTPS
  7782                           ;	WDT operating mode
  7783                           ;	WDTE = OFF, WDT Disabled; SWDTEN is ignored
  7784   300004                     	org	3145732
  7785   300004  9F                 	db	159
  7786                           
  7787                           ;Config register CONFIG3H @ 0x300005
  7788                           ;	WDT Window Select bits
  7789                           ;	WDTCWS = WDTCWS_7, window always open (100%); software control; keyed access not requi
      +                          red
  7790                           ;	WDT input clock selector
  7791                           ;	WDTCCS = SC, Software Control
  7792   300005                     	org	3145733
  7793   300005  FF                 	db	255
  7794                           
  7795                           ;Config register CONFIG4L @ 0x300006
  7796                           ;	Boot Block Size selection bits
  7797                           ;	BBSIZE = BBSIZE_512, Boot Block size is 512 words
  7798                           ;	Boot Block enable bit
  7799                           ;	BBEN = OFF, Boot block disabled
  7800                           ;	Storage Area Flash enable bit
  7801                           ;	SAFEN = OFF, SAF disabled
  7802                           ;	Application Block write protection bit
  7803                           ;	WRTAPP = OFF, Application Block not write protected
  7804   300006                     	org	3145734
  7805   300006  FF                 	db	255
  7806                           
  7807                           ;Config register CONFIG4H @ 0x300007
  7808                           ;	Boot Block Write Protection bit
  7809                           ;	WRTB = OFF, Boot Block not write-protected
  7810                           ;	Configuration Register Write Protection bit
  7811                           ;	WRTC = OFF, Configuration registers not write-protected
  7812                           ;	Data EEPROM Write Protection bit
  7813                           ;	WRTD = OFF, Data EEPROM not write-protected
  7814                           ;	SAF Write protection bit
  7815                           ;	WRTSAF = OFF, SAF not Write Protected
  7816                           ;	Low Voltage Programming Enable bit
  7817                           ;	LVP = ON, Low voltage programming enabled. MCLR/VPP pin function is MCLR. MCLRE config
      +                          uration bit is ignored
  7818   300007                     	org	3145735
  7819   300007  FF                 	db	255
  7820                           
  7821                           ;Config register CONFIG5L @ 0x300008
  7822                           ;	PFM and Data EEPROM Code Protection bit
  7823                           ;	CP = OFF, PFM and Data EEPROM code protection disabled
  7824   300008                     	org	3145736
  7825   300008  FF                 	db	255
  7826                           
  7827                           ;Config register CONFIG5H @ 0x300009
  7828                           ;	unspecified, using default values
  7829   300009                     	org	3145737
  7830   300009  FF                 	db	255
  7831                           tosu	equ	0x3FFF
  7832                           tosh	equ	0x3FFE
  7833                           tosl	equ	0x3FFD
  7834                           stkptr	equ	0x3FFC
  7835                           pclatu	equ	0x3FFB
  7836                           pclath	equ	0x3FFA
  7837                           pcl	equ	0x3FF9
  7838                           tblptru	equ	0x3FF8
  7839                           tblptrh	equ	0x3FF7
  7840                           tblptrl	equ	0x3FF6
  7841                           tablat	equ	0x3FF5
  7842                           prodh	equ	0x3FF4
  7843                           prodl	equ	0x3FF3
  7844                           indf0	equ	0x3FEF
  7845                           postinc0	equ	0x3FEE
  7846                           postdec0	equ	0x3FED
  7847                           preinc0	equ	0x3FEC
  7848                           plusw0	equ	0x3FEB
  7849                           fsr0h	equ	0x3FEA
  7850                           fsr0l	equ	0x3FE9
  7851                           wreg	equ	0x3FE8
  7852                           indf1	equ	0x3FE7
  7853                           postinc1	equ	0x3FE6
  7854                           postdec1	equ	0x3FE5
  7855                           preinc1	equ	0x3FE4
  7856                           plusw1	equ	0x3FE3
  7857                           fsr1h	equ	0x3FE2
  7858                           fsr1l	equ	0x3FE1
  7859                           bsr	equ	0x3FE0
  7860                           indf2	equ	0x3FDF
  7861                           postinc2	equ	0x3FDE
  7862                           postdec2	equ	0x3FDD
  7863                           preinc2	equ	0x3FDC
  7864                           plusw2	equ	0x3FDB
  7865                           fsr2h	equ	0x3FDA
  7866                           fsr2l	equ	0x3FD9
  7867                           status	equ	0x3FD8

Data Sizes:
    Strings     0
    Constant    303
    Data        42
    BSS         319
    Persistent  2
    Stack       0

Auto Spaces:
    Space          Size  Autos    Used
    COMRAM           95     52      78
    BANK0           160      8     153
    BANK1           256     13     205
    BANK2           256      0       0
    BANK3           256      0       0
    BANK4           256      0       0
    BANK5           256      0       0
    BANK6           256      0       0
    BANK7           256      0       0
    BANK8           256      0       0
    BANK9           256      0       0
    BANK10          256      0       0
    BANK11          256      0       0
    BANK12          256      0       0
    BANK13          256      0       0
    BANK14          256      0       0
    BANK15          256      0       0

Pointer List with Targets:

    S567$3$0	PTR void  size(2) Largest target is 0

    S567$4$0	PTR void  size(2) Largest target is 0

    S567$5$0	PTR void  size(2) Largest target is 0

    S1280$4$0	PTR FTN()void  size(2) Largest target is 1
		 -> Timer_int(), Timer2_DefaultOverflowCallback(), Timer_DefaultOverflowCallback(), 

    S1913$17$0	PTR FTN()void  size(2) Largest target is 0

    S1913$18$0	PTR FTN()void  size(2) Largest target is 0

    S1913$20$0	PTR FTN()void  size(2) Largest target is 1
		 -> UART1_DefaultFramingErrorCallback(), 

    S1913$21$0	PTR FTN()void  size(2) Largest target is 1
		 -> UART1_DefaultOverrunErrorCallback(), 

    S1913$22$0	PTR FTN()void  size(2) Largest target is 1
		 -> UART1_DefaultParityErrorCallback(), 

    S2717$2$1	PTR unsigned char  size(2) Largest target is 0

    S2717$3$1	PTR unsigned char  size(2) Largest target is 0

    S2717$4$3	PTR unsigned char  size(2) Largest target is 0

    S2717$4$1	PTR unsigned char  size(2) Largest target is 0

    S2717$8$0	PTR FTN()void  size(2) Largest target is 1
		 -> I2C1_DefaultCallback(), 

    I2C1_Callback	PTR FTN()void  size(2) Largest target is 1
		 -> I2C1_DefaultCallback(), Absolute function(), 

    I2C1_CallbackRegister@callbackHandler	PTR FTN()void  size(2) Largest target is 1
		 -> I2C1_DefaultCallback(), 

    S2803$readPtr	PTR unsigned char  size(2) Largest target is 0
		 -> NULL(NULL[0]), 

    i2c1Status.readPtr	PTR unsigned char  size(2) Largest target is 0
		 -> NULL(NULL[0]), 

    S2803$writePtr	PTR unsigned char  size(2) Largest target is 0
		 -> NULL(NULL[0]), 

    i2c1Status.writePtr	PTR unsigned char  size(2) Largest target is 0
		 -> NULL(NULL[0]), 

    S2717$Tasks	PTR FTN()void  size(2) Largest target is 1
		 -> Absolute function(), 

    I2C1_Host.Tasks	PTR FTN()void  size(2) Largest target is 1
		 -> Absolute function(), 

    S2717$CallbackRegister	PTR FTN(PTR FTN()void ,)void  size(2) Largest target is 1
		 -> I2C1_CallbackRegister(), 

    I2C1_Host.CallbackRegister	PTR FTN(PTR FTN()void ,)void  size(2) Largest target is 1
		 -> I2C1_CallbackRegister(), 

    S2717$IsBusy	PTR FTN()_Bool  size(2) Largest target is 1
		 -> I2C1_IsBusy(), 

    I2C1_Host.IsBusy	PTR FTN()_Bool  size(2) Largest target is 1
		 -> I2C1_IsBusy(), 

    S2717$ErrorGet	PTR FTN()enum E16163 size(2) Largest target is 1
		 -> I2C1_ErrorGet(), 

    I2C1_Host.ErrorGet	PTR FTN()enum E16163 size(2) Largest target is 1
		 -> I2C1_ErrorGet(), 

    S2717$TransferSetup	PTR FTN(PTR struct .,unsigned long ,)_Bool  size(2) Largest target is 1
		 -> Absolute function(), 

    I2C1_Host.TransferSetup	PTR FTN(PTR struct .,unsigned long ,)_Bool  size(2) Largest target is 1
		 -> Absolute function(), 

    S2717$WriteRead	PTR FTN(unsigned short ,PTR unsigned char ,unsigned int ,PTR unsigned char ,unsigned int ,)_Bool  size(2) Largest target is 1
		 -> I2C1_WriteRead(), 

    I2C1_Host.WriteRead	PTR FTN(unsigned short ,PTR unsigned char ,unsigned int ,PTR unsigned char ,unsigned int ,)_Bool  size(2) Largest target is 1
		 -> I2C1_WriteRead(), 

    S2717$Read	PTR FTN(unsigned short ,PTR unsigned char ,unsigned int ,)_Bool  size(2) Largest target is 1
		 -> I2C1_Read(), 

    I2C1_Host.Read	PTR FTN(unsigned short ,PTR unsigned char ,unsigned int ,)_Bool  size(2) Largest target is 1
		 -> I2C1_Read(), 

    S2717$Write	PTR FTN(unsigned short ,PTR unsigned char ,unsigned int ,)_Bool  size(2) Largest target is 1
		 -> I2C1_Write(), 

    I2C1_Host.Write	PTR FTN(unsigned short ,PTR unsigned char ,unsigned int ,)_Bool  size(2) Largest target is 1
		 -> I2C1_Write(), 

    S2717$Deinitialize	PTR FTN()void  size(2) Largest target is 1
		 -> I2C1_Deinitialize(), 

    I2C1_Host.Deinitialize	PTR FTN()void  size(2) Largest target is 1
		 -> I2C1_Deinitialize(), 

    S2717$Initialize	PTR FTN()void  size(2) Largest target is 1
		 -> I2C1_Initialize(), 

    I2C1_Host.Initialize	PTR FTN()void  size(2) Largest target is 1
		 -> I2C1_Initialize(), 

    IIR_p2@W_i	PTR  size(2) Largest target is 12
		 -> IIR_p2@W(BANK0[12]), 

    IIR_p2@X_i	PTR  size(2) Largest target is 12
		 -> IIR_p2@X(BANK1[12]), 

    IIR_p1@W_i	PTR  size(2) Largest target is 12
		 -> IIR_p1@W(BANK0[12]), 

    IIR_p1@X_i	PTR  size(2) Largest target is 12
		 -> IIR_p1@X(BANK1[12]), 

    FIR_p@coeffs	PTR const long  size(2) Largest target is 48
		 -> B(CODE[48]), 

    FIR_p@tail_i	PTR int  size(2) Largest target is 64
		 -> FIR_p@buffer(BANK1[64]), 

    FIR_p@head_i	PTR int  size(2) Largest target is 64
		 -> FIR_p@buffer(BANK1[64]), 

    FIR_p@tail	PTR int  size(2) Largest target is 64
		 -> FIR_p@buffer(BANK1[64]), 

    FIR_p@head	PTR int  size(2) Largest target is 64
		 -> FIR_p@buffer(BANK1[64]), 

    FIR_p@endBuffer	PTR int  size(2) Largest target is 64
		 -> FIR_p@buffer(BANK1[64]), 

    FIR_p@startBuffer	PTR int  size(2) Largest target is 64
		 -> FIR_p@buffer(BANK1[64]), 

    UART1_TxCompleteInterruptHandler	PTR FTN()void  size(2) Largest target is 1
		 -> Absolute function(), 

    UART1_ParityErrorHandler	PTR FTN()void  size(2) Largest target is 1
		 -> UART1_DefaultParityErrorCallback(), Absolute function(), 

    UART1_ParityErrorCallbackRegister@callbackHandler	PTR FTN()void  size(2) Largest target is 1
		 -> UART1_DefaultParityErrorCallback(), 

    UART1_OverrunErrorCallbackRegister@callbackHandler	PTR FTN()void  size(2) Largest target is 1
		 -> UART1_DefaultOverrunErrorCallback(), 

    UART1_FramingErrorCallbackRegister@callbackHandler	PTR FTN()void  size(2) Largest target is 1
		 -> UART1_DefaultFramingErrorCallback(), 

    UART1_RxCompleteInterruptHandler	PTR FTN()void  size(2) Largest target is 1
		 -> Absolute function(), 

    UART1_OverrunErrorHandler	PTR FTN()void  size(2) Largest target is 1
		 -> UART1_DefaultOverrunErrorCallback(), Absolute function(), 

    UART1_FramingErrorHandler	PTR FTN()void  size(2) Largest target is 1
		 -> UART1_DefaultFramingErrorCallback(), Absolute function(), 

    UART1_TxInterruptHandler	PTR FTN()void  size(2) Largest target is 1
		 -> UART1_TransmitISR(), Absolute function(), 

    UART1_RxInterruptHandler	PTR FTN()void  size(2) Largest target is 1
		 -> UART1_ReceiveISR(), Absolute function(), 

    S1913$EventCallbackRegister	PTR FTN(PTR FTN()void ,)void  size(2) Largest target is 1
		 -> Absolute function(), 

    UART.EventCallbackRegister	PTR FTN(PTR FTN()void ,)void  size(2) Largest target is 1
		 -> Absolute function(), 

    S1913$ParityErrorCallbackRegister	PTR FTN(PTR FTN()void ,)void  size(2) Largest target is 1
		 -> UART1_ParityErrorCallbackRegister(), 

    UART.ParityErrorCallbackRegister	PTR FTN(PTR FTN()void ,)void  size(2) Largest target is 1
		 -> UART1_ParityErrorCallbackRegister(), 

    S1913$OverrunErrorCallbackRegister	PTR FTN(PTR FTN()void ,)void  size(2) Largest target is 1
		 -> UART1_OverrunErrorCallbackRegister(), 

    UART.OverrunErrorCallbackRegister	PTR FTN(PTR FTN()void ,)void  size(2) Largest target is 1
		 -> UART1_OverrunErrorCallbackRegister(), 

    S1913$FramingErrorCallbackRegister	PTR FTN(PTR FTN()void ,)void  size(2) Largest target is 1
		 -> UART1_FramingErrorCallbackRegister(), 

    UART.FramingErrorCallbackRegister	PTR FTN(PTR FTN()void ,)void  size(2) Largest target is 1
		 -> UART1_FramingErrorCallbackRegister(), 

    S1913$TxCollisionCallbackRegister	PTR FTN(PTR FTN()void ,)void  size(2) Largest target is 1
		 -> Absolute function(), 

    UART.TxCollisionCallbackRegister	PTR FTN(PTR FTN()void ,)void  size(2) Largest target is 1
		 -> Absolute function(), 

    S1913$RxCompleteCallbackRegister	PTR FTN(PTR FTN()void ,)void  size(2) Largest target is 1
		 -> UART1_RxCompleteCallbackRegister(), 

    UART.RxCompleteCallbackRegister	PTR FTN(PTR FTN()void ,)void  size(2) Largest target is 1
		 -> UART1_RxCompleteCallbackRegister(), 

    S1913$TxCompleteCallbackRegister	PTR FTN(PTR FTN()void ,)void  size(2) Largest target is 1
		 -> UART1_TxCompleteCallbackRegister(), 

    UART.TxCompleteCallbackRegister	PTR FTN(PTR FTN()void ,)void  size(2) Largest target is 1
		 -> UART1_TxCompleteCallbackRegister(), 

    S1913$ErrorGet	PTR FTN()unsigned int  size(2) Largest target is 2
		 -> UART1_ErrorGet(), 

    UART.ErrorGet	PTR FTN()unsigned int  size(2) Largest target is 2
		 -> UART1_ErrorGet(), 

    S1913$BaudRateGet	PTR FTN()unsigned long  size(2) Largest target is 1
		 -> Absolute function(), 

    UART.BaudRateGet	PTR FTN()unsigned long  size(2) Largest target is 1
		 -> Absolute function(), 

    S1913$BaudRateSet	PTR FTN(unsigned long ,)void  size(2) Largest target is 1
		 -> Absolute function(), 

    UART.BaudRateSet	PTR FTN(unsigned long ,)void  size(2) Largest target is 1
		 -> Absolute function(), 

    S1913$BRGCountGet	PTR FTN()unsigned long  size(2) Largest target is 1
		 -> Absolute function(), 

    UART.BRGCountGet	PTR FTN()unsigned long  size(2) Largest target is 1
		 -> Absolute function(), 

    S1913$BRGCountSet	PTR FTN(unsigned long ,)void  size(2) Largest target is 1
		 -> Absolute function(), 

    UART.BRGCountSet	PTR FTN(unsigned long ,)void  size(2) Largest target is 1
		 -> Absolute function(), 

    S1913$AutoBaudEventEnableGet	PTR FTN()_Bool  size(2) Largest target is 1
		 -> Absolute function(), 

    UART.AutoBaudEventEnableGet	PTR FTN()_Bool  size(2) Largest target is 1
		 -> Absolute function(), 

    S1913$AutoBaudQuery	PTR FTN()_Bool  size(2) Largest target is 1
		 -> UART1_AutoBaudQuery(), 

    UART.AutoBaudQuery	PTR FTN()_Bool  size(2) Largest target is 1
		 -> UART1_AutoBaudQuery(), 

    S1913$AutoBaudSet	PTR FTN(_Bool ,)void  size(2) Largest target is 1
		 -> UART1_AutoBaudSet(), 

    UART.AutoBaudSet	PTR FTN(_Bool ,)void  size(2) Largest target is 1
		 -> UART1_AutoBaudSet(), 

    S1913$TransmitDisable	PTR FTN()void  size(2) Largest target is 1
		 -> UART1_TransmitDisable(), 

    UART.TransmitDisable	PTR FTN()void  size(2) Largest target is 1
		 -> UART1_TransmitDisable(), 

    S1913$TransmitEnable	PTR FTN()void  size(2) Largest target is 1
		 -> UART1_TransmitEnable(), 

    UART.TransmitEnable	PTR FTN()void  size(2) Largest target is 1
		 -> UART1_TransmitEnable(), 

    S1913$IsTxDone	PTR FTN()_Bool  size(2) Largest target is 1
		 -> UART1_IsTxDone(), 

    UART.IsTxDone	PTR FTN()_Bool  size(2) Largest target is 1
		 -> UART1_IsTxDone(), 

    S1913$IsTxReady	PTR FTN()_Bool  size(2) Largest target is 1
		 -> UART1_IsTxReady(), 

    UART.IsTxReady	PTR FTN()_Bool  size(2) Largest target is 1
		 -> UART1_IsTxReady(), 

    S1913$IsRxReady	PTR FTN()_Bool  size(2) Largest target is 1
		 -> UART1_IsRxReady(), 

    UART.IsRxReady	PTR FTN()_Bool  size(2) Largest target is 1
		 -> UART1_IsRxReady(), 

    S1913$Write	PTR FTN(unsigned char ,)void  size(2) Largest target is 1
		 -> UART1_Write(), 

    UART.Write	PTR FTN(unsigned char ,)void  size(2) Largest target is 1
		 -> UART1_Write(), 

    S1913$Read	PTR FTN()unsigned char  size(2) Largest target is 1
		 -> UART1_Read(), 

    UART.Read	PTR FTN()unsigned char  size(2) Largest target is 1
		 -> UART1_Read(), 

    S1913$Deinitialize	PTR FTN()void  size(2) Largest target is 1
		 -> UART1_Deinitialize(), 

    UART.Deinitialize	PTR FTN()void  size(2) Largest target is 1
		 -> UART1_Deinitialize(), 

    S1913$Initialize	PTR FTN()void  size(2) Largest target is 1
		 -> UART1_Initialize(), 

    UART.Initialize	PTR FTN()void  size(2) Largest target is 1
		 -> UART1_Initialize(), 

    Timer2_OverflowCallbackRegister@InterruptHandler	PTR FTN()void  size(2) Largest target is 1
		 -> Timer_int(), Timer2_DefaultOverflowCallback(), Timer_DefaultOverflowCallback(), 

    Timer2_OverflowCallback	PTR FTN()void  size(2) Largest target is 1
		 -> Timer_int(), Timer2_DefaultOverflowCallback(), Timer_DefaultOverflowCallback(), Absolute function(), 

    Timer2.Tasks	PTR FTN()void  size(2) Largest target is 1
		 -> Absolute function(), 

    Timer2.TimeoutCallbackRegister	PTR FTN(PTR FTN()void ,)void  size(2) Largest target is 1
		 -> Timer2_OverflowCallbackRegister(), Timer_OverflowCallbackRegister(), 

    Timer2.PeriodCountSet	PTR FTN(unsigned int ,)void  size(2) Largest target is 1
		 -> Timer2_PeriodCountSet(), Timer_PeriodCountSet(), 

    Timer2.Stop	PTR FTN()void  size(2) Largest target is 1
		 -> Timer2_Stop(), Timer_Stop(), 

    Timer2.Start	PTR FTN()void  size(2) Largest target is 1
		 -> Timer2_Start(), Timer_Start(), 

    Timer2.Initialize	PTR FTN()void  size(2) Largest target is 1
		 -> Timer2_Initialize(), Timer_Initialize(), 

    Timer_OverflowCallbackRegister@CallbackHandler	PTR FTN()void  size(2) Largest target is 1
		 -> Timer_int(), Timer2_DefaultOverflowCallback(), Timer_DefaultOverflowCallback(), 

    Timer_OverflowCallback	PTR FTN()void  size(2) Largest target is 1
		 -> Timer_int(), Timer2_DefaultOverflowCallback(), Timer_DefaultOverflowCallback(), Absolute function(), 

    S1280TMR_INTERFACE$Tasks	PTR FTN()void  size(2) Largest target is 1
		 -> Absolute function(), 

    Timer.Tasks	PTR FTN()void  size(2) Largest target is 1
		 -> Absolute function(), 

    S1280TMR_INTERFACE$TimeoutCallbackRegister	PTR FTN(PTR FTN()void ,)void  size(2) Largest target is 1
		 -> Timer2_OverflowCallbackRegister(), Timer_OverflowCallbackRegister(), 

    Timer.TimeoutCallbackRegister	PTR FTN(PTR FTN()void ,)void  size(2) Largest target is 1
		 -> Timer2_OverflowCallbackRegister(), Timer_OverflowCallbackRegister(), 

    S1280TMR_INTERFACE$PeriodCountSet	PTR FTN(unsigned int ,)void  size(2) Largest target is 1
		 -> Timer2_PeriodCountSet(), Timer_PeriodCountSet(), 

    Timer.PeriodCountSet	PTR FTN(unsigned int ,)void  size(2) Largest target is 1
		 -> Timer2_PeriodCountSet(), Timer_PeriodCountSet(), 

    S1280TMR_INTERFACE$Stop	PTR FTN()void  size(2) Largest target is 1
		 -> Timer2_Stop(), Timer_Stop(), 

    Timer.Stop	PTR FTN()void  size(2) Largest target is 1
		 -> Timer2_Stop(), Timer_Stop(), 

    S1280TMR_INTERFACE$Start	PTR FTN()void  size(2) Largest target is 1
		 -> Timer2_Start(), Timer_Start(), 

    Timer.Start	PTR FTN()void  size(2) Largest target is 1
		 -> Timer2_Start(), Timer_Start(), 

    S1280TMR_INTERFACE$Initialize	PTR FTN()void  size(2) Largest target is 1
		 -> Timer2_Initialize(), Timer_Initialize(), 

    Timer.Initialize	PTR FTN()void  size(2) Largest target is 1
		 -> Timer2_Initialize(), Timer_Initialize(), 

    INT2_SetInterruptHandler@InterruptHandler	PTR FTN()void  size(2) Largest target is 1
		 -> INT2_DefaultInterruptHandler(), 

    INT2_InterruptHandler	PTR FTN()void  size(2) Largest target is 1
		 -> Absolute function(), INT2_DefaultInterruptHandler(), 

    INT1_SetInterruptHandler@InterruptHandler	PTR FTN()void  size(2) Largest target is 1
		 -> INT1_DefaultInterruptHandler(), 

    INT1_InterruptHandler	PTR FTN()void  size(2) Largest target is 1
		 -> Absolute function(), INT1_DefaultInterruptHandler(), 

    INT0_SetInterruptHandler@InterruptHandler	PTR FTN()void  size(2) Largest target is 1
		 -> INT0_DefaultInterruptHandler(), 

    INT0_InterruptHandler	PTR FTN()void  size(2) Largest target is 1
		 -> Absolute function(), INT0_DefaultInterruptHandler(), 

    S567SPI_INTERFACE$ByteWrite	PTR FTN(unsigned char ,)void  size(2) Largest target is 1
		 -> SPI1_ByteWrite(), 

    SPI1.ByteWrite	PTR FTN(unsigned char ,)void  size(2) Largest target is 1
		 -> SPI1_ByteWrite(), 

    S567SPI_INTERFACE$ByteRead	PTR FTN()unsigned char  size(2) Largest target is 1
		 -> SPI1_ByteRead(), 

    SPI1.ByteRead	PTR FTN()unsigned char  size(2) Largest target is 1
		 -> SPI1_ByteRead(), 

    S567SPI_INTERFACE$ByteExchange	PTR FTN(unsigned char ,)unsigned char  size(2) Largest target is 1
		 -> SPI1_ByteExchange(), 

    SPI1.ByteExchange	PTR FTN(unsigned char ,)unsigned char  size(2) Largest target is 1
		 -> SPI1_ByteExchange(), 

    S567SPI_INTERFACE$BufferWrite	PTR FTN(PTR void ,unsigned int ,)void  size(2) Largest target is 1
		 -> SPI1_BufferWrite(), 

    SPI1.BufferWrite	PTR FTN(PTR void ,unsigned int ,)void  size(2) Largest target is 1
		 -> SPI1_BufferWrite(), 

    S567SPI_INTERFACE$BufferRead	PTR FTN(PTR void ,unsigned int ,)void  size(2) Largest target is 1
		 -> SPI1_BufferRead(), 

    SPI1.BufferRead	PTR FTN(PTR void ,unsigned int ,)void  size(2) Largest target is 1
		 -> SPI1_BufferRead(), 

    S567SPI_INTERFACE$BufferExchange	PTR FTN(PTR void ,unsigned int ,)void  size(2) Largest target is 1
		 -> SPI1_BufferExchange(), 

    SPI1.BufferExchange	PTR FTN(PTR void ,unsigned int ,)void  size(2) Largest target is 1
		 -> SPI1_BufferExchange(), 

    S567SPI_INTERFACE$Open	PTR FTN()_Bool  size(2) Largest target is 1
		 -> SPI1_Open(), 

    SPI1.Open	PTR FTN()_Bool  size(2) Largest target is 1
		 -> SPI1_Open(), 

    S567SPI_INTERFACE$Close	PTR FTN()void  size(2) Largest target is 1
		 -> SPI1_Close(), 

    SPI1.Close	PTR FTN()void  size(2) Largest target is 1
		 -> SPI1_Close(), 

    S567SPI_INTERFACE$Initialize	PTR FTN()void  size(2) Largest target is 1
		 -> SPI1_Initialize(), 

    SPI1.Initialize	PTR FTN()void  size(2) Largest target is 1
		 -> SPI1_Initialize(), 

    ADCC_SetADIInterruptHandler@InterruptHandler	PTR FTN()void  size(2) Largest target is 1
		 -> ADC_int(), ADCC_DefaultADI_ISR(), 

    ADCC_ADI_InterruptHandler	PTR FTN()void  size(2) Largest target is 1
		 -> ADC_int(), Absolute function(), ADCC_DefaultADI_ISR(), 


Critical Paths under _main in COMRAM

    None.

Critical Paths under _ADCC_ISR in COMRAM

    _ADCC_ISR->_ADC_int
    _ADC_int->_FilterFIR
    _FilterFIR->_FIR_p
    _FIR_p->___lmul

Critical Paths under _IOC_ISR in COMRAM

    None.

Critical Paths under _INT0_ISR in COMRAM

    None.

Critical Paths under _INT1_ISR in COMRAM

    None.

Critical Paths under _INT2_ISR in COMRAM

    None.

Critical Paths under _Default_ISR in COMRAM

    None.

Critical Paths under _Timer_OverflowISR in COMRAM

    _Timer_int->i2_ADCC_StartConversion

Critical Paths under _Timer2_ISR in COMRAM

    None.

Critical Paths under _UART1_Receive_Vector_ISR in COMRAM

    None.

Critical Paths under _UART1_Transmit_Vector_ISR in COMRAM

    _UART1_Transmit_Vector_ISR->_UART1_TransmitISR

Critical Paths under _I2C1_ISR in COMRAM

    _I2C1_StopSend->_I2C1_CounterSet
    _I2C1_ReadStart->_I2C1_AddrTransmit

Critical Paths under _I2C1_ERROR_ISR in COMRAM

    _I2C1_StopSend->_I2C1_CounterSet

Critical Paths under _I2C1_RX_ISR in COMRAM

    None.

Critical Paths under _I2C1_TX_ISR in COMRAM

    _I2C1_TX_ISR->_I2C1_DataTransmit

Critical Paths under _main in BANK0

    _SYSTEM_Initialize->_INTERRUPT_Initialize

Critical Paths under _ADCC_ISR in BANK0

    None.

Critical Paths under _IOC_ISR in BANK0

    None.

Critical Paths under _INT0_ISR in BANK0

    None.

Critical Paths under _INT1_ISR in BANK0

    None.

Critical Paths under _INT2_ISR in BANK0

    None.

Critical Paths under _Default_ISR in BANK0

    None.

Critical Paths under _Timer_OverflowISR in BANK0

    None.

Critical Paths under _Timer2_ISR in BANK0

    None.

Critical Paths under _UART1_Receive_Vector_ISR in BANK0

    None.

Critical Paths under _UART1_Transmit_Vector_ISR in BANK0

    None.

Critical Paths under _I2C1_ISR in BANK0

    None.

Critical Paths under _I2C1_ERROR_ISR in BANK0

    None.

Critical Paths under _I2C1_RX_ISR in BANK0

    None.

Critical Paths under _I2C1_TX_ISR in BANK0

    None.

Critical Paths under _main in BANK1

    _SYSTEM_Initialize->_Timer_Initialize
    _UART1_Initialize->_UART1_FramingErrorCallbackRegister
    _UART1_Initialize->_UART1_OverrunErrorCallbackRegister
    _UART1_Initialize->_UART1_ParityErrorCallbackRegister
    _Timer_Initialize->_Timer_OverflowCallbackRegister
    _Timer2_Initialize->_Timer2_OverflowCallbackRegister
    _INTERRUPT_Initialize->_INT0_SetInterruptHandler
    _INTERRUPT_Initialize->_INT1_SetInterruptHandler
    _INTERRUPT_Initialize->_INT2_SetInterruptHandler
    _I2C1_Initialize->_I2C1_CallbackRegister
    _ADCC_Initialize->_ADCC_SetADIInterruptHandler

Critical Paths under _ADCC_ISR in BANK1

    None.

Critical Paths under _IOC_ISR in BANK1

    None.

Critical Paths under _INT0_ISR in BANK1

    None.

Critical Paths under _INT1_ISR in BANK1

    None.

Critical Paths under _INT2_ISR in BANK1

    None.

Critical Paths under _Default_ISR in BANK1

    None.

Critical Paths under _Timer_OverflowISR in BANK1

    None.

Critical Paths under _Timer2_ISR in BANK1

    None.

Critical Paths under _UART1_Receive_Vector_ISR in BANK1

    None.

Critical Paths under _UART1_Transmit_Vector_ISR in BANK1

    None.

Critical Paths under _I2C1_ISR in BANK1

    None.

Critical Paths under _I2C1_ERROR_ISR in BANK1

    None.

Critical Paths under _I2C1_RX_ISR in BANK1

    None.

Critical Paths under _I2C1_TX_ISR in BANK1

    None.

Critical Paths under _main in BANK2

    None.

Critical Paths under _ADCC_ISR in BANK2

    None.

Critical Paths under _IOC_ISR in BANK2

    None.

Critical Paths under _INT0_ISR in BANK2

    None.

Critical Paths under _INT1_ISR in BANK2

    None.

Critical Paths under _INT2_ISR in BANK2

    None.

Critical Paths under _Default_ISR in BANK2

    None.

Critical Paths under _Timer_OverflowISR in BANK2

    None.

Critical Paths under _Timer2_ISR in BANK2

    None.

Critical Paths under _UART1_Receive_Vector_ISR in BANK2

    None.

Critical Paths under _UART1_Transmit_Vector_ISR in BANK2

    None.

Critical Paths under _I2C1_ISR in BANK2

    None.

Critical Paths under _I2C1_ERROR_ISR in BANK2

    None.

Critical Paths under _I2C1_RX_ISR in BANK2

    None.

Critical Paths under _I2C1_TX_ISR in BANK2

    None.

Critical Paths under _main in BANK3

    None.

Critical Paths under _ADCC_ISR in BANK3

    None.

Critical Paths under _IOC_ISR in BANK3

    None.

Critical Paths under _INT0_ISR in BANK3

    None.

Critical Paths under _INT1_ISR in BANK3

    None.

Critical Paths under _INT2_ISR in BANK3

    None.

Critical Paths under _Default_ISR in BANK3

    None.

Critical Paths under _Timer_OverflowISR in BANK3

    None.

Critical Paths under _Timer2_ISR in BANK3

    None.

Critical Paths under _UART1_Receive_Vector_ISR in BANK3

    None.

Critical Paths under _UART1_Transmit_Vector_ISR in BANK3

    None.

Critical Paths under _I2C1_ISR in BANK3

    None.

Critical Paths under _I2C1_ERROR_ISR in BANK3

    None.

Critical Paths under _I2C1_RX_ISR in BANK3

    None.

Critical Paths under _I2C1_TX_ISR in BANK3

    None.

Critical Paths under _main in BANK4

    None.

Critical Paths under _ADCC_ISR in BANK4

    None.

Critical Paths under _IOC_ISR in BANK4

    None.

Critical Paths under _INT0_ISR in BANK4

    None.

Critical Paths under _INT1_ISR in BANK4

    None.

Critical Paths under _INT2_ISR in BANK4

    None.

Critical Paths under _Default_ISR in BANK4

    None.

Critical Paths under _Timer_OverflowISR in BANK4

    None.

Critical Paths under _Timer2_ISR in BANK4

    None.

Critical Paths under _UART1_Receive_Vector_ISR in BANK4

    None.

Critical Paths under _UART1_Transmit_Vector_ISR in BANK4

    None.

Critical Paths under _I2C1_ISR in BANK4

    None.

Critical Paths under _I2C1_ERROR_ISR in BANK4

    None.

Critical Paths under _I2C1_RX_ISR in BANK4

    None.

Critical Paths under _I2C1_TX_ISR in BANK4

    None.

Critical Paths under _main in BANK5

    None.

Critical Paths under _ADCC_ISR in BANK5

    None.

Critical Paths under _IOC_ISR in BANK5

    None.

Critical Paths under _INT0_ISR in BANK5

    None.

Critical Paths under _INT1_ISR in BANK5

    None.

Critical Paths under _INT2_ISR in BANK5

    None.

Critical Paths under _Default_ISR in BANK5

    None.

Critical Paths under _Timer_OverflowISR in BANK5

    None.

Critical Paths under _Timer2_ISR in BANK5

    None.

Critical Paths under _UART1_Receive_Vector_ISR in BANK5

    None.

Critical Paths under _UART1_Transmit_Vector_ISR in BANK5

    None.

Critical Paths under _I2C1_ISR in BANK5

    None.

Critical Paths under _I2C1_ERROR_ISR in BANK5

    None.

Critical Paths under _I2C1_RX_ISR in BANK5

    None.

Critical Paths under _I2C1_TX_ISR in BANK5

    None.

Critical Paths under _main in BANK6

    None.

Critical Paths under _ADCC_ISR in BANK6

    None.

Critical Paths under _IOC_ISR in BANK6

    None.

Critical Paths under _INT0_ISR in BANK6

    None.

Critical Paths under _INT1_ISR in BANK6

    None.

Critical Paths under _INT2_ISR in BANK6

    None.

Critical Paths under _Default_ISR in BANK6

    None.

Critical Paths under _Timer_OverflowISR in BANK6

    None.

Critical Paths under _Timer2_ISR in BANK6

    None.

Critical Paths under _UART1_Receive_Vector_ISR in BANK6

    None.

Critical Paths under _UART1_Transmit_Vector_ISR in BANK6

    None.

Critical Paths under _I2C1_ISR in BANK6

    None.

Critical Paths under _I2C1_ERROR_ISR in BANK6

    None.

Critical Paths under _I2C1_RX_ISR in BANK6

    None.

Critical Paths under _I2C1_TX_ISR in BANK6

    None.

Critical Paths under _main in BANK7

    None.

Critical Paths under _ADCC_ISR in BANK7

    None.

Critical Paths under _IOC_ISR in BANK7

    None.

Critical Paths under _INT0_ISR in BANK7

    None.

Critical Paths under _INT1_ISR in BANK7

    None.

Critical Paths under _INT2_ISR in BANK7

    None.

Critical Paths under _Default_ISR in BANK7

    None.

Critical Paths under _Timer_OverflowISR in BANK7

    None.

Critical Paths under _Timer2_ISR in BANK7

    None.

Critical Paths under _UART1_Receive_Vector_ISR in BANK7

    None.

Critical Paths under _UART1_Transmit_Vector_ISR in BANK7

    None.

Critical Paths under _I2C1_ISR in BANK7

    None.

Critical Paths under _I2C1_ERROR_ISR in BANK7

    None.

Critical Paths under _I2C1_RX_ISR in BANK7

    None.

Critical Paths under _I2C1_TX_ISR in BANK7

    None.

Critical Paths under _main in BANK8

    None.

Critical Paths under _ADCC_ISR in BANK8

    None.

Critical Paths under _IOC_ISR in BANK8

    None.

Critical Paths under _INT0_ISR in BANK8

    None.

Critical Paths under _INT1_ISR in BANK8

    None.

Critical Paths under _INT2_ISR in BANK8

    None.

Critical Paths under _Default_ISR in BANK8

    None.

Critical Paths under _Timer_OverflowISR in BANK8

    None.

Critical Paths under _Timer2_ISR in BANK8

    None.

Critical Paths under _UART1_Receive_Vector_ISR in BANK8

    None.

Critical Paths under _UART1_Transmit_Vector_ISR in BANK8

    None.

Critical Paths under _I2C1_ISR in BANK8

    None.

Critical Paths under _I2C1_ERROR_ISR in BANK8

    None.

Critical Paths under _I2C1_RX_ISR in BANK8

    None.

Critical Paths under _I2C1_TX_ISR in BANK8

    None.

Critical Paths under _main in BANK9

    None.

Critical Paths under _ADCC_ISR in BANK9

    None.

Critical Paths under _IOC_ISR in BANK9

    None.

Critical Paths under _INT0_ISR in BANK9

    None.

Critical Paths under _INT1_ISR in BANK9

    None.

Critical Paths under _INT2_ISR in BANK9

    None.

Critical Paths under _Default_ISR in BANK9

    None.

Critical Paths under _Timer_OverflowISR in BANK9

    None.

Critical Paths under _Timer2_ISR in BANK9

    None.

Critical Paths under _UART1_Receive_Vector_ISR in BANK9

    None.

Critical Paths under _UART1_Transmit_Vector_ISR in BANK9

    None.

Critical Paths under _I2C1_ISR in BANK9

    None.

Critical Paths under _I2C1_ERROR_ISR in BANK9

    None.

Critical Paths under _I2C1_RX_ISR in BANK9

    None.

Critical Paths under _I2C1_TX_ISR in BANK9

    None.

Critical Paths under _main in BANK10

    None.

Critical Paths under _ADCC_ISR in BANK10

    None.

Critical Paths under _IOC_ISR in BANK10

    None.

Critical Paths under _INT0_ISR in BANK10

    None.

Critical Paths under _INT1_ISR in BANK10

    None.

Critical Paths under _INT2_ISR in BANK10

    None.

Critical Paths under _Default_ISR in BANK10

    None.

Critical Paths under _Timer_OverflowISR in BANK10

    None.

Critical Paths under _Timer2_ISR in BANK10

    None.

Critical Paths under _UART1_Receive_Vector_ISR in BANK10

    None.

Critical Paths under _UART1_Transmit_Vector_ISR in BANK10

    None.

Critical Paths under _I2C1_ISR in BANK10

    None.

Critical Paths under _I2C1_ERROR_ISR in BANK10

    None.

Critical Paths under _I2C1_RX_ISR in BANK10

    None.

Critical Paths under _I2C1_TX_ISR in BANK10

    None.

Critical Paths under _main in BANK11

    None.

Critical Paths under _ADCC_ISR in BANK11

    None.

Critical Paths under _IOC_ISR in BANK11

    None.

Critical Paths under _INT0_ISR in BANK11

    None.

Critical Paths under _INT1_ISR in BANK11

    None.

Critical Paths under _INT2_ISR in BANK11

    None.

Critical Paths under _Default_ISR in BANK11

    None.

Critical Paths under _Timer_OverflowISR in BANK11

    None.

Critical Paths under _Timer2_ISR in BANK11

    None.

Critical Paths under _UART1_Receive_Vector_ISR in BANK11

    None.

Critical Paths under _UART1_Transmit_Vector_ISR in BANK11

    None.

Critical Paths under _I2C1_ISR in BANK11

    None.

Critical Paths under _I2C1_ERROR_ISR in BANK11

    None.

Critical Paths under _I2C1_RX_ISR in BANK11

    None.

Critical Paths under _I2C1_TX_ISR in BANK11

    None.

Critical Paths under _main in BANK12

    None.

Critical Paths under _ADCC_ISR in BANK12

    None.

Critical Paths under _IOC_ISR in BANK12

    None.

Critical Paths under _INT0_ISR in BANK12

    None.

Critical Paths under _INT1_ISR in BANK12

    None.

Critical Paths under _INT2_ISR in BANK12

    None.

Critical Paths under _Default_ISR in BANK12

    None.

Critical Paths under _Timer_OverflowISR in BANK12

    None.

Critical Paths under _Timer2_ISR in BANK12

    None.

Critical Paths under _UART1_Receive_Vector_ISR in BANK12

    None.

Critical Paths under _UART1_Transmit_Vector_ISR in BANK12

    None.

Critical Paths under _I2C1_ISR in BANK12

    None.

Critical Paths under _I2C1_ERROR_ISR in BANK12

    None.

Critical Paths under _I2C1_RX_ISR in BANK12

    None.

Critical Paths under _I2C1_TX_ISR in BANK12

    None.

Critical Paths under _main in BANK13

    None.

Critical Paths under _ADCC_ISR in BANK13

    None.

Critical Paths under _IOC_ISR in BANK13

    None.

Critical Paths under _INT0_ISR in BANK13

    None.

Critical Paths under _INT1_ISR in BANK13

    None.

Critical Paths under _INT2_ISR in BANK13

    None.

Critical Paths under _Default_ISR in BANK13

    None.

Critical Paths under _Timer_OverflowISR in BANK13

    None.

Critical Paths under _Timer2_ISR in BANK13

    None.

Critical Paths under _UART1_Receive_Vector_ISR in BANK13

    None.

Critical Paths under _UART1_Transmit_Vector_ISR in BANK13

    None.

Critical Paths under _I2C1_ISR in BANK13

    None.

Critical Paths under _I2C1_ERROR_ISR in BANK13

    None.

Critical Paths under _I2C1_RX_ISR in BANK13

    None.

Critical Paths under _I2C1_TX_ISR in BANK13

    None.

Critical Paths under _main in BANK14

    None.

Critical Paths under _ADCC_ISR in BANK14

    None.

Critical Paths under _IOC_ISR in BANK14

    None.

Critical Paths under _INT0_ISR in BANK14

    None.

Critical Paths under _INT1_ISR in BANK14

    None.

Critical Paths under _INT2_ISR in BANK14

    None.

Critical Paths under _Default_ISR in BANK14

    None.

Critical Paths under _Timer_OverflowISR in BANK14

    None.

Critical Paths under _Timer2_ISR in BANK14

    None.

Critical Paths under _UART1_Receive_Vector_ISR in BANK14

    None.

Critical Paths under _UART1_Transmit_Vector_ISR in BANK14

    None.

Critical Paths under _I2C1_ISR in BANK14

    None.

Critical Paths under _I2C1_ERROR_ISR in BANK14

    None.

Critical Paths under _I2C1_RX_ISR in BANK14

    None.

Critical Paths under _I2C1_TX_ISR in BANK14

    None.

Critical Paths under _main in BANK15

    None.

Critical Paths under _ADCC_ISR in BANK15

    None.

Critical Paths under _IOC_ISR in BANK15

    None.

Critical Paths under _INT0_ISR in BANK15

    None.

Critical Paths under _INT1_ISR in BANK15

    None.

Critical Paths under _INT2_ISR in BANK15

    None.

Critical Paths under _Default_ISR in BANK15

    None.

Critical Paths under _Timer_OverflowISR in BANK15

    None.

Critical Paths under _Timer2_ISR in BANK15

    None.

Critical Paths under _UART1_Receive_Vector_ISR in BANK15

    None.

Critical Paths under _UART1_Transmit_Vector_ISR in BANK15

    None.

Critical Paths under _I2C1_ISR in BANK15

    None.

Critical Paths under _I2C1_ERROR_ISR in BANK15

    None.

Critical Paths under _I2C1_RX_ISR in BANK15

    None.

Critical Paths under _I2C1_TX_ISR in BANK15

    None.

Call Graph Tables:

 ---------------------------------------------------------------------------------
 (Depth) Function   	        Calls       Base Space   Used Autos Params    Refs
 ---------------------------------------------------------------------------------
 (0) _main                                                 0     0      0    2060
        _ADCC_SetADIInterruptHandler
                          _SPI1_Open
                  _SYSTEM_Initialize
     _Timer_OverflowCallbackRegister
 ---------------------------------------------------------------------------------
 (1) _SYSTEM_Initialize                                    0     0      0    1638
                    _ADCC_Initialize
                   _CLOCK_Initialize
                     _FVR_Initialize
                    _I2C1_Initialize
               _INTERRUPT_Initialize
             _PIN_MANAGER_Initialize
                    _SPI1_Initialize
                  _Timer2_Initialize
                   _Timer_Initialize
                   _UART1_Initialize
                   _UART2_Initialize
 ---------------------------------------------------------------------------------
 (2) _UART2_Initialize                                     0     0      0       0
 ---------------------------------------------------------------------------------
 (2) _UART1_Initialize                                     0     0      0     456
 _UART1_FramingErrorCallbackRegister
 _UART1_OverrunErrorCallbackRegister
  _UART1_ParityErrorCallbackRegister
 ---------------------------------------------------------------------------------
 (3) _UART1_ParityErrorCallbackRegister                    2     0      2     152
                                              9 BANK1      2     0      2
 ---------------------------------------------------------------------------------
 (3) _UART1_OverrunErrorCallbackRegister                   2     0      2     152
                                              9 BANK1      2     0      2
 ---------------------------------------------------------------------------------
 (3) _UART1_FramingErrorCallbackRegister                   2     0      2     152
                                              9 BANK1      2     0      2
 ---------------------------------------------------------------------------------
 (2) _Timer_Initialize                                     2     2      0     211
                                             11 BANK1      2     2      0
     _Timer_OverflowCallbackRegister
 ---------------------------------------------------------------------------------
 (1) _Timer_OverflowCallbackRegister                       2     0      2     211
                                              9 BANK1      2     0      2
 ---------------------------------------------------------------------------------
 (2) _Timer2_Initialize                                    0     0      0     121
    _Timer2_OverflowCallbackRegister
 ---------------------------------------------------------------------------------
 (3) _Timer2_OverflowCallbackRegister                      2     0      2     121
                                              9 BANK1      2     0      2
 ---------------------------------------------------------------------------------
 (2) _SPI1_Initialize                                      0     0      0       0
 ---------------------------------------------------------------------------------
 (2) _PIN_MANAGER_Initialize                               0     0      0       0
 ---------------------------------------------------------------------------------
 (2) _INTERRUPT_Initialize                                 1     1      0     397
                                              7 BANK0      1     1      0
           _INT0_SetInterruptHandler
           _INT1_SetInterruptHandler
           _INT2_SetInterruptHandler
 ---------------------------------------------------------------------------------
 (3) _INT2_SetInterruptHandler                             2     0      2     121
                                              9 BANK1      2     0      2
 ---------------------------------------------------------------------------------
 (3) _INT1_SetInterruptHandler                             2     0      2     121
                                              9 BANK1      2     0      2
 ---------------------------------------------------------------------------------
 (3) _INT0_SetInterruptHandler                             2     0      2     121
                                              9 BANK1      2     0      2
 ---------------------------------------------------------------------------------
 (2) _I2C1_Initialize                                      0     0      0     242
              _I2C1_CallbackRegister
              _I2C1_InterruptsEnable
 ---------------------------------------------------------------------------------
 (3) _I2C1_InterruptsEnable                                0     0      0       0
 ---------------------------------------------------------------------------------
 (3) _I2C1_CallbackRegister                                2     0      2     242
                                              9 BANK1      2     0      2
 ---------------------------------------------------------------------------------
 (2) _FVR_Initialize                                       0     0      0       0
 ---------------------------------------------------------------------------------
 (2) _CLOCK_Initialize                                     0     0      0       0
 ---------------------------------------------------------------------------------
 (2) _ADCC_Initialize                                      0     0      0     211
        _ADCC_SetADIInterruptHandler
 ---------------------------------------------------------------------------------
 (3) _ADCC_SetADIInterruptHandler                          2     0      2     211
                                              9 BANK1      2     0      2
 ---------------------------------------------------------------------------------
 (1) _SPI1_Open                                            0     0      0       0
 ---------------------------------------------------------------------------------
 Estimated maximum stack depth 3
 ---------------------------------------------------------------------------------
 (Depth) Function   	        Calls       Base Space   Used Autos Params    Refs
 ---------------------------------------------------------------------------------
 (4) _ADCC_ISR                                             7     7      0    1284
                                              0 BANK0      7     7      0
                   Absolute function *
                _ADCC_DefaultADI_ISR *
                            _ADC_int *
 ---------------------------------------------------------------------------------
 (5) _ADC_int                                              5     5      0    1284
                                             47 COMRAM     5     5      0
               _ADCC_StartConversion
                          _FilterFIR
                     _SPI1_ByteWrite
                       _Timer2_Start
                        _UART1_Write
 ---------------------------------------------------------------------------------
 (6) _UART1_Write                                          2     2      0      67
                                             11 COMRAM     2     2      0
 ---------------------------------------------------------------------------------
 (6) _Timer2_Start                                         0     0      0       0
 ---------------------------------------------------------------------------------
 (6) _SPI1_ByteWrite                                       1     1      0      22
                                             11 COMRAM     1     1      0
 ---------------------------------------------------------------------------------
 (6) _FilterFIR                                            2     0      2    1062
                                             45 COMRAM     2     0      2
                              _FIR_p
 ---------------------------------------------------------------------------------
 (7) _FIR_p                                               22    18      4     964
                                             23 COMRAM    22    18      4
                             ___lmul
 ---------------------------------------------------------------------------------
 (8) ___lmul                                              12     4      8     674
                                             11 COMRAM    12     4      8
 ---------------------------------------------------------------------------------
 (6) _ADCC_StartConversion                                 1     1      0      22
                                             11 COMRAM     1     1      0
 ---------------------------------------------------------------------------------
 (5) _ADCC_DefaultADI_ISR                                  0     0      0       0
 ---------------------------------------------------------------------------------
 (10) Absolute function(Fake)                              0     0      0       0
 ---------------------------------------------------------------------------------
 Estimated maximum stack depth 10
 ---------------------------------------------------------------------------------
 (Depth) Function   	        Calls       Base Space   Used Autos Params    Refs
 ---------------------------------------------------------------------------------
 (4) _IOC_ISR                                              0     0      0       0
                    _PIN_MANAGER_IOC
 ---------------------------------------------------------------------------------
 (5) _PIN_MANAGER_IOC                                      0     0      0       0
 ---------------------------------------------------------------------------------
 Estimated maximum stack depth 5
 ---------------------------------------------------------------------------------
 (Depth) Function   	        Calls       Base Space   Used Autos Params    Refs
 ---------------------------------------------------------------------------------
 (4) _INT0_ISR                                             3     3      0       0
                                              0 BANK1      3     3      0
                      _INT0_CallBack
 ---------------------------------------------------------------------------------
 (5) _INT0_CallBack                                        0     0      0       0
                   Absolute function *
       _INT0_DefaultInterruptHandler *
 ---------------------------------------------------------------------------------
 (6) _INT0_DefaultInterruptHandler                         0     0      0       0
 ---------------------------------------------------------------------------------
 (10) Absolute function(Fake)                              0     0      0       0
 ---------------------------------------------------------------------------------
 Estimated maximum stack depth 10
 ---------------------------------------------------------------------------------
 (Depth) Function   	        Calls       Base Space   Used Autos Params    Refs
 ---------------------------------------------------------------------------------
 (4) _INT1_ISR                                             3     3      0       0
                                              3 BANK1      3     3      0
                      _INT1_CallBack
 ---------------------------------------------------------------------------------
 (5) _INT1_CallBack                                        0     0      0       0
                   Absolute function *
       _INT1_DefaultInterruptHandler *
 ---------------------------------------------------------------------------------
 (6) _INT1_DefaultInterruptHandler                         0     0      0       0
 ---------------------------------------------------------------------------------
 (10) Absolute function(Fake)                              0     0      0       0
 ---------------------------------------------------------------------------------
 Estimated maximum stack depth 10
 ---------------------------------------------------------------------------------
 (Depth) Function   	        Calls       Base Space   Used Autos Params    Refs
 ---------------------------------------------------------------------------------
 (4) _INT2_ISR                                             3     3      0       0
                                              6 BANK1      3     3      0
                      _INT2_CallBack
 ---------------------------------------------------------------------------------
 (5) _INT2_CallBack                                        0     0      0       0
                   Absolute function *
       _INT2_DefaultInterruptHandler *
 ---------------------------------------------------------------------------------
 (6) _INT2_DefaultInterruptHandler                         0     0      0       0
 ---------------------------------------------------------------------------------
 (10) Absolute function(Fake)                              0     0      0       0
 ---------------------------------------------------------------------------------
 Estimated maximum stack depth 10
 ---------------------------------------------------------------------------------
 (Depth) Function   	        Calls       Base Space   Used Autos Params    Refs
 ---------------------------------------------------------------------------------
 (9) _Default_ISR                                          0     0      0       0
 ---------------------------------------------------------------------------------
 Estimated maximum stack depth 9
 ---------------------------------------------------------------------------------
 (Depth) Function   	        Calls       Base Space   Used Autos Params    Refs
 ---------------------------------------------------------------------------------
 (9) _Timer_OverflowISR                                    2     2      0      22
                                              1 COMRAM     2     2      0
                   Absolute function *
     _Timer2_DefaultOverflowCallback *
      _Timer_DefaultOverflowCallback *
                          _Timer_int *
 ---------------------------------------------------------------------------------
 (10) _Timer_int                                           0     0      0      22
             i2_ADCC_StartConversion
 ---------------------------------------------------------------------------------
 (11) i2_ADCC_StartConversion                              1     1      0      22
                                              0 COMRAM     1     1      0
 ---------------------------------------------------------------------------------
 (10) _Timer_DefaultOverflowCallback                       0     0      0       0
 ---------------------------------------------------------------------------------
 (10) _Timer2_DefaultOverflowCallback                      0     0      0       0
 ---------------------------------------------------------------------------------
 (10) Absolute function(Fake)                              0     0      0       0
 ---------------------------------------------------------------------------------
 Estimated maximum stack depth 11
 ---------------------------------------------------------------------------------
 (Depth) Function   	        Calls       Base Space   Used Autos Params    Refs
 ---------------------------------------------------------------------------------
 (9) _Timer2_ISR                                           0     0      0       0
                        _Timer2_Stop
 ---------------------------------------------------------------------------------
 (10) _Timer2_Stop                                         0     0      0       0
 ---------------------------------------------------------------------------------
 Estimated maximum stack depth 10
 ---------------------------------------------------------------------------------
 (Depth) Function   	        Calls       Base Space   Used Autos Params    Refs
 ---------------------------------------------------------------------------------
 (9) _UART1_Receive_Vector_ISR                             2     2      0       0
                                              3 COMRAM     2     2      0
 ---------------------------------------------------------------------------------
 Estimated maximum stack depth 9
 ---------------------------------------------------------------------------------
 (Depth) Function   	        Calls       Base Space   Used Autos Params    Refs
 ---------------------------------------------------------------------------------
 (9) _UART1_Transmit_Vector_ISR                            0     0      0      23
                  _UART1_TransmitISR
 ---------------------------------------------------------------------------------
 (10) _UART1_TransmitISR                                   1     1      0      23
                                              5 COMRAM     1     1      0
 ---------------------------------------------------------------------------------
 Estimated maximum stack depth 10
 ---------------------------------------------------------------------------------
 (Depth) Function   	        Calls       Base Space   Used Autos Params    Refs
 ---------------------------------------------------------------------------------
 (9) _I2C1_ISR                                             0     0      0      81
                         _I2C1_Close
                     _I2C1_ReadStart
                _I2C1_RestartDisable
                      _I2C1_StopSend
 ---------------------------------------------------------------------------------
 (10) _I2C1_StopSend                                       0     0      0      44
                    _I2C1_CounterGet
                    _I2C1_CounterSet
                  _I2C1_DataTransmit
                _I2C1_RestartDisable
 ---------------------------------------------------------------------------------
 (11) _I2C1_RestartDisable                                 0     0      0       0
 ---------------------------------------------------------------------------------
 (10) _I2C1_DataTransmit                                   1     1      0      22
                                             10 COMRAM     1     1      0
 ---------------------------------------------------------------------------------
 (11) _I2C1_CounterGet                                     0     0      0       0
 ---------------------------------------------------------------------------------
 (10) _I2C1_ReadStart                                      0     0      0      37
                  _I2C1_AddrTransmit
                    _I2C1_CounterSet
                     _I2C1_StartSend
 ---------------------------------------------------------------------------------
 (11) _I2C1_StartSend                                      0     0      0       0
 ---------------------------------------------------------------------------------
 (11) _I2C1_CounterSet                                     1     1      0      22
                                              7 COMRAM     1     1      0
 ---------------------------------------------------------------------------------
 (11) _I2C1_AddrTransmit                                   1     1      0      15
                                              6 COMRAM     1     1      0
 ---------------------------------------------------------------------------------
 (10) _I2C1_Close                                          0     0      0       0
                   _I2C1_BufferClear
               _I2C1_ErrorFlagsClear
               _I2C1_InterruptsClear
 ---------------------------------------------------------------------------------
 (11) _I2C1_InterruptsClear                                0     0      0       0
 ---------------------------------------------------------------------------------
 (11) _I2C1_ErrorFlagsClear                                0     0      0       0
 ---------------------------------------------------------------------------------
 (11) _I2C1_BufferClear                                    0     0      0       0
 ---------------------------------------------------------------------------------
 Estimated maximum stack depth 11
 ---------------------------------------------------------------------------------
 (Depth) Function   	        Calls       Base Space   Used Autos Params    Refs
 ---------------------------------------------------------------------------------
 (9) _I2C1_ERROR_ISR                                       2     2      0      44
                                              8 COMRAM     2     2      0
                   Absolute function *
                      _I2C1_BusReset
               _I2C1_DefaultCallback *
                        _I2C1_IsAddr
                      _I2C1_IsBusCol
                  _I2C1_IsBusTimeOut
                        _I2C1_IsData
                        _I2C1_IsNack
                      _I2C1_StopSend
 ---------------------------------------------------------------------------------
 (10) _I2C1_StopSend                                       0     0      0      44
                    _I2C1_CounterGet
                    _I2C1_CounterSet
                  _I2C1_DataTransmit
                _I2C1_RestartDisable
 ---------------------------------------------------------------------------------
 (11) _I2C1_RestartDisable                                 0     0      0       0
 ---------------------------------------------------------------------------------
 (10) _I2C1_DataTransmit                                   1     1      0      22
                                             10 COMRAM     1     1      0
 ---------------------------------------------------------------------------------
 (11) _I2C1_CounterSet                                     1     1      0      22
                                              7 COMRAM     1     1      0
 ---------------------------------------------------------------------------------
 (11) _I2C1_CounterGet                                     0     0      0       0
 ---------------------------------------------------------------------------------
 (10) _I2C1_IsNack                                         0     0      0       0
 ---------------------------------------------------------------------------------
 (10) _I2C1_IsData                                         0     0      0       0
 ---------------------------------------------------------------------------------
 (10) _I2C1_IsBusTimeOut                                   0     0      0       0
 ---------------------------------------------------------------------------------
 (10) _I2C1_IsBusCol                                       0     0      0       0
 ---------------------------------------------------------------------------------
 (10) _I2C1_IsAddr                                         0     0      0       0
 ---------------------------------------------------------------------------------
 (10) _I2C1_DefaultCallback                                0     0      0       0
 ---------------------------------------------------------------------------------
 (10) _I2C1_BusReset                                       0     0      0       0
                   _I2C1_BufferClear
               _I2C1_ErrorFlagsClear
               _I2C1_InterruptsClear
             _I2C1_InterruptsDisable
            i2_I2C1_InterruptsEnable
 ---------------------------------------------------------------------------------
 (11) i2_I2C1_InterruptsEnable                             0     0      0       0
 ---------------------------------------------------------------------------------
 (11) _I2C1_InterruptsDisable                              0     0      0       0
 ---------------------------------------------------------------------------------
 (11) _I2C1_InterruptsClear                                0     0      0       0
 ---------------------------------------------------------------------------------
 (11) _I2C1_ErrorFlagsClear                                0     0      0       0
 ---------------------------------------------------------------------------------
 (11) _I2C1_BufferClear                                    0     0      0       0
 ---------------------------------------------------------------------------------
 (10) Absolute function(Fake)                              0     0      0       0
 ---------------------------------------------------------------------------------
 Estimated maximum stack depth 11
 ---------------------------------------------------------------------------------
 (Depth) Function   	        Calls       Base Space   Used Autos Params    Refs
 ---------------------------------------------------------------------------------
 (9) _I2C1_RX_ISR                                          0     0      0       0
                   _I2C1_DataReceive
 ---------------------------------------------------------------------------------
 (10) _I2C1_DataReceive                                    0     0      0       0
 ---------------------------------------------------------------------------------
 Estimated maximum stack depth 10
 ---------------------------------------------------------------------------------
 (Depth) Function   	        Calls       Base Space   Used Autos Params    Refs
 ---------------------------------------------------------------------------------
 (9) _I2C1_TX_ISR                                          0     0      0      22
                  _I2C1_DataTransmit
 ---------------------------------------------------------------------------------
 (10) _I2C1_DataTransmit                                   1     1      0      22
                                             10 COMRAM     1     1      0
 ---------------------------------------------------------------------------------
 Estimated maximum stack depth 10
 ---------------------------------------------------------------------------------

 Call Graph Graphs:

 _main (ROOT)
   _ADCC_SetADIInterruptHandler
   _SPI1_Open
   _SYSTEM_Initialize
     _ADCC_Initialize
       _ADCC_SetADIInterruptHandler
     _CLOCK_Initialize
     _FVR_Initialize
     _I2C1_Initialize
       _I2C1_CallbackRegister
       _I2C1_InterruptsEnable
     _INTERRUPT_Initialize
       _INT0_SetInterruptHandler
       _INT1_SetInterruptHandler
       _INT2_SetInterruptHandler
     _PIN_MANAGER_Initialize
     _SPI1_Initialize
     _Timer2_Initialize
       _Timer2_OverflowCallbackRegister
     _Timer_Initialize
       _Timer_OverflowCallbackRegister
     _UART1_Initialize
       _UART1_FramingErrorCallbackRegister
       _UART1_OverrunErrorCallbackRegister
       _UART1_ParityErrorCallbackRegister
     _UART2_Initialize
   _Timer_OverflowCallbackRegister

 _ADCC_ISR (ROOT)
   Absolute function(Fake) *
   _ADCC_DefaultADI_ISR *
   _ADC_int *
     _ADCC_StartConversion
     _FilterFIR
       _FIR_p
         ___lmul
     _SPI1_ByteWrite
     _Timer2_Start
     _UART1_Write

 _IOC_ISR (ROOT)
   _PIN_MANAGER_IOC

 _INT0_ISR (ROOT)
   _INT0_CallBack
     Absolute function(Fake) *
     _INT0_DefaultInterruptHandler *

 _INT1_ISR (ROOT)
   _INT1_CallBack
     Absolute function(Fake) *
     _INT1_DefaultInterruptHandler *

 _INT2_ISR (ROOT)
   _INT2_CallBack
     Absolute function(Fake) *
     _INT2_DefaultInterruptHandler *

 _Default_ISR (ROOT)

 _Timer_OverflowISR (ROOT)
   Absolute function(Fake) *
   _Timer2_DefaultOverflowCallback *
   _Timer_DefaultOverflowCallback *
   _Timer_int *
     i2_ADCC_StartConversion

 _Timer2_ISR (ROOT)
   _Timer2_Stop

 _UART1_Receive_Vector_ISR (ROOT)

 _UART1_Transmit_Vector_ISR (ROOT)
   _UART1_TransmitISR

 _I2C1_ISR (ROOT)
   _I2C1_Close
     _I2C1_BufferClear
     _I2C1_ErrorFlagsClear
     _I2C1_InterruptsClear
   _I2C1_ReadStart
     _I2C1_AddrTransmit
     _I2C1_CounterSet
     _I2C1_StartSend
   _I2C1_RestartDisable
   _I2C1_StopSend
     _I2C1_CounterGet
     _I2C1_CounterSet
     _I2C1_DataTransmit
     _I2C1_RestartDisable

 _I2C1_ERROR_ISR (ROOT)
   Absolute function(Fake) *
   _I2C1_BusReset *
     _I2C1_BufferClear
     _I2C1_ErrorFlagsClear
     _I2C1_InterruptsClear
     _I2C1_InterruptsDisable
     i2_I2C1_InterruptsEnable
   _I2C1_DefaultCallback *
   _I2C1_IsAddr *
   _I2C1_IsBusCol *
   _I2C1_IsBusTimeOut *
   _I2C1_IsData *
   _I2C1_IsNack *
   _I2C1_StopSend *
     _I2C1_CounterGet
     _I2C1_CounterSet
     _I2C1_DataTransmit
     _I2C1_RestartDisable

 _I2C1_RX_ISR (ROOT)
   _I2C1_DataReceive

 _I2C1_TX_ISR (ROOT)
   _I2C1_DataTransmit

 Address spaces:
Name               Size   Autos  Total    Cost      Usage
BIGRAM             FFF      0       0      78        0.0%
EEDATA             400      0       0       0        0.0%
BITBIGSFRlhllll    22A      0       0      57        0.0%
BITBIGSFRlllll     180      0       0      76        0.0%
BITBANK15          100      0       0      34        0.0%
BANK15             100      0       0      35        0.0%
BITBANK14          100      0       0      32        0.0%
BANK14             100      0       0      33        0.0%
BITBANK13          100      0       0      30        0.0%
BANK13             100      0       0      31        0.0%
BITBANK12          100      0       0      28        0.0%
BANK12             100      0       0      29        0.0%
BITBANK11          100      0       0      26        0.0%
BANK11             100      0       0      27        0.0%
BITBANK10          100      0       0      24        0.0%
BANK10             100      0       0      25        0.0%
BITBANK9           100      0       0      22        0.0%
BANK9              100      0       0      23        0.0%
BITBANK8           100      0       0      20        0.0%
BANK8              100      0       0      21        0.0%
BITBANK7           100      0       0      18        0.0%
BANK7              100      0       0      19        0.0%
BITBANK6           100      0       0      16        0.0%
BANK6              100      0       0      17        0.0%
BITBANK5           100      0       0      14        0.0%
BANK5              100      0       0      15        0.0%
BITBANK4           100      0       0      12        0.0%
BANK4              100      0       0      13        0.0%
BITBANK3           100      0       0      10        0.0%
BANK3              100      0       0      11        0.0%
BITBANK2           100      0       0       8        0.0%
BANK2              100      0       0       9        0.0%
BITBANK1           100      0       0       6        0.0%
BANK1              100      D      CD       7       80.1%
BITBIGSFRlhlhhh     C6      0       0      44        0.0%
BITBIGSFRhhhhhh     AA      0       0      41        0.0%
BITBANK0            A0      0       0       4        0.0%
BANK0               A0      8      99       5       95.6%
BITCOMRAM           5F      0       0       0        0.0%
COMRAM              5F     34      4E       1       82.1%
BITBIGSFRlhllhh     56      0       0      50        0.0%
BITBIGSFRlhllll     56      0       0      60        0.0%
BITBIGSFRlhllhh     4D      0       0      53        0.0%
BITBIGSFRlhllll     33      0       0      69        0.0%
BITBIGSFRlhllll     31      0       0      72        0.0%
BITBIGSFRlhllll     29      0       0      68        0.0%
BITBIGSFRhhhhhh     28      0       0      36        0.0%
BITBIGSFRlhh        1C      0       0      43        0.0%
BITBIGSFRllhh        C      0       0      74        0.0%
BITBIGSFRlllh        C      0       0      75        0.0%
BITBIGSFRhhhhhh      B      0       0      38        0.0%
BITBIGSFRlhllll      8      0       0      67        0.0%
BITBIGSFRhhhhhh      6      0       0      40        0.0%
BITBIGSFRlhllll      5      0       0      62        0.0%
BITBIGSFRlhlhhh      5      0       0      45        0.0%
BITBIGSFRlhllhh      4      0       0      51        0.0%
BITBIGSFRlhllll      4      0       0      61        0.0%
BITBIGSFRlhllll      4      0       0      63        0.0%
BITBIGSFRlhllll      4      0       0      65        0.0%
BITBIGSFRhhhhhh      3      0       0      39        0.0%
BITBIGSFRlhllll      2      0       0      58        0.0%
BITBIGSFRlhllll      2      0       0      64        0.0%
BITBIGSFRlhllll      2      0       0      66        0.0%
BITBIGSFRlhllhl      2      0       0      54        0.0%
BITBIGSFRlhllhl      2      0       0      55        0.0%
BITBIGSFRlhllhh      1      0       0      52        0.0%
BITBIGSFRlhllll      1      0       0      73        0.0%
BITBIGSFRhhhhhh      1      0       0      37        0.0%
BITBIGSFRlhllll      1      0       0      70        0.0%
BITBIGSFRlhllll      1      0       0      71        0.0%
BITBIGSFRlhllll      1      0       0      59        0.0%
BITBIGSFRlhlllh      1      0       0      56        0.0%
BITBIGSFRlhlhhh      1      0       0      46        0.0%
BITBIGSFRlhlhhh      1      0       0      47        0.0%
BITBIGSFRlhlhhl      1      0       0      48        0.0%
BITBIGSFRlhlhl       1      0       0      49        0.0%
BITBIGSFRhhhhhl      1      0       0      42        0.0%
BIGSFR               0      0       0     200        0.0%
BITSFR_8             0      0       0     200        0.0%
SFR_8                0      0       0     200        0.0%
BITSFR_7             0      0       0     200        0.0%
SFR_7                0      0       0     200        0.0%
BITSFR_6             0      0       0     200        0.0%
SFR_6                0      0       0     200        0.0%
BITSFR_5             0      0       0     200        0.0%
SFR_5                0      0       0     200        0.0%
BITSFR_4             0      0       0     200        0.0%
SFR_4                0      0       0     200        0.0%
BITSFR_3             0      0       0     200        0.0%
SFR_3                0      0       0     200        0.0%
BITSFR_2             0      0       0     200        0.0%
SFR_2                0      0       0     200        0.0%
BITSFR_1             0      0       0     200        0.0%
SFR_1                0      0       0     200        0.0%
BITSFR               0      0       0     200        0.0%
SFR                  0      0       0     200        0.0%
STACK                0      0       0       2        0.0%
NULL                 0      0       0       0        0.0%
ABS                  0      0     1B4      77        0.0%
DATA                 0      0     1B4       3        0.0%
CODE                 0      0       0       0        0.0%


Microchip Technology PIC18 Macro Assembler V2.40 build 20220703182018 
Symbol Table                                                                                   Wed Apr 05 15:30:49 2023

                                _SPI1_ByteExchange 000000                                                  _B FFCE  
                           ??_I2C1_DefaultCallback 0008                                    ??_I2C1_IsBusCol 0008  
                                               _DL FFB5                                                 l89 0998  
                                               _NL FFBF                             __end_of_FVR_Initialize 1134  
                                  ??_I2C1_BusReset 0008                        UART1_TransmitISR@tempTxTail 0006  
                                              l221 0BC0                                                l272 0E5E  
                                              l179 10EE                                                l355 0CC4  
                                              l268 0F64                                                l189 1132  
                                              l613 10D0                                                l561 089C  
                                              l482 062E                                                l730 0CF2  
                                              l651 0C2E                                                l583 10E4  
                                              l498 0F94                                                l598 10DA  
                                              l678 10BC                                                l759 10C6  
                                              _DEN FECF                                                l899 06EA  
                                              _GIE 01FE97                                                _PR2 003FAB  
                                              _NUM FF0B                         ??_INT0_SetInterruptHandler 00F6  
                        __end_of_I2C1_DataTransmit 1104                                                tosl 003FFD  
                                              wreg 003FE8                                    __end_of_ADC_int 044C  
                                    _INT0_CallBack 0D22                                     _UART1_IsTxDone 000000  
                     ?_ADCC_SetADIInterruptHandler 01C9                                      _INT1_CallBack 0D7E  
                         _UART1_ParityErrorHandler 00A6                                     _UART1_ErrorGet 000000  
                                  __end_of_IOC_ISR 1142                                   __end_of_I2C1_ISR 0814  
                                             l1022 0F2C                                               l1030 0EF0  
                                             l1026 0F0E                                               l1067 0C5C  
                                             l1412 0F4A                                               l1068 0C5C  
                                             l1512 0FDC                                               l5000 085A  
                                             l1385 0A66                                               l5010 0864  
                                             l5002 085C                                               l5020 0888  
                                             l5012 0866                                               l5004 085E  
                                             l5022 088C                                               l5014 0874  
                                             l5006 0860                                               l5030 0CA4  
                                             l5024 088E                                               l5016 0878  
                                             l5008 0862                                               l3600 05C6  
                                             l5040 0CC0                                               l5032 0CAC  
                                             l5018 087A                                               l3610 05D4  
                                             l3602 05C8                                               l5034 0CB0  
                                             l5026 0C98                                               l3604 05CE  
                                             l5036 0CB4                                               l5028 0CA0  
                                             l5060 0C30                                               l3606 05D0  
                                             l5038 0CB8                                               l5070 0C56  
                                             l5062 0C34                               _ADCC_StartConversion 1098  
                                             l3608 05D2                                               l5072 0C58  
                                             l5064 0C38                                               l3562 0FC8  
                                             l5074 0C5A                                               l5066 0C46  
                                             l5068 0C54                                               l3830 0E46  
                                             l3582 112C                                               l3832 0E5A  
                                             l3592 0F7E                                               l3584 0B8A  
                                             l3834 0E5C                                               l3594 0544  
                                             l3586 0F4C                                               l3828 0E36  
                                             l4820 10E6                                               l3596 05C2  
                                             l3588 0F5E                                               l4900 0CC6  
                                             l4822 10DC                                               l3598 05C4  
                                             l4830 10BE                                               l4902 0CDA  
                                             l4910 0630                                               l4824 10D2  
                                             l4904 0CE8                                               l4832 0F10  
                                             l4840 0ED4                                               l4920 0656  
                                             l4912 0634                                               l4850 0980  
                                             l4826 10C8                                               l4906 0CEC  
                                             l4834 0F24                                               l4842 0EE8  
                                             l4930 066A                                               l4922 065A  
                                             l4914 063E                                               l4852 0984  
                                             l4844 0F2E                                               l4860 0A30  
                                             l4908 0CEE                                               l4828 10B4  
                                             l4836 0EF2                                               l4940 067E  
                                             l4932 066E                                               l4924 065E  
                                             l4916 064C                                               l4854 0992  
                                             l4846 0F42                                               l4870 0A44  
                                             l4862 0A34                                               l4838 0F06  
                                             l4950 0692                                               l4942 0682  
                                             l4934 0672                                               l4926 0662  
                                             l4918 0652                                               l4856 0996  
                                             l4848 0926                                               l4880 0A4E  
                                             l4872 0A46                                               l4864 0A38  
                                             l4960 06C4                                               l4952 0696  
                                             l4944 0686                                               l4936 0676  
                                             l4928 0666                                               l4882 0A50  
                                             l4874 0A48                                               l4866 0A3A  
                                             l4858 0A04                                               l4890 0BFA  
                                             l4970 06DE                                               l4962 06CE  
                                             l4954 069A                                               l4946 068A  
                                             l4938 067A                                               l4884 0A54  
                                             l4876 0A4A                                               l4868 0A3C  
                                             l4980 0820                                               l4892 0C16  
                                             l4972 06E2                                               l4964 06D2  
                                             l4956 06A8                                               l4948 068E  
                                             l4886 0A56                                               l4878 0A4C  
                                             l4990 0850                                               l4982 082A  
                                             l4894 0C24                                               l4974 06E6  
                                             l4966 06D6                                               l4958 06B6  
                                             l4888 0A58                                               l4992 0852  
                                             l4984 0840                                               l4976 0814  
                                             l4896 0C28                                               l4968 06DA  
                                             l4994 0854                                               l4986 0842  
                                             l4978 0816                                               l4898 0C2A  
                                             l4996 0856                                               l4988 084C  
                                             l4998 0858                                  _I2C1_Deinitialize 000000  
                                             u1210 0E46                                               u1211 0E42  
                                             _LATA 003FBA                                               _LATB 003FBB  
                                             _LATC 003FBC                                               _LATD 003FBD  
                                             _LATE 003FBE                                               u2500 0EE8  
                                             u2501 0EE4                                               u2510 0F42  
                                             u2511 0F3E                                               _T2PR 003FAB  
                                             u2525 084A                                               u2526 084C  
                                             u2480 0F24                                               u2481 0F20  
                                             u2490 0F06                                               u2491 0F02  
                                             u2557 0A3E                                               i1l92 10A4  
                                             i2l92 10B2                                               _SPI1 FF8B  
                                             _UART FF47                                               _TMR2 003FAA  
                                             _WPUA 003A41                                               _WPUB 003A51  
                                             _WPUC 003A61                                               _WPUD 003A71  
                                             _WPUE 003A81                                      _INT2_CallBack 0DDA  
                                 __end_of_ADCC_ISR 0926                                   ??_I2C1_ReadStart 0008  
                                  ??_I2C1_StopSend 0009                                               _main 0C30  
                            _Timer2_PeriodCountSet 000000                                               fsr2h 003FDA  
                                             indf2 003FDF                                               fsr1l 003FE1  
                                             fsr2l 003FD9                              ??_ADCC_DefaultADI_ISR 000C  
                        ?_INT2_SetInterruptHandler 01C9                                  fp__SPI1_ByteWrite 0000  
                                             start 00AE                                    _UART1_IsRxReady 000000  
                                  _UART1_IsTxReady 000000                                      ADC_int@result 0033  
                                     ___param_bank 000000                                         _i2c1Status 0035  
                                ??_I2C1_CounterGet 0008                                  ??_I2C1_CounterSet 0008  
                                _Timer_OverflowISR 0A68                                   __end_of_INT0_ISR 0D22  
                                 __end_of_INT1_ISR 0D7E                                   __end_of_INT2_ISR 0DDA  
                                  ?_FVR_Initialize 0001                                  ?_I2C1_BufferClear 0001  
                fp__Timer2_DefaultOverflowCallback 0000                   ??_Timer2_DefaultOverflowCallback 0001  
                  ?_Timer2_DefaultOverflowCallback 0001                                  __end_of_I2C1_Host FF8B  
                                            _ADACT 003EFE                                              _ADCAP 003EF5  
                                            ?_main 0001                                              _ADCLK 003EFF  
                               ?_Timer_OverflowISR 0001                                              _ADCNT 003EEB  
                                            _ADPCH 003EF1                                              _ADREF 003EFD  
                                            _ADRPT 003EEC                   _UART1_TxCompleteCallbackRegister 000000  
                                            _U1P1H 003DED                                              _U1P2H 003DEF  
                                            _U1P1L 003DEC                                              _U1P3H 003DF1  
                                            _U1P2L 003DEE                                              _T2CON 003FAC  
                                            _U1P3L 003DF0                                              _U2P1L 003DD4  
                                            _U2P2L 003DD6                                              _U2P3L 003DD8  
                                            _IOCAF 003A47                                              _T2HLT 003FAD  
                                            _IOCBF 003A57                                              _IOCCF 003A67  
                                            _IOCEF 003A87                                              _IOCAN 003A46  
                                            _IOCBN 003A56                                              _IOCAP 003A45  
                                            _IOCCN 003A66                                              _IOCBP 003A55  
                                            _IOCCP 003A65                                              _IOCEN 003A86  
                                            _IOCEP 003A85                                              _T2TMR 003FAA  
                                            _U1UIR 003DF8                                              i1l305 10F8  
                                            _T2RST 003FAF                                              _U1RXB 003DE8  
                                            i1l182 116C                                              i1l176 08FA  
                                            _U2UIR 003DE0                                              i1l601 1172  
                                            i1l610 0E06                                              _U1TXB 003DEA  
                                            i1l606 0DC6                                              _FIR_p 00B2  
                                            i1l616 1174                                              _U2TXB 003DD2  
                                            i1l571 1140                                              i1l580 0D4E  
                                            i1l485 116E                                              i1l591 0D6A  
                                            i1l576 0D0E                                              i1l586 1170  
                                            i1l595 0DAA                                              i1l739 1164  
                                            i2l742 1168                                              i2l566 1178  
                                            i2l681 117C                                              i2l762 117A  
                                            i2l675 0AAE                                              i2l756 1096  
                                            i1l996 0B08                                              i1l999 0B0A  
                                            i2l982 0B4A                                 ??_I2C1_BufferClear 0008  
                                            _OSCEN 0039DD                                              _TMR0H 003FB7  
                                            _TMR0L 003FB6                                              _TRISA 003FC2  
                                            _TRISB 003FC3                                     ?_INT0_CallBack 0001  
                                            _TRISC 003FC4                                              _TRISD 003FC5  
                                            _TRISE 003FC6                                        _Default_ISR 1178  
                                 ??_I2C1_StartSend 0007                                ___lmul@multiplicand 0010  
                                ??_I2C1_Initialize 00F6              fp__UART1_FramingErrorCallbackRegister 0000  
       __end_of_UART1_FramingErrorCallbackRegister 0F2E               ??_UART1_FramingErrorCallbackRegister 00F6  
              ?_UART1_FramingErrorCallbackRegister 01C9                 _UART1_FramingErrorCallbackRegister 0F10  
                                            _Timer FFA9                                     ?_INT1_CallBack 0001  
                              ??_Timer_OverflowISR 0002                            __end_of_PIN_MANAGER_IOC 1170  
                          ??_I2C1_CallbackRegister 00F6                     ??_INT1_DefaultInterruptHandler 00F6  
                            ?_ADCC_StartConversion 0001                                     fp__UART1_Write 0000  
                                   ?_INT2_CallBack 0001                           _INT1_SetInterruptHandler 10D2  
                         ??_I2C1_InterruptsDisable 0008                                              pclath 003FFA  
                                            pclatu 003FFB                                              tablat 003FF5  
                                      FIR_p@head_i 004D                              I2C1_DataTransmit@data 000B  
                                      FIR_p@coeffs 0018                                        FIR_p@buffer 0158  
                                            status 003FD8                                        FIR_p@tail_i 00E1  
                                      FIR_p@output 0028                                       ??_I2C1_Close 0007  
                               fp__SPI1_Initialize 0000                        ??_UART1_Transmit_Vector_ISR 0007  
                                     __end_of_SPI1 FF9D                                       __end_of_UART FF77  
                                  __initialization 06EC                               _UART1_TransmitEnable 000000  
                        __end_of_Timer_OverflowISR 0ABC                                       __end_of_main 0C64  
                                _I2C1_IsBusTimeOut 100A                   _UART1_RxCompleteInterruptHandler 00A2  
                               ?_I2C1_IsBusTimeOut 0001                                          ??_ADC_int 0030  
                                     ?_UART1_Write 0001                                             ??_main 00F7  
                    i2ADCC_StartConversion@channel 0001                                      __activetblptr 000003  
                                           ?_FIR_p 0018                   __end_of_UART1_Receive_Vector_ISR 0B4C  
                                           FIR_p@i 002C                                          ??_IOC_ISR 00F6  
                              ??_I2C1_IsBusTimeOut 0008                                   _UART1_Initialize 0630  
             I2C1_CallbackRegister@callbackHandler 01C9   UART1_ParityErrorCallbackRegister@callbackHandler 01C9  
UART1_OverrunErrorCallbackRegister@callbackHandler 01C9  UART1_FramingErrorCallbackRegister@callbackHandler 01C9  
                               __end_of_I2C1_Close 0E88                                             _ADACCH 003EE9  
                                           _ADACCL 003EE8                                             _ADACCU 003EEA  
                                           _ADACQH 003EF4                                             _ADACQL 003EF3  
                                           _ADCON0 003EF8                                             _ADCON1 003EF9  
                                           _ADCON2 003EFA                                             _ADCON3 003EFB  
                            _I2C1_InterruptsEnable 0FC8                                             _ADERRH 003EE3  
                                           _ADERRL 003EE2                                             _ADLTHH 003EDF  
                                           _ADLTHL 003EDE                                             _ADRESH 003EF0  
                                           _ADRESL 003EEF                                             _ADPREH 003EF7  
                                           _ADPREL 003EF6                                             _ADSTAT 003EFC  
                                           _ADUTHH 003EE1                                             _ADUTHL 003EE0  
                                 _UART1_ReceiveISR 000000                                             _ANSELA 003A40  
                                           _ANSELB 003A50                                             _ANSELC 003A60  
                                           _ANSELD 003A70                                             _ANSELE 003A80  
                                           _T0CON0 003FB8                                             _T0CON1 003FB9  
                                           _RB1I2C 003A5A                                             _RB2I2C 003A5B  
                                           _RD0I2C 003A7A                                             _U1CON0 003DF2  
                                           _U1CON1 003DF3                                             _U1CON2 003DF4  
                                           _RD1I2C 003A7B                                             _RC3I2C 003A6A  
                                           _RC4I2C 003A6B                                             _U1BRGH 003DF6  
                                           _U1FIFO 003DF7                                             _U2CON0 003DDA  
                                           _U2CON1 003DDB                                             _U1BRGL 003DF5  
                                           _U2CON2 003DDC                                             _U2BRGH 003DDE  
                                           _U2FIFO 003DDF                                             _U2BRGL 003DDD  
                                           _RC3PPS 003A13                                             i1l1101 044A  
                                           i1l1211 0C96                                             _RC4PPS 003A14  
                                           i1l1204 01C6                                             i1l1206 01F2  
                                           i1l1208 030C                                             _RC5PPS 003A15  
                                           _ODCONA 003A42                                             _ODCONB 003A52  
                                           _ODCONC 003A62                                             _RC6PPS 003A16  
                                           _ODCOND 003A72                                             _ODCONE 003A82  
                                           i1l1538 09F2                                             i1l1539 0A02  
                                           i2l1004 1148                                             i1l3500 09D2  
                                           i2l1007 0BF4                                             i1l4216 113C  
                                           i2l1009 0BF8                                             i1l5050 0D0A  
                                           i1l3530 00DA                                             i1l5042 08CA  
                                           i1l5052 0D62                                             i1l3540 0198  
                                           i1l5044 08CE                                             i1l5054 0D66  
                                           i1l3550 020A                                             i1l3542 01B2  
                                           i1l3526 00B2                                             i1l5046 08E2  
                                           i1l5056 0DBE                                             i1l5048 0D06  
                                           i1l3552 026E                                             i1l3544 01BE  
                                           i1l3536 00E2                                             i1l3528 00C2  
                                           i1l5058 0DC2                                             i1l3554 0272  
                                           i1l3546 01DE                                             i1l3538 0190  
                                           i2l1500 1034                                             i1l3580 10A0  
                                           i1l3492 099A                                             i1l3556 028E  
                                           i1l3548 01EA                                             i1l3900 03BE  
                                           i1l3494 09AA                                             i1l3558 02FC  
                                           i1l3590 10F2                                             i1l3910 0426  
                                           i1l3902 03C2                                             i2l1503 101E  
                                           i2l1167 0E34                                             i2l1512 1060  
                                           i2l4000 100A                                             i2l1424 0812  
                                           i1l3496 09B8                                             i1l3912 0444  
                                           i1l3904 03CA                                             i2l1521 1120  
                                           i2l1417 07AA                                             i2l1506 1008  
                                           i1l3578 109A                                             i1l3498 09C8  
                                           i1l3906 03D0                                             i2l1443 0FAE  
                                           i2l1515 1076                                             i2l1435 0508  
                                           i2l1419 07EE                                             i2l1524 112A  
                                           i2l1460 0E86                                             i2l1452 0ED2  
                                           i2l4004 10FC                                             i1l3860 0D92  
                                           i1l3780 1162                                             i1l3908 03F4  
                                           i2l1509 104A                                             i2l1438 0536  
                                           i2l1518 113A                                             i1l3862 0DDA  
                                           i1l3854 0D22                                             i1l3790 0AFA  
                                           i1l3782 0ABE                                             i2l1463 117E  
                                           i2l1448 0FC6                                             i2l1472 1102  
                                           i1l3864 0DEE                                             i1l3856 0D36  
                                           i1l3792 0B00                                             i1l3784 0ACE  
                                           i1l3880 0322                                             i2l1481 1154  
                                           i2l2522 1110                                             i2l1466 115A  
                                           i2l1490 114E                                             i1l3858 0D7E  
                                           i1l3794 0B04                                             i1l3786 0AD8  
                                           i1l3890 035A                                             i1l3882 0328  
                                           i2l1475 1160                                             i2l1484 0B88  
                                           i2l2524 1156                                             i1l3796 0B06  
                                           i1l3788 0AE8                                             i1l3892 0378  
                                           i1l3884 032C                                             i1l3876 030E  
                                           i2l1469 1116                                             i2l1478 110C  
                                           i2l1494 0EAC                                             i2l4310 1144  
                                           i2l2614 1166                                             i1l3798 0C64  
                                           i1l3894 0394                                             i1l3886 0336  
                                           i1l3878 0320                                             i2l4240 0A7E  
                                           i1l3888 033E                                             i1l3896 039E  
                                           i2l1497 0FF2                                             i2l4242 0A84  
                                           i1l3898 03BC                                             i2l4244 0A96  
                                           i2l4236 0A74                                             i2l4270 0B1C  
                                           i2l4238 0A78                                             i2l4600 047C  
                                           i2l4272 0B1E                                             i2l3802 1062  
                                           i2l4602 0490                                             i2l4610 04B4  
                                           i2l3810 1134                                             i2l4274 0B2C  
                                           i2l2930 1088                                             i2l2756 115C  
                                           i2l3484 0F98                                             i2l3804 106C  
                                           i2l4612 04C8                                             i2l4620 04E8  
                                           i2l4604 04A4                                             i2l3812 1118  
                                           i2l4276 0B42                                             i2l4268 0B0C  
                                           i2l2932 1092                                             i2l4630 0FB0  
                                           i2l3486 0FAA                                             i2l4622 04FC  
                                           i2l4614 04DC                                             i2l4606 04A8  
                                           i2l3814 1122                                             i2l3806 114A  
                                           i2l3822 10A8                                             i2l4624 0500  
                                           i2l4616 04E0                                             i2l4608 04AC  
                                           i2l3816 1128                                             i2l3808 1106  
                                           i2l3824 10AE                                             i2l3920 0E2E  
                                           _INLVLA 003A44                                             i2l3826 104C  
                                           i2l4626 050C                                             i2l3930 0E60  
                                           i2l3922 0EAE                                             i2l3818 1150  
                                           i2l4570 07B8                                             i2l3914 0E08  
                                           _INLVLB 003A54                                             _INLVLC 003A64  
                                           i2l4628 051C                                             i2l3932 0E6A  
                                           i2l3924 0EC0                                             i2l3940 0E88  
                                           i2l4580 07DE                                             i2l4572 07C6  
                                           i2l4564 0784                                             i2l3916 0E0E  
                                           _INLVLD 003A74                                             _INLVLE 003A84  
                                           i2l3950 0B4C                                             i2l3934 0E72  
                                           i2l3926 0EC6                                             i2l3942 0E8C  
                                           i2l4590 080E                                             i2l4574 07D6  
                                           i2l4582 07E6                                             i2l4566 0794  
                                           i2l3870 0BE4                                             i2l3918 0E26  
                                           i2l3960 0B60                                             i2l3952 0B50  
                                           i2l4592 0458                                             i2l3936 0E7A  
                                           i2l3928 0ECE                                             i2l3944 0EA0  
                                           i2l4576 07DA                                             i2l4568 07A2  
                                           i2l3872 0BEA                                             i2l3970 0B74  
                                           i2l3962 0B64                                             i2l3954 0B54  
                                           i2l3946 1020                                             i2l4594 046C  
                                           i2l3938 0E82                                             i2l4586 07FC  
                                           i2l4578 07DC                                             i2l3874 0BEE  
                                           i2l3866 0BC2                                             i2l3980 0B7E  
                                           i2l3972 0B76                                             i2l3964 0B68  
                                           i2l3956 0B58                                             i2l4596 0470  
                                           i2l4588 080A                                             i2l3868 0BD2  
                                           i2l3982 0B80                                             i2l3974 0B78  
                                           i2l3966 0B6A                                             i2l3958 0B5C  
                                           i2l4598 0474                                             i2l3984 0B84  
                                           i2l3976 0B7A                                             i2l3968 0B6C  
                                           i2l3992 0FDE                                             i2l3986 0B86  
                                           i2l3978 0B7C                                             i2l3988 1036  
                                           i2l3996 0FF4                                             _FVRCON 003EC1  
                                           _PERIOD 00ED                                             _OSCFRQ 0039DF  
                        __end_of_I2C1_IsBusTimeOut 1020                                      ??_Timer2_Stop 0004  
                                       _Timer2_ISR 1088                                  __end_of_SPI1_Open 0E60  
                                 _UART2_Initialize 0B8A                                             _Timer2 FF9D  
                                           ___lmul 099A                                         _Timer_Stop 000000  
                                        ?_I2C1_ISR 0001                                             clear_0 0752  
                                           clear_1 075E                                             clear_2 076A  
                                           isa$std 000001                            fp__I2C1_DefaultCallback 0000  
                                  ??_INT0_CallBack 00F6                                  ?_CLOCK_Initialize 0001  
                                        ?_ADCC_ISR 0001                                    _ADCC_Initialize 0926  
                        _UART1_Transmit_Vector_ISR 1144               __end_of_INT2_DefaultInterruptHandler 1176  
                     _INT2_DefaultInterruptHandler 1174                                       __pdataCOMRAM 004D  
                                  ??_INT1_CallBack 00F6                                 ??_CLOCK_Initialize 00F6  
                                     __mediumconst FECE                                             tblptrh 003FF7  
                                           tblptrl 003FF6                                             tblptru 003FF8  
            fp__UART1_OverrunErrorCallbackRegister 0000         __end_of_UART1_OverrunErrorCallbackRegister 0F10  
             ??_UART1_OverrunErrorCallbackRegister 00F6                ?_UART1_OverrunErrorCallbackRegister 01C9  
               _UART1_OverrunErrorCallbackRegister 0EF2                             ??_ADCC_StartConversion 000C  
                                  ??_INT2_CallBack 00F6           INT2_SetInterruptHandler@InterruptHandler 01C9  
         INT1_SetInterruptHandler@InterruptHandler 01C9           INT0_SetInterruptHandler@InterruptHandler 01C9  
      ADCC_SetADIInterruptHandler@InterruptHandler 01C9                                   ?_PIN_MANAGER_IOC 0001  
                          _Timer2_OverflowCallback 00AE                                  _UART1_AutoBaudSet 000000  
                                _SYSTEM_Initialize 0C98                                    fp__Timer2_Start 0000  
                                    ??_I2C1_RX_ISR 000B                                         __accesstop 0060  
                          __end_of__initialization 077C                                      ??_I2C1_TX_ISR 000C  
                                    ??_I2C1_IsAddr 0008                                      ??_I2C1_IsData 0008  
                                        ?_INT0_ISR 0001                                          FIR@buffer 0100  
                                    ??_I2C1_IsNack 0008                                          ?_INT1_ISR 0001  
                                        ?_INT2_ISR 0001                                     _SPI1_ByteWrite 10F0  
                               ?_SYSTEM_Initialize 0001                                      ___rparam_used 000001  
                   UART1_Receive_Vector_ISR@mesage 00EB                                      __end_of_FIR_p 030E  
                   UART1_Receive_Vector_ISR@status 0046                                   UART_RX_int@Value 00BE  
                                 UART_RX_int@TypeV 0043                                     __pcstackCOMRAM 0001  
                                    __end_of_Timer FFB5                                  __end_of_FilterFIR 0C98  
                                     __pidataBANK0 0F66                                       __pidataBANK1 1078  
                              ??_SYSTEM_Initialize 00F7                              _UART1_TransmitDisable 000000  
                                   ivt0x8_undefint 00AC                                  ??_SPI1_Initialize 00F6  
                                        FIR_p@head 00E5                                          FIR_p@tail 00E3  
                                       ??_I2C1_ISR 0008                                __end_of_Timer2_Stop 116A  
                                       __end_of_DL FFBF                                         __end_of_NL FFC9  
                                       ??_ADCC_ISR 00EF                                 _spi1_configuration FFC9  
                                          ??_FIR_p 001C                                          IIR_p1@W_i 00DB  
                                        IIR_p1@X_i 00DD                                          IIR_p2@W_i 00D7  
                                        IIR_p2@X_i 00D9                   __end_of_INT2_SetInterruptHandler 10D2  
                        _UART1_FramingErrorHandler 00AA                    fp__INT2_DefaultInterruptHandler 0000  
                    ?_INT2_DefaultInterruptHandler 0001                             ?_I2C1_InterruptsEnable 0001  
                      ADCC_StartConversion@channel 000C                           _UART1_Receive_Vector_ISR 0B0C  
                        __end_of_SYSTEM_Initialize 0CC6                                         __pbssBANK0 0060  
                                       __pbssBANK1 0100                             __end_of_SPI1_ByteWrite 10FA  
                            _INT0_InterruptHandler 00B8                                         ??_INT0_ISR 01C0  
                                       ??_INT1_ISR 01C3                                         ??_INT2_ISR 01C6  
                                  _I2C1_CounterGet 1150                                    _I2C1_CounterSet 1104  
                                          IIR_p1@W 00CB                                            IIR_p1@X 01A4  
                                          IIR_p1@Y 0094                                            IIR_p2@W 00BF  
                                          IIR_p2@X 0198                                            IIR_p2@Y 0090  
                                          IVTBASEH 003FD6                                            IVTBASEL 003FD5  
                                          IVTBASEU 003FD7                                 _UART1_Deinitialize 000000  
                                __end_of_Timer_int 0E36                                        ?_Timer2_ISR 0001  
                                    ?_Timer2_Start 0001                                   ??_FVR_Initialize 00F6  
                              __end_of_I2C1_RX_ISR 0FB0                                __end_of_I2C1_TX_ISR 0FC8  
                              __end_of_I2C1_IsAddr 104C                                __end_of_I2C1_IsData 100A  
                              __end_of_I2C1_IsNack 0FF4                                            ?___lmul 000C  
                                          _I2C1CLK 003D7B                                            _I2C1CNT 003D6C  
                                          _I2C1ERR 003D76                                            _I2C1PIE 003D7A  
                                          _I2C1PIR 003D79                                            _I2C1RXB 003D6A  
                                          _I2C1TXB 003D6B                            __end_of_ADCC_Initialize 099A  
                                  _I2C1_Initialize 0A04                                            _ADFLTRH 003EE7  
                                          _ADFLTRL 003EE6                             _I2C1_InterruptsDisable 1062  
                                   ___lmul@product 0014                                            _ADPREVH 003EEE  
                                          _ADPREVL 003EED                              __end_of_I2C1_IsBusCol 1036  
                                          _ADSTPTH 003EE5                                            _ADSTPTL 003EE4  
                                          _ADC_int 030E                              __end_of_I2C1_BusReset 0B8A  
                                          _U1ERRIE 003DFA                                            _U1ERRIR 003DF9  
                                          _U2ERRIE 003DE2                                            _U2ERRIR 003DE1  
                                        _I2C1STAT1 003D78                         ??_INT1_SetInterruptHandler 00F6  
                                     ?_Default_ISR 0001                                            _U1RXCHK 003DE9  
                                          _U1TXCHK 003DEB                                            _IOC_ISR 113C  
                                          _U1RXPPS 003AE5                                          _I2C1_Read 000000  
                                        _I2C1_Host FF77                                            _OSCCON1 0039D9  
                                          _OSCCON3 0039DB                                            _IVTLOCK 003FD4  
                          i2_I2C1_InterruptsEnable 104C                                            _SPI1CLK 003D1C  
                                          _SPI1RXB 003D10                                            _SPI1TXB 003D11  
                                          _OSCTUNE 0039DE                                            _SLRCONA 003A43  
                                          _SLRCONB 003A53                                            _SLRCONC 003A63  
                                          _SLRCOND 003A73                                            _SLRCONE 003A83  
                      __end_of_ADCC_DefaultADI_ISR 116E                                fp__UART1_Initialize 0000  
           __end_of_Timer2_DefaultOverflowCallback 117C                     _Timer2_DefaultOverflowCallback 117A  
                    __end_of_I2C1_CallbackRegister 0F4C                                    ?_SPI1_ByteWrite 0001  
                        ?_INT0_SetInterruptHandler 01C9                          INTERRUPT_Initialize@state 00F6  
                            __end_of_I2C1_StopSend 0EAE                                     Timer_int@count 00A0  
                                   ??_Timer2_Start 000C                                            __Hparam 0000  
                                          __Lparam 0000                           __end_of_UART1_Initialize 06EC  
                                      _Timer2_Stop 1166                           ??i2_ADCC_StartConversion 0001  
                     __end_of_I2C1_InterruptsClear 113C                                            __pcinit 06EC  
                                          __ramtop 1000                                            __ptext0 0C30  
                                          __ptext1 0C98                                            __ptext2 0B8A  
                                          __ptext3 0630                                            __ptext4 0ED4  
                                          __ptext5 0EF2                                            __ptext6 0F10  
                                          __ptext7 0BFA                                            __ptext8 10B4  
                                          __ptext9 0CC6                                        _Timer_Start 000000  
                                        _T2CONbits 003FAC                                         fp__ADC_int 0000  
                              _I2C1_RestartDisable 114A                                        _I2C1ERRbits 003D76  
                          _timerTMR0ReloadVal16bit 00B2                           ??_PIN_MANAGER_Initialize 00F6  
                                      _I2C1PIEbits 003D7A                                          _T2HLTbits 003FAD  
                         __end_of_UART2_Initialize 0BC2                                        _I2C1PIRbits 003D79  
                          __end_of_I2C1_CounterGet 1156                            __end_of_I2C1_CounterSet 110E  
  Timer2_OverflowCallbackRegister@InterruptHandler 01C9                               end_of_initialization 077C  
                                        _U1UIRbits 003DF8                                          _T2RSTbits 003FAF  
                         _INT2_SetInterruptHandler 10C8                     ??_INT2_DefaultInterruptHandler 00F6  
                                      _I2C1_RX_ISR 0F98                                        _I2C1_TX_ISR 0FB0  
                                      _I2C1_IsAddr 1036                                        _I2C1_IsData 0FF4  
                                      _I2C1_IsNack 0FDE                                        _I2C1_IsBusy 000000  
                            I2C1_AddrTransmit@addr 0007                               ?_I2C1_RestartDisable 0001  
                          __end_of_I2C1_Initialize 0A68                                   _Timer_Initialize 0BFA  
                                  _SPI1_BufferRead 000000                                          _SPI1TCNTL 003D12  
                                          postdec1 003FE5                                            postdec2 003FDD  
                                          postinc0 003FEE                                            postinc2 003FDE  
                                 _I2C1_DataReceive 115C                                  _Timer2_Initialize 0CC6  
                                 ?_ADCC_Initialize 0001                                          _SPI1_Open 0E36  
                                UART1_Write@txData 000D                   _UART1_DefaultParityErrorCallback 000000  
                               ?_Timer2_Initialize 0001                              _INT1_InterruptHandler 00B6  
                              _SPI1_BufferExchange 000000                              UART_RX_int@OperationV 0044  
                        ??i2_I2C1_InterruptsEnable 0008                  fp__Timer_OverflowCallbackRegister 0000  
                 ??_Timer_OverflowCallbackRegister 00F6                    ?_Timer_OverflowCallbackRegister 01C9  
              __end_of_ADCC_SetADIInterruptHandler 10F0                        _ADCC_SetADIInterruptHandler 10E6  
    Timer_OverflowCallbackRegister@CallbackHandler 01C9                                          _TRISCbits 003FC4  
                              ??_Timer2_Initialize 00F6                   _UART1_TxCompleteInterruptHandler 00A4  
                                _UART1_TransmitISR 0BC2                      ??_ADCC_SetADIInterruptHandler 00F6  
                                UART_RX_int@Addres 0042                                    _SPI1_Initialize 0F4C  
                  ??_Timer_DefaultOverflowCallback 0001                              ??_I2C1_RestartDisable 0008  
                               ?_UART1_TransmitISR 0001                             _Timer_OverflowCallback 00B0  
                         fp__I2C1_CallbackRegister 0000                          __end_of_Timer2_Initialize 0CF4  
                              ??_UART1_TransmitISR 0006                                     __end_of_Timer2 FFA9  
                     __end_of_INTERRUPT_Initialize 089E                                     _I2C1_ERROR_ISR 044C  
             __end_of_INT0_DefaultInterruptHandler 1172                       _INT0_DefaultInterruptHandler 1170  
                                       ?_SPI1_Open 0001                                     __end_of___lmul 0A04  
                                    __pidataCOMRAM 116A                                          _FilterFIR 0C64  
                                UART_RX_int@status 0045                         ??_UART1_Receive_Vector_ISR 0004  
                          ??_I2C1_InterruptsEnable 00F6                              __end_of_INT0_CallBack 0D50  
                                       FIR_p@input 001A                                start_initialization 06EC  
                             __end_of_Timer2_Start 1166                                        __end_of_DEN FF0B  
                                      __end_of_NUM FF47                              __end_of_INT1_CallBack 0DAC  
                                 ?_I2C1_CounterGet 0001                                   ?_I2C1_CounterSet 0001  
                        __end_of_UART1_TransmitISR 0BFA                                         ivt0x8_base 0008  
                            __end_of_INT2_CallBack 0E08                                   _I2C1_BufferClear 1122  
                                    _uart1RxBuffer 0088                               _I2C1_InterruptsClear 1134  
                                    _uart1TxBuffer 0140                                   ?_I2C1_Initialize 0001  
                                     ??_Timer2_ISR 0004                             __end_of_I2C1_ERROR_ISR 0544  
                          ?_I2C1_InterruptsDisable 0001                                           ??___lmul 0014  
                                        _Timer_int 0E08                                        __pdataBANK0 00D7  
                                      __pdataBANK1 01B0                 fp__Timer2_OverflowCallbackRegister 0000  
          __end_of_Timer2_OverflowCallbackRegister 10C8                  ??_Timer2_OverflowCallbackRegister 00F6  
                 ?_Timer2_OverflowCallbackRegister 01C9                    _Timer2_OverflowCallbackRegister 10BE  
                                       ?_FilterFIR 002E                                           ?_ADC_int 0001  
                  fp__INT0_DefaultInterruptHandler 0000                      ?_INT0_DefaultInterruptHandler 0001  
                     __end_of_I2C1_ErrorFlagsClear 1122                                     fp__Timer2_Stop 0000  
                                    _SPI1_ByteRead 000000                                           FIR@index 009E  
                                         ?_IOC_ISR 0001                                           FIR@inpar 009C  
                                      __pbssCOMRAM 0035                   __end_of_INT0_SetInterruptHandler 10E6  
                                    __pcstackBANK0 00EF                                      __pcstackBANK1 01C0  
                                 ??_SPI1_ByteWrite 000C                            __end_of_SPI1_Initialize 0F66  
                         _UART1_RxInterruptHandler 00BA                                 __end_of_Timer2_ISR 1098  
                           i2_ADCC_StartConversion 10A6                                          __end_of_B FFFE  
                     __end_of_I2C1_DefaultCallback 1180                              ?_I2C1_InterruptsClear 0001  
                            _INT2_InterruptHandler 00B4                                          __pnvBANK0 00F7  
                   __end_of_I2C1_InterruptsDisable 1078                             fp__ADCC_DefaultADI_ISR 0000  
                           _PIN_MANAGER_Initialize 0544                                       ?_Timer2_Stop 0001  
                                  ?_I2C1_ERROR_ISR 0001                                  ?_UART1_Initialize 0001  
                                   _I2C1_ReadStart 0EAE              __end_of_Timer_DefaultOverflowCallback 117E  
                    _Timer_DefaultOverflowCallback 117C                                      __pmediumconst FECE  
                                       ?_Timer_int 0001                                           _I2C1ADB1 003D6E  
                            UART1_Write@tempTxHead 000C                                 ??_UART1_Initialize 00F6  
                                      ??_SPI1_Open 00F6                                           _I2C1CON0 003D73  
                                         _I2C1CON1 003D74                                           _I2C1CON2 003D75  
                              fp__Timer_Initialize 0000                                           _I2C1_ISR 0784  
                                 _uart1RxLastError 00AC                                      ??_UART1_Write 000C  
                                         _ADCC_ISR 08A0                         ??_INT2_SetInterruptHandler 00F6  
                         __end_of_Timer_Initialize 0C30                             I2C1_CounterSet@counter 0008  
                                ?_UART2_Initialize 0001                           __end_of_I2C1_DataReceive 1162  
                                         _T2CLKCON 003FAE                                        _U1ERRIRbits 003DF9  
                               ??_UART2_Initialize 00F6                               _INTERRUPT_Initialize 0814  
                                       _I2C1SDAPPS 003AE2                                         _I2C1SCLPPS 003AE1  
                                 _CLOCK_Initialize 0F7E                                     _I2C1_StartSend 1156  
                                     ?_I2C1_RX_ISR 0001                                           _INT0_ISR 0CF4  
                                     ?_I2C1_TX_ISR 0001                                           _INT1_ISR 0D50  
                                     ?_I2C1_IsAddr 0001                                           _INT2_ISR 0DAC  
                                     ?_I2C1_IsData 0001                                           _LATBbits 003FBB  
                                   FilterFIR@input 002E                                       ?_I2C1_IsNack 0001  
                                         _LATEbits 003FBE                   _UART1_RxCompleteCallbackRegister 000000  
                            _I2C1_CallbackRegister 0F2E                          ?_INT1_SetInterruptHandler 01C9  
                                         _IPR0bits 003980                                           _IPR1bits 003981  
                                         _IPR2bits 003982                                           _IPR3bits 003983  
                                         _PIE1bits 003991                                           _IPR4bits 003984  
                                         _PIE2bits 003992                                           _PIE3bits 003993  
                                         _PIE4bits 003994                                           i1u112_20 01B2  
                                         i1u120_20 0C88                                           i1u112_21 01AE  
                                         i1u120_25 0C7E                                           i1u113_20 01DE  
                                         i1u113_21 01DA                                         _I2C1_Close 0E60  
                                         i1u122_20 0D36                                           i1u114_20 020A  
                                         i1u122_21 0D32                                           i1u114_21 0206  
                                         i1u130_25 0400                                           i1u107_20 09B8  
                                         i1u115_20 028E                                           i1u107_21 09B4  
                                         i1u115_21 028A                                           i1u124_20 0D92  
                                         i1u123_28 0D3C                                           i1u108_20 09F2  
                                         i1u124_21 0D8E                                           i1u123_29 0D4E  
                                         i1u108_21 09EE                                           i1u126_20 0DEE  
                                         i1u125_28 0D98                                           i1u118_20 0ACE  
                                     _SPI1CON0bits 003D14                                           i1u126_21 0DEA  
                                         i1u125_29 0DAA                                           i1u118_21 0ACA  
                                         _IVTBASEH 003FD6                                           i1u119_20 0AE8  
                                         i1u119_21 0AE4                                           _IVTBASEL 003FD5  
                                         i1u127_28 0DF4                                           i1u127_29 0E06  
                           __end_of_I2C1_ReadStart 0ED4                                           _IVTBASEU 003FD7  
                                         i1u129_20 0320                                           i1u129_21 031C  
                                         i1u253_20 08E2                                           i1u253_21 08DE  
                                         i1u254_28 08E8                                           i1u254_29 08FA  
                                         i2u210_40 07D6                                           i2u210_41 07D2  
                                         i2u211_40 07FC                                           i2u131_40 0E26  
                                         i2u211_41 07F8                                           i2u131_41 0E22  
                                         i2u132_40 0EC0                                           i2u212_40 080A  
                                         i2u132_41 0EBC                                           i2u212_41 0806  
                                         i2u220_48 0522                                           i2u213_40 046C  
                                         i2u133_40 0EA0                                           i2u220_49 0536  
                                         i2u213_41 0468                                           i2u133_41 0E9C  
                                         i2u134_40 1032                                           i2u214_40 0490  
                                         i2u206_40 0794                                           i2u134_41 102C  
                                         i2u214_41 048C                                           i2u206_41 0790  
                                         i2u134_46 1034                                           i2u135_40 1048  
                                         i2u215_40 04A4                                           i2u207_40 07A2  
                                         i2u135_41 1042                                           i2u215_41 04A0  
                                         i2u207_41 079E                                           i2u136_40 104A  
                                         i2u216_40 04C8                                           i2u208_40 07B8  
                                         i2u128_40 0BD2                                           i2u216_41 04C4  
                                         i2u208_41 07B4                                           i2u128_41 0BCE  
                                         i2u137_40 0FF0                                           i2u217_40 04DC  
                                         i2u209_40 07C6                                           i2u137_41 0FEA  
                                         i2u217_41 04D8                                           i2u209_41 07C2  
                                         i2u137_46 0FF2                                           i2u138_40 1006  
                                         i2u218_40 04FC                                           i2u138_41 1000  
                                         i2u218_41 04F8                                           i2u138_46 1008  
                                         i2u139_40 101C                                           i2u219_40 051C  
                                         i2u139_41 1016                                           i2u219_41 0518  
                                         i2u139_46 101E                                           i2u181_40 0A96  
                                         i2u181_41 0A92                                      _I2C1STAT0bits 003D77  
                                         i2u182_48 0A9C                                           i2u182_49 0AAE  
                                    _I2C1STAT1bits 003D78                                           i2u184_40 0B1C  
                                         i2u184_41 0B18                                           i2u256_47 0B6E  
                                         _PIR1bits 0039A1                                           _PIR2bits 0039A2  
                                         _SPI1BAUD 003D19                                           _PIR3bits 0039A3  
                                         _PIR4bits 0039A4                                           _SPI1CON0 003D14  
                                         _SPI1CON1 003D15                                           _SPI1CON2 003D16  
                                         _PIR5bits 0039A5                                         _I2C1_Write 000000  
                                         _PIR7bits 0039A7                                     _I2C1_WriteRead 000000  
                                ??_PIN_MANAGER_IOC 00F6                                        ??_FilterFIR 0030  
                                       _ADCON0bits 003EF8                                         _ADCON1bits 003EF9  
                                       _ADCON2bits 003EFA                                         _ADCON3bits 003EFB  
                   ??_INT0_DefaultInterruptHandler 00F6                                __end_of_UART1_Write 0B0C  
                                 ?_SPI1_Initialize 0001                                        _INTCON0bits 003FD2  
                                ___lmul@multiplier 000C                                          copy_data0 0700  
                                        copy_data1 0722                              ?_INTERRUPT_Initialize 0001  
                           __end_of_I2C1_StartSend 115C                             ??_I2C1_InterruptsClear 0008  
                         _INT0_SetInterruptHandler 10DC                             _uart1TxBufferRemaining 004A  
                                     fp__SPI1_Open 0000             __end_of_Timer_OverflowCallbackRegister 10BE  
                   _Timer_OverflowCallbackRegister 10B4                               _I2C1_ErrorFlagsClear 1118  
                                     _uart1RxCount 0047                                         _ADSTATbits 003EFC  
                                         __Hrparam 0000                                    ?_I2C1_ReadStart 0001  
                                     _Timer2_Start 1162                                           __Lrparam 0000  
                               SPI1_ByteWrite@byte 000C                                        ??_Timer_int 0002  
                                    _I2C1_Callback 0098                           __end_of_I2C1_BufferClear 112C  
                             _I2C1_DefaultCallback 117E                   fp__Timer_DefaultOverflowCallback 0000  
                   ?_Timer_DefaultOverflowCallback 0001                                      _I2C1_IsBusCol 1020  
                                    _I2C1_BusReset 0B4C                  _UART1_DefaultFramingErrorCallback 000000  
                                       _T0CON0bits 003FB8                                           _char_hex 01B0  
                    __end_of_I2C1_InterruptsEnable 0FDE                                       _I2C1CON0bits 003D73  
                                     _I2C1CON1bits 003D74                                           __pivt0x8 0008  
                                    _I2C1_ErrorGet 000000                                           __ptext10 10BE  
                                         __ptext11 0F4C                                           __ptext20 112C  
                                         __ptext12 0544                                           __ptext21 0F7E  
                                         __ptext13 0814                                           __ptext30 10F0  
                                         __ptext22 0926                                           __ptext14 10C8  
                                         __ptext31 0C64                                           __ptext23 10E6  
                                         __ptext15 10D2                                           __ptext40 0D50  
                                         __ptext32 00B2                                           __ptext24 0E36  
                                         __ptext16 10DC                                           __ptext41 0D7E  
                                         __ptext33 099A                                           __ptext25 08A0  
                                         __ptext17 0A04                                           __ptext50 0E08  
                                         __ptext42 1172                                           __ptext34 1098  
                                         __ptext26 116C                                           __ptext18 0FC8  
                                         __ptext51 10A6                                           __ptext43 0DAC  
                                         __ptext35 113C                                           __ptext27 030E  
                                         __ptext19 0F2E                                           __ptext60 10FA  
                                         __ptext52 1088                                           __ptext44 0DDA  
                                         __ptext36 116E                                           __ptext28 0ABC  
                                         __ptext61 1150                                           __ptext53 1166  
                                         __ptext45 1174                                           __ptext37 0CF4  
                                         __ptext29 1162                                           __ptext70 044C  
                                         __ptext62 0EAE                                           __ptext54 0B0C  
                                         __ptext46 1178                                           __ptext38 0D22  
                                         __ptext71 0FDE                                           __ptext63 1156  
                                         __ptext55 1144                                           __ptext47 0A68  
                                         __ptext39 1170                                           __ptext80 0F98  
                                         __ptext72 0FF4                                           __ptext64 1104  
                                         __ptext56 0BC2                                           __ptext48 117A  
                                         __ptext81 115C                                           __ptext73 100A  
                                         __ptext65 110E                                           __ptext57 0784  
                                         __ptext49 117C                                           __ptext82 0FB0  
                                         __ptext74 1020                                           __ptext66 0E60  
                                         __ptext58 0E88                                           __ptext83 0000  
                                         __ptext75 1036                                           __ptext67 1134  
                                         __ptext59 114A                                           __ptext76 117E  
                                         __ptext68 1118                                           __ptext77 0B4C  
                                         __ptext69 1122                                           __ptext78 104C  
                                         __ptext79 1062                                         _U1CON0bits 003DF2  
                                       _U1CON1bits 003DF3                        __end_of_I2C1_RestartDisable 1150  
                                  ?_I2C1_StartSend 0001                             ?_I2C1_CallbackRegister 01C9  
                                _I2C1_AddrTransmit 110E                              ?_I2C1_ErrorFlagsClear 0001  
                       ?_UART1_Transmit_Vector_ISR 0001                                        ?_I2C1_Close 0001  
                               ?_I2C1_AddrTransmit 0001                                        _IVTLOCKbits 003FD4  
                                    _I2C1_StopSend 0E88                          _UART1_OverrunErrorHandler 00A8  
                        _ADCC_ADI_InterruptHandler 00F7                                           isa$xinst 000000  
                     __end_of_ADCC_StartConversion 10A6                               _Timer_PeriodCountSet 000000  
                         ?i2_I2C1_InterruptsEnable 0001                                ??_I2C1_AddrTransmit 0007  
                            ?_I2C1_DefaultCallback 0001                                     ?_I2C1_IsBusCol 0001  
                                      _UART1_Write 0ABC               __end_of_INT1_DefaultInterruptHandler 1174  
                     _INT1_DefaultInterruptHandler 1172                                     ?_I2C1_BusReset 0001  
                                    ??_Default_ISR 0001                                        _uart1RxHead 0049  
                          ?i2_ADCC_StartConversion 0001                                        _uart1TxHead 004C  
                                      _uart1RxTail 0048                                        _uart1TxTail 004B  
                                       _FVRCONbits 003EC1                               fp__Timer2_Initialize 0000  
                           ??_INTERRUPT_Initialize 00F6                                     FIR_p@endBuffer 00E7  
                                         intlevel1 0000                                           intlevel2 0000  
                        __end_of_I2C1_AddrTransmit 1118                                       fp__Timer_int 0000  
                        ?_UART1_Receive_Vector_ISR 0001                                   ??_I2C1_ERROR_ISR 0009  
                          ?_PIN_MANAGER_Initialize 0001                                     ?_I2C1_StopSend 0001  
                                     FilterIIR@F36 0150                                       FilterIIR@W_1 007C  
                                     FilterIIR@W_2 0070                  __end_of_UART1_Transmit_Vector_ISR 114A  
                              _uart1RxStatusBuffer 0060                                         _SPI1SDIPPS 003ADF  
                                       _SPI1SCKPPS 003ADE                                         _UART1_Read 000000  
                                 _SPI1_BufferWrite 000000                                     FIR_p@indexHead 009A  
                             fp__UART1_TransmitISR 0000                                     FIR_p@indexTail 00DF  
                               fp__I2C1_Initialize 0000                           __end_of_CLOCK_Initialize 0F96  
                                       _SPI1_Close 000000                                     _FVR_Initialize 112C  
                   __end_ofi2_ADCC_StartConversion 10B4                    fp__INT1_DefaultInterruptHandler 0000  
                    ?_INT1_DefaultInterruptHandler 0001                                _ADCC_DefaultADI_ISR 116C  
                 __end_of_INT1_SetInterruptHandler 10DC                  _UART1_DefaultOverrunErrorCallback 000000  
                                _I2C1_DataTransmit 10FA                                  ?_Timer_Initialize 0001  
                         _UART1_TxInterruptHandler 00BC                                __end_of_Default_ISR 117A  
                               ?_I2C1_DataTransmit 0001                                 ??_Timer_Initialize 01CB  
                                ?_I2C1_DataReceive 0001                     __end_of_PIN_MANAGER_Initialize 0630  
                                ??_ADCC_Initialize 00F6                             ??_I2C1_ErrorFlagsClear 0008  
             fp__UART1_ParityErrorCallbackRegister 0000          __end_of_UART1_ParityErrorCallbackRegister 0EF2  
              ??_UART1_ParityErrorCallbackRegister 00F6                 ?_UART1_ParityErrorCallbackRegister 01C9  
                _UART1_ParityErrorCallbackRegister 0ED4                                 ??_I2C1_DataReceive 000B  
                                  _PIN_MANAGER_IOC 116E                                _UART1_AutoBaudQuery 000000  
                              ??_I2C1_DataTransmit 000B                               ?_ADCC_DefaultADI_ISR 0001  
                  __end_ofi2_I2C1_InterruptsEnable 1062                         __end_of_spi1_configuration FFCE  
                                 FIR_p@startBuffer 00E9  
