Microchip MPLAB XC8 Compiler V2.40

Linker command line:

-W-3 \
  --edf=C:\Program Files\Microchip\xc8\v2.40\pic\dat\20220703182018_en.msgs \
  -pivt0x8=08h -cn -h+dist/default/production\Practica_2a.X.production.sym \
  --cmf=dist/default/production\Practica_2a.X.production.cmf -z -Q18F46K42 \
  -oC:\Users\rrtc2\AppData\Local\Temp\xcAs8as.4 --defsym=__MPLAB_BUILD=1 \
  --fixupoverflow=error \
  -Mdist/default/production/Practica_2a.X.production.map \
  --md=C:\Users\rrtc2\AppData\Local\Temp\xcAs8as.dat -E1 -ver=XC8 Compiler \
  --acfsm=1493 -ACODE=00h-0FFFFh -ACONST=00h-0FFFFh \
  -ASMALLCONST=01000h-010FFhx240 -AMEDIUMCONST=01000h-0FFFFh \
  -ACOMRAM=01h-05Fh -AABS1=00h-0FFFh -ABIGRAM=01h-0FFFh \
  -ARAM=060h-0FFh,0100h-01FFhx15 -ABANK0=060h-0FFh -ABANK1=0100h-01FFh \
  -ABANK2=0200h-02FFh -ABANK3=0300h-03FFh -ABANK4=0400h-04FFh \
  -ABANK5=0500h-05FFh -ABANK6=0600h-06FFh -ABANK7=0700h-07FFh \
  -ABANK8=0800h-08FFh -ABANK9=0900h-09FFh -ABANK10=0A00h-0AFFh \
  -ABANK11=0B00h-0BFFh -ABANK12=0C00h-0CFFh -ABANK13=0D00h-0DFFh \
  -ABANK14=0E00h-0EFFh -ABANK15=0F00h-0FFFh \
  -ASFR=03800h-038FFhx7,03F00h-03F5Fh,03F60h-03FFFh -ABIGSFR=03800h-03FFFh \
  -ACONFIG=0300000h-0300009h -AIDLOC=0200000h-020000Fh \
  -AEEDATA=0310000h-03103FFh -peeprom_data=EEDATA -preset_vec=00h \
  -ppowerup=CODE,init -pramtop=01000h -psmallconst=SMALLCONST \
  -pmediumconst=MEDIUMCONST -pconst=CONST -AFARRAM=00h-00h \
  -prdata=COMRAM,nvrram=COMRAM,nvbit=COMRAM,rbss=COMRAM,rbit=COMRAM \
  -pfarbss=FARRAM,fardata=FARRAM,nvFARRAM=FARRAM \
  -pintsave_regs=BIGRAM,bigbss=BIGRAM,bigdata=BIGRAM -pbss=RAM \
  -pidata=CODE,irdata=CODE,ibigdata=CODE,ifardata=CODE -prparam=COMRAM \
  C:\Users\rrtc2\AppData\Local\Temp\xcAs8as.o \
  dist/default/production\Practica_2a.X.production.o 

Object code version is 3.11

Machine type is 18F46K42



                Name                               Link     Load   Length Selector   Space Scale
C:\Users\rrtc2\AppData\Local\Temp\xcAs8as.o
                idloc                            200000   200000       10        0       5
                config                           300000   300000        A        0       4
                init                                 AE       AE        4        4       0
                reset_vec                             0        0        4        0       0
dist/default/production\Practica_2a.X.production.o
                idloc                            200000   200000       10        0       5
                config                           300000   300000        A        0       4
                smallconst                         1000     1000       6A      800       0
                ivt0x8                                8        8       A6        4       0
                text76                             1F12     1F12        2      7BE       0
                text75                             1F10     1F10        2      7BE       0
                text74                             128E     128E       F0      41B       0
                text73                             1940     1940       3E      61C       0
                text72                             1B4E     1B4E       2E      6C8       0
                text71                             1F0E     1F0E        2      7BE       0
                text70                             17CC     17CC       52      5F3       0
                text69                             1F0C     1F0C        2      7BE       0
                text68                             1E52     1E52        E      728       0
                text67                             1EC4     1EC4        A      728       0
                text66                             181E     181E       50      5F3       0
                text65                             1464     1464       E2      4E0       0
                text64                             1F0A     1F0A        2      7BE       0
                text63                             1870     1870       4A      61C       0
                text62                             197E     197E       3A      61C       0
                text61                             1A28     1A28       36      68A       0
                text60                             1F08     1F08        2      7BE       0
                text59                             1BD4     1BD4       2C      6C8       0
                text58                             1B20     1B20       2E      6C8       0
                text57                             1F06     1F06        2      7BE       0
                text56                             1BA8     1BA8       2C      6C8       0
                text55                             1AF0     1AF0       2E      6BC       0
                text54                             1F04     1F04        2      7BE       0
                text53                             1B7C     1B7C       2C      6C8       0
                text52                             1AC0     1AC0       2E      6B0       0
                text51                             1F02     1F02        2      7BE       0
                text50                             1EF8     1EF8        6      7BE       0
                text49                             1CC4     1CC4       24      728       0
                text48                             1EF0     1EF0        6      728       0
                text47                             1CA0     1CA0       24      728       0
                text46                             1E2C     1E2C       16      728       0
                text45                             1E16     1E16       16      728       0
                text44                             1902     1902       3E      61C       0
                text43                             1F00     1F00        2      7BE       0
                text42                             1E00     1E00       16      728       0
                text41                             1DEA     1DEA       16      728       0
                text40                             1DD4     1DD4       16      728       0
                text39                             1DBE     1DBE       16      728       0
                text38                             1DA8     1DA8       16      728       0
                text37                             106C     106C      132      41B       0
                text36                             1EBA     1EBA        A      728       0
                text35                             1EB0     1EB0        A      728       0
                text34                             1ED6     1ED6        8      728       0
                text33                             1C2A     1C2A       28      6C8       0
                text32                             1EA6     1EA6        A      728       0
                text31                             1E9C     1E9C        A      728       0
                text30                             1EEA     1EEA        6      728       0
                text29                             1C78     1C78       26      6C8       0
                text28                             1EE4     1EE4        6      728       0
                text27                             1E92     1E92        A      728       0
                text26                             1EDE     1EDE        6      728       0
                text25                             1C52     1C52       26      6C8       0
                text24                             1380     1380       E4      4E0       0
                text23                             1C00     1C00       2A      6C8       0
                text22                             1E88     1E88        A      728       0
                text21                             168A     168A       74      4E0       0
                text20                             1D7A     1D7A       18      728       0
                text19                             1ECE     1ECE        8      728       0
                text18                             18BA     18BA       48      61C       0
                text17                             1D42     1D42       1E      728       0
                text16                             1D92     1D92       16      728       0
                text15                             1766     1766       64      4E0       0
                text14                             1E7E     1E7E        A      728       0
                text13                             1E74     1E74        A      728       0
                text12                             1E6A     1E6A        A      728       0
                text11                             1602     1602       88      4E0       0
                text10                             119E     119E       F0      41B       0
                text9                              1D60     1D60       1A      728       0
                text8                              1E60     1E60        A      728       0
                text7                              1A5E     1A5E       32      68A       0
                text6                              1D24     1D24       1E      728       0
                text5                              1D06     1D06       1E      728       0
                text4                              1CE8     1CE8       1E      728       0
                text3                              1546     1546       BC      4E0       0
                text2                              19B8     19B8       38      61C       0
                text1                              1A90     1A90       2E      68A       0
                text0                              19F0     19F0       36      61C       0
                cstackCOMRAM                         2C       2C       1A        1       1
                cstackBANK0                          92       92       17       60       1
                dataBANK0                            A9       A9       10       60       1
                bssBANK0                             60       60       32       60       1
                dataCOMRAM                           46       46        2        1       1
                bssCOMRAM                             1        1       2B        1       1
                cinit                              16FE     16FE       68      4E0       0
                nvBANK0                              B9       B9        2       60       1
                idataBANK0                         1E42     1E42       10      728       0
                idataCOMRAM                        1EFE     1EFE        2      7BE       0

TOTAL           Name                               Link     Load   Length     Space
        CLASS   CODE           
                init                                 AE       AE        4         0
                reset_vec                             0        0        4         0
                ivt0x8                                8        8       A6         0
                text76                             1F12     1F12        2         0
                text75                             1F10     1F10        2         0
                text74                             128E     128E       F0         0
                text73                             1940     1940       3E         0
                text72                             1B4E     1B4E       2E         0
                text71                             1F0E     1F0E        2         0
                text70                             17CC     17CC       52         0
                text69                             1F0C     1F0C        2         0
                text68                             1E52     1E52        E         0
                text67                             1EC4     1EC4        A         0
                text66                             181E     181E       50         0
                text65                             1464     1464       E2         0
                text64                             1F0A     1F0A        2         0
                text63                             1870     1870       4A         0
                text62                             197E     197E       3A         0
                text61                             1A28     1A28       36         0
                text60                             1F08     1F08        2         0
                text59                             1BD4     1BD4       2C         0
                text58                             1B20     1B20       2E         0
                text57                             1F06     1F06        2         0
                text56                             1BA8     1BA8       2C         0
                text55                             1AF0     1AF0       2E         0
                text54                             1F04     1F04        2         0
                text53                             1B7C     1B7C       2C         0
                text52                             1AC0     1AC0       2E         0
                text51                             1F02     1F02        2         0
                text50                             1EF8     1EF8        6         0
                text49                             1CC4     1CC4       24         0
                text48                             1EF0     1EF0        6         0
                text47                             1CA0     1CA0       24         0
                text46                             1E2C     1E2C       16         0
                text45                             1E16     1E16       16         0
                text44                             1902     1902       3E         0
                text43                             1F00     1F00        2         0
                text42                             1E00     1E00       16         0
                text41                             1DEA     1DEA       16         0
                text40                             1DD4     1DD4       16         0
                text39                             1DBE     1DBE       16         0
                text38                             1DA8     1DA8       16         0
                text37                             106C     106C      132         0
                text36                             1EBA     1EBA        A         0
                text35                             1EB0     1EB0        A         0
                text34                             1ED6     1ED6        8         0
                text33                             1C2A     1C2A       28         0
                text32                             1EA6     1EA6        A         0
                text31                             1E9C     1E9C        A         0
                text30                             1EEA     1EEA        6         0
                text29                             1C78     1C78       26         0
                text28                             1EE4     1EE4        6         0
                text27                             1E92     1E92        A         0
                text26                             1EDE     1EDE        6         0
                text25                             1C52     1C52       26         0
                text24                             1380     1380       E4         0
                text23                             1C00     1C00       2A         0
                text22                             1E88     1E88        A         0
                text21                             168A     168A       74         0
                text20                             1D7A     1D7A       18         0
                text19                             1ECE     1ECE        8         0
                text18                             18BA     18BA       48         0
                text17                             1D42     1D42       1E         0
                text16                             1D92     1D92       16         0
                text15                             1766     1766       64         0
                text14                             1E7E     1E7E        A         0
                text13                             1E74     1E74        A         0
                text12                             1E6A     1E6A        A         0
                text11                             1602     1602       88         0
                text10                             119E     119E       F0         0
                text9                              1D60     1D60       1A         0
                text8                              1E60     1E60        A         0
                text7                              1A5E     1A5E       32         0
                text6                              1D24     1D24       1E         0
                text5                              1D06     1D06       1E         0
                text4                              1CE8     1CE8       1E         0
                text3                              1546     1546       BC         0
                text2                              19B8     19B8       38         0
                text1                              1A90     1A90       2E         0
                text0                              19F0     19F0       36         0
                cinit                              16FE     16FE       68         0
                idataBANK0                         1E42     1E42       10         0
                idataCOMRAM                        1EFE     1EFE        2         0

        CLASS   CONST          

        CLASS   SMALLCONST     
                smallconst                         1000     1000       6A         0

        CLASS   MEDIUMCONST    

        CLASS   COMRAM         
                cstackCOMRAM                         2C       2C       1A         1
                dataCOMRAM                           46       46        2         1
                bssCOMRAM                             1        1       2B         1

        CLASS   ABS1           

        CLASS   BIGRAM         

        CLASS   RAM            

        CLASS   BANK0          
                cstackBANK0                          92       92       17         1
                dataBANK0                            A9       A9       10         1
                bssBANK0                             60       60       32         1
                nvBANK0                              B9       B9        2         1

        CLASS   BANK1          

        CLASS   BANK2          

        CLASS   BANK3          

        CLASS   BANK4          

        CLASS   BANK5          

        CLASS   BANK6          

        CLASS   BANK7          

        CLASS   BANK8          

        CLASS   BANK9          

        CLASS   BANK10         

        CLASS   BANK11         

        CLASS   BANK12         

        CLASS   BANK13         

        CLASS   BANK14         

        CLASS   BANK15         

        CLASS   SFR            

        CLASS   BIGSFR         

        CLASS   CONFIG         
                config                           300000   300000        A         4

        CLASS   IDLOC          
                idloc                            200000   200000       10         5

        CLASS   EEDATA         

        CLASS   FARRAM         

        CLASS   HEAP           

        CLASS   STACK          



SEGMENTS        Name                           Load    Length   Top    Selector   Space  Class

                reset_vec                      000000  000004  000004         0       0  CODE    
                bssCOMRAM                      000001  000047  000048         1       1  COMRAM  
                ivt0x8                         000008  0000AA  0000B2         4       0  CODE    
                bssBANK0                       000060  00005B  0000BB        60       1  BANK0   
                smallconst                     001000  00006A  00106A       800       0  SMALLCON
                text37                         00106C  000312  00137E       41B       0  CODE    
                text24                         001380  00044A  0017CA       4E0       0  CODE    
                text70                         0017CC  0000A2  00186E       5F3       0  CODE    
                text63                         001870  0001B6  001A26       61C       0  CODE    
                text61                         001A28  000096  001ABE       68A       0  CODE    
                text52                         001AC0  00002E  001AEE       6B0       0  CODE    
                text55                         001AF0  00002E  001B1E       6BC       0  CODE    
                text58                         001B20  00017E  001C9E       6C8       0  CODE    
                text47                         001CA0  000256  001EF6       728       0  CODE    
                text50                         001EF8  00001C  001F14       7BE       0  CODE    


UNUSED ADDRESS RANGES

        Name                Unused          Largest block    Delta
        BANK0            0000BB-0000FF               45
        BANK1            000100-0001FF              100
        BANK10           000A00-000AFF              100
        BANK11           000B00-000BFF              100
        BANK12           000C00-000CFF              100
        BANK13           000D00-000DFF              100
        BANK14           000E00-000EFF              100
        BANK15           000F00-000FFF              100
        BANK2            000200-0002FF              100
        BANK3            000300-0003FF              100
        BANK4            000400-0004FF              100
        BANK5            000500-0005FF              100
        BANK6            000600-0006FF              100
        BANK7            000700-0007FF              100
        BANK8            000800-0008FF              100
        BANK9            000900-0009FF              100
        BIGRAM           000048-00005F               18
                         0000BB-000FFF              F45
        BIGSFR           003800-003FFF              800
        CODE             000004-000007                4
                         0000B2-000FFF              F4E
                         00106A-00106B                2
                         00137E-00137F                2
                         0017CA-0017CB                2
                         00186E-00186F                2
                         001A26-001A27                2
                         001ABE-001ABF                2
                         001AEE-001AEF                2
                         001B1E-001B1F                2
                         001C9E-001C9F                2
                         001EF6-001EF7                2
                         001F14-00FFFF             E0EC
        COMRAM           000048-00005F               18
        CONST            000004-000007                4
                         0000B2-000FFF              F4E
                         00106A-00106B                2
                         00137E-00137F                2
                         0017CA-0017CB                2
                         00186E-00186F                2
                         001A26-001A27                2
                         001ABE-001ABF                2
                         001AEE-001AEF                2
                         001B1E-001B1F                2
                         001C9E-001C9F                2
                         001EF6-001EF7                2
                         001F14-00FFFF             E0EC
        EEDATA           310000-3103FF              400
        MEDIUMCONST      00106A-00106B                2
                         00137E-00137F                2
                         0017CA-0017CB                2
                         00186E-00186F                2
                         001A26-001A27                2
                         001ABE-001ABF                2
                         001AEE-001AEF                2
                         001B1E-001B1F                2
                         001C9E-001C9F                2
                         001EF6-001EF7                2
                         001F14-00FFFF             E0EC
        RAM              0000BB-000FFF              100
        SFR              003800-003FFF              100
        SMALLCONST       00106A-00106B                2
                         00137E-00137F                2
                         0017CA-0017CB                2
                         00186E-00186F                2
                         001A26-001A27                2
                         001ABE-001ABF                2
                         001AEE-001AEF                2
                         001B1E-001B1F                2
                         001C9E-001C9F                2
                         001EF6-001EF7                2
                         001F14-00FFFF              100

                                  Symbol Table

ADCC_SetADIInterruptHandler@InterruptHandler       cstackBANK0  0000A5
ADCC_StartConversion@channel                       cstackCOMRAM 000032
I2C2_AddrTransmit@addr                             cstackCOMRAM 00003A
I2C2_CallbackRegister@callbackHandler              cstackBANK0  0000A5
I2C2_CounterSet@counter                            cstackCOMRAM 000042
I2C2_DataTransmit@data                             cstackCOMRAM 000044
INT0_SetInterruptHandler@InterruptHandler          cstackBANK0  0000A5
INT1_SetInterruptHandler@InterruptHandler          cstackBANK0  0000A5
INT2_SetInterruptHandler@InterruptHandler          cstackBANK0  0000A5
INTERRUPT_Initialize@state                         cstackBANK0  0000A7
IVTBASEH                                           (abs)        003FD6
IVTBASEL                                           (abs)        003FD5
IVTBASEU                                           (abs)        003FD7
SPI1_ByteWrite@byte                                cstackCOMRAM 00002C
Timer_OverflowCallbackRegister@CallbackHandler     cstackBANK0  0000A5
Timer_int@count                                    bssBANK0     000088
UART1_FramingErrorCallbackRegister@callbackHandler cstackBANK0  0000A5
UART1_OverrunErrorCallbackRegister@callbackHandler cstackBANK0  0000A5
UART1_ParityErrorCallbackRegister@callbackHandler  cstackBANK0  0000A5
UART1_ReceiveISR@regValue                          cstackCOMRAM 000035
UART1_ReceiveISR@tempRxHead                        cstackCOMRAM 000036
UART1_TransmitISR@tempTxTail                       cstackBANK0  0000A2
UART1_Write@tempTxHead                             cstackCOMRAM 00002C
UART1_Write@txData                                 cstackCOMRAM 00002D
UART_RX_int@mesage                                 bssCOMRAM    00000E
UART_RX_int@opcode                                 bssCOMRAM    000024
UART_RX_int@status                                 bssCOMRAM    000025
_ADACCH                                            (abs)        003EE9
_ADACCL                                            (abs)        003EE8
_ADACCU                                            (abs)        003EEA
_ADACQH                                            (abs)        003EF4
_ADACQL                                            (abs)        003EF3
_ADACT                                             (abs)        003EFE
_ADCAP                                             (abs)        003EF5
_ADCC_ADI_InterruptHandler                         nvBANK0      0000B9
_ADCC_DefaultADI_ISR                               text64       001F0A
_ADCC_ISR                                          text63       001870
_ADCC_Initialize                                   text21       00168A
_ADCC_SetADIInterruptHandler                       text22       001E88
_ADCC_StartConversion                              text68       001E52
_ADCLK                                             (abs)        003EFF
_ADCNT                                             (abs)        003EEB
_ADCON0                                            (abs)        003EF8
_ADCON0bits                                        (abs)        003EF8
_ADCON1                                            (abs)        003EF9
_ADCON1bits                                        (abs)        003EF9
_ADCON2                                            (abs)        003EFA
_ADCON2bits                                        (abs)        003EFA
_ADCON3                                            (abs)        003EFB
_ADCON3bits                                        (abs)        003EFB
_ADC_int                                           text65       001464
_ADERRH                                            (abs)        003EE3
_ADERRL                                            (abs)        003EE2
_ADFLTRH                                           (abs)        003EE7
_ADFLTRL                                           (abs)        003EE6
_ADLTHH                                            (abs)        003EDF
_ADLTHL                                            (abs)        003EDE
_ADPCH                                             (abs)        003EF1
_ADPREH                                            (abs)        003EF7
_ADPREL                                            (abs)        003EF6
_ADPREVH                                           (abs)        003EEE
_ADPREVL                                           (abs)        003EED
_ADREF                                             (abs)        003EFD
_ADRESH                                            (abs)        003EF0
_ADRESL                                            (abs)        003EEF
_ADRPT                                             (abs)        003EEC
_ADSTAT                                            (abs)        003EFC
_ADSTATbits                                        (abs)        003EFC
_ADSTPTH                                           (abs)        003EE5
_ADSTPTL                                           (abs)        003EE4
_ADUTHH                                            (abs)        003EE1
_ADUTHL                                            (abs)        003EE0
_ANSELA                                            (abs)        003A40
_ANSELB                                            (abs)        003A50
_ANSELC                                            (abs)        003A60
_ANSELD                                            (abs)        003A70
_ANSELE                                            (abs)        003A80
_CLOCK_Initialize                                  text20       001D7A
_Default_ISR                                       text69       001F0C
_FVRCON                                            (abs)        003EC1
_FVRCONbits                                        (abs)        003EC1
_FVR_Initialize                                    text19       001ECE
_GIE                                               (abs)        01FE97
_I2C1ADB0                                          (abs)        003D6D
_I2C1ADB1                                          (abs)        003D6E
_I2C1ADR0                                          (abs)        003D6F
_I2C1ADR1                                          (abs)        003D70
_I2C1ADR2                                          (abs)        003D71
_I2C1ADR3                                          (abs)        003D72
_I2C1BTO                                           (abs)        003D7C
_I2C1CLK                                           (abs)        003D7B
_I2C1CNT                                           (abs)        003D6C
_I2C1CON0                                          (abs)        003D73
_I2C1CON1                                          (abs)        003D74
_I2C1CON2                                          (abs)        003D75
_I2C1ERR                                           (abs)        003D76
_I2C1PIE                                           (abs)        003D7A
_I2C1PIR                                           (abs)        003D79
_I2C1STAT1                                         (abs)        003D78
_I2C1TXB                                           (abs)        003D6B
_I2C1_Initialize                                   text18       0018BA
_I2C2ADB1                                          (abs)        003D58
_I2C2CLK                                           (abs)        003D65
_I2C2CNT                                           (abs)        003D56
_I2C2CON0                                          (abs)        003D5D
_I2C2CON0bits                                      (abs)        003D5D
_I2C2CON1                                          (abs)        003D5E
_I2C2CON1bits                                      (abs)        003D5E
_I2C2CON2                                          (abs)        003D5F
_I2C2ERR                                           (abs)        003D60
_I2C2ERRbits                                       (abs)        003D60
_I2C2PIE                                           (abs)        003D64
_I2C2PIEbits                                       (abs)        003D64
_I2C2PIR                                           (abs)        003D63
_I2C2PIRbits                                       (abs)        003D63
_I2C2RXB                                           (abs)        003D54
_I2C2SCLPPS                                        (abs)        003AE3
_I2C2SDAPPS                                        (abs)        003AE4
_I2C2STAT0bits                                     (abs)        003D61
_I2C2STAT1                                         (abs)        003D62
_I2C2STAT1bits                                     (abs)        003D62
_I2C2TXB                                           (abs)        003D55
_I2C2_AddrTransmit                                 text32       001EA6
_I2C2_BufferClear                                  text36       001EBA
_I2C2_BusReset                                     text44       001902
_I2C2_Callback                                     bssCOMRAM    000022
_I2C2_CallbackRegister                             text17       001D42
_I2C2_Close                                        text33       001C2A
_I2C2_CounterGet                                   text28       001EE4
_I2C2_CounterSet                                   text31       001E9C
_I2C2_DataReceive                                  text48       001EF0
_I2C2_DataTransmit                                 text27       001E92
_I2C2_DefaultCallback                              text43       001F00
_I2C2_Deinitialize                                 (abs)        000000
_I2C2_ERROR_ISR                                    text37       00106C
_I2C2_ErrorFlagsClear                              text35       001EB0
_I2C2_ErrorGet                                     (abs)        000000
_I2C2_ISR                                          text24       001380
_I2C2_Initialize                                   text15       001766
_I2C2_InterruptsClear                              text34       001ED6
_I2C2_InterruptsDisable                            text46       001E2C
_I2C2_InterruptsEnable                             text16       001D92
_I2C2_IsAddr                                       text42       001E00
_I2C2_IsBusCol                                     text41       001DEA
_I2C2_IsBusTimeOut                                 text40       001DD4
_I2C2_IsBusy                                       (abs)        000000
_I2C2_IsData                                       text39       001DBE
_I2C2_IsNack                                       text38       001DA8
_I2C2_RX_ISR                                       text47       001CA0
_I2C2_Read                                         (abs)        000000
_I2C2_ReadStart                                    text29       001C78
_I2C2_RestartDisable                               text26       001EDE
_I2C2_StartSend                                    text30       001EEA
_I2C2_StopSend                                     text25       001C52
_I2C2_TX_ISR                                       text49       001CC4
_I2C2_Write                                        (abs)        000000
_I2C2_WriteRead                                    (abs)        000000
_I2C_Host                                          smallconst   001031
_INLVLA                                            (abs)        003A44
_INLVLB                                            (abs)        003A54
_INLVLC                                            (abs)        003A64
_INLVLD                                            (abs)        003A74
_INLVLE                                            (abs)        003A84
_INT0_CallBack                                     text53       001B7C
_INT0_DefaultInterruptHandler                      text54       001F04
_INT0_ISR                                          text52       001AC0
_INT0_InterruptHandler                             bssCOMRAM    000020
_INT0_SetInterruptHandler                          text14       001E7E
_INT1_CallBack                                     text56       001BA8
_INT1_DefaultInterruptHandler                      text57       001F06
_INT1_ISR                                          text55       001AF0
_INT1_InterruptHandler                             bssCOMRAM    00001E
_INT1_SetInterruptHandler                          text13       001E74
_INT2_CallBack                                     text59       001BD4
_INT2_DefaultInterruptHandler                      text60       001F08
_INT2_ISR                                          text58       001B20
_INT2_InterruptHandler                             bssCOMRAM    00001C
_INT2_SetInterruptHandler                          text12       001E6A
_INTCON0bits                                       (abs)        003FD2
_INTERRUPT_Initialize                              text11       001602
_IOCAF                                             (abs)        003A47
_IOCAN                                             (abs)        003A46
_IOCAP                                             (abs)        003A45
_IOCBF                                             (abs)        003A57
_IOCBN                                             (abs)        003A56
_IOCBP                                             (abs)        003A55
_IOCCF                                             (abs)        003A67
_IOCCN                                             (abs)        003A66
_IOCCP                                             (abs)        003A65
_IOCEF                                             (abs)        003A87
_IOCEN                                             (abs)        003A86
_IOCEP                                             (abs)        003A85
_IOC_ISR                                           text50       001EF8
_IPR0bits                                          (abs)        003980
_IPR1bits                                          (abs)        003981
_IPR3bits                                          (abs)        003983
_IPR5bits                                          (abs)        003985
_IPR6bits                                          (abs)        003986
_IVTBASEH                                          (abs)        003FD6
_IVTBASEL                                          (abs)        003FD5
_IVTBASEU                                          (abs)        003FD7
_IVTLOCK                                           (abs)        003FD4
_IVTLOCKbits                                       (abs)        003FD4
_LATA                                              (abs)        003FBA
_LATB                                              (abs)        003FBB
_LATBbits                                          (abs)        003FBB
_LATC                                              (abs)        003FBC
_LATD                                              (abs)        003FBD
_LATDbits                                          (abs)        003FBD
_LATE                                              (abs)        003FBE
_LATEbits                                          (abs)        003FBE
_ODCONA                                            (abs)        003A42
_ODCONB                                            (abs)        003A52
_ODCONC                                            (abs)        003A62
_ODCOND                                            (abs)        003A72
_ODCONE                                            (abs)        003A82
_OSCCON1                                           (abs)        0039D9
_OSCCON3                                           (abs)        0039DB
_OSCEN                                             (abs)        0039DD
_OSCFRQ                                            (abs)        0039DF
_OSCTUNE                                           (abs)        0039DE
_PERIOD                                            dataCOMRAM   000046
_PIE1bits                                          (abs)        003991
_PIE3bits                                          (abs)        003993
_PIE5bits                                          (abs)        003995
_PIE6bits                                          (abs)        003996
_PIN_MANAGER_IOC                                   text51       001F02
_PIN_MANAGER_Initialize                            text10       00119E
_PIR1bits                                          (abs)        0039A1
_PIR2bits                                          (abs)        0039A2
_PIR3bits                                          (abs)        0039A3
_PIR5bits                                          (abs)        0039A5
_PIR7bits                                          (abs)        0039A7
_RB1I2C                                            (abs)        003A5A
_RB1PPS                                            (abs)        003A09
_RB2I2C                                            (abs)        003A5B
_RB2PPS                                            (abs)        003A0A
_RC3I2C                                            (abs)        003A6A
_RC3PPS                                            (abs)        003A13
_RC4I2C                                            (abs)        003A6B
_RC5PPS                                            (abs)        003A15
_RC6PPS                                            (abs)        003A16
_RD0I2C                                            (abs)        003A7A
_RD1I2C                                            (abs)        003A7B
_SLRCONA                                           (abs)        003A43
_SLRCONB                                           (abs)        003A53
_SLRCONC                                           (abs)        003A63
_SLRCOND                                           (abs)        003A73
_SLRCONE                                           (abs)        003A83
_SPI1                                              smallconst   001045
_SPI1BAUD                                          (abs)        003D19
_SPI1CLK                                           (abs)        003D1C
_SPI1CON0                                          (abs)        003D14
_SPI1CON0bits                                      (abs)        003D14
_SPI1CON1                                          (abs)        003D15
_SPI1CON2                                          (abs)        003D16
_SPI1RXB                                           (abs)        003D10
_SPI1SCKPPS                                        (abs)        003ADE
_SPI1SDIPPS                                        (abs)        003ADF
_SPI1TCNTL                                         (abs)        003D12
_SPI1TXB                                           (abs)        003D11
_SPI1_BufferExchange                               (abs)        000000
_SPI1_BufferRead                                   (abs)        000000
_SPI1_BufferWrite                                  (abs)        000000
_SPI1_ByteExchange                                 (abs)        000000
_SPI1_ByteRead                                     (abs)        000000
_SPI1_ByteWrite                                    text67       001EC4
_SPI1_Close                                        (abs)        000000
_SPI1_Initialize                                   text9        001D60
_SPI1_Open                                         text23       001C00
_SYSTEM_Initialize                                 text1        001A90
_T0CON0                                            (abs)        003FB8
_T0CON0bits                                        (abs)        003FB8
_T0CON1                                            (abs)        003FB9
_TMR0H                                             (abs)        003FB7
_TMR0L                                             (abs)        003FB6
_TRISA                                             (abs)        003FC2
_TRISB                                             (abs)        003FC3
_TRISC                                             (abs)        003FC4
_TRISCbits                                         (abs)        003FC4
_TRISD                                             (abs)        003FC5
_TRISE                                             (abs)        003FC6
_Timer                                             smallconst   001057
_Timer_DefaultOverflowCallback                     text71       001F0E
_Timer_Initialize                                  text7        001A5E
_Timer_OverflowCallback                            bssCOMRAM    000018
_Timer_OverflowCallbackRegister                    text8        001E60
_Timer_OverflowISR                                 text70       0017CC
_Timer_PeriodCountSet                              (abs)        000000
_Timer_Start                                       (abs)        000000
_Timer_Stop                                        (abs)        000000
_Timer_int                                         text72       001B4E
_U1BRGH                                            (abs)        003DF6
_U1BRGL                                            (abs)        003DF5
_U1CON0                                            (abs)        003DF2
_U1CON0bits                                        (abs)        003DF2
_U1CON1                                            (abs)        003DF3
_U1CON1bits                                        (abs)        003DF3
_U1CON2                                            (abs)        003DF4
_U1ERRIE                                           (abs)        003DFA
_U1ERRIR                                           (abs)        003DF9
_U1ERRIRbits                                       (abs)        003DF9
_U1FIFO                                            (abs)        003DF7
_U1P1H                                             (abs)        003DED
_U1P1L                                             (abs)        003DEC
_U1P2H                                             (abs)        003DEF
_U1P2L                                             (abs)        003DEE
_U1P3H                                             (abs)        003DF1
_U1P3L                                             (abs)        003DF0
_U1RXB                                             (abs)        003DE8
_U1RXCHK                                           (abs)        003DE9
_U1RXPPS                                           (abs)        003AE5
_U1TXB                                             (abs)        003DEA
_U1TXCHK                                           (abs)        003DEB
_U1UIR                                             (abs)        003DF8
_U1UIRbits                                         (abs)        003DF8
_U2BRGH                                            (abs)        003DDE
_U2BRGL                                            (abs)        003DDD
_U2CON0                                            (abs)        003DDA
_U2CON1                                            (abs)        003DDB
_U2CON2                                            (abs)        003DDC
_U2ERRIE                                           (abs)        003DE2
_U2ERRIR                                           (abs)        003DE1
_U2FIFO                                            (abs)        003DDF
_U2P1L                                             (abs)        003DD4
_U2P2L                                             (abs)        003DD6
_U2P3L                                             (abs)        003DD8
_U2TXB                                             (abs)        003DD2
_U2UIR                                             (abs)        003DE0
_UART                                              smallconst   001001
_UART1_AutoBaudQuery                               (abs)        000000
_UART1_AutoBaudSet                                 (abs)        000000
_UART1_DefaultFramingErrorCallback                 text76       001F12
_UART1_DefaultOverrunErrorCallback                 text75       001F10
_UART1_DefaultParityErrorCallback                  (abs)        000000
_UART1_Deinitialize                                (abs)        000000
_UART1_ErrorGet                                    (abs)        000000
_UART1_FramingErrorCallbackRegister                text6        001D24
_UART1_FramingErrorHandler                         bssCOMRAM    000016
_UART1_Initialize                                  text3        001546
_UART1_IsRxReady                                   (abs)        000000
_UART1_IsTxDone                                    (abs)        000000
_UART1_IsTxReady                                   (abs)        000000
_UART1_OverrunErrorCallbackRegister                text5        001D06
_UART1_OverrunErrorHandler                         bssCOMRAM    000014
_UART1_ParityErrorCallbackRegister                 text4        001CE8
_UART1_ParityErrorHandler                          bssBANK0     00008A
_UART1_Read                                        (abs)        000000
_UART1_ReceiveISR                                  text74       00128E
_UART1_Receive_Vector_ISR                          text73       001940
_UART1_RxCompleteCallbackRegister                  (abs)        000000
_UART1_RxCompleteInterruptHandler                  bssCOMRAM    000010
_UART1_RxInterruptHandler                          bssBANK0     00008E
_UART1_TransmitDisable                             (abs)        000000
_UART1_TransmitEnable                              (abs)        000000
_UART1_TransmitISR                                 text62       00197E
_UART1_Transmit_Vector_ISR                         text61       001A28
_UART1_TxCompleteCallbackRegister                  (abs)        000000
_UART1_TxCompleteInterruptHandler                  bssCOMRAM    000012
_UART1_TxInterruptHandler                          bssBANK0     000090
_UART1_Write                                       text66       00181E
_UART2_Initialize                                  text2        0019B8
_WPUA                                              (abs)        003A41
_WPUB                                              (abs)        003A51
_WPUC                                              (abs)        003A61
_WPUD                                              (abs)        003A71
_WPUE                                              (abs)        003A81
__HRAM                                             (abs)        000000
__Habs1                                            abs1         000000
__Hbank0                                           bank0        000000
__Hbank1                                           bank1        000000
__Hbank10                                          bank10       000000
__Hbank11                                          bank11       000000
__Hbank12                                          bank12       000000
__Hbank13                                          bank13       000000
__Hbank14                                          bank14       000000
__Hbank15                                          bank15       000000
__Hbank2                                           bank2        000000
__Hbank3                                           bank3        000000
__Hbank4                                           bank4        000000
__Hbank5                                           bank5        000000
__Hbank6                                           bank6        000000
__Hbank7                                           bank7        000000
__Hbank8                                           bank8        000000
__Hbank9                                           bank9        000000
__Hbigbss                                          bigbss       000000
__Hbigdata                                         bigdata      000000
__Hbigram                                          bigram       000000
__Hbigsfr                                          bigsfr       000000
__Hbss                                             bss          000000
__HbssBANK0                                        bssBANK0     000000
__HbssCOMRAM                                       bssCOMRAM    000000
__Hcinit                                           cinit        000000
__Hclrtext                                         clrtext      000000
__Hcomram                                          comram       000000
__Hconfig                                          config       30000A
__Hconst                                           const        000000
__HcstackBANK0                                     cstackBANK0  000000
__HcstackCOMRAM                                    cstackCOMRAM 000000
__Hdata                                            data         000000
__HdataBANK0                                       dataBANK0    000000
__HdataCOMRAM                                      dataCOMRAM   000000
__Heeprom_data                                     eeprom_data  000000
__Hfarbss                                          farbss       000000
__Hfardata                                         fardata      000000
__Hheap                                            heap         000000
__Hibigdata                                        ibigdata     000000
__Hidata                                           idata        000000
__HidataBANK0                                      idataBANK0   000000
__HidataCOMRAM                                     idataCOMRAM  000000
__Hidloc                                           idloc        200010
__Hifardata                                        ifardata     000000
__Hinit                                            init         0000B2
__Hintsave_regs                                    intsave_regs 000000
__Hirdata                                          irdata       000000
__Hivt0x8                                          ivt0x8       0000AE
__Hmediumconst                                     mediumconst  000000
__HnvBANK0                                         nvBANK0      000000
__HnvFARRAM                                        nvFARRAM     000000
__Hnvbit                                           nvbit        000000
__Hnvrram                                          nvrram       000000
__Hparam                                           rparam       000000
__Hpowerup                                         powerup      000000
__Hram                                             ram          000000
__Hramtop                                          ramtop       001000
__Hrbit                                            rbit         000000
__Hrbss                                            rbss         000000
__Hrdata                                           rdata        000000
__Hreset_vec                                       reset_vec    000004
__Hrparam                                          rparam       000000
__Hsfr                                             sfr          000000
__Hsmallconst                                      smallconst   00106A
__Hspace_0                                         (abs)        001F14
__Hspace_1                                         (abs)        0000BB
__Hspace_2                                         (abs)        000000
__Hspace_4                                         (abs)        60000A
__Hstack                                           stack        000000
__Hstruct                                          struct       000000
__Htemp                                            temp         000000
__Htext                                            text         000000
__Htext0                                           text0        000000
__Htext1                                           text1        000000
__Htext10                                          text10       000000
__Htext11                                          text11       000000
__Htext12                                          text12       000000
__Htext13                                          text13       000000
__Htext14                                          text14       000000
__Htext15                                          text15       000000
__Htext16                                          text16       000000
__Htext17                                          text17       000000
__Htext18                                          text18       000000
__Htext19                                          text19       000000
__Htext2                                           text2        000000
__Htext20                                          text20       000000
__Htext21                                          text21       000000
__Htext22                                          text22       000000
__Htext23                                          text23       000000
__Htext24                                          text24       000000
__Htext25                                          text25       000000
__Htext26                                          text26       000000
__Htext27                                          text27       000000
__Htext28                                          text28       000000
__Htext29                                          text29       000000
__Htext3                                           text3        000000
__Htext30                                          text30       000000
__Htext31                                          text31       000000
__Htext32                                          text32       000000
__Htext33                                          text33       000000
__Htext34                                          text34       000000
__Htext35                                          text35       000000
__Htext36                                          text36       000000
__Htext37                                          text37       000000
__Htext38                                          text38       000000
__Htext39                                          text39       000000
__Htext4                                           text4        000000
__Htext40                                          text40       000000
__Htext41                                          text41       000000
__Htext42                                          text42       000000
__Htext43                                          text43       000000
__Htext44                                          text44       000000
__Htext45                                          text45       000000
__Htext46                                          text46       000000
__Htext47                                          text47       000000
__Htext48                                          text48       000000
__Htext49                                          text49       000000
__Htext5                                           text5        000000
__Htext50                                          text50       000000
__Htext51                                          text51       000000
__Htext52                                          text52       000000
__Htext53                                          text53       000000
__Htext54                                          text54       000000
__Htext55                                          text55       000000
__Htext56                                          text56       000000
__Htext57                                          text57       000000
__Htext58                                          text58       000000
__Htext59                                          text59       000000
__Htext6                                           text6        000000
__Htext60                                          text60       000000
__Htext61                                          text61       000000
__Htext62                                          text62       000000
__Htext63                                          text63       000000
__Htext64                                          text64       000000
__Htext65                                          text65       000000
__Htext66                                          text66       000000
__Htext67                                          text67       000000
__Htext68                                          text68       000000
__Htext69                                          text69       000000
__Htext7                                           text7        000000
__Htext70                                          text70       000000
__Htext71                                          text71       000000
__Htext72                                          text72       000000
__Htext73                                          text73       000000
__Htext74                                          text74       000000
__Htext75                                          text75       000000
__Htext76                                          text76       000000
__Htext77                                          text77       000000
__Htext8                                           text8        000000
__Htext9                                           text9        000000
__LRAM                                             (abs)        000001
__Labs1                                            abs1         000000
__Lbank0                                           bank0        000000
__Lbank1                                           bank1        000000
__Lbank10                                          bank10       000000
__Lbank11                                          bank11       000000
__Lbank12                                          bank12       000000
__Lbank13                                          bank13       000000
__Lbank14                                          bank14       000000
__Lbank15                                          bank15       000000
__Lbank2                                           bank2        000000
__Lbank3                                           bank3        000000
__Lbank4                                           bank4        000000
__Lbank5                                           bank5        000000
__Lbank6                                           bank6        000000
__Lbank7                                           bank7        000000
__Lbank8                                           bank8        000000
__Lbank9                                           bank9        000000
__Lbigbss                                          bigbss       000000
__Lbigdata                                         bigdata      000000
__Lbigram                                          bigram       000000
__Lbigsfr                                          bigsfr       000000
__Lbss                                             bss          000000
__LbssBANK0                                        bssBANK0     000000
__LbssCOMRAM                                       bssCOMRAM    000000
__Lcinit                                           cinit        000000
__Lclrtext                                         clrtext      000000
__Lcomram                                          comram       000000
__Lconfig                                          config       000000
__Lconst                                           const        000000
__LcstackBANK0                                     cstackBANK0  000000
__LcstackCOMRAM                                    cstackCOMRAM 000000
__Ldata                                            data         000000
__LdataBANK0                                       dataBANK0    000000
__LdataCOMRAM                                      dataCOMRAM   000000
__Leeprom_data                                     eeprom_data  000000
__Lfarbss                                          farbss       000000
__Lfardata                                         fardata      000000
__Lheap                                            heap         000000
__Libigdata                                        ibigdata     000000
__Lidata                                           idata        000000
__LidataBANK0                                      idataBANK0   000000
__LidataCOMRAM                                     idataCOMRAM  000000
__Lidloc                                           idloc        000000
__Lifardata                                        ifardata     000000
__Linit                                            init         0000AE
__Lintsave_regs                                    intsave_regs 000000
__Lirdata                                          irdata       000000
__Livt0x8                                          ivt0x8       000008
__Lmediumconst                                     mediumconst  000000
__LnvBANK0                                         nvBANK0      000000
__LnvFARRAM                                        nvFARRAM     000000
__Lnvbit                                           nvbit        000000
__Lnvrram                                          nvrram       000000
__Lparam                                           rparam       000000
__Lpowerup                                         powerup      000000
__Lram                                             ram          000000
__Lramtop                                          ramtop       001000
__Lrbit                                            rbit         000000
__Lrbss                                            rbss         000000
__Lrdata                                           rdata        000000
__Lreset_vec                                       reset_vec    000000
__Lrparam                                          rparam       000000
__Lsfr                                             sfr          000000
__Lsmallconst                                      smallconst   001000
__Lspace_0                                         (abs)        000000
__Lspace_1                                         (abs)        000000
__Lspace_2                                         (abs)        000000
__Lspace_4                                         (abs)        000000
__Lstack                                           stack        000000
__Lstruct                                          struct       000000
__Ltemp                                            temp         000000
__Ltext                                            text         000000
__Ltext0                                           text0        000000
__Ltext1                                           text1        000000
__Ltext10                                          text10       000000
__Ltext11                                          text11       000000
__Ltext12                                          text12       000000
__Ltext13                                          text13       000000
__Ltext14                                          text14       000000
__Ltext15                                          text15       000000
__Ltext16                                          text16       000000
__Ltext17                                          text17       000000
__Ltext18                                          text18       000000
__Ltext19                                          text19       000000
__Ltext2                                           text2        000000
__Ltext20                                          text20       000000
__Ltext21                                          text21       000000
__Ltext22                                          text22       000000
__Ltext23                                          text23       000000
__Ltext24                                          text24       000000
__Ltext25                                          text25       000000
__Ltext26                                          text26       000000
__Ltext27                                          text27       000000
__Ltext28                                          text28       000000
__Ltext29                                          text29       000000
__Ltext3                                           text3        000000
__Ltext30                                          text30       000000
__Ltext31                                          text31       000000
__Ltext32                                          text32       000000
__Ltext33                                          text33       000000
__Ltext34                                          text34       000000
__Ltext35                                          text35       000000
__Ltext36                                          text36       000000
__Ltext37                                          text37       000000
__Ltext38                                          text38       000000
__Ltext39                                          text39       000000
__Ltext4                                           text4        000000
__Ltext40                                          text40       000000
__Ltext41                                          text41       000000
__Ltext42                                          text42       000000
__Ltext43                                          text43       000000
__Ltext44                                          text44       000000
__Ltext45                                          text45       000000
__Ltext46                                          text46       000000
__Ltext47                                          text47       000000
__Ltext48                                          text48       000000
__Ltext49                                          text49       000000
__Ltext5                                           text5        000000
__Ltext50                                          text50       000000
__Ltext51                                          text51       000000
__Ltext52                                          text52       000000
__Ltext53                                          text53       000000
__Ltext54                                          text54       000000
__Ltext55                                          text55       000000
__Ltext56                                          text56       000000
__Ltext57                                          text57       000000
__Ltext58                                          text58       000000
__Ltext59                                          text59       000000
__Ltext6                                           text6        000000
__Ltext60                                          text60       000000
__Ltext61                                          text61       000000
__Ltext62                                          text62       000000
__Ltext63                                          text63       000000
__Ltext64                                          text64       000000
__Ltext65                                          text65       000000
__Ltext66                                          text66       000000
__Ltext67                                          text67       000000
__Ltext68                                          text68       000000
__Ltext69                                          text69       000000
__Ltext7                                           text7        000000
__Ltext70                                          text70       000000
__Ltext71                                          text71       000000
__Ltext72                                          text72       000000
__Ltext73                                          text73       000000
__Ltext74                                          text74       000000
__Ltext75                                          text75       000000
__Ltext76                                          text76       000000
__Ltext77                                          text77       000000
__Ltext8                                           text8        000000
__Ltext9                                           text9        000000
__S0                                               (abs)        001F14
__S1                                               (abs)        0000BB
__S4                                               (abs)        000000
__S5                                               (abs)        000000
___heap_hi                                         (abs)        000000
___heap_lo                                         (abs)        000000
___inthi_sp                                        stack        000000
___intlo_sp                                        stack        000000
___param_bank                                      (abs)        000000
___rparam_used                                     (abs)        000001
___sp                                              stack        000000
__accesstop                                        (abs)        000060
__activetblptr                                     (abs)        000003
__end_of_ADCC_DefaultADI_ISR                       text64       001F0C
__end_of_ADCC_ISR                                  text63       0018BA
__end_of_ADCC_Initialize                           text21       0016FE
__end_of_ADCC_SetADIInterruptHandler               text22       001E92
__end_of_ADCC_StartConversion                      text68       001E60
__end_of_ADC_int                                   text65       001546
__end_of_CLOCK_Initialize                          text20       001D92
__end_of_Default_ISR                               text69       001F0E
__end_of_FVR_Initialize                            text19       001ED6
__end_of_I2C1_Initialize                           text18       001902
__end_of_I2C2_AddrTransmit                         text32       001EB0
__end_of_I2C2_BufferClear                          text36       001EC4
__end_of_I2C2_BusReset                             text44       001940
__end_of_I2C2_CallbackRegister                     text17       001D60
__end_of_I2C2_Close                                text33       001C52
__end_of_I2C2_CounterGet                           text28       001EEA
__end_of_I2C2_CounterSet                           text31       001EA6
__end_of_I2C2_DataReceive                          text48       001EF6
__end_of_I2C2_DataTransmit                         text27       001E9C
__end_of_I2C2_DefaultCallback                      text43       001F02
__end_of_I2C2_ERROR_ISR                            text37       00119E
__end_of_I2C2_ErrorFlagsClear                      text35       001EBA
__end_of_I2C2_ISR                                  text24       001464
__end_of_I2C2_Initialize                           text15       0017CA
__end_of_I2C2_InterruptsClear                      text34       001EDE
__end_of_I2C2_InterruptsDisable                    text46       001E42
__end_of_I2C2_InterruptsEnable                     text16       001DA8
__end_of_I2C2_IsAddr                               text42       001E16
__end_of_I2C2_IsBusCol                             text41       001E00
__end_of_I2C2_IsBusTimeOut                         text40       001DEA
__end_of_I2C2_IsData                               text39       001DD4
__end_of_I2C2_IsNack                               text38       001DBE
__end_of_I2C2_RX_ISR                               text47       001CC4
__end_of_I2C2_ReadStart                            text29       001C9E
__end_of_I2C2_RestartDisable                       text26       001EE4
__end_of_I2C2_StartSend                            text30       001EF0
__end_of_I2C2_StopSend                             text25       001C78
__end_of_I2C2_TX_ISR                               text49       001CE8
__end_of_I2C_Host                                  smallconst   001045
__end_of_INT0_CallBack                             text53       001BA8
__end_of_INT0_DefaultInterruptHandler              text54       001F06
__end_of_INT0_ISR                                  text52       001AEE
__end_of_INT0_SetInterruptHandler                  text14       001E88
__end_of_INT1_CallBack                             text56       001BD4
__end_of_INT1_DefaultInterruptHandler              text57       001F08
__end_of_INT1_ISR                                  text55       001B1E
__end_of_INT1_SetInterruptHandler                  text13       001E7E
__end_of_INT2_CallBack                             text59       001C00
__end_of_INT2_DefaultInterruptHandler              text60       001F0A
__end_of_INT2_ISR                                  text58       001B4E
__end_of_INT2_SetInterruptHandler                  text12       001E74
__end_of_INTERRUPT_Initialize                      text11       00168A
__end_of_IOC_ISR                                   text50       001EFE
__end_of_PIN_MANAGER_IOC                           text51       001F04
__end_of_PIN_MANAGER_Initialize                    text10       00128E
__end_of_SPI1                                      smallconst   001057
__end_of_SPI1_ByteWrite                            text67       001ECE
__end_of_SPI1_Initialize                           text9        001D7A
__end_of_SPI1_Open                                 text23       001C2A
__end_of_SYSTEM_Initialize                         text1        001ABE
__end_of_Timer                                     smallconst   001063
__end_of_Timer_DefaultOverflowCallback             text71       001F10
__end_of_Timer_Initialize                          text7        001A90
__end_of_Timer_OverflowCallbackRegister            text8        001E6A
__end_of_Timer_OverflowISR                         text70       00181E
__end_of_Timer_int                                 text72       001B7C
__end_of_UART                                      smallconst   001031
__end_of_UART1_DefaultFramingErrorCallback         text76       001F14
__end_of_UART1_DefaultOverrunErrorCallback         text75       001F12
__end_of_UART1_FramingErrorCallbackRegister        text6        001D42
__end_of_UART1_Initialize                          text3        001602
__end_of_UART1_OverrunErrorCallbackRegister        text5        001D24
__end_of_UART1_ParityErrorCallbackRegister         text4        001D06
__end_of_UART1_ReceiveISR                          text74       00137E
__end_of_UART1_Receive_Vector_ISR                  text73       00197E
__end_of_UART1_TransmitISR                         text62       0019B8
__end_of_UART1_Transmit_Vector_ISR                 text61       001A5E
__end_of_UART1_Write                               text66       00186E
__end_of_UART2_Initialize                          text2        0019F0
__end_of__initialization                           cinit        001760
__end_of_main                                      text0        001A26
__end_of_spi1_configuration                        smallconst   001068
__end_ofi1_I2C2_InterruptsEnable                   text45       001E2C
__initialization                                   cinit        0016FE
__mediumconst                                      mediumconst  000000
__pbssBANK0                                        bssBANK0     000060
__pbssCOMRAM                                       bssCOMRAM    000001
__pcinit                                           cinit        0016FE
__pcstackBANK0                                     cstackBANK0  000092
__pcstackCOMRAM                                    cstackCOMRAM 00002C
__pdataBANK0                                       dataBANK0    0000A9
__pdataCOMRAM                                      dataCOMRAM   000046
__pidataBANK0                                      idataBANK0   001E42
__pidataCOMRAM                                     idataCOMRAM  001EFE
__pivt0x8                                          ivt0x8       000008
__pnvBANK0                                         nvBANK0      0000B9
__psmallconst                                      smallconst   001000
__ptext0                                           text0        0019F0
__ptext1                                           text1        001A90
__ptext10                                          text10       00119E
__ptext11                                          text11       001602
__ptext12                                          text12       001E6A
__ptext13                                          text13       001E74
__ptext14                                          text14       001E7E
__ptext15                                          text15       001766
__ptext16                                          text16       001D92
__ptext17                                          text17       001D42
__ptext18                                          text18       0018BA
__ptext19                                          text19       001ECE
__ptext2                                           text2        0019B8
__ptext20                                          text20       001D7A
__ptext21                                          text21       00168A
__ptext22                                          text22       001E88
__ptext23                                          text23       001C00
__ptext24                                          text24       001380
__ptext25                                          text25       001C52
__ptext26                                          text26       001EDE
__ptext27                                          text27       001E92
__ptext28                                          text28       001EE4
__ptext29                                          text29       001C78
__ptext3                                           text3        001546
__ptext30                                          text30       001EEA
__ptext31                                          text31       001E9C
__ptext32                                          text32       001EA6
__ptext33                                          text33       001C2A
__ptext34                                          text34       001ED6
__ptext35                                          text35       001EB0
__ptext36                                          text36       001EBA
__ptext37                                          text37       00106C
__ptext38                                          text38       001DA8
__ptext39                                          text39       001DBE
__ptext4                                           text4        001CE8
__ptext40                                          text40       001DD4
__ptext41                                          text41       001DEA
__ptext42                                          text42       001E00
__ptext43                                          text43       001F00
__ptext44                                          text44       001902
__ptext45                                          text45       001E16
__ptext46                                          text46       001E2C
__ptext47                                          text47       001CA0
__ptext48                                          text48       001EF0
__ptext49                                          text49       001CC4
__ptext5                                           text5        001D06
__ptext50                                          text50       001EF8
__ptext51                                          text51       001F02
__ptext52                                          text52       001AC0
__ptext53                                          text53       001B7C
__ptext54                                          text54       001F04
__ptext55                                          text55       001AF0
__ptext56                                          text56       001BA8
__ptext57                                          text57       001F06
__ptext58                                          text58       001B20
__ptext59                                          text59       001BD4
__ptext6                                           text6        001D24
__ptext60                                          text60       001F08
__ptext61                                          text61       001A28
__ptext62                                          text62       00197E
__ptext63                                          text63       001870
__ptext64                                          text64       001F0A
__ptext65                                          text65       001464
__ptext66                                          text66       00181E
__ptext67                                          text67       001EC4
__ptext68                                          text68       001E52
__ptext69                                          text69       001F0C
__ptext7                                           text7        001A5E
__ptext70                                          text70       0017CC
__ptext71                                          text71       001F0E
__ptext72                                          text72       001B4E
__ptext73                                          text73       001940
__ptext74                                          text74       00128E
__ptext75                                          text75       001F10
__ptext76                                          text76       001F12
__ptext77                                          text77       000000
__ptext8                                           text8        001E60
__ptext9                                           text9        001D60
__ramtop                                           ramtop       001000
__smallconst                                       smallconst   001000
_i2c2Status                                        bssCOMRAM    000001
_main                                              text0        0019F0
_timerTMR0ReloadVal16bit                           bssCOMRAM    00001A
_uart1RxBuffer                                     bssBANK0     000080
_uart1RxCount                                      bssCOMRAM    000026
_uart1RxHead                                       bssCOMRAM    000028
_uart1RxLastError                                  bssBANK0     00008C
_uart1RxStatusBuffer                               bssBANK0     000060
_uart1RxTail                                       bssCOMRAM    000027
_uart1TxBuffer                                     bssBANK0     000070
_uart1TxBufferRemaining                            bssCOMRAM    000029
_uart1TxHead                                       bssCOMRAM    00002B
_uart1TxTail                                       bssCOMRAM    00002A
_valp                                              dataBANK0    0000A9
end_of_initialization                              cinit        001760
i1_I2C2_InterruptsEnable                           text45       001E16
intlevel0                                          text         000000
intlevel1                                          text         000000
intlevel2                                          text         000000
intlevel3                                          text         000000
isa$std                                            (abs)        000001
isa$xinst                                          (abs)        000000
ivt0x8_base                                        ivt0x8       000008
ivt0x8_undefint                                    ivt0x8       0000AC
stackhi                                            (abs)        000000
stacklo                                            (abs)        000000
start                                              init         0000AE
start_initialization                               cinit        0016FE


MODULE INFORMATION

Module		Function		Class		Link	Load	Size
mcc_generated_files/peripheral/src/uart2.c
		_UART2_Initialize		CODE           	19B8	0000	56

mcc_generated_files/peripheral/src/uart2.c estimated size: 56

mcc_generated_files/peripheral/src/i2c1.c
		_I2C1_Initialize		CODE           	18BA	0000	72

mcc_generated_files/peripheral/src/i2c1.c estimated size: 72

mcc_generated_files/system/src/interrupt.c
		_IOC_ISR       		CODE           	1EF8	0000	6
		_INT0_SetInterruptHandler		CODE           	1E7E	0000	10
		_INT1_SetInterruptHandler		CODE           	1E74	0000	10
		_INT2_SetInterruptHandler		CODE           	1E6A	0000	10
		_INTERRUPT_Initialize		CODE           	1602	0000	136
		_INT0_DefaultInterruptHandler		CODE           	1F04	0000	2
		_INT0_CallBack 		CODE           	1B7C	0000	44
		_INT1_DefaultInterruptHandler		CODE           	1F06	0000	2
		_INT1_CallBack 		CODE           	1BA8	0000	44
		_INT2_DefaultInterruptHandler		CODE           	1F08	0000	2
		_INT2_CallBack 		CODE           	1BD4	0000	44
		_Default_ISR   		CODE           	1F0C	0000	2
		_INT0_ISR      		CODE           	1AC0	0000	46
		_INT1_ISR      		CODE           	1AF0	0000	46
		_INT2_ISR      		CODE           	1B20	0000	46

mcc_generated_files/system/src/interrupt.c estimated size: 450

mcc_generated_files/adc/src/adcc.c
		_ADCC_DefaultADI_ISR		CODE           	1F0A	0000	2
		_ADCC_SetADIInterruptHandler		CODE           	1E88	0000	10
		_ADCC_ISR      		CODE           	1870	0000	74
		_ADCC_StartConversion		CODE           	1E52	0000	14
		_ADCC_Initialize		CODE           	168A	0000	116

mcc_generated_files/adc/src/adcc.c estimated size: 216

mcc_generated_files/uart/src/uart1.c
		_UART1_DefaultOverrunErrorCallback		CODE           	1F10	0000	2
		_UART1_Write   		CODE           	181E	0000	80
		_UART1_FramingErrorCallbackRegister		CODE           	1D24	0000	30
		_UART1_Transmit_Vector_ISR		CODE           	1A28	0000	54
		_UART1_Receive_Vector_ISR		CODE           	1940	0000	62
		_UART1_OverrunErrorCallbackRegister		CODE           	1D06	0000	30
		_UART1_ReceiveISR		CODE           	128E	0000	240
		_UART1_Initialize		CODE           	1546	0000	188
		_UART1_DefaultFramingErrorCallback		CODE           	1F12	0000	2
		_UART1_TransmitISR		CODE           	197E	0000	58
		_UART1_ParityErrorCallbackRegister		CODE           	1CE8	0000	30

mcc_generated_files/uart/src/uart1.c estimated size: 776

mcc_generated_files/system/src/pins.c
		_PIN_MANAGER_Initialize		CODE           	119E	0000	240
		_PIN_MANAGER_IOC		CODE           	1F02	0000	2

mcc_generated_files/system/src/pins.c estimated size: 242

Timer_int.c
		_Timer_int     		CODE           	1B4E	0000	46

Timer_int.c estimated size: 46

shared
		_SPI1          		SMALLCONST     	1045	0000	18
		_UART          		SMALLCONST     	1001	0000	48
		_Timer         		SMALLCONST     	1057	0000	12
		__initialization		CODE           	16FE	0000	98
		_I2C_Host      		SMALLCONST     	1031	0000	20
		i1_I2C2_InterruptsEnable		CODE           	1E16	0000	22
		_spi1_configuration		SMALLCONST     	0000	0000	0

shared estimated size: 218

mcc_generated_files/system/src/clock.c
		_CLOCK_Initialize		CODE           	1D7A	0000	24

mcc_generated_files/system/src/clock.c estimated size: 24

ADC_int.c
		_ADC_int       		CODE           	1464	0000	226

ADC_int.c estimated size: 226

mcc_generated_files/timer/src/tmr0.c
		_Timer_OverflowISR		CODE           	17CC	0000	82
		_Timer_Initialize		CODE           	1A5E	0000	50
		_Timer_DefaultOverflowCallback		CODE           	1F0E	0000	2
		_Timer_OverflowCallbackRegister		CODE           	1E60	0000	10

mcc_generated_files/timer/src/tmr0.c estimated size: 144

main.c
		_main          		CODE           	19F0	0000	54

main.c estimated size: 54

mcc_generated_files/fvr/src/fvr.c
		_FVR_Initialize		CODE           	1ECE	0000	8

mcc_generated_files/fvr/src/fvr.c estimated size: 8

mcc_generated_files/i2c_host/src/i2c2.c
		_I2C2_AddrTransmit		CODE           	1EA6	0000	10
		_I2C2_IsBusTimeOut		CODE           	1DD4	0000	22
		_I2C2_DefaultCallback		CODE           	1F00	0000	2
		_I2C2_StartSend		CODE           	1EEA	0000	6
		_I2C2_CallbackRegister		CODE           	1D42	0000	30
		_I2C2_RX_ISR   		CODE           	1CA0	0000	36
		_I2C2_InterruptsEnable		CODE           	1D92	0000	22
		_I2C2_CounterGet		CODE           	1EE4	0000	6
		_I2C2_CounterSet		CODE           	1E9C	0000	10
		_I2C2_ReadStart		CODE           	1C78	0000	38
		_I2C2_InterruptsClear		CODE           	1ED6	0000	8
		_I2C2_ISR      		CODE           	1380	0000	228
		_I2C2_DataReceive		CODE           	1EF0	0000	6
		_I2C2_IsData   		CODE           	1DBE	0000	22
		_I2C2_IsNack   		CODE           	1DA8	0000	22
		_I2C2_IsAddr   		CODE           	1E00	0000	22
		_I2C2_InterruptsDisable		CODE           	1E2C	0000	22
		_I2C2_BufferClear		CODE           	1EBA	0000	10
		_I2C2_BusReset 		CODE           	1902	0000	62
		_I2C2_Initialize		CODE           	1766	0000	100
		_I2C2_Close    		CODE           	1C2A	0000	40
		_I2C2_IsBusCol 		CODE           	1DEA	0000	22
		_I2C2_ERROR_ISR		CODE           	106C	0000	306
		_I2C2_ErrorFlagsClear		CODE           	1EB0	0000	10
		_I2C2_TX_ISR   		CODE           	1CC4	0000	36
		_I2C2_StopSend 		CODE           	1C52	0000	38
		_I2C2_RestartDisable		CODE           	1EDE	0000	6
		_I2C2_DataTransmit		CODE           	1E92	0000	10

mcc_generated_files/i2c_host/src/i2c2.c estimated size: 1152

mcc_generated_files/system/src/system.c
		_SYSTEM_Initialize		CODE           	1A90	0000	46

mcc_generated_files/system/src/system.c estimated size: 46

mcc_generated_files/spi/src/spi1.c
		_SPI1_ByteWrite		CODE           	1EC4	0000	10
		_SPI1_Open     		CODE           	1C00	0000	42
		_SPI1_Initialize		CODE           	1D60	0000	26

mcc_generated_files/spi/src/spi1.c estimated size: 78

